
UART-ISR-CH573.elf:     file format elf32-littleriscv
UART-ISR-CH573.elf
architecture: riscv:rv32, flags 0x00000112:
EXEC_P, HAS_SYMS, D_PAGED
start address 0x00012000

Program Header:
    LOAD off    0x00001000 vaddr 0x00012000 paddr 0x00012000 align 2**12
         filesz 0x000000ec memsz 0x000000ec flags r-x
    LOAD off    0x00002000 vaddr 0x00013000 paddr 0x00013000 align 2**12
         filesz 0x000033d0 memsz 0x000033d0 flags r-x
    LOAD off    0x00005600 vaddr 0x20005600 paddr 0x000163d0 align 2**12
         filesz 0x00000000 memsz 0x00000080 flags rw-
    LOAD off    0x00005680 vaddr 0x20005680 paddr 0x000163d0 align 2**12
         filesz 0x00000000 memsz 0x00000004 flags rw-

Sections:
Idx Name            Size      VMA       LMA       File off  Algn  Flags
  0 .init           00000004  00012000  00012000  00001000  2**1  CONTENTS, ALLOC, LOAD, READONLY, CODE
  1 .vector         000000e8  00012004  00012004  00001004  2**1  CONTENTS, ALLOC, LOAD, READONLY, CODE
  2 .highcodelalign 00000000  00013000  00013000  000053d0  2**0  CONTENTS
  3 .highcode       00000000  20005600  20005600  000053d0  2**0  CONTENTS
  4 .text           000033d0  00013000  00013000  00002000  2**3  CONTENTS, ALLOC, LOAD, READONLY, CODE
  5 .fini           00000000  000163d0  000163d0  000053d0  2**0  CONTENTS, ALLOC, LOAD, CODE
  6 .dalign         00000080  20005600  000163d0  00005600  2**0  ALLOC
  7 .dlalign        00000000  000163d0  000163d0  000053d0  2**0  CONTENTS
  8 .data           00000000  20005680  20005680  000053d0  2**0  CONTENTS, ALLOC, LOAD, DATA
  9 .bss            00000004  20005680  000163d0  00005680  2**2  ALLOC
 10 .stack          00000000  20008000  20008000  000053d0  2**0  CONTENTS
 11 .debug_info     00006190  00000000  00000000  000053d0  2**0  CONTENTS, READONLY, DEBUGGING
 12 .debug_abbrev   000014cd  00000000  00000000  0000b560  2**0  CONTENTS, READONLY, DEBUGGING
 13 .debug_loc      00002fda  00000000  00000000  0000ca2d  2**0  CONTENTS, READONLY, DEBUGGING
 14 .debug_aranges  00000230  00000000  00000000  0000fa08  2**3  CONTENTS, READONLY, DEBUGGING
 15 .debug_ranges   00000218  00000000  00000000  0000fc38  2**3  CONTENTS, READONLY, DEBUGGING
 16 .debug_line     000056bd  00000000  00000000  0000fe50  2**0  CONTENTS, READONLY, DEBUGGING
 17 .debug_str      00000c40  00000000  00000000  0001550d  2**0  CONTENTS, READONLY, DEBUGGING
 18 .comment        00000033  00000000  00000000  0001614d  2**0  CONTENTS, READONLY
 19 .debug_frame    0000067c  00000000  00000000  00016180  2**2  CONTENTS, READONLY, DEBUGGING
SYMBOL TABLE:
00012000 l    d  .init	00000000 .init
00012004 l    d  .vector	00000000 .vector
00013000 l    d  .highcodelalign	00000000 .highcodelalign
20005600 l    d  .highcode	00000000 .highcode
00013000 l    d  .text	00000000 .text
000163d0 l    d  .fini	00000000 .fini
20005600 l    d  .dalign	00000000 .dalign
000163d0 l    d  .dlalign	00000000 .dlalign
20005680 l    d  .data	00000000 .data
20005680 l    d  .bss	00000000 .bss
20008000 l    d  .stack	00000000 .stack
00000000 l    d  .debug_info	00000000 .debug_info
00000000 l    d  .debug_abbrev	00000000 .debug_abbrev
00000000 l    d  .debug_loc	00000000 .debug_loc
00000000 l    d  .debug_aranges	00000000 .debug_aranges
00000000 l    d  .debug_ranges	00000000 .debug_ranges
00000000 l    d  .debug_line	00000000 .debug_line
00000000 l    d  .debug_str	00000000 .debug_str
00000000 l    d  .comment	00000000 .comment
00000000 l    d  .debug_frame	00000000 .debug_frame
00000000 l    df *ABS*	00000000 ./obj/startup_CH573.o
00012004 l       .vector	00000000 _vector_base
00000000 l    df *ABS*	00000000 main.c
00000000 l    df *ABS*	00000000 flash.c
00000000 l    df *ABS*	00000000 gpio.c
00000000 l    df *ABS*	00000000 gec.c
00000000 l    df *ABS*	00000000 uart.c
00000000 l    df *ABS*	00000000 isr.c
00000000 l    df *ABS*	00000000 printf.c
00013c02 l     F .text	0000003c printk_putc
00013c3e l     F .text	00000082 printk_mknumstr
00013cc0 l     F .text	0000003c printk_pad_space
00000000 l    df *ABS*	00000000 libgcc2.c
00000000 l    df *ABS*	00000000 libgcc2.c
00000000 l    df *ABS*	00000000 eqdf2.c
00000000 l    df *ABS*	00000000 ledf2.c
00000000 l    df *ABS*	00000000 muldf3.c
00000000 l    df *ABS*	00000000 subdf3.c
00000000 l    df *ABS*	00000000 fixunsdfdi.c
00000000 l    df *ABS*	00000000 floatundidf.c
00000000 l    df *ABS*	00000000 libgcc2.c
00000000 l    df *ABS*	00000000 strlen.c
00000000 l    df *ABS*	00000000 libgcc2.c
0001333c g     F .text	000000cc flash_write
00014e3a g     F .text	0000006a .hidden __eqdf2
20005e80 g       .data	00000000 __global_pointer$
00000025 g       *ABS*	00000000 GEC_USER_SECTOR_END
00012098  w      .vector	00000000 HardFault_Handler
000120ac  w      .vector	00000000 GPIOB_IRQHandler
000120a8  w      .vector	00000000 GPIOA_IRQHandler
0001209c  w      .vector	00000000 SysTick_Handler
00012094  w      .vector	00000000 NMI_Handler
000120cc  w      .vector	00000000 UART1_IRQHandler
000139e4 g     F .text	000000c6 uart_enable_re_int
20005680 g       .bss	00000000 _sbss
00000012 g       *ABS*	00000000 GEC_USER_SECTOR_START
00013bc0 g     F .text	00000042 UART0_IRQHandler
00014ea4 g     F .text	000000b6 .hidden __ltdf2
00012004 g       .init	00000000 _einit
000120b4  w      .vector	00000000 BB_IRQHandler
000132c8 g     F .text	00000026 flash_erase
000132ee g     F .text	00000028 flash_Best
000120a4  w      .vector	00000000 TMR0_IRQHandler
00014aac g     F .text	0000038e .hidden __umoddi3
00014714 g     F .text	00000398 .hidden __udivdi3
00013d14 g     F .text	000002e8 printk_mkfloatstr
000120d0  w      .vector	00000000 RTC_IRQHandler
20005684 g       .bss	00000000 _ebss
00001000 g       *ABS*	00000000 MCU_SECTORSIZE
00013aaa g     F .text	00000116 uart_get_re_int
00014ea4 g     F .text	000000b6 .hidden __ledf2
20007fff g       *ABS*	00000000 GEC_USER_RAM_END
000146de g     F .text	00000036 myprintf
000120e0  w      .vector	00000000 UART2_IRQHandler
000120d8  w      .vector	00000000 PWMX_IRQHandler
00015d9a g     F .text	00000076 .hidden __clzsi2
00013630 g     F .text	00000228 uart_init
00012000 g       .init	00000000 _start
20005680 g     O .bss	00000004 component_fun
00015c06 g     F .text	00000194 .hidden __floatundidf
20005600 g       *ABS*	00000000 GEC_USER_RAM_START
000120d4  w      .vector	00000000 ADC_IRQHandler
20005600 g       .highcode	00000000 _highcode_vma_start
000120c4  w      .vector	00000000 TMR2_IRQHandler
20005680 g       .data	00000000 _data_vma
00013cfc g     F .text	00000018 out_char
000120bc  w      .vector	00000000 USB_IRQHandler
00013ffc g     F .text	000006e2 printk
00013316 g     F .text	00000026 flash_read_logic
00014f5a g     F .text	000004c8 .hidden __muldf3
00013966 g     F .text	0000007e uart_re1
000130c0 g     F .text	000000a8 memset
00013168 g     F .text	00000160 main
000134f8 g     F .text	000000b8 IRQ_OPC_CHANGE
00013000 g       .highcodelalign	00000000 _highcode_lma
00014e3a g     F .text	0000006a .hidden __nedf2
00015b68 g     F .text	0000009e .hidden __fixunsdfdi
000162d0 g     O .text	00000100 .hidden __clz_tab
000120b8  w      .vector	00000000 LLE_IRQHandler
00012000 g       .init	00000000 _sinit
000120e8  w      .vector	00000000 WDOG_BAT_IRQHandler
000120dc  w      .vector	00000000 TMR3_IRQHandler
20008000 g       .stack	00000000 _eusrstack
000120a0  w      .vector	00000000 SW_Handler
000135b0 g     F .text	00000080 Vectors_Init
20005680 g       .data	00000000 _edata
000120b0  w      .vector	00000000 SPI0_IRQHandler
20005600 g       .highcode	00000000 _highcode_vma_end
000163d0 g       .dlalign	00000000 _data_lma
00013000  w      .text	00000000 handle_reset
00015e10 g     F .text	00000012 strlen
000120e4  w      .vector	00000000 UART3_IRQHandler
00013858 g     F .text	0000010e uart_send1
00013408 g     F .text	00000072 gpio_set
0001347a g     F .text	0000007e gpio_init
00015422 g     F .text	00000746 .hidden __subdf3
000120c0  w      .vector	00000000 TMR1_IRQHandler
00000000 g       *ABS*	00000000 MCU_FLASH_ADDR_START



Disassembly of section .init:

00012000 <_sinit>:
_start():
C:\Users\liangfan\OneDrive\enbed\CH573\AHL-CH573-EXP-V1.3-20241124\03-Software\CH08\UART-ISR-CH573\Debug/srcs/startup_CH573.S:14
	.section	.init,"ax",@progbits   /*ax是 allocation  execute的缩写，表示该节区可分配并且可执行，progbits是类型*/
	.global	_start   /*将_start标签定义为全局可见*/
	.align	1   /*将当前PC地址推进到2的1次方个字节对齐的位置*/
    .option	norelax  /*	不允许链接松弛*/
_start:     /*定义此处的标签为_start*/
	j	handle_reset     /*跳转指令跳转到标签handle_reset所在的位置*/
   12000:	0000106f          	j	13000 <_highcode_lma>

Disassembly of section .vector:

00012004 <_vector_base>:
_vector_base():
   12004:	8000                	0x8000
   12006:	2000                	fld	fs0,0(s0)
   12008:	0000                	unimp
   1200a:	0000                	unimp
C:\Users\liangfan\OneDrive\enbed\CH573\AHL-CH573-EXP-V1.3-20241124\03-Software\CH08\UART-ISR-CH573\Debug/srcs/startup_CH573.S:22
    .align  1
_vector_base:
    .option norvc; /*表示接下来的汇编程序不可以被汇编生成16位宽的压缩指令*/
    .word   _eusrstack
    .word   0
        j   NMI_Handler                 /* NMI Handler */
   1200c:	0880006f          	j	12094 <NMI_Handler>
C:\Users\liangfan\OneDrive\enbed\CH573\AHL-CH573-EXP-V1.3-20241124\03-Software\CH08\UART-ISR-CH573\Debug/srcs/startup_CH573.S:23
        j   HardFault_Handler           /* Hard Fault Handler */
   12010:	0880006f          	j	12098 <HardFault_Handler>
	...
C:\Users\liangfan\OneDrive\enbed\CH573\AHL-CH573-EXP-V1.3-20241124\03-Software\CH08\UART-ISR-CH573\Debug/srcs/startup_CH573.S:32
    .word   0
    .word   0
    .word   0
    .word   0
    .word   0
        j   SysTick_Handler            /* SysTick Handler */
   12034:	0680006f          	j	1209c <SysTick_Handler>
   12038:	0000                	unimp
   1203a:	0000                	unimp
C:\Users\liangfan\OneDrive\enbed\CH573\AHL-CH573-EXP-V1.3-20241124\03-Software\CH08\UART-ISR-CH573\Debug/srcs/startup_CH573.S:34
    .word   0
        j   SW_Handler                 /* SW Handler */
   1203c:	0640006f          	j	120a0 <SW_Handler>
   12040:	0000                	unimp
   12042:	0000                	unimp
C:\Users\liangfan\OneDrive\enbed\CH573\AHL-CH573-EXP-V1.3-20241124\03-Software\CH08\UART-ISR-CH573\Debug/srcs/startup_CH573.S:37
    .word   0
    /* External Interrupts */
        j   TMR0_IRQHandler            /* 0:  TMR0 */
   12044:	0600006f          	j	120a4 <TMR0_IRQHandler>
C:\Users\liangfan\OneDrive\enbed\CH573\AHL-CH573-EXP-V1.3-20241124\03-Software\CH08\UART-ISR-CH573\Debug/srcs/startup_CH573.S:38
        j   GPIOA_IRQHandler           /* GPIOA */
   12048:	0600006f          	j	120a8 <GPIOA_IRQHandler>
C:\Users\liangfan\OneDrive\enbed\CH573\AHL-CH573-EXP-V1.3-20241124\03-Software\CH08\UART-ISR-CH573\Debug/srcs/startup_CH573.S:39
        j   GPIOB_IRQHandler           /* GPIOB */
   1204c:	0600006f          	j	120ac <GPIOB_IRQHandler>
C:\Users\liangfan\OneDrive\enbed\CH573\AHL-CH573-EXP-V1.3-20241124\03-Software\CH08\UART-ISR-CH573\Debug/srcs/startup_CH573.S:40
        j   SPI0_IRQHandler            /* SPI0 */
   12050:	0600006f          	j	120b0 <SPI0_IRQHandler>
C:\Users\liangfan\OneDrive\enbed\CH573\AHL-CH573-EXP-V1.3-20241124\03-Software\CH08\UART-ISR-CH573\Debug/srcs/startup_CH573.S:41
        j   BB_IRQHandler              /* BLEB */
   12054:	0600006f          	j	120b4 <BB_IRQHandler>
C:\Users\liangfan\OneDrive\enbed\CH573\AHL-CH573-EXP-V1.3-20241124\03-Software\CH08\UART-ISR-CH573\Debug/srcs/startup_CH573.S:42
        j   LLE_IRQHandler             /* BLEL */
   12058:	0600006f          	j	120b8 <LLE_IRQHandler>
C:\Users\liangfan\OneDrive\enbed\CH573\AHL-CH573-EXP-V1.3-20241124\03-Software\CH08\UART-ISR-CH573\Debug/srcs/startup_CH573.S:43
        j   USB_IRQHandler             /* USB */
   1205c:	0600006f          	j	120bc <USB_IRQHandler>
   12060:	0000                	unimp
   12062:	0000                	unimp
C:\Users\liangfan\OneDrive\enbed\CH573\AHL-CH573-EXP-V1.3-20241124\03-Software\CH08\UART-ISR-CH573\Debug/srcs/startup_CH573.S:45
        .word   0
        j   TMR1_IRQHandler            /* TMR1 */
   12064:	05c0006f          	j	120c0 <TMR1_IRQHandler>
C:\Users\liangfan\OneDrive\enbed\CH573\AHL-CH573-EXP-V1.3-20241124\03-Software\CH08\UART-ISR-CH573\Debug/srcs/startup_CH573.S:46
        j   TMR2_IRQHandler            /* TMR2 */
   12068:	05c0006f          	j	120c4 <TMR2_IRQHandler>
C:\Users\liangfan\OneDrive\enbed\CH573\AHL-CH573-EXP-V1.3-20241124\03-Software\CH08\UART-ISR-CH573\Debug/srcs/startup_CH573.S:47
        j   UART0_IRQHandler           /* UART0 */
   1206c:	3550106f          	j	13bc0 <UART0_IRQHandler>
C:\Users\liangfan\OneDrive\enbed\CH573\AHL-CH573-EXP-V1.3-20241124\03-Software\CH08\UART-ISR-CH573\Debug/srcs/startup_CH573.S:48
        j   UART1_IRQHandler           /* UART1 */
   12070:	05c0006f          	j	120cc <UART1_IRQHandler>
C:\Users\liangfan\OneDrive\enbed\CH573\AHL-CH573-EXP-V1.3-20241124\03-Software\CH08\UART-ISR-CH573\Debug/srcs/startup_CH573.S:49
        j   RTC_IRQHandler             /* RTC */
   12074:	05c0006f          	j	120d0 <RTC_IRQHandler>
C:\Users\liangfan\OneDrive\enbed\CH573\AHL-CH573-EXP-V1.3-20241124\03-Software\CH08\UART-ISR-CH573\Debug/srcs/startup_CH573.S:50
        j   ADC_IRQHandler             /* ADC */
   12078:	05c0006f          	j	120d4 <ADC_IRQHandler>
   1207c:	0000                	unimp
   1207e:	0000                	unimp
C:\Users\liangfan\OneDrive\enbed\CH573\AHL-CH573-EXP-V1.3-20241124\03-Software\CH08\UART-ISR-CH573\Debug/srcs/startup_CH573.S:52
        .word   0
        j   PWMX_IRQHandler            /* PWMX */
   12080:	0580006f          	j	120d8 <PWMX_IRQHandler>
C:\Users\liangfan\OneDrive\enbed\CH573\AHL-CH573-EXP-V1.3-20241124\03-Software\CH08\UART-ISR-CH573\Debug/srcs/startup_CH573.S:53
        j   TMR3_IRQHandler            /* TMR3 */
   12084:	0580006f          	j	120dc <TMR3_IRQHandler>
C:\Users\liangfan\OneDrive\enbed\CH573\AHL-CH573-EXP-V1.3-20241124\03-Software\CH08\UART-ISR-CH573\Debug/srcs/startup_CH573.S:54
        j   UART2_IRQHandler           /* UART2 */
   12088:	0580006f          	j	120e0 <UART2_IRQHandler>
C:\Users\liangfan\OneDrive\enbed\CH573\AHL-CH573-EXP-V1.3-20241124\03-Software\CH08\UART-ISR-CH573\Debug/srcs/startup_CH573.S:55
        j   UART3_IRQHandler           /* UART3 */
   1208c:	0580006f          	j	120e4 <UART3_IRQHandler>
C:\Users\liangfan\OneDrive\enbed\CH573\AHL-CH573-EXP-V1.3-20241124\03-Software\CH08\UART-ISR-CH573\Debug/srcs/startup_CH573.S:56
        j   WDOG_BAT_IRQHandler        /* WDOG_BAT */
   12090:	0580006f          	j	120e8 <WDOG_BAT_IRQHandler>

00012094 <NMI_Handler>:
NMI_Handler():
C:\Users\liangfan\OneDrive\enbed\CH573\AHL-CH573-EXP-V1.3-20241124\03-Software\CH08\UART-ISR-CH573\Debug/srcs/startup_CH573.S:84
    .weak   TMR3_IRQHandler
    .weak   UART2_IRQHandler
    .weak   UART3_IRQHandler
    .weak   WDOG_BAT_IRQHandler

NMI_Handler:  1:  j 1b     /* 在被引用之时，数字标签通常需要带上一个字母“f”或者“b”的后缀，“f”表示下一行，“b”表示向上一行*/
   12094:	0000006f          	j	12094 <NMI_Handler>

00012098 <HardFault_Handler>:
HardFault_Handler():
C:\Users\liangfan\OneDrive\enbed\CH573\AHL-CH573-EXP-V1.3-20241124\03-Software\CH08\UART-ISR-CH573\Debug/srcs/startup_CH573.S:85
HardFault_Handler:  1:  j 1b
   12098:	0000006f          	j	12098 <HardFault_Handler>

0001209c <SysTick_Handler>:
SysTick_Handler():
C:\Users\liangfan\OneDrive\enbed\CH573\AHL-CH573-EXP-V1.3-20241124\03-Software\CH08\UART-ISR-CH573\Debug/srcs/startup_CH573.S:86
SysTick_Handler:  1:  j 1b
   1209c:	0000006f          	j	1209c <SysTick_Handler>

000120a0 <SW_Handler>:
SW_Handler():
C:\Users\liangfan\OneDrive\enbed\CH573\AHL-CH573-EXP-V1.3-20241124\03-Software\CH08\UART-ISR-CH573\Debug/srcs/startup_CH573.S:87
SW_Handler:  1:  j 1b
   120a0:	0000006f          	j	120a0 <SW_Handler>

000120a4 <TMR0_IRQHandler>:
TMR0_IRQHandler():
C:\Users\liangfan\OneDrive\enbed\CH573\AHL-CH573-EXP-V1.3-20241124\03-Software\CH08\UART-ISR-CH573\Debug/srcs/startup_CH573.S:88
TMR0_IRQHandler:  1:  j 1b
   120a4:	0000006f          	j	120a4 <TMR0_IRQHandler>

000120a8 <GPIOA_IRQHandler>:
GPIOA_IRQHandler():
C:\Users\liangfan\OneDrive\enbed\CH573\AHL-CH573-EXP-V1.3-20241124\03-Software\CH08\UART-ISR-CH573\Debug/srcs/startup_CH573.S:89
GPIOA_IRQHandler:  1:  j 1b
   120a8:	0000006f          	j	120a8 <GPIOA_IRQHandler>

000120ac <GPIOB_IRQHandler>:
GPIOB_IRQHandler():
C:\Users\liangfan\OneDrive\enbed\CH573\AHL-CH573-EXP-V1.3-20241124\03-Software\CH08\UART-ISR-CH573\Debug/srcs/startup_CH573.S:90
GPIOB_IRQHandler:  1:  j 1b
   120ac:	0000006f          	j	120ac <GPIOB_IRQHandler>

000120b0 <SPI0_IRQHandler>:
SPI0_IRQHandler():
C:\Users\liangfan\OneDrive\enbed\CH573\AHL-CH573-EXP-V1.3-20241124\03-Software\CH08\UART-ISR-CH573\Debug/srcs/startup_CH573.S:91
SPI0_IRQHandler:  1:  j 1b
   120b0:	0000006f          	j	120b0 <SPI0_IRQHandler>

000120b4 <BB_IRQHandler>:
BB_IRQHandler():
C:\Users\liangfan\OneDrive\enbed\CH573\AHL-CH573-EXP-V1.3-20241124\03-Software\CH08\UART-ISR-CH573\Debug/srcs/startup_CH573.S:92
BB_IRQHandler:  1:  j 1b
   120b4:	0000006f          	j	120b4 <BB_IRQHandler>

000120b8 <LLE_IRQHandler>:
LLE_IRQHandler():
C:\Users\liangfan\OneDrive\enbed\CH573\AHL-CH573-EXP-V1.3-20241124\03-Software\CH08\UART-ISR-CH573\Debug/srcs/startup_CH573.S:93
LLE_IRQHandler:  1:  j 1b
   120b8:	0000006f          	j	120b8 <LLE_IRQHandler>

000120bc <USB_IRQHandler>:
USB_IRQHandler():
C:\Users\liangfan\OneDrive\enbed\CH573\AHL-CH573-EXP-V1.3-20241124\03-Software\CH08\UART-ISR-CH573\Debug/srcs/startup_CH573.S:94
USB_IRQHandler:  1:  j 1b
   120bc:	0000006f          	j	120bc <USB_IRQHandler>

000120c0 <TMR1_IRQHandler>:
TMR1_IRQHandler():
C:\Users\liangfan\OneDrive\enbed\CH573\AHL-CH573-EXP-V1.3-20241124\03-Software\CH08\UART-ISR-CH573\Debug/srcs/startup_CH573.S:95
TMR1_IRQHandler:  1:  j 1b
   120c0:	0000006f          	j	120c0 <TMR1_IRQHandler>

000120c4 <TMR2_IRQHandler>:
TMR2_IRQHandler():
C:\Users\liangfan\OneDrive\enbed\CH573\AHL-CH573-EXP-V1.3-20241124\03-Software\CH08\UART-ISR-CH573\Debug/srcs/startup_CH573.S:96
TMR2_IRQHandler:  1:  j 1b
   120c4:	0000006f          	j	120c4 <TMR2_IRQHandler>
C:\Users\liangfan\OneDrive\enbed\CH573\AHL-CH573-EXP-V1.3-20241124\03-Software\CH08\UART-ISR-CH573\Debug/srcs/startup_CH573.S:97
UART0_IRQHandler:  1:  j 1b
   120c8:	0000006f          	j	120c8 <TMR2_IRQHandler+0x4>

000120cc <UART1_IRQHandler>:
UART1_IRQHandler():
C:\Users\liangfan\OneDrive\enbed\CH573\AHL-CH573-EXP-V1.3-20241124\03-Software\CH08\UART-ISR-CH573\Debug/srcs/startup_CH573.S:98
UART1_IRQHandler:  1:  j 1b
   120cc:	0000006f          	j	120cc <UART1_IRQHandler>

000120d0 <RTC_IRQHandler>:
RTC_IRQHandler():
C:\Users\liangfan\OneDrive\enbed\CH573\AHL-CH573-EXP-V1.3-20241124\03-Software\CH08\UART-ISR-CH573\Debug/srcs/startup_CH573.S:99
RTC_IRQHandler:  1:  j 1b
   120d0:	0000006f          	j	120d0 <RTC_IRQHandler>

000120d4 <ADC_IRQHandler>:
ADC_IRQHandler():
C:\Users\liangfan\OneDrive\enbed\CH573\AHL-CH573-EXP-V1.3-20241124\03-Software\CH08\UART-ISR-CH573\Debug/srcs/startup_CH573.S:100
ADC_IRQHandler:  1:  j 1b
   120d4:	0000006f          	j	120d4 <ADC_IRQHandler>

000120d8 <PWMX_IRQHandler>:
PWMX_IRQHandler():
C:\Users\liangfan\OneDrive\enbed\CH573\AHL-CH573-EXP-V1.3-20241124\03-Software\CH08\UART-ISR-CH573\Debug/srcs/startup_CH573.S:101
PWMX_IRQHandler:  1:  j 1b
   120d8:	0000006f          	j	120d8 <PWMX_IRQHandler>

000120dc <TMR3_IRQHandler>:
TMR3_IRQHandler():
C:\Users\liangfan\OneDrive\enbed\CH573\AHL-CH573-EXP-V1.3-20241124\03-Software\CH08\UART-ISR-CH573\Debug/srcs/startup_CH573.S:102
TMR3_IRQHandler:  1:  j 1b
   120dc:	0000006f          	j	120dc <TMR3_IRQHandler>

000120e0 <UART2_IRQHandler>:
UART2_IRQHandler():
C:\Users\liangfan\OneDrive\enbed\CH573\AHL-CH573-EXP-V1.3-20241124\03-Software\CH08\UART-ISR-CH573\Debug/srcs/startup_CH573.S:103
UART2_IRQHandler:  1:  j 1b
   120e0:	0000006f          	j	120e0 <UART2_IRQHandler>

000120e4 <UART3_IRQHandler>:
UART3_IRQHandler():
C:\Users\liangfan\OneDrive\enbed\CH573\AHL-CH573-EXP-V1.3-20241124\03-Software\CH08\UART-ISR-CH573\Debug/srcs/startup_CH573.S:104
UART3_IRQHandler:  1:  j 1b
   120e4:	0000006f          	j	120e4 <UART3_IRQHandler>

000120e8 <WDOG_BAT_IRQHandler>:
WDOG_BAT_IRQHandler():
C:\Users\liangfan\OneDrive\enbed\CH573\AHL-CH573-EXP-V1.3-20241124\03-Software\CH08\UART-ISR-CH573\Debug/srcs/startup_CH573.S:105
WDOG_BAT_IRQHandler:  1:  j 1b
   120e8:	0000006f          	j	120e8 <WDOG_BAT_IRQHandler>

Disassembly of section .text:

00013000 <handle_reset>:
handle_reset():
C:\Users\liangfan\OneDrive\enbed\CH573\AHL-CH573-EXP-V1.3-20241124\03-Software\CH08\UART-ISR-CH573\Debug/srcs/startup_CH573.S:113
	.weak	handle_reset
	.align	1
handle_reset:
.option push 
.option	norelax 
	la gp, __global_pointer$
   13000:	1fff3197          	auipc	gp,0x1fff3
   13004:	e8018193          	addi	gp,gp,-384 # 20005e80 <__global_pointer$>
C:\Users\liangfan\OneDrive\enbed\CH573\AHL-CH573-EXP-V1.3-20241124\03-Software\CH08\UART-ISR-CH573\Debug/srcs/startup_CH573.S:116
.option	pop 
1:
	la sp, _eusrstack 
   13008:	1fff5117          	auipc	sp,0x1fff5
   1300c:	ff810113          	addi	sp,sp,-8 # 20008000 <_eusrstack>
C:\Users\liangfan\OneDrive\enbed\CH573\AHL-CH573-EXP-V1.3-20241124\03-Software\CH08\UART-ISR-CH573\Debug/srcs/startup_CH573.S:120

/* Load highcode code  section from flash to RAM */
2:
    la a0, _highcode_lma
   13010:	00000517          	auipc	a0,0x0
   13014:	ff050513          	addi	a0,a0,-16 # 13000 <handle_reset>
C:\Users\liangfan\OneDrive\enbed\CH573\AHL-CH573-EXP-V1.3-20241124\03-Software\CH08\UART-ISR-CH573\Debug/srcs/startup_CH573.S:121
    la a1, _highcode_vma_start
   13018:	1fff2597          	auipc	a1,0x1fff2
   1301c:	5e858593          	addi	a1,a1,1512 # 20005600 <GEC_USER_RAM_START>
C:\Users\liangfan\OneDrive\enbed\CH573\AHL-CH573-EXP-V1.3-20241124\03-Software\CH08\UART-ISR-CH573\Debug/srcs/startup_CH573.S:122
    la a2, _highcode_vma_end
   13020:	1fff2617          	auipc	a2,0x1fff2
   13024:	5e060613          	addi	a2,a2,1504 # 20005600 <GEC_USER_RAM_START>
C:\Users\liangfan\OneDrive\enbed\CH573\AHL-CH573-EXP-V1.3-20241124\03-Software\CH08\UART-ISR-CH573\Debug/srcs/startup_CH573.S:123
    bgeu a1, a2, 2f
   13028:	00c5fc63          	bgeu	a1,a2,13040 <handle_reset+0x40>
C:\Users\liangfan\OneDrive\enbed\CH573\AHL-CH573-EXP-V1.3-20241124\03-Software\CH08\UART-ISR-CH573\Debug/srcs/startup_CH573.S:125
1:
    lw t0, (a0)
   1302c:	00052283          	lw	t0,0(a0)
C:\Users\liangfan\OneDrive\enbed\CH573\AHL-CH573-EXP-V1.3-20241124\03-Software\CH08\UART-ISR-CH573\Debug/srcs/startup_CH573.S:126
    sw t0, (a1)
   13030:	0055a023          	sw	t0,0(a1)
C:\Users\liangfan\OneDrive\enbed\CH573\AHL-CH573-EXP-V1.3-20241124\03-Software\CH08\UART-ISR-CH573\Debug/srcs/startup_CH573.S:127
    addi a0, a0, 4
   13034:	00450513          	addi	a0,a0,4
C:\Users\liangfan\OneDrive\enbed\CH573\AHL-CH573-EXP-V1.3-20241124\03-Software\CH08\UART-ISR-CH573\Debug/srcs/startup_CH573.S:128
    addi a1, a1, 4
   13038:	00458593          	addi	a1,a1,4
C:\Users\liangfan\OneDrive\enbed\CH573\AHL-CH573-EXP-V1.3-20241124\03-Software\CH08\UART-ISR-CH573\Debug/srcs/startup_CH573.S:129
    bltu a1, a2, 1b
   1303c:	fec5e8e3          	bltu	a1,a2,1302c <handle_reset+0x2c>
C:\Users\liangfan\OneDrive\enbed\CH573\AHL-CH573-EXP-V1.3-20241124\03-Software\CH08\UART-ISR-CH573\Debug/srcs/startup_CH573.S:133

/* Load data section from flash to RAM */
2:
	la a0, _data_lma
   13040:	00003517          	auipc	a0,0x3
   13044:	39050513          	addi	a0,a0,912 # 163d0 <_data_lma>
C:\Users\liangfan\OneDrive\enbed\CH573\AHL-CH573-EXP-V1.3-20241124\03-Software\CH08\UART-ISR-CH573\Debug/srcs/startup_CH573.S:134
	la a1, _data_vma
   13048:	1fff2597          	auipc	a1,0x1fff2
   1304c:	63858593          	addi	a1,a1,1592 # 20005680 <_data_vma>
C:\Users\liangfan\OneDrive\enbed\CH573\AHL-CH573-EXP-V1.3-20241124\03-Software\CH08\UART-ISR-CH573\Debug/srcs/startup_CH573.S:135
	la a2, _edata
   13050:	1fff2617          	auipc	a2,0x1fff2
   13054:	63060613          	addi	a2,a2,1584 # 20005680 <_data_vma>
C:\Users\liangfan\OneDrive\enbed\CH573\AHL-CH573-EXP-V1.3-20241124\03-Software\CH08\UART-ISR-CH573\Debug/srcs/startup_CH573.S:136
	bgeu a1, a2, 2f
   13058:	00c5fc63          	bgeu	a1,a2,13070 <handle_reset+0x70>
C:\Users\liangfan\OneDrive\enbed\CH573\AHL-CH573-EXP-V1.3-20241124\03-Software\CH08\UART-ISR-CH573\Debug/srcs/startup_CH573.S:138
1:
	lw t0, (a0)
   1305c:	00052283          	lw	t0,0(a0)
C:\Users\liangfan\OneDrive\enbed\CH573\AHL-CH573-EXP-V1.3-20241124\03-Software\CH08\UART-ISR-CH573\Debug/srcs/startup_CH573.S:139
	sw t0, (a1)
   13060:	0055a023          	sw	t0,0(a1)
C:\Users\liangfan\OneDrive\enbed\CH573\AHL-CH573-EXP-V1.3-20241124\03-Software\CH08\UART-ISR-CH573\Debug/srcs/startup_CH573.S:140
	addi a0, a0, 4
   13064:	00450513          	addi	a0,a0,4
C:\Users\liangfan\OneDrive\enbed\CH573\AHL-CH573-EXP-V1.3-20241124\03-Software\CH08\UART-ISR-CH573\Debug/srcs/startup_CH573.S:141
	addi a1, a1, 4
   13068:	00458593          	addi	a1,a1,4
C:\Users\liangfan\OneDrive\enbed\CH573\AHL-CH573-EXP-V1.3-20241124\03-Software\CH08\UART-ISR-CH573\Debug/srcs/startup_CH573.S:142
	bltu a1, a2, 1b
   1306c:	fec5e8e3          	bltu	a1,a2,1305c <handle_reset+0x5c>
C:\Users\liangfan\OneDrive\enbed\CH573\AHL-CH573-EXP-V1.3-20241124\03-Software\CH08\UART-ISR-CH573\Debug/srcs/startup_CH573.S:145
2:
	/* clear bss section */
	la a0, _sbss
   13070:	1fff2517          	auipc	a0,0x1fff2
   13074:	61050513          	addi	a0,a0,1552 # 20005680 <_data_vma>
C:\Users\liangfan\OneDrive\enbed\CH573\AHL-CH573-EXP-V1.3-20241124\03-Software\CH08\UART-ISR-CH573\Debug/srcs/startup_CH573.S:146
	la a1, _ebss
   13078:	1fff2597          	auipc	a1,0x1fff2
   1307c:	60c58593          	addi	a1,a1,1548 # 20005684 <_ebss>
C:\Users\liangfan\OneDrive\enbed\CH573\AHL-CH573-EXP-V1.3-20241124\03-Software\CH08\UART-ISR-CH573\Debug/srcs/startup_CH573.S:147
	bgeu a0, a1, 2f
   13080:	00b57863          	bgeu	a0,a1,13090 <handle_reset+0x90>
C:\Users\liangfan\OneDrive\enbed\CH573\AHL-CH573-EXP-V1.3-20241124\03-Software\CH08\UART-ISR-CH573\Debug/srcs/startup_CH573.S:149
1:
	sw zero, (a0)
   13084:	00052023          	sw	zero,0(a0)
C:\Users\liangfan\OneDrive\enbed\CH573\AHL-CH573-EXP-V1.3-20241124\03-Software\CH08\UART-ISR-CH573\Debug/srcs/startup_CH573.S:150
	addi a0, a0, 4
   13088:	00450513          	addi	a0,a0,4
C:\Users\liangfan\OneDrive\enbed\CH573\AHL-CH573-EXP-V1.3-20241124\03-Software\CH08\UART-ISR-CH573\Debug/srcs/startup_CH573.S:151
	bltu a0, a1, 1b
   1308c:	feb56ce3          	bltu	a0,a1,13084 <handle_reset+0x84>
C:\Users\liangfan\OneDrive\enbed\CH573\AHL-CH573-EXP-V1.3-20241124\03-Software\CH08\UART-ISR-CH573\Debug/srcs/startup_CH573.S:153
2:
    li t0, 0x1880
   13090:	000022b7          	lui	t0,0x2
   13094:	88028293          	addi	t0,t0,-1920 # 1880 <MCU_SECTORSIZE+0x880>
C:\Users\liangfan\OneDrive\enbed\CH573\AHL-CH573-EXP-V1.3-20241124\03-Software\CH08\UART-ISR-CH573\Debug/srcs/startup_CH573.S:154
    csrs mstatus, t0
   13098:	3002a073          	csrs	mstatus,t0
C:\Users\liangfan\OneDrive\enbed\CH573\AHL-CH573-EXP-V1.3-20241124\03-Software\CH08\UART-ISR-CH573\Debug/srcs/startup_CH573.S:156

    jal  Vectors_Init	    /* 跳转并链接到Vectors_Init函数，Vectors_Init：User对BIOS中断向量表的部分继承,构件库函数指针初始化 */		
   1309c:	514000ef          	jal	ra,135b0 <Vectors_Init>
C:\Users\liangfan\OneDrive\enbed\CH573\AHL-CH573-EXP-V1.3-20241124\03-Software\CH08\UART-ISR-CH573\Debug/srcs/startup_CH573.S:157
	la t0, _vector_base
   130a0:	fffff297          	auipc	t0,0xfffff
   130a4:	f6428293          	addi	t0,t0,-156 # 12004 <_einit>
C:\Users\liangfan\OneDrive\enbed\CH573\AHL-CH573-EXP-V1.3-20241124\03-Software\CH08\UART-ISR-CH573\Debug/srcs/startup_CH573.S:158
    ori t0, t0, 1
   130a8:	0012e293          	ori	t0,t0,1
C:\Users\liangfan\OneDrive\enbed\CH573\AHL-CH573-EXP-V1.3-20241124\03-Software\CH08\UART-ISR-CH573\Debug/srcs/startup_CH573.S:159
	csrw mtvec, t0
   130ac:	30529073          	csrw	mtvec,t0
C:\Users\liangfan\OneDrive\enbed\CH573\AHL-CH573-EXP-V1.3-20241124\03-Software\CH08\UART-ISR-CH573\Debug/srcs/startup_CH573.S:160
	la t0, main
   130b0:	00000297          	auipc	t0,0x0
   130b4:	0b828293          	addi	t0,t0,184 # 13168 <main>
C:\Users\liangfan\OneDrive\enbed\CH573\AHL-CH573-EXP-V1.3-20241124\03-Software\CH08\UART-ISR-CH573\Debug/srcs/startup_CH573.S:161
	csrw mepc, t0
   130b8:	34129073          	csrw	mepc,t0
C:\Users\liangfan\OneDrive\enbed\CH573\AHL-CH573-EXP-V1.3-20241124\03-Software\CH08\UART-ISR-CH573\Debug/srcs/startup_CH573.S:168
	/* enable vector relocation
	li t0, 0xE000ED14
	li t1, 1
	sw t1, 0(t0)*/
	
	mret
   130bc:	30200073          	mret

000130c0 <memset>:
memset():
   130c0:	433d                	li	t1,15
   130c2:	872a                	mv	a4,a0
   130c4:	02c37363          	bgeu	t1,a2,130ea <memset+0x2a>
   130c8:	00f77793          	andi	a5,a4,15
   130cc:	efbd                	bnez	a5,1314a <memset+0x8a>
   130ce:	e5ad                	bnez	a1,13138 <memset+0x78>
   130d0:	ff067693          	andi	a3,a2,-16
   130d4:	8a3d                	andi	a2,a2,15
   130d6:	96ba                	add	a3,a3,a4
   130d8:	c30c                	sw	a1,0(a4)
   130da:	c34c                	sw	a1,4(a4)
   130dc:	c70c                	sw	a1,8(a4)
   130de:	c74c                	sw	a1,12(a4)
   130e0:	0741                	addi	a4,a4,16
   130e2:	fed76be3          	bltu	a4,a3,130d8 <memset+0x18>
   130e6:	e211                	bnez	a2,130ea <memset+0x2a>
   130e8:	8082                	ret
   130ea:	40c306b3          	sub	a3,t1,a2
   130ee:	068a                	slli	a3,a3,0x2
   130f0:	00000297          	auipc	t0,0x0
   130f4:	9696                	add	a3,a3,t0
   130f6:	00a68067          	jr	10(a3)
   130fa:	00b70723          	sb	a1,14(a4)
   130fe:	00b706a3          	sb	a1,13(a4)
   13102:	00b70623          	sb	a1,12(a4)
   13106:	00b705a3          	sb	a1,11(a4)
   1310a:	00b70523          	sb	a1,10(a4)
   1310e:	00b704a3          	sb	a1,9(a4)
   13112:	00b70423          	sb	a1,8(a4)
   13116:	00b703a3          	sb	a1,7(a4)
   1311a:	00b70323          	sb	a1,6(a4)
   1311e:	00b702a3          	sb	a1,5(a4)
   13122:	00b70223          	sb	a1,4(a4)
   13126:	00b701a3          	sb	a1,3(a4)
   1312a:	00b70123          	sb	a1,2(a4)
   1312e:	00b700a3          	sb	a1,1(a4)
   13132:	00b70023          	sb	a1,0(a4)
   13136:	8082                	ret
   13138:	0ff5f593          	andi	a1,a1,255
   1313c:	00859693          	slli	a3,a1,0x8
   13140:	8dd5                	or	a1,a1,a3
   13142:	01059693          	slli	a3,a1,0x10
   13146:	8dd5                	or	a1,a1,a3
   13148:	b761                	j	130d0 <memset+0x10>
   1314a:	00279693          	slli	a3,a5,0x2
   1314e:	00000297          	auipc	t0,0x0
   13152:	9696                	add	a3,a3,t0
   13154:	8286                	mv	t0,ra
   13156:	fa8680e7          	jalr	-88(a3)
   1315a:	8096                	mv	ra,t0
   1315c:	17c1                	addi	a5,a5,-16
   1315e:	8f1d                	sub	a4,a4,a5
   13160:	963e                	add	a2,a2,a5
   13162:	f8c374e3          	bgeu	t1,a2,130ea <memset+0x2a>
   13166:	b7a5                	j	130ce <memset+0xe>

00013168 <main>:
main():
C:\Users\liangfan\OneDrive\enbed\CH573\AHL-CH573-EXP-V1.3-20241124\03-Software\CH08\UART-ISR-CH573\Debug/srcc/main.c:16

//main.c使用的内部函数声明处---------------------------------------------

//主函数，一般情况下可以认为程序从此开始运行（实际上有启动过程）-----------
int main(void)  //main函数（开头）
{
   13168:	7179                	addi	sp,sp,-48
   1316a:	d606                	sw	ra,44(sp)
   1316c:	d422                	sw	s0,40(sp)
   1316e:	d226                	sw	s1,36(sp)
   13170:	d04a                	sw	s2,32(sp)
   13172:	ce4e                	sw	s3,28(sp)
   13174:	cc52                	sw	s4,24(sp)
   13176:	ca56                	sw	s5,20(sp)
   13178:	c85a                	sw	s6,16(sp)
C:\Users\liangfan\OneDrive\enbed\CH573\AHL-CH573-EXP-V1.3-20241124\03-Software\CH08\UART-ISR-CH573\Debug/srcc/main.c:17
    printf("------------------------------------------------------------\n");   
   1317a:	00003517          	auipc	a0,0x3
   1317e:	cea50513          	addi	a0,a0,-790 # 15e64 <strlen+0x54>
   13182:	00001097          	auipc	ra,0x1
   13186:	55c080e7          	jalr	1372(ra) # 146de <myprintf>
C:\Users\liangfan\OneDrive\enbed\CH573\AHL-CH573-EXP-V1.3-20241124\03-Software\CH08\UART-ISR-CH573\Debug/srcc/main.c:18
    printf("★金葫芦提示★                                               \n");
   1318a:	00003517          	auipc	a0,0x3
   1318e:	d1a50513          	addi	a0,a0,-742 # 15ea4 <strlen+0x94>
   13192:	00001097          	auipc	ra,0x1
   13196:	54c080e7          	jalr	1356(ra) # 146de <myprintf>
C:\Users\liangfan\OneDrive\enbed\CH573\AHL-CH573-EXP-V1.3-20241124\03-Software\CH08\UART-ISR-CH573\Debug/srcc/main.c:19
    printf("【中文名称】GEC的NOS编程框架（UART构件测试样例）              \n");
   1319a:	00003517          	auipc	a0,0x3
   1319e:	d4a50513          	addi	a0,a0,-694 # 15ee4 <strlen+0xd4>
   131a2:	00001097          	auipc	ra,0x1
   131a6:	53c080e7          	jalr	1340(ra) # 146de <myprintf>
C:\Users\liangfan\OneDrive\enbed\CH573\AHL-CH573-EXP-V1.3-20241124\03-Software\CH08\UART-ISR-CH573\Debug/srcc/main.c:20
	printf("【程序功能】                                                 \n");
   131aa:	00003517          	auipc	a0,0x3
   131ae:	d7a50513          	addi	a0,a0,-646 # 15f24 <strlen+0x114>
   131b2:	00001097          	auipc	ra,0x1
   131b6:	52c080e7          	jalr	1324(ra) # 146de <myprintf>
C:\Users\liangfan\OneDrive\enbed\CH573\AHL-CH573-EXP-V1.3-20241124\03-Software\CH08\UART-ISR-CH573\Debug/srcc/main.c:21
	printf("     ① 蓝色闪烁；                                           \n");
   131ba:	00003517          	auipc	a0,0x3
   131be:	daa50513          	addi	a0,a0,-598 # 15f64 <strlen+0x154>
   131c2:	00001097          	auipc	ra,0x1
   131c6:	51c080e7          	jalr	1308(ra) # 146de <myprintf>
C:\Users\liangfan\OneDrive\enbed\CH573\AHL-CH573-EXP-V1.3-20241124\03-Software\CH08\UART-ISR-CH573\Debug/srcc/main.c:22
	printf("     ② 用户串口以中断方式接收一个字节，回发一个字节。         \n");
   131ca:	00003517          	auipc	a0,0x3
   131ce:	dda50513          	addi	a0,a0,-550 # 15fa4 <strlen+0x194>
   131d2:	00001097          	auipc	ra,0x1
   131d6:	50c080e7          	jalr	1292(ra) # 146de <myprintf>
C:\Users\liangfan\OneDrive\enbed\CH573\AHL-CH573-EXP-V1.3-20241124\03-Software\CH08\UART-ISR-CH573\Debug/srcc/main.c:23
    printf("【硬件连接】见本工程05_UserBoard文件夹下user.h文件            \n");
   131da:	00003517          	auipc	a0,0x3
   131de:	e0e50513          	addi	a0,a0,-498 # 15fe8 <strlen+0x1d8>
   131e2:	00001097          	auipc	ra,0x1
   131e6:	4fc080e7          	jalr	1276(ra) # 146de <myprintf>
C:\Users\liangfan\OneDrive\enbed\CH573\AHL-CH573-EXP-V1.3-20241124\03-Software\CH08\UART-ISR-CH573\Debug/srcc/main.c:24
    printf("【操作说明】通过菜单栏“工具”→“串口工具”                   \n");
   131ea:	00003517          	auipc	a0,0x3
   131ee:	e3e50513          	addi	a0,a0,-450 # 16028 <strlen+0x218>
   131f2:	00001097          	auipc	ra,0x1
   131f6:	4ec080e7          	jalr	1260(ra) # 146de <myprintf>
C:\Users\liangfan\OneDrive\enbed\CH573\AHL-CH573-EXP-V1.3-20241124\03-Software\CH08\UART-ISR-CH573\Debug/srcc/main.c:25
    printf("-----------------------------------------------------------\n\0"); 
   131fa:	00003517          	auipc	a0,0x3
   131fe:	c2a50513          	addi	a0,a0,-982 # 15e24 <strlen+0x14>
   13202:	00001097          	auipc	ra,0x1
   13206:	4dc080e7          	jalr	1244(ra) # 146de <myprintf>
C:\Users\liangfan\OneDrive\enbed\CH573\AHL-CH573-EXP-V1.3-20241124\03-Software\CH08\UART-ISR-CH573\Debug/srcc/main.c:34
    vuint32_t mMainLoopCount; //主循环次数变量（主循环临时变量以m作为前缀）
    uint8_t   mFlag;          //灯的状态标志
    uint32_t  mLightCount;    //灯的状态切换次数
    
    //（1.2）【不变】关总中断
    DISABLE_INTERRUPTS;
   1320a:	42a1                	li	t0,8
   1320c:	3002b073          	csrc	mstatus,t0
C:\Users\liangfan\OneDrive\enbed\CH573\AHL-CH573-EXP-V1.3-20241124\03-Software\CH08\UART-ISR-CH573\Debug/srcc/main.c:37
    
    //（1.3）【根据本函数所用的变量赋初值】给主函数使用的局部变量赋初值
    mMainLoopCount=0;    //主循环次数变量
   13210:	c602                	sw	zero,12(sp)
C:\Users\liangfan\OneDrive\enbed\CH573\AHL-CH573-EXP-V1.3-20241124\03-Software\CH08\UART-ISR-CH573\Debug/srcc/main.c:45
    
    //（1.4）【根据includes.h文件中声明的全局变量】给全局变量赋初值
    
    //（1.5）【根据所用到的外部硬件设备】进行用户外设模块初始化
    //（1.5.1）初始化蓝灯 
    gpio_init(LIGHT_BLUE,GPIO_OUTPUT,LIGHT_ON);	
   13212:	4601                	li	a2,0
   13214:	4585                	li	a1,1
   13216:	10e00513          	li	a0,270
   1321a:	00000097          	auipc	ra,0x0
   1321e:	260080e7          	jalr	608(ra) # 1347a <gpio_init>
C:\Users\liangfan\OneDrive\enbed\CH573\AHL-CH573-EXP-V1.3-20241124\03-Software\CH08\UART-ISR-CH573\Debug/srcc/main.c:47
    //（1.5.2）用户串口初始化
    uart_init(UART_User, 115200);
   13222:	65f1                	lui	a1,0x1c
   13224:	20058593          	addi	a1,a1,512 # 1c200 <_data_lma+0x5e30>
   13228:	4501                	li	a0,0
   1322a:	00000097          	auipc	ra,0x0
   1322e:	406080e7          	jalr	1030(ra) # 13630 <uart_init>
C:\Users\liangfan\OneDrive\enbed\CH573\AHL-CH573-EXP-V1.3-20241124\03-Software\CH08\UART-ISR-CH573\Debug/srcc/main.c:50

    //（1.6）【根据所使用的硬件模块中断】使能模块中断
    uart_enable_re_int(UART_User);     //使能用户串口接收中断
   13232:	4501                	li	a0,0
   13234:	00000097          	auipc	ra,0x0
   13238:	7b0080e7          	jalr	1968(ra) # 139e4 <uart_enable_re_int>
C:\Users\liangfan\OneDrive\enbed\CH573\AHL-CH573-EXP-V1.3-20241124\03-Software\CH08\UART-ISR-CH573\Debug/srcc/main.c:53

    //（1.7）【不变】开总中断
    ENABLE_INTERRUPTS;
   1323c:	42a1                	li	t0,8
   1323e:	3002a073          	csrs	mstatus,t0
C:\Users\liangfan\OneDrive\enbed\CH573\AHL-CH573-EXP-V1.3-20241124\03-Software\CH08\UART-ISR-CH573\Debug/srcc/main.c:39
    mLightCount=0;       //灯的闪烁次数
   13242:	4901                	li	s2,0
C:\Users\liangfan\OneDrive\enbed\CH573\AHL-CH573-EXP-V1.3-20241124\03-Software\CH08\UART-ISR-CH573\Debug/srcc/main.c:38
    mFlag='A';           //灯的状态标志
   13244:	04100713          	li	a4,65
C:\Users\liangfan\OneDrive\enbed\CH573\AHL-CH573-EXP-V1.3-20241124\03-Software\CH08\UART-ISR-CH573\Debug/srcc/main.c:64
   while(1)   //while无限循环（开头）
   {
       //（2.1）主循环次数变量+1
       mMainLoopCount++;
       //（2.2）未达到主循环次数设定值，继续循环
       if (mMainLoopCount<=MAINLOOP_COUNT) continue; //宏常数在user.h中定义
   13248:	00219437          	lui	s0,0x219
   1324c:	1c040413          	addi	s0,s0,448 # 2191c0 <_data_lma+0x202df0>
C:\Users\liangfan\OneDrive\enbed\CH573\AHL-CH573-EXP-V1.3-20241124\03-Software\CH08\UART-ISR-CH573\Debug/srcc/main.c:69
       //（2.3）达到主循环次数设定值，执行下列语句，进行灯的亮暗处理
       //（2.3.1）清除循环次数变量
       mMainLoopCount=0; 
       //（2.3.2）根据灯的状态标志mFlag是否'L'进行操作
       if (mFlag=='L')  //若为'L'，置灯亮，灯闪烁次数+1，改变灯状态标志
   13250:	04c00493          	li	s1,76
C:\Users\liangfan\OneDrive\enbed\CH573\AHL-CH573-EXP-V1.3-20241124\03-Software\CH08\UART-ISR-CH573\Debug/srcc/main.c:80
           mFlag='A';   //改变灯状态标志为'A'，下一循环使用
        }
        else            //若不为'L'（即为'A')
        {
           gpio_set(LIGHT_BLUE,LIGHT_OFF);
           printf(" LIGHT_BLUE:OFF  \n");  
   13254:	00003997          	auipc	s3,0x3
   13258:	e4c98993          	addi	s3,s3,-436 # 160a0 <strlen+0x290>
C:\Users\liangfan\OneDrive\enbed\CH573\AHL-CH573-EXP-V1.3-20241124\03-Software\CH08\UART-ISR-CH573\Debug/srcc/main.c:72
           printf(" LIGHT_BLUE:ON   \n");      //输出提示
   1325c:	00003b17          	auipc	s6,0x3
   13260:	e10b0b13          	addi	s6,s6,-496 # 1606c <strlen+0x25c>
C:\Users\liangfan\OneDrive\enbed\CH573\AHL-CH573-EXP-V1.3-20241124\03-Software\CH08\UART-ISR-CH573\Debug/srcc/main.c:74
           printf(" 灯闪烁次数mLightCount = %d\n\n",mLightCount);
   13264:	00003a97          	auipc	s5,0x3
   13268:	e1ca8a93          	addi	s5,s5,-484 # 16080 <strlen+0x270>
C:\Users\liangfan\OneDrive\enbed\CH573\AHL-CH573-EXP-V1.3-20241124\03-Software\CH08\UART-ISR-CH573\Debug/srcc/main.c:75
           mFlag='A';   //改变灯状态标志为'A'，下一循环使用
   1326c:	04100a13          	li	s4,65
   13270:	a831                	j	1328c <main+0x124>
C:\Users\liangfan\OneDrive\enbed\CH573\AHL-CH573-EXP-V1.3-20241124\03-Software\CH08\UART-ISR-CH573\Debug/srcc/main.c:79
           gpio_set(LIGHT_BLUE,LIGHT_OFF);
   13272:	4585                	li	a1,1
   13274:	10e00513          	li	a0,270
   13278:	00000097          	auipc	ra,0x0
   1327c:	190080e7          	jalr	400(ra) # 13408 <gpio_set>
C:\Users\liangfan\OneDrive\enbed\CH573\AHL-CH573-EXP-V1.3-20241124\03-Software\CH08\UART-ISR-CH573\Debug/srcc/main.c:80
           printf(" LIGHT_BLUE:OFF  \n");  
   13280:	854e                	mv	a0,s3
   13282:	00001097          	auipc	ra,0x1
   13286:	45c080e7          	jalr	1116(ra) # 146de <myprintf>
C:\Users\liangfan\OneDrive\enbed\CH573\AHL-CH573-EXP-V1.3-20241124\03-Software\CH08\UART-ISR-CH573\Debug/srcc/main.c:81
           mFlag='L';            
   1328a:	8726                	mv	a4,s1
C:\Users\liangfan\OneDrive\enbed\CH573\AHL-CH573-EXP-V1.3-20241124\03-Software\CH08\UART-ISR-CH573\Debug/srcc/main.c:62
       mMainLoopCount++;
   1328c:	47b2                	lw	a5,12(sp)
   1328e:	0785                	addi	a5,a5,1
   13290:	c63e                	sw	a5,12(sp)
C:\Users\liangfan\OneDrive\enbed\CH573\AHL-CH573-EXP-V1.3-20241124\03-Software\CH08\UART-ISR-CH573\Debug/srcc/main.c:64
       if (mMainLoopCount<=MAINLOOP_COUNT) continue; //宏常数在user.h中定义
   13292:	47b2                	lw	a5,12(sp)
   13294:	fef47ce3          	bgeu	s0,a5,1328c <main+0x124>
C:\Users\liangfan\OneDrive\enbed\CH573\AHL-CH573-EXP-V1.3-20241124\03-Software\CH08\UART-ISR-CH573\Debug/srcc/main.c:67
       mMainLoopCount=0; 
   13298:	c602                	sw	zero,12(sp)
C:\Users\liangfan\OneDrive\enbed\CH573\AHL-CH573-EXP-V1.3-20241124\03-Software\CH08\UART-ISR-CH573\Debug/srcc/main.c:69
       if (mFlag=='L')  //若为'L'，置灯亮，灯闪烁次数+1，改变灯状态标志
   1329a:	fc971ce3          	bne	a4,s1,13272 <main+0x10a>
C:\Users\liangfan\OneDrive\enbed\CH573\AHL-CH573-EXP-V1.3-20241124\03-Software\CH08\UART-ISR-CH573\Debug/srcc/main.c:71
           gpio_set(LIGHT_BLUE,LIGHT_ON);      //置灯亮
   1329e:	4581                	li	a1,0
   132a0:	10e00513          	li	a0,270
   132a4:	00000097          	auipc	ra,0x0
   132a8:	164080e7          	jalr	356(ra) # 13408 <gpio_set>
C:\Users\liangfan\OneDrive\enbed\CH573\AHL-CH573-EXP-V1.3-20241124\03-Software\CH08\UART-ISR-CH573\Debug/srcc/main.c:72
           printf(" LIGHT_BLUE:ON   \n");      //输出提示
   132ac:	855a                	mv	a0,s6
   132ae:	00001097          	auipc	ra,0x1
   132b2:	430080e7          	jalr	1072(ra) # 146de <myprintf>
C:\Users\liangfan\OneDrive\enbed\CH573\AHL-CH573-EXP-V1.3-20241124\03-Software\CH08\UART-ISR-CH573\Debug/srcc/main.c:73
           mLightCount++;                       //灯闪烁次数+1
   132b6:	0905                	addi	s2,s2,1
C:\Users\liangfan\OneDrive\enbed\CH573\AHL-CH573-EXP-V1.3-20241124\03-Software\CH08\UART-ISR-CH573\Debug/srcc/main.c:74
           printf(" 灯闪烁次数mLightCount = %d\n\n",mLightCount);
   132b8:	85ca                	mv	a1,s2
   132ba:	8556                	mv	a0,s5
   132bc:	00001097          	auipc	ra,0x1
   132c0:	422080e7          	jalr	1058(ra) # 146de <myprintf>
C:\Users\liangfan\OneDrive\enbed\CH573\AHL-CH573-EXP-V1.3-20241124\03-Software\CH08\UART-ISR-CH573\Debug/srcc/main.c:75
           mFlag='A';   //改变灯状态标志为'A'，下一循环使用
   132c4:	8752                	mv	a4,s4
   132c6:	b7d9                	j	1328c <main+0x124>

000132c8 <flash_erase>:
flash_erase():
C:\Users\liangfan\OneDrive\enbed\CH573\AHL-CH573-EXP-V1.3-20241124\03-Software\CH08\UART-ISR-CH573\Debug/srcc/flash.c:66
//函数返回：函数执行执行状态：0=正常；1=异常。
//参数说明：sect：目标扇区号（范围取决于实际芯片
//功能概要：擦除flash存储器的sect扇区
//======================================================================
uint8_t flash_erase(uint16_t sect)
{
   132c8:	1141                	addi	sp,sp,-16
   132ca:	c606                	sw	ra,12(sp)
C:\Users\liangfan\OneDrive\enbed\CH573\AHL-CH573-EXP-V1.3-20241124\03-Software\CH08\UART-ISR-CH573\Debug/srcc/flash.c:70
    uint32_t StartAddr;
    uint8_t flag;
    StartAddr = (uint32_t)(sect * Flash_Sect_size + Flash_Address);
    flag = FLASH_ROM_ERASE(StartAddr,4096);
   132cc:	1fff2797          	auipc	a5,0x1fff2
   132d0:	3b478793          	addi	a5,a5,948 # 20005680 <_data_vma>
   132d4:	439c                	lw	a5,0(a5)
   132d6:	57fc                	lw	a5,108(a5)
   132d8:	6685                	lui	a3,0x1
   132da:	4601                	li	a2,0
   132dc:	00c51593          	slli	a1,a0,0xc
   132e0:	4505                	li	a0,1
   132e2:	9782                	jalr	a5
C:\Users\liangfan\OneDrive\enbed\CH573\AHL-CH573-EXP-V1.3-20241124\03-Software\CH08\UART-ISR-CH573\Debug/srcc/flash.c:73
    return flag;

}
   132e4:	0ff57513          	andi	a0,a0,255
   132e8:	40b2                	lw	ra,12(sp)
   132ea:	0141                	addi	sp,sp,16
   132ec:	8082                	ret

000132ee <flash_Best>:
flash_Best():
C:\Users\liangfan\OneDrive\enbed\CH573\AHL-CH573-EXP-V1.3-20241124\03-Software\CH08\UART-ISR-CH573\Debug/srcc/flash.c:176
//            buf:待写入数据的首地址
//功能概要：首位地址都对齐的情况下的数据写入
//编程参考：暂无
//======================================================================
uint8_t flash_Best(uint16_t sect,uint16_t offset,uint16_t N,uint8_t *buf)
{
   132ee:	1141                	addi	sp,sp,-16
   132f0:	c606                	sw	ra,12(sp)
   132f2:	8736                	mv	a4,a3
C:\Users\liangfan\OneDrive\enbed\CH573\AHL-CH573-EXP-V1.3-20241124\03-Software\CH08\UART-ISR-CH573\Debug/srcc/flash.c:178
    uint32_t addr;
    addr = (uint32_t)(Flash_Address+sect*Flash_Sect_size+offset);
   132f4:	0532                	slli	a0,a0,0xc
C:\Users\liangfan\OneDrive\enbed\CH573\AHL-CH573-EXP-V1.3-20241124\03-Software\CH08\UART-ISR-CH573\Debug/srcc/flash.c:179
    uint8_t flag=FLASH_ROM_WRITE(addr,buf,N);
   132f6:	1fff2797          	auipc	a5,0x1fff2
   132fa:	38a78793          	addi	a5,a5,906 # 20005680 <_data_vma>
   132fe:	439c                	lw	a5,0(a5)
   13300:	57fc                	lw	a5,108(a5)
   13302:	86b2                	mv	a3,a2
   13304:	863a                	mv	a2,a4
   13306:	95aa                	add	a1,a1,a0
   13308:	4509                	li	a0,2
   1330a:	9782                	jalr	a5
C:\Users\liangfan\OneDrive\enbed\CH573\AHL-CH573-EXP-V1.3-20241124\03-Software\CH08\UART-ISR-CH573\Debug/srcc/flash.c:181
    return flag;
}
   1330c:	0ff57513          	andi	a0,a0,255
   13310:	40b2                	lw	ra,12(sp)
   13312:	0141                	addi	sp,sp,16
   13314:	8082                	ret

00013316 <flash_read_logic>:
flash_read_logic():
C:\Users\liangfan\OneDrive\enbed\CH573\AHL-CH573-EXP-V1.3-20241124\03-Software\CH08\UART-ISR-CH573\Debug/srcc/flash.c:198
//编程参考：暂无
//=======================================================================
void flash_read_logic(uint8_t* Buffer,uint16_t sect,uint16_t offset,uint32_t N)
{

    uint32_t i, Length = ( N + 3 ) >> 2;
   13316:	068d                	addi	a3,a3,3
   13318:	8289                	srli	a3,a3,0x2
C:\Users\liangfan\OneDrive\enbed\CH573\AHL-CH573-EXP-V1.3-20241124\03-Software\CH08\UART-ISR-CH573\Debug/srcc/flash.c:199
    uint32_t* pCode = ( uint32_t* ) (sect * Flash_Sect_size + offset + Flash_Address);
   1331a:	05b2                	slli	a1,a1,0xc
   1331c:	962e                	add	a2,a2,a1
C:\Users\liangfan\OneDrive\enbed\CH573\AHL-CH573-EXP-V1.3-20241124\03-Software\CH08\UART-ISR-CH573\Debug/srcc/flash.c:202
    uint32_t* pBuf = ( uint32_t* ) Buffer;

    for ( i = 0; i < Length; i++ )
   1331e:	ce91                	beqz	a3,1333a <flash_read_logic+0x24>
   13320:	068a                	slli	a3,a3,0x2
   13322:	96aa                	add	a3,a3,a0
C:\Users\liangfan\OneDrive\enbed\CH573\AHL-CH573-EXP-V1.3-20241124\03-Software\CH08\UART-ISR-CH573\Debug/srcc/flash.c:200
    uint32_t* pBuf = ( uint32_t* ) Buffer;
   13324:	87aa                	mv	a5,a0
   13326:	40a60533          	sub	a0,a2,a0
   1332a:	00a78733          	add	a4,a5,a0
C:\Users\liangfan\OneDrive\enbed\CH573\AHL-CH573-EXP-V1.3-20241124\03-Software\CH08\UART-ISR-CH573\Debug/srcc/flash.c:204 (discriminator 3)
    {
      *pBuf++ = *pCode++;
   1332e:	0791                	addi	a5,a5,4
   13330:	4318                	lw	a4,0(a4)
   13332:	fee7ae23          	sw	a4,-4(a5)
C:\Users\liangfan\OneDrive\enbed\CH573\AHL-CH573-EXP-V1.3-20241124\03-Software\CH08\UART-ISR-CH573\Debug/srcc/flash.c:202 (discriminator 3)
    for ( i = 0; i < Length; i++ )
   13336:	fed79ae3          	bne	a5,a3,1332a <flash_read_logic+0x14>
C:\Users\liangfan\OneDrive\enbed\CH573\AHL-CH573-EXP-V1.3-20241124\03-Software\CH08\UART-ISR-CH573\Debug/srcc/flash.c:207
    }

}
   1333a:	8082                	ret

0001333c <flash_write>:
flash_write():
C:\Users\liangfan\OneDrive\enbed\CH573\AHL-CH573-EXP-V1.3-20241124\03-Software\CH08\UART-ISR-CH573\Debug/srcc/flash.c:107
{
   1333c:	7179                	addi	sp,sp,-48
   1333e:	d606                	sw	ra,44(sp)
   13340:	d422                	sw	s0,40(sp)
   13342:	d226                	sw	s1,36(sp)
   13344:	d04a                	sw	s2,32(sp)
   13346:	ce4e                	sw	s3,28(sp)
   13348:	737d                	lui	t1,0xfffff
   1334a:	911a                	add	sp,sp,t1
   1334c:	89aa                	mv	s3,a0
   1334e:	892e                	mv	s2,a1
   13350:	84b2                	mv	s1,a2
   13352:	8436                	mv	s0,a3
C:\Users\liangfan\OneDrive\enbed\CH573\AHL-CH573-EXP-V1.3-20241124\03-Software\CH08\UART-ISR-CH573\Debug/srcc/flash.c:112
    if(offset+N>Flash_Sect_size)
   13354:	00b60733          	add	a4,a2,a1
   13358:	6785                	lui	a5,0x1
   1335a:	04e7d663          	bge	a5,a4,133a6 <flash_write+0x6a>
C:\Users\liangfan\OneDrive\enbed\CH573\AHL-CH573-EXP-V1.3-20241124\03-Software\CH08\UART-ISR-CH573\Debug/srcc/flash.c:116
        flash_write(sect,offset,Flash_Sect_size-offset,buf);
   1335e:	6605                	lui	a2,0x1
   13360:	8e0d                	sub	a2,a2,a1
   13362:	0642                	slli	a2,a2,0x10
   13364:	8241                	srli	a2,a2,0x10
   13366:	00000097          	auipc	ra,0x0
   1336a:	fd6080e7          	jalr	-42(ra) # 1333c <flash_write>
C:\Users\liangfan\OneDrive\enbed\CH573\AHL-CH573-EXP-V1.3-20241124\03-Software\CH08\UART-ISR-CH573\Debug/srcc/flash.c:118
        flash_write(sect+1,0,N-(Flash_Sect_size-offset),buf+(Flash_Sect_size-offset));
   1336e:	6685                	lui	a3,0x1
   13370:	412686b3          	sub	a3,a3,s2
   13374:	767d                	lui	a2,0xfffff
   13376:	9626                	add	a2,a2,s1
   13378:	964a                	add	a2,a2,s2
   1337a:	00198513          	addi	a0,s3,1
   1337e:	96a2                	add	a3,a3,s0
   13380:	0642                	slli	a2,a2,0x10
   13382:	8241                	srli	a2,a2,0x10
   13384:	4581                	li	a1,0
   13386:	0542                	slli	a0,a0,0x10
   13388:	8141                	srli	a0,a0,0x10
   1338a:	00000097          	auipc	ra,0x0
   1338e:	fb2080e7          	jalr	-78(ra) # 1333c <flash_write>
C:\Users\liangfan\OneDrive\enbed\CH573\AHL-CH573-EXP-V1.3-20241124\03-Software\CH08\UART-ISR-CH573\Debug/srcc/flash.c:134
}
   13392:	4501                	li	a0,0
   13394:	6305                	lui	t1,0x1
   13396:	911a                	add	sp,sp,t1
   13398:	50b2                	lw	ra,44(sp)
   1339a:	5422                	lw	s0,40(sp)
   1339c:	5492                	lw	s1,36(sp)
   1339e:	5902                	lw	s2,32(sp)
   133a0:	49f2                	lw	s3,28(sp)
   133a2:	6145                	addi	sp,sp,48
   133a4:	8082                	ret
C:\Users\liangfan\OneDrive\enbed\CH573\AHL-CH573-EXP-V1.3-20241124\03-Software\CH08\UART-ISR-CH573\Debug/srcc/flash.c:124
         flash_read_logic(data,sect,0,Flash_Sect_size); //将当前扇区的全部值读入数组中
   133a6:	6685                	lui	a3,0x1
   133a8:	4601                	li	a2,0
   133aa:	85aa                	mv	a1,a0
   133ac:	757d                	lui	a0,0xfffff
   133ae:	6785                	lui	a5,0x1
   133b0:	0818                	addi	a4,sp,16
   133b2:	97ba                	add	a5,a5,a4
   133b4:	953e                	add	a0,a0,a5
   133b6:	00000097          	auipc	ra,0x0
   133ba:	f60080e7          	jalr	-160(ra) # 13316 <flash_read_logic>
C:\Users\liangfan\OneDrive\enbed\CH573\AHL-CH573-EXP-V1.3-20241124\03-Software\CH08\UART-ISR-CH573\Debug/srcc/flash.c:126
         for(i = 0;i<N;i++)
   133be:	c885                	beqz	s1,133ee <flash_write+0xb2>
   133c0:	87a2                	mv	a5,s0
   133c2:	777d                	lui	a4,0xfffff
   133c4:	6685                	lui	a3,0x1
   133c6:	0810                	addi	a2,sp,16
   133c8:	96b2                	add	a3,a3,a2
   133ca:	9736                	add	a4,a4,a3
   133cc:	c63a                	sw	a4,12(sp)
   133ce:	012705b3          	add	a1,a4,s2
   133d2:	0405                	addi	s0,s0,1
   133d4:	fff48693          	addi	a3,s1,-1
   133d8:	06c2                	slli	a3,a3,0x10
   133da:	82c1                	srli	a3,a3,0x10
   133dc:	96a2                	add	a3,a3,s0
C:\Users\liangfan\OneDrive\enbed\CH573\AHL-CH573-EXP-V1.3-20241124\03-Software\CH08\UART-ISR-CH573\Debug/srcc/flash.c:128 (discriminator 3)
             data[offset+i] = buf[i];
   133de:	0007c703          	lbu	a4,0(a5) # 1000 <MCU_SECTORSIZE>
   133e2:	00e58023          	sb	a4,0(a1)
   133e6:	0785                	addi	a5,a5,1
   133e8:	0585                	addi	a1,a1,1
C:\Users\liangfan\OneDrive\enbed\CH573\AHL-CH573-EXP-V1.3-20241124\03-Software\CH08\UART-ISR-CH573\Debug/srcc/flash.c:126 (discriminator 3)
         for(i = 0;i<N;i++)
   133ea:	fed79ae3          	bne	a5,a3,133de <flash_write+0xa2>
C:\Users\liangfan\OneDrive\enbed\CH573\AHL-CH573-EXP-V1.3-20241124\03-Software\CH08\UART-ISR-CH573\Debug/srcc/flash.c:131
         flash_Best(sect,0,Flash_Sect_size,data);
   133ee:	76fd                	lui	a3,0xfffff
   133f0:	6785                	lui	a5,0x1
   133f2:	0818                	addi	a4,sp,16
   133f4:	97ba                	add	a5,a5,a4
   133f6:	96be                	add	a3,a3,a5
   133f8:	6605                	lui	a2,0x1
   133fa:	4581                	li	a1,0
   133fc:	854e                	mv	a0,s3
   133fe:	00000097          	auipc	ra,0x0
   13402:	ef0080e7          	jalr	-272(ra) # 132ee <flash_Best>
   13406:	b771                	j	13392 <flash_write+0x56>

00013408 <gpio_set>:
gpio_get_port_pin():
C:\Users\liangfan\OneDrive\enbed\CH573\AHL-CH573-EXP-V1.3-20241124\03-Software\CH08\UART-ISR-CH573\Debug/srcc/gpio.c:372
//功能概要：将传进参数port_pin进行解析，得出具体端口号与引脚号，分别赋值给port与pin,返回。
//       （例：(PTB_NUM)|(9)解析为PORTB与9，并将其分别赋值给port与pin）。
//=====================================================================
void gpio_get_port_pin(uint16_t port_pin,uint8_t* port,uint8_t* pin)
{
    *port = (port_pin>>8);
   13408:	00855793          	srli	a5,a0,0x8
C:\Users\liangfan\OneDrive\enbed\CH573\AHL-CH573-EXP-V1.3-20241124\03-Software\CH08\UART-ISR-CH573\Debug/srcc/gpio.c:373
    *pin = port_pin;
   1340c:	0ff57513          	andi	a0,a0,255
gpio_set():
C:\Users\liangfan\OneDrive\enbed\CH573\AHL-CH573-EXP-V1.3-20241124\03-Software\CH08\UART-ISR-CH573\Debug/srcc/gpio.c:70
   switch(port)
   13410:	c789                	beqz	a5,1341a <gpio_set+0x12>
   13412:	4705                	li	a4,1
   13414:	02e78b63          	beq	a5,a4,1344a <gpio_set+0x42>
   13418:	8082                	ret
C:\Users\liangfan\OneDrive\enbed\CH573\AHL-CH573-EXP-V1.3-20241124\03-Software\CH08\UART-ISR-CH573\Debug/srcc/gpio.c:74
       if(1 == state)    //高电平(该引脚对应置位寄存器置1)
   1341a:	4785                	li	a5,1
   1341c:	00f58d63          	beq	a1,a5,13436 <gpio_set+0x2e>
C:\Users\liangfan\OneDrive\enbed\CH573\AHL-CH573-EXP-V1.3-20241124\03-Software\CH08\UART-ISR-CH573\Debug/srcc/gpio.c:77
           R32_PA_CLR |= (1<<pin);
   13420:	40001737          	lui	a4,0x40001
   13424:	0ac72683          	lw	a3,172(a4) # 400010ac <_eusrstack+0x1fff90ac>
   13428:	4785                	li	a5,1
   1342a:	00a79533          	sll	a0,a5,a0
   1342e:	8d55                	or	a0,a0,a3
   13430:	0aa72623          	sw	a0,172(a4)
   13434:	8082                	ret
C:\Users\liangfan\OneDrive\enbed\CH573\AHL-CH573-EXP-V1.3-20241124\03-Software\CH08\UART-ISR-CH573\Debug/srcc/gpio.c:75
           R32_PA_OUT |= (1<<pin);
   13436:	40001737          	lui	a4,0x40001
   1343a:	0a872683          	lw	a3,168(a4) # 400010a8 <_eusrstack+0x1fff90a8>
   1343e:	00a79533          	sll	a0,a5,a0
   13442:	8d55                	or	a0,a0,a3
   13444:	0aa72423          	sw	a0,168(a4)
   13448:	8082                	ret
C:\Users\liangfan\OneDrive\enbed\CH573\AHL-CH573-EXP-V1.3-20241124\03-Software\CH08\UART-ISR-CH573\Debug/srcc/gpio.c:81
      if(1 == state)    //高电平(该引脚对应置位寄存器置1)
   1344a:	4785                	li	a5,1
   1344c:	00f58d63          	beq	a1,a5,13466 <gpio_set+0x5e>
C:\Users\liangfan\OneDrive\enbed\CH573\AHL-CH573-EXP-V1.3-20241124\03-Software\CH08\UART-ISR-CH573\Debug/srcc/gpio.c:84
          R32_PB_CLR |= (1<<pin);
   13450:	40001737          	lui	a4,0x40001
   13454:	0cc72683          	lw	a3,204(a4) # 400010cc <_eusrstack+0x1fff90cc>
   13458:	4785                	li	a5,1
   1345a:	00a79533          	sll	a0,a5,a0
   1345e:	8d55                	or	a0,a0,a3
   13460:	0ca72623          	sw	a0,204(a4)
C:\Users\liangfan\OneDrive\enbed\CH573\AHL-CH573-EXP-V1.3-20241124\03-Software\CH08\UART-ISR-CH573\Debug/srcc/gpio.c:88
}
   13464:	8082                	ret
C:\Users\liangfan\OneDrive\enbed\CH573\AHL-CH573-EXP-V1.3-20241124\03-Software\CH08\UART-ISR-CH573\Debug/srcc/gpio.c:82
          R32_PB_OUT |= (1<<pin);
   13466:	40001737          	lui	a4,0x40001
   1346a:	0c872683          	lw	a3,200(a4) # 400010c8 <_eusrstack+0x1fff90c8>
   1346e:	00a79533          	sll	a0,a5,a0
   13472:	8d55                	or	a0,a0,a3
   13474:	0ca72423          	sw	a0,200(a4)
   13478:	8082                	ret

0001347a <gpio_init>:
gpio_init():
C:\Users\liangfan\OneDrive\enbed\CH573\AHL-CH573-EXP-V1.3-20241124\03-Software\CH08\UART-ISR-CH573\Debug/srcc/gpio.c:24
{
   1347a:	1141                	addi	sp,sp,-16
   1347c:	c606                	sw	ra,12(sp)
gpio_get_port_pin():
C:\Users\liangfan\OneDrive\enbed\CH573\AHL-CH573-EXP-V1.3-20241124\03-Software\CH08\UART-ISR-CH573\Debug/srcc/gpio.c:372
    *port = (port_pin>>8);
   1347e:	00855793          	srli	a5,a0,0x8
C:\Users\liangfan\OneDrive\enbed\CH573\AHL-CH573-EXP-V1.3-20241124\03-Software\CH08\UART-ISR-CH573\Debug/srcc/gpio.c:373
    *pin = port_pin;
   13482:	0ff57693          	andi	a3,a0,255
gpio_init():
C:\Users\liangfan\OneDrive\enbed\CH573\AHL-CH573-EXP-V1.3-20241124\03-Software\CH08\UART-ISR-CH573\Debug/srcc/gpio.c:29
    switch(port)
   13486:	c799                	beqz	a5,13494 <gpio_init+0x1a>
   13488:	4705                	li	a4,1
   1348a:	02e78e63          	beq	a5,a4,134c6 <gpio_init+0x4c>
C:\Users\liangfan\OneDrive\enbed\CH573\AHL-CH573-EXP-V1.3-20241124\03-Software\CH08\UART-ISR-CH573\Debug/srcc/gpio.c:55
}
   1348e:	40b2                	lw	ra,12(sp)
   13490:	0141                	addi	sp,sp,16
   13492:	8082                	ret
C:\Users\liangfan\OneDrive\enbed\CH573\AHL-CH573-EXP-V1.3-20241124\03-Software\CH08\UART-ISR-CH573\Debug/srcc/gpio.c:32
        if(dir == 1)  //定义为输出引脚
   13494:	4785                	li	a5,1
   13496:	00f58963          	beq	a1,a5,134a8 <gpio_init+0x2e>
C:\Users\liangfan\OneDrive\enbed\CH573\AHL-CH573-EXP-V1.3-20241124\03-Software\CH08\UART-ISR-CH573\Debug/srcc/gpio.c:39
            R32_PA_DIR &=~(GPIO_INPUT << pin );
   1349a:	400017b7          	lui	a5,0x40001
   1349e:	0a07a703          	lw	a4,160(a5) # 400010a0 <_eusrstack+0x1fff90a0>
   134a2:	0ae7a023          	sw	a4,160(a5)
   134a6:	b7e5                	j	1348e <gpio_init+0x14>
C:\Users\liangfan\OneDrive\enbed\CH573\AHL-CH573-EXP-V1.3-20241124\03-Software\CH08\UART-ISR-CH573\Debug/srcc/gpio.c:34
            R32_PA_DIR |= (GPIO_OUTPUT << pin );
   134a8:	40001737          	lui	a4,0x40001
   134ac:	0a072583          	lw	a1,160(a4) # 400010a0 <_eusrstack+0x1fff90a0>
   134b0:	00d796b3          	sll	a3,a5,a3
   134b4:	8ecd                	or	a3,a3,a1
   134b6:	0ad72023          	sw	a3,160(a4)
C:\Users\liangfan\OneDrive\enbed\CH573\AHL-CH573-EXP-V1.3-20241124\03-Software\CH08\UART-ISR-CH573\Debug/srcc/gpio.c:35
            gpio_set(port_pin,state);
   134ba:	85b2                	mv	a1,a2
   134bc:	00000097          	auipc	ra,0x0
   134c0:	f4c080e7          	jalr	-180(ra) # 13408 <gpio_set>
   134c4:	b7e9                	j	1348e <gpio_init+0x14>
C:\Users\liangfan\OneDrive\enbed\CH573\AHL-CH573-EXP-V1.3-20241124\03-Software\CH08\UART-ISR-CH573\Debug/srcc/gpio.c:43
        if(dir == 1)  //定义为输出引脚
   134c6:	4785                	li	a5,1
   134c8:	00f58963          	beq	a1,a5,134da <gpio_init+0x60>
C:\Users\liangfan\OneDrive\enbed\CH573\AHL-CH573-EXP-V1.3-20241124\03-Software\CH08\UART-ISR-CH573\Debug/srcc/gpio.c:50
            R32_PB_DIR &=~(GPIO_INPUT << pin );
   134cc:	400017b7          	lui	a5,0x40001
   134d0:	0c07a703          	lw	a4,192(a5) # 400010c0 <_eusrstack+0x1fff90c0>
   134d4:	0ce7a023          	sw	a4,192(a5)
C:\Users\liangfan\OneDrive\enbed\CH573\AHL-CH573-EXP-V1.3-20241124\03-Software\CH08\UART-ISR-CH573\Debug/srcc/gpio.c:55
}
   134d8:	bf5d                	j	1348e <gpio_init+0x14>
C:\Users\liangfan\OneDrive\enbed\CH573\AHL-CH573-EXP-V1.3-20241124\03-Software\CH08\UART-ISR-CH573\Debug/srcc/gpio.c:45
            R32_PB_DIR |= (GPIO_OUTPUT << pin );
   134da:	40001737          	lui	a4,0x40001
   134de:	0c072583          	lw	a1,192(a4) # 400010c0 <_eusrstack+0x1fff90c0>
   134e2:	00d796b3          	sll	a3,a5,a3
   134e6:	8ecd                	or	a3,a3,a1
   134e8:	0cd72023          	sw	a3,192(a4)
C:\Users\liangfan\OneDrive\enbed\CH573\AHL-CH573-EXP-V1.3-20241124\03-Software\CH08\UART-ISR-CH573\Debug/srcc/gpio.c:46
            gpio_set(port_pin,state);
   134ec:	85b2                	mv	a1,a2
   134ee:	00000097          	auipc	ra,0x0
   134f2:	f1a080e7          	jalr	-230(ra) # 13408 <gpio_set>
   134f6:	bf61                	j	1348e <gpio_init+0x14>

000134f8 <IRQ_OPC_CHANGE>:
IRQ_OPC_CHANGE():
C:\Users\liangfan\OneDrive\enbed\CH573\AHL-CH573-EXP-V1.3-20241124\03-Software\CH08\UART-ISR-CH573\Debug/srcc/gec.c:25
    static uint32_t opcode = 0;
    uint32_t bios_addr=0, user_addr=0;  //函数入口地址
    uint32_t user_opc=0;
    uint32_t imm1=0,imm2=0;
    uint32_t user_pc=0;
    if(IRQ_NUM == SysTick_IRQn)     //对SysTick_Handler中断进行重定向
   134f8:	47b1                	li	a5,12
   134fa:	02f50563          	beq	a0,a5,13524 <IRQ_OPC_CHANGE+0x2c>
C:\Users\liangfan\OneDrive\enbed\CH573\AHL-CH573-EXP-V1.3-20241124\03-Software\CH08\UART-ISR-CH573\Debug/srcc/gec.c:31
    {
        user_addr = (uint32_t)SysTick_Handler;
        bios_addr = (uint32_t)component_fun[28];
        user_opc = ((uint32_t *)user)[SysTick_IRQn+1];
    }
    else if(IRQ_NUM == SWI_IRQn)    //对SysTick_Handler中断进行重定向
   134fe:	47b9                	li	a5,14
   13500:	08f50763          	beq	a0,a5,1358e <IRQ_OPC_CHANGE+0x96>
C:\Users\liangfan\OneDrive\enbed\CH573\AHL-CH573-EXP-V1.3-20241124\03-Software\CH08\UART-ISR-CH573\Debug/srcc/gec.c:37
    {
        user_addr = (uint32_t)SW_Handler;
        bios_addr = (uint32_t)component_fun[29];
        user_opc = ((uint32_t *)user)[SWI_IRQn+1];
    }
    else if(IRQ_NUM == UART1_IRQn)  //对SysTick_Handler中断进行重定向
   13504:	476d                	li	a4,27
C:\Users\liangfan\OneDrive\enbed\CH573\AHL-CH573-EXP-V1.3-20241124\03-Software\CH08\UART-ISR-CH573\Debug/srcc/gec.c:44
        user_addr = (uint32_t)UART1_IRQHandler;
        bios_addr = (uint32_t)component_fun[30];
        user_opc = ((uint32_t *)user)[UART1_IRQn+1];
    }
    else                            //仅支持SysTick_Handler、SW_Handler、UART1_IRQHandler的重定向
       return 0;
   13506:	4781                	li	a5,0
C:\Users\liangfan\OneDrive\enbed\CH573\AHL-CH573-EXP-V1.3-20241124\03-Software\CH08\UART-ISR-CH573\Debug/srcc/gec.c:37
    else if(IRQ_NUM == UART1_IRQn)  //对SysTick_Handler中断进行重定向
   13508:	08e51163          	bne	a0,a4,1358a <IRQ_OPC_CHANGE+0x92>
C:\Users\liangfan\OneDrive\enbed\CH573\AHL-CH573-EXP-V1.3-20241124\03-Software\CH08\UART-ISR-CH573\Debug/srcc/gec.c:39
        user_addr = (uint32_t)UART1_IRQHandler;
   1350c:	fffff817          	auipc	a6,0xfffff
   13510:	bc080813          	addi	a6,a6,-1088 # 120cc <UART1_IRQHandler>
C:\Users\liangfan\OneDrive\enbed\CH573\AHL-CH573-EXP-V1.3-20241124\03-Software\CH08\UART-ISR-CH573\Debug/srcc/gec.c:40
        bios_addr = (uint32_t)component_fun[30];
   13514:	1fff2797          	auipc	a5,0x1fff2
   13518:	16c78793          	addi	a5,a5,364 # 20005680 <_data_vma>
   1351c:	439c                	lw	a5,0(a5)
   1351e:	5fb0                	lw	a2,120(a5)
C:\Users\liangfan\OneDrive\enbed\CH573\AHL-CH573-EXP-V1.3-20241124\03-Software\CH08\UART-ISR-CH573\Debug/srcc/gec.c:41
        user_opc = ((uint32_t *)user)[UART1_IRQn+1];
   13520:	59b8                	lw	a4,112(a1)
   13522:	a821                	j	1353a <IRQ_OPC_CHANGE+0x42>
C:\Users\liangfan\OneDrive\enbed\CH573\AHL-CH573-EXP-V1.3-20241124\03-Software\CH08\UART-ISR-CH573\Debug/srcc/gec.c:27
        user_addr = (uint32_t)SysTick_Handler;
   13524:	fffff817          	auipc	a6,0xfffff
   13528:	b7880813          	addi	a6,a6,-1160 # 1209c <SysTick_Handler>
C:\Users\liangfan\OneDrive\enbed\CH573\AHL-CH573-EXP-V1.3-20241124\03-Software\CH08\UART-ISR-CH573\Debug/srcc/gec.c:28
        bios_addr = (uint32_t)component_fun[28];
   1352c:	1fff2797          	auipc	a5,0x1fff2
   13530:	15478793          	addi	a5,a5,340 # 20005680 <_data_vma>
   13534:	439c                	lw	a5,0(a5)
   13536:	5bb0                	lw	a2,112(a5)
C:\Users\liangfan\OneDrive\enbed\CH573\AHL-CH573-EXP-V1.3-20241124\03-Software\CH08\UART-ISR-CH573\Debug/srcc/gec.c:29
        user_opc = ((uint32_t *)user)[SysTick_IRQn+1];
   13538:	59d8                	lw	a4,52(a1)
C:\Users\liangfan\OneDrive\enbed\CH573\AHL-CH573-EXP-V1.3-20241124\03-Software\CH08\UART-ISR-CH573\Debug/srcc/gec.c:50
    // printf("addr1:%lx\r\n", user_addr);
    // printf("addr2:%lx\r\n", bios_addr);
    // printf("opc:%lx\r\n", user_opc);

    //判断该指令是否为向前跳转，如果是向前跳转说明已经修改过了中断向量表，无需再次修改
    if((user_opc&0x80000000)) return ((uint32_t *)user)[IRQ_NUM+1];         
   1353a:	06074663          	bltz	a4,135a6 <IRQ_OPC_CHANGE+0xae>
C:\Users\liangfan\OneDrive\enbed\CH573\AHL-CH573-EXP-V1.3-20241124\03-Software\CH08\UART-ISR-CH573\Debug/srcc/gec.c:52

    imm1 = ( ((user_opc&0x80000000)>>11) | ((user_opc&0x7FE00000)>>20) | ((user_opc&0x00100000)>>9) | ((user_opc&0x000FF000)) );
   1353e:	00975793          	srli	a5,a4,0x9
   13542:	6685                	lui	a3,0x1
   13544:	80068693          	addi	a3,a3,-2048 # 800 <GEC_USER_SECTOR_END+0x7db>
   13548:	8ff5                	and	a5,a5,a3
   1354a:	000ff6b7          	lui	a3,0xff
   1354e:	00d775b3          	and	a1,a4,a3
   13552:	8fcd                	or	a5,a5,a1
   13554:	8351                	srli	a4,a4,0x14
   13556:	7fe77713          	andi	a4,a4,2046
   1355a:	8fd9                	or	a5,a5,a4
C:\Users\liangfan\OneDrive\enbed\CH573\AHL-CH573-EXP-V1.3-20241124\03-Software\CH08\UART-ISR-CH573\Debug/srcc/gec.c:58
    if(imm1>>20==1)         //向前跳转，补符号位
        imm1 = 0xFFE00000 | imm1;
    // printf("imm1:%lx\r\n", imm1);
    user_pc = user_addr - imm1;
    // printf("pc:%lx\r\n", user_pc);
    imm2 = bios_addr - user_pc;
   1355c:	41060633          	sub	a2,a2,a6
   13560:	97b2                	add	a5,a5,a2
C:\Users\liangfan\OneDrive\enbed\CH573\AHL-CH573-EXP-V1.3-20241124\03-Software\CH08\UART-ISR-CH573\Debug/srcc/gec.c:60
    // printf("imm2:%lx\r\n", imm2);
    opcode = (((imm2&0x100000)<<11) | ((imm2&0x7FE)<<20) | ((imm2&0x800)<<9) | (imm2&0xFF000)) | (0x0) | (0x6f);
   13562:	00b79513          	slli	a0,a5,0xb
   13566:	80000737          	lui	a4,0x80000
   1356a:	8d79                	and	a0,a0,a4
   1356c:	00979713          	slli	a4,a5,0x9
   13570:	00100637          	lui	a2,0x100
   13574:	8f71                	and	a4,a4,a2
   13576:	8d59                	or	a0,a0,a4
   13578:	8efd                	and	a3,a3,a5
   1357a:	8d55                	or	a0,a0,a3
   1357c:	07d2                	slli	a5,a5,0x14
   1357e:	7fe00737          	lui	a4,0x7fe00
   13582:	8ff9                	and	a5,a5,a4
   13584:	8fc9                	or	a5,a5,a0
   13586:	06f7e793          	ori	a5,a5,111
C:\Users\liangfan\OneDrive\enbed\CH573\AHL-CH573-EXP-V1.3-20241124\03-Software\CH08\UART-ISR-CH573\Debug/srcc/gec.c:63
    // printf("opcode:%lx\r\n", opcode);
    return opcode;
}
   1358a:	853e                	mv	a0,a5
   1358c:	8082                	ret
C:\Users\liangfan\OneDrive\enbed\CH573\AHL-CH573-EXP-V1.3-20241124\03-Software\CH08\UART-ISR-CH573\Debug/srcc/gec.c:33
        user_addr = (uint32_t)SW_Handler;
   1358e:	fffff817          	auipc	a6,0xfffff
   13592:	b1280813          	addi	a6,a6,-1262 # 120a0 <SW_Handler>
C:\Users\liangfan\OneDrive\enbed\CH573\AHL-CH573-EXP-V1.3-20241124\03-Software\CH08\UART-ISR-CH573\Debug/srcc/gec.c:34
        bios_addr = (uint32_t)component_fun[29];
   13596:	1fff2797          	auipc	a5,0x1fff2
   1359a:	0ea78793          	addi	a5,a5,234 # 20005680 <_data_vma>
   1359e:	439c                	lw	a5,0(a5)
   135a0:	5bf0                	lw	a2,116(a5)
C:\Users\liangfan\OneDrive\enbed\CH573\AHL-CH573-EXP-V1.3-20241124\03-Software\CH08\UART-ISR-CH573\Debug/srcc/gec.c:35
        user_opc = ((uint32_t *)user)[SWI_IRQn+1];
   135a2:	5dd8                	lw	a4,60(a1)
   135a4:	bf59                	j	1353a <IRQ_OPC_CHANGE+0x42>
C:\Users\liangfan\OneDrive\enbed\CH573\AHL-CH573-EXP-V1.3-20241124\03-Software\CH08\UART-ISR-CH573\Debug/srcc/gec.c:50 (discriminator 1)
    if((user_opc&0x80000000)) return ((uint32_t *)user)[IRQ_NUM+1];         
   135a6:	0505                	addi	a0,a0,1
   135a8:	050a                	slli	a0,a0,0x2
   135aa:	952e                	add	a0,a0,a1
   135ac:	411c                	lw	a5,0(a0)
   135ae:	bff1                	j	1358a <IRQ_OPC_CHANGE+0x92>

000135b0 <Vectors_Init>:
Vectors_Init():
C:\Users\liangfan\OneDrive\enbed\CH573\AHL-CH573-EXP-V1.3-20241124\03-Software\CH08\UART-ISR-CH573\Debug/srcc/gec.c:72
//参数说明：无
//功能概要：User对BIOS中断向量表的部分继承,构件库函数指针初始化
//修改信息：WYH，20200805，规范
//======================================================================
void  Vectors_Init()
{
   135b0:	716d                	addi	sp,sp,-272
   135b2:	10112623          	sw	ra,268(sp)
C:\Users\liangfan\OneDrive\enbed\CH573\AHL-CH573-EXP-V1.3-20241124\03-Software\CH08\UART-ISR-CH573\Debug/srcc/gec.c:82
    // {
    //     flash_write_physical((MCU_SECTOR_NUM-1)*MCU_SECTORSIZE+
    //     MCU_FLASH_ADDR_START,24,(uint8_t *)"0123456789ABCDEF20200716");
    // }
    //（1）给component_fun赋值，SYSTEM_FUNCTION函数用
    component_fun=(void **)(MCU_FLASH_ADDR_START+GEC_COMPONENT_LST_START*MCU_SECTORSIZE);
   135b6:	67c1                	lui	a5,0x10
   135b8:	1fff2717          	auipc	a4,0x1fff2
   135bc:	0cf72423          	sw	a5,200(a4) # 20005680 <_data_vma>
C:\Users\liangfan\OneDrive\enbed\CH573\AHL-CH573-EXP-V1.3-20241124\03-Software\CH08\UART-ISR-CH573\Debug/srcc/gec.c:87
    
    uint8_t user[MCU_SECTORSIZE/16];                    //User向量表变量数组
    uint32_t opcode;
    //（2.1）读取User程序的中断向量表各中断处理程序首地址赋并给user数组
    flash_read_logic(user,GEC_USER_SECTOR_START,0,MCU_SECTORSIZE/16);
   135c0:	10000693          	li	a3,256
   135c4:	4601                	li	a2,0
   135c6:	45c9                	li	a1,18
   135c8:	850a                	mv	a0,sp
   135ca:	00000097          	auipc	ra,0x0
   135ce:	d4c080e7          	jalr	-692(ra) # 13316 <flash_read_logic>
C:\Users\liangfan\OneDrive\enbed\CH573\AHL-CH573-EXP-V1.3-20241124\03-Software\CH08\UART-ISR-CH573\Debug/srcc/gec.c:89
    // （2.2）读取User程序的中断向量表各中断处理程序首地址赋并给user数组
    flash_erase(GEC_USER_SECTOR_START);
   135d2:	4549                	li	a0,18
   135d4:	00000097          	auipc	ra,0x0
   135d8:	cf4080e7          	jalr	-780(ra) # 132c8 <flash_erase>
C:\Users\liangfan\OneDrive\enbed\CH573\AHL-CH573-EXP-V1.3-20241124\03-Software\CH08\UART-ISR-CH573\Debug/srcc/gec.c:92
    //重定向 UART1_IRQHandler
    // user[112]=(uint8_t)(0x6f); user[113]=(uint8_t)(0x40); user[114]=(uint8_t)(0xaf); user[115]=(uint8_t)(0x8a);
    opcode = IRQ_OPC_CHANGE(UART1_IRQn, user);
   135dc:	858a                	mv	a1,sp
   135de:	456d                	li	a0,27
   135e0:	00000097          	auipc	ra,0x0
   135e4:	f18080e7          	jalr	-232(ra) # 134f8 <IRQ_OPC_CHANGE>
C:\Users\liangfan\OneDrive\enbed\CH573\AHL-CH573-EXP-V1.3-20241124\03-Software\CH08\UART-ISR-CH573\Debug/srcc/gec.c:93
    ((uint32_t *)user)[UART1_IRQn+1] = opcode;
   135e8:	d8aa                	sw	a0,112(sp)
C:\Users\liangfan\OneDrive\enbed\CH573\AHL-CH573-EXP-V1.3-20241124\03-Software\CH08\UART-ISR-CH573\Debug/srcc/gec.c:97
    #if (RTThread_Start == 0)
        //重定向 SW_Handler
        // user[60]=(uint8_t)(0x6f); user[61]=(uint8_t)(0x40); user[62]=(uint8_t)(0x0f); user[63]=(uint8_t)(0xdb);
        opcode = IRQ_OPC_CHANGE(SWI_IRQn, user);
   135ea:	858a                	mv	a1,sp
   135ec:	4539                	li	a0,14
   135ee:	00000097          	auipc	ra,0x0
   135f2:	f0a080e7          	jalr	-246(ra) # 134f8 <IRQ_OPC_CHANGE>
C:\Users\liangfan\OneDrive\enbed\CH573\AHL-CH573-EXP-V1.3-20241124\03-Software\CH08\UART-ISR-CH573\Debug/srcc/gec.c:98
        ((uint32_t *)user)[SWI_IRQn+1] = opcode;
   135f6:	de2a                	sw	a0,60(sp)
C:\Users\liangfan\OneDrive\enbed\CH573\AHL-CH573-EXP-V1.3-20241124\03-Software\CH08\UART-ISR-CH573\Debug/srcc/gec.c:101
        //重定向 SysTickHandler
        // user[52]=(uint8_t)(0x6f); user[53]=(uint8_t)(0x40); user[54]=(uint8_t)(0x0f); user[55]=(uint8_t)(0x86);
        opcode = IRQ_OPC_CHANGE(SysTick_IRQn, user);
   135f8:	858a                	mv	a1,sp
   135fa:	4531                	li	a0,12
   135fc:	00000097          	auipc	ra,0x0
   13600:	efc080e7          	jalr	-260(ra) # 134f8 <IRQ_OPC_CHANGE>
C:\Users\liangfan\OneDrive\enbed\CH573\AHL-CH573-EXP-V1.3-20241124\03-Software\CH08\UART-ISR-CH573\Debug/srcc/gec.c:102
        ((uint32_t *)user)[SysTick_IRQn+1] = opcode;
   13604:	da2a                	sw	a0,52(sp)
C:\Users\liangfan\OneDrive\enbed\CH573\AHL-CH573-EXP-V1.3-20241124\03-Software\CH08\UART-ISR-CH573\Debug/srcc/gec.c:105
    #endif
    //（2.3）将修改后的user数组写回User中断向量表
    flash_write(GEC_USER_SECTOR_START,0,MCU_SECTORSIZE/16,user);
   13606:	868a                	mv	a3,sp
   13608:	10000613          	li	a2,256
   1360c:	4581                	li	a1,0
   1360e:	4549                	li	a0,18
   13610:	00000097          	auipc	ra,0x0
   13614:	d2c080e7          	jalr	-724(ra) # 1333c <flash_write>
C:\Users\liangfan\OneDrive\enbed\CH573\AHL-CH573-EXP-V1.3-20241124\03-Software\CH08\UART-ISR-CH573\Debug/srcc/gec.c:108

    //（4）printf提示
    printf("  【User提示】：将进入User的main函数执行...\r\n\n");
   13618:	00003517          	auipc	a0,0x3
   1361c:	a9c50513          	addi	a0,a0,-1380 # 160b4 <strlen+0x2a4>
   13620:	00001097          	auipc	ra,0x1
   13624:	0be080e7          	jalr	190(ra) # 146de <myprintf>
C:\Users\liangfan\OneDrive\enbed\CH573\AHL-CH573-EXP-V1.3-20241124\03-Software\CH08\UART-ISR-CH573\Debug/srcc/gec.c:111

    // #endif
}
   13628:	10c12083          	lw	ra,268(sp)
   1362c:	6151                	addi	sp,sp,272
   1362e:	8082                	ret

00013630 <uart_init>:
uart_init():
C:\Users\liangfan\OneDrive\enbed\CH573\AHL-CH573-EXP-V1.3-20241124\03-Software\CH08\UART-ISR-CH573\Debug/srcc/uart.c:31
void uart_init(uint8_t uartNo, uint32_t baud_rate)
{
    uint32_t x;

//    SetSysClock( CLK_SOURCE_PLL_60MHz );
    switch (uartNo)
   13630:	4805                	li	a6,1
   13632:	09050e63          	beq	a0,a6,136ce <uart_init+0x9e>
   13636:	01851813          	slli	a6,a0,0x18
   1363a:	41885813          	srai	a6,a6,0x18
   1363e:	00080963          	beqz	a6,13650 <uart_init+0x20>
   13642:	4809                	li	a6,2
   13644:	11050663          	beq	a0,a6,13750 <uart_init+0x120>
   13648:	480d                	li	a6,3
   1364a:	19050863          	beq	a0,a6,137da <uart_init+0x1aa>
   1364e:	8082                	ret
C:\Users\liangfan\OneDrive\enbed\CH573\AHL-CH573-EXP-V1.3-20241124\03-Software\CH08\UART-ISR-CH573\Debug/srcc/uart.c:40
            //
            switch (UART0_GROUP)
            {
                case 0:

                   R32_PB_OUT |= ((uint32_t)(bTXD0));
   13650:	400017b7          	lui	a5,0x40001
   13654:	0c87a703          	lw	a4,200(a5) # 400010c8 <_eusrstack+0x1fff90c8>
   13658:	08076713          	ori	a4,a4,128
   1365c:	0ce7a423          	sw	a4,200(a5)
C:\Users\liangfan\OneDrive\enbed\CH573\AHL-CH573-EXP-V1.3-20241124\03-Software\CH08\UART-ISR-CH573\Debug/srcc/uart.c:42
                   //PB4->RX
                   R32_PB_PD_DRV &= ~((uint32_t)(bRXD0));
   13660:	0d47a703          	lw	a4,212(a5)
   13664:	9b3d                	andi	a4,a4,-17
   13666:	0ce7aa23          	sw	a4,212(a5)
C:\Users\liangfan\OneDrive\enbed\CH573\AHL-CH573-EXP-V1.3-20241124\03-Software\CH08\UART-ISR-CH573\Debug/srcc/uart.c:43
                   R32_PB_PU     |= ((uint32_t)(bRXD0));
   1366a:	0d07a703          	lw	a4,208(a5)
   1366e:	01076713          	ori	a4,a4,16
   13672:	0ce7a823          	sw	a4,208(a5)
C:\Users\liangfan\OneDrive\enbed\CH573\AHL-CH573-EXP-V1.3-20241124\03-Software\CH08\UART-ISR-CH573\Debug/srcc/uart.c:44
                   R32_PB_DIR    &= ~((uint32_t)(bRXD0));
   13676:	0c07a703          	lw	a4,192(a5)
   1367a:	9b3d                	andi	a4,a4,-17
   1367c:	0ce7a023          	sw	a4,192(a5)
C:\Users\liangfan\OneDrive\enbed\CH573\AHL-CH573-EXP-V1.3-20241124\03-Software\CH08\UART-ISR-CH573\Debug/srcc/uart.c:46
                   //PB7->TX
                   R32_PB_PD_DRV &= ~((uint32_t)(bTXD0));
   13680:	0d47a703          	lw	a4,212(a5)
   13684:	f7f77713          	andi	a4,a4,-129
   13688:	0ce7aa23          	sw	a4,212(a5)
C:\Users\liangfan\OneDrive\enbed\CH573\AHL-CH573-EXP-V1.3-20241124\03-Software\CH08\UART-ISR-CH573\Debug/srcc/uart.c:47
                   R32_PB_DIR    |= ((uint32_t)(bTXD0));
   1368c:	0c07a703          	lw	a4,192(a5)
   13690:	08076713          	ori	a4,a4,128
   13694:	0ce7a023          	sw	a4,192(a5)
C:\Users\liangfan\OneDrive\enbed\CH573\AHL-CH573-EXP-V1.3-20241124\03-Software\CH08\UART-ISR-CH573\Debug/srcc/uart.c:50

//                   R8_UART0_FCR = (2<<6) | RB_FCR_TX_FIFO_CLR | RB_FCR_RX_FIFO_CLR | RB_FCR_FIFO_EN;     // FIFO打开，触发点4字节
                   R8_UART0_LCR = RB_LCR_WORD_SZ;
   13698:	40003737          	lui	a4,0x40003
   1369c:	478d                	li	a5,3
   1369e:	00f701a3          	sb	a5,3(a4) # 40003003 <_eusrstack+0x1fffb003>
C:\Users\liangfan\OneDrive\enbed\CH573\AHL-CH573-EXP-V1.3-20241124\03-Software\CH08\UART-ISR-CH573\Debug/srcc/uart.c:51
                   R8_UART0_IER = RB_IER_TXD_EN;
   136a2:	04000793          	li	a5,64
   136a6:	00f700a3          	sb	a5,1(a4)
C:\Users\liangfan\OneDrive\enbed\CH573\AHL-CH573-EXP-V1.3-20241124\03-Software\CH08\UART-ISR-CH573\Debug/srcc/uart.c:52
                   R8_UART0_DIV = 1;
   136aa:	4785                	li	a5,1
   136ac:	00f70723          	sb	a5,14(a4)
C:\Users\liangfan\OneDrive\enbed\CH573\AHL-CH573-EXP-V1.3-20241124\03-Software\CH08\UART-ISR-CH573\Debug/srcc/uart.c:55

                   //配置波特率115200
                   x = 10 * (480000000/(0x08)) / 8 / baud_rate;
   136b0:	04787637          	lui	a2,0x4787
   136b4:	8c060613          	addi	a2,a2,-1856 # 47868c0 <_data_lma+0x47704f0>
   136b8:	02b657b3          	divu	a5,a2,a1
C:\Users\liangfan\OneDrive\enbed\CH573\AHL-CH573-EXP-V1.3-20241124\03-Software\CH08\UART-ISR-CH573\Debug/srcc/uart.c:56
                   x = (x + 5) / 10;
   136bc:	0795                	addi	a5,a5,5
   136be:	4629                	li	a2,10
   136c0:	02c7d7b3          	divu	a5,a5,a2
C:\Users\liangfan\OneDrive\enbed\CH573\AHL-CH573-EXP-V1.3-20241124\03-Software\CH08\UART-ISR-CH573\Debug/srcc/uart.c:57
                   R16_UART0_DL = (uint16_t)x;
   136c4:	07c2                	slli	a5,a5,0x10
   136c6:	83c1                	srli	a5,a5,0x10
   136c8:	00f71623          	sh	a5,12(a4)
C:\Users\liangfan\OneDrive\enbed\CH573\AHL-CH573-EXP-V1.3-20241124\03-Software\CH08\UART-ISR-CH573\Debug/srcc/uart.c:86
                  break;
                default:
                    break;
            }
#endif
            break;
   136cc:	8082                	ret
C:\Users\liangfan\OneDrive\enbed\CH573\AHL-CH573-EXP-V1.3-20241124\03-Software\CH08\UART-ISR-CH573\Debug/srcc/uart.c:93
#ifdef UART1_GROUP
            //
            switch (UART1_GROUP) {
                case 0:

                    R32_PA_OUT |= ((uint32_t)(bTXD1));
   136ce:	400017b7          	lui	a5,0x40001
   136d2:	0a87a703          	lw	a4,168(a5) # 400010a8 <_eusrstack+0x1fff90a8>
   136d6:	20076713          	ori	a4,a4,512
   136da:	0ae7a423          	sw	a4,168(a5)
C:\Users\liangfan\OneDrive\enbed\CH573\AHL-CH573-EXP-V1.3-20241124\03-Software\CH08\UART-ISR-CH573\Debug/srcc/uart.c:95
                    //PA8->RX
                    R32_PA_PD_DRV &= ~((uint32_t)(bRXD1));
   136de:	0b47a703          	lw	a4,180(a5)
   136e2:	eff77713          	andi	a4,a4,-257
   136e6:	0ae7aa23          	sw	a4,180(a5)
C:\Users\liangfan\OneDrive\enbed\CH573\AHL-CH573-EXP-V1.3-20241124\03-Software\CH08\UART-ISR-CH573\Debug/srcc/uart.c:96
                    R32_PA_PU     |= ((uint32_t)(bRXD1));
   136ea:	0b07a703          	lw	a4,176(a5)
   136ee:	10076713          	ori	a4,a4,256
   136f2:	0ae7a823          	sw	a4,176(a5)
C:\Users\liangfan\OneDrive\enbed\CH573\AHL-CH573-EXP-V1.3-20241124\03-Software\CH08\UART-ISR-CH573\Debug/srcc/uart.c:97
                    R32_PA_DIR    &= ~((uint32_t)(bRXD1));
   136f6:	0a07a703          	lw	a4,160(a5)
   136fa:	eff77713          	andi	a4,a4,-257
   136fe:	0ae7a023          	sw	a4,160(a5)
C:\Users\liangfan\OneDrive\enbed\CH573\AHL-CH573-EXP-V1.3-20241124\03-Software\CH08\UART-ISR-CH573\Debug/srcc/uart.c:100

                    //PA9->TX
                    R32_PA_PD_DRV &= ~((uint32_t)(bTXD1));
   13702:	0b47a703          	lw	a4,180(a5)
   13706:	dff77713          	andi	a4,a4,-513
   1370a:	0ae7aa23          	sw	a4,180(a5)
C:\Users\liangfan\OneDrive\enbed\CH573\AHL-CH573-EXP-V1.3-20241124\03-Software\CH08\UART-ISR-CH573\Debug/srcc/uart.c:101
                    R32_PA_DIR    |= ((uint32_t)(bTXD1));
   1370e:	0a07a703          	lw	a4,160(a5)
   13712:	20076713          	ori	a4,a4,512
   13716:	0ae7a023          	sw	a4,160(a5)
C:\Users\liangfan\OneDrive\enbed\CH573\AHL-CH573-EXP-V1.3-20241124\03-Software\CH08\UART-ISR-CH573\Debug/srcc/uart.c:104

//                    R8_UART1_FCR = (2<<6) | RB_FCR_TX_FIFO_CLR | RB_FCR_RX_FIFO_CLR | RB_FCR_FIFO_EN;       // FIFO打开，触发点4字节
                    R8_UART1_LCR = RB_LCR_WORD_SZ;
   1371a:	40003737          	lui	a4,0x40003
   1371e:	478d                	li	a5,3
   13720:	40f701a3          	sb	a5,1027(a4) # 40003403 <_eusrstack+0x1fffb403>
C:\Users\liangfan\OneDrive\enbed\CH573\AHL-CH573-EXP-V1.3-20241124\03-Software\CH08\UART-ISR-CH573\Debug/srcc/uart.c:105
                    R8_UART1_IER = RB_IER_TXD_EN;
   13724:	04000793          	li	a5,64
   13728:	40f700a3          	sb	a5,1025(a4)
C:\Users\liangfan\OneDrive\enbed\CH573\AHL-CH573-EXP-V1.3-20241124\03-Software\CH08\UART-ISR-CH573\Debug/srcc/uart.c:106
                    R8_UART1_DIV = 1;
   1372c:	4785                	li	a5,1
   1372e:	40f70723          	sb	a5,1038(a4)
C:\Users\liangfan\OneDrive\enbed\CH573\AHL-CH573-EXP-V1.3-20241124\03-Software\CH08\UART-ISR-CH573\Debug/srcc/uart.c:109

                    //配置波特率115200
                    x = 10 * (480000000/(0x08)) / 8 / baud_rate;
   13732:	047876b7          	lui	a3,0x4787
   13736:	8c068693          	addi	a3,a3,-1856 # 47868c0 <_data_lma+0x47704f0>
   1373a:	02b6d7b3          	divu	a5,a3,a1
C:\Users\liangfan\OneDrive\enbed\CH573\AHL-CH573-EXP-V1.3-20241124\03-Software\CH08\UART-ISR-CH573\Debug/srcc/uart.c:110
                    x = (x + 5) / 10;
   1373e:	0795                	addi	a5,a5,5
   13740:	46a9                	li	a3,10
   13742:	02d7d7b3          	divu	a5,a5,a3
C:\Users\liangfan\OneDrive\enbed\CH573\AHL-CH573-EXP-V1.3-20241124\03-Software\CH08\UART-ISR-CH573\Debug/srcc/uart.c:111
                    R16_UART1_DL = (uint16_t)x;
   13746:	07c2                	slli	a5,a5,0x10
   13748:	83c1                	srli	a5,a5,0x10
   1374a:	40f71623          	sh	a5,1036(a4)
C:\Users\liangfan\OneDrive\enbed\CH573\AHL-CH573-EXP-V1.3-20241124\03-Software\CH08\UART-ISR-CH573\Debug/srcc/uart.c:140
                    break;
                default:
                    break;
            }
#endif
            break;
   1374e:	8082                	ret
C:\Users\liangfan\OneDrive\enbed\CH573\AHL-CH573-EXP-V1.3-20241124\03-Software\CH08\UART-ISR-CH573\Debug/srcc/uart.c:143
        case UART_2:

              R32_PB_OUT |= ((uint32_t)(bTXD2));
   13750:	400017b7          	lui	a5,0x40001
   13754:	0c87a683          	lw	a3,200(a5) # 400010c8 <_eusrstack+0x1fff90c8>
   13758:	00800537          	lui	a0,0x800
   1375c:	8ec9                	or	a3,a3,a0
   1375e:	0cd7a423          	sw	a3,200(a5)
C:\Users\liangfan\OneDrive\enbed\CH573\AHL-CH573-EXP-V1.3-20241124\03-Software\CH08\UART-ISR-CH573\Debug/srcc/uart.c:145
              //PB22->RX
              R32_PB_PD_DRV &= ~((uint32_t)(bRXD2));
   13762:	0d47a683          	lw	a3,212(a5)
   13766:	ffc00737          	lui	a4,0xffc00
   1376a:	177d                	addi	a4,a4,-1
   1376c:	8ef9                	and	a3,a3,a4
   1376e:	0cd7aa23          	sw	a3,212(a5)
C:\Users\liangfan\OneDrive\enbed\CH573\AHL-CH573-EXP-V1.3-20241124\03-Software\CH08\UART-ISR-CH573\Debug/srcc/uart.c:146
              R32_PB_PU     |= ((uint32_t)(bRXD2));
   13772:	0d07a683          	lw	a3,208(a5)
   13776:	00400637          	lui	a2,0x400
   1377a:	8ed1                	or	a3,a3,a2
   1377c:	0cd7a823          	sw	a3,208(a5)
C:\Users\liangfan\OneDrive\enbed\CH573\AHL-CH573-EXP-V1.3-20241124\03-Software\CH08\UART-ISR-CH573\Debug/srcc/uart.c:147
              R32_PB_DIR    &= ~((uint32_t)(bRXD2));
   13780:	0c07a683          	lw	a3,192(a5)
   13784:	8f75                	and	a4,a4,a3
   13786:	0ce7a023          	sw	a4,192(a5)
C:\Users\liangfan\OneDrive\enbed\CH573\AHL-CH573-EXP-V1.3-20241124\03-Software\CH08\UART-ISR-CH573\Debug/srcc/uart.c:149
              //PB23->TX
              R32_PB_PD_DRV &= ~((uint32_t)(bTXD2));
   1378a:	0d47a683          	lw	a3,212(a5)
   1378e:	ff800637          	lui	a2,0xff800
   13792:	167d                	addi	a2,a2,-1
   13794:	8ef1                	and	a3,a3,a2
   13796:	0cd7aa23          	sw	a3,212(a5)
C:\Users\liangfan\OneDrive\enbed\CH573\AHL-CH573-EXP-V1.3-20241124\03-Software\CH08\UART-ISR-CH573\Debug/srcc/uart.c:150
              R32_PB_DIR    |= ((uint32_t)(bTXD2));
   1379a:	0c07a703          	lw	a4,192(a5)
   1379e:	8f49                	or	a4,a4,a0
   137a0:	0ce7a023          	sw	a4,192(a5)
C:\Users\liangfan\OneDrive\enbed\CH573\AHL-CH573-EXP-V1.3-20241124\03-Software\CH08\UART-ISR-CH573\Debug/srcc/uart.c:153

//              R8_UART2_FCR = (2<<6) | RB_FCR_TX_FIFO_CLR | RB_FCR_RX_FIFO_CLR | RB_FCR_FIFO_EN;      // FIFO打开，触发点4字节
              R8_UART2_LCR = RB_LCR_WORD_SZ;
   137a4:	400046b7          	lui	a3,0x40004
   137a8:	478d                	li	a5,3
   137aa:	80f681a3          	sb	a5,-2045(a3) # 40003803 <_eusrstack+0x1fffb803>
C:\Users\liangfan\OneDrive\enbed\CH573\AHL-CH573-EXP-V1.3-20241124\03-Software\CH08\UART-ISR-CH573\Debug/srcc/uart.c:154
              R8_UART2_IER = RB_IER_TXD_EN;
   137ae:	04000793          	li	a5,64
   137b2:	80f680a3          	sb	a5,-2047(a3)
C:\Users\liangfan\OneDrive\enbed\CH573\AHL-CH573-EXP-V1.3-20241124\03-Software\CH08\UART-ISR-CH573\Debug/srcc/uart.c:155
              R8_UART2_DIV = 1;
   137b6:	4785                	li	a5,1
   137b8:	80f68723          	sb	a5,-2034(a3)
C:\Users\liangfan\OneDrive\enbed\CH573\AHL-CH573-EXP-V1.3-20241124\03-Software\CH08\UART-ISR-CH573\Debug/srcc/uart.c:158

              //配置波特率115200
              x = 10 * (480000000/(0x08)) / 8 / baud_rate;
   137bc:	04787737          	lui	a4,0x4787
   137c0:	8c070713          	addi	a4,a4,-1856 # 47868c0 <_data_lma+0x47704f0>
   137c4:	02b757b3          	divu	a5,a4,a1
C:\Users\liangfan\OneDrive\enbed\CH573\AHL-CH573-EXP-V1.3-20241124\03-Software\CH08\UART-ISR-CH573\Debug/srcc/uart.c:159
              x = (x + 5) / 10;
   137c8:	0795                	addi	a5,a5,5
   137ca:	4729                	li	a4,10
   137cc:	02e7d7b3          	divu	a5,a5,a4
C:\Users\liangfan\OneDrive\enbed\CH573\AHL-CH573-EXP-V1.3-20241124\03-Software\CH08\UART-ISR-CH573\Debug/srcc/uart.c:160
              R16_UART2_DL = (uint16_t)x;
   137d0:	07c2                	slli	a5,a5,0x10
   137d2:	83c1                	srli	a5,a5,0x10
   137d4:	80f69623          	sh	a5,-2036(a3)
C:\Users\liangfan\OneDrive\enbed\CH573\AHL-CH573-EXP-V1.3-20241124\03-Software\CH08\UART-ISR-CH573\Debug/srcc/uart.c:161
              break;
   137d8:	8082                	ret
C:\Users\liangfan\OneDrive\enbed\CH573\AHL-CH573-EXP-V1.3-20241124\03-Software\CH08\UART-ISR-CH573\Debug/srcc/uart.c:164
        case UART_3:

                R32_PA_OUT |= ((uint32_t)(bTXD3));
   137da:	400017b7          	lui	a5,0x40001
   137de:	0a87a703          	lw	a4,168(a5) # 400010a8 <_eusrstack+0x1fff90a8>
   137e2:	02076713          	ori	a4,a4,32
   137e6:	0ae7a423          	sw	a4,168(a5)
C:\Users\liangfan\OneDrive\enbed\CH573\AHL-CH573-EXP-V1.3-20241124\03-Software\CH08\UART-ISR-CH573\Debug/srcc/uart.c:166
                //PA4->RX
                R32_PA_PD_DRV &= ~((uint32_t)(bRXD3));
   137ea:	0b47a703          	lw	a4,180(a5)
   137ee:	9b3d                	andi	a4,a4,-17
   137f0:	0ae7aa23          	sw	a4,180(a5)
C:\Users\liangfan\OneDrive\enbed\CH573\AHL-CH573-EXP-V1.3-20241124\03-Software\CH08\UART-ISR-CH573\Debug/srcc/uart.c:167
                R32_PA_PU     |= ((uint32_t)(bRXD3));
   137f4:	0b07a703          	lw	a4,176(a5)
   137f8:	01076713          	ori	a4,a4,16
   137fc:	0ae7a823          	sw	a4,176(a5)
C:\Users\liangfan\OneDrive\enbed\CH573\AHL-CH573-EXP-V1.3-20241124\03-Software\CH08\UART-ISR-CH573\Debug/srcc/uart.c:168
                R32_PA_DIR    &= ~((uint32_t)(bRXD3));
   13800:	0a07a703          	lw	a4,160(a5)
   13804:	9b3d                	andi	a4,a4,-17
   13806:	0ae7a023          	sw	a4,160(a5)
C:\Users\liangfan\OneDrive\enbed\CH573\AHL-CH573-EXP-V1.3-20241124\03-Software\CH08\UART-ISR-CH573\Debug/srcc/uart.c:170
                //PA5->TX
                R32_PA_PD_DRV &= ~((uint32_t)(bTXD3));
   1380a:	0b47a703          	lw	a4,180(a5)
   1380e:	fdf77713          	andi	a4,a4,-33
   13812:	0ae7aa23          	sw	a4,180(a5)
C:\Users\liangfan\OneDrive\enbed\CH573\AHL-CH573-EXP-V1.3-20241124\03-Software\CH08\UART-ISR-CH573\Debug/srcc/uart.c:171
                R32_PA_DIR    |= ((uint32_t)(bTXD3));
   13816:	0a07a703          	lw	a4,160(a5)
   1381a:	02076713          	ori	a4,a4,32
   1381e:	0ae7a023          	sw	a4,160(a5)
C:\Users\liangfan\OneDrive\enbed\CH573\AHL-CH573-EXP-V1.3-20241124\03-Software\CH08\UART-ISR-CH573\Debug/srcc/uart.c:174

//                R8_UART3_FCR = (2<<6) | RB_FCR_TX_FIFO_CLR | RB_FCR_RX_FIFO_CLR | RB_FCR_FIFO_EN;       // FIFO打开，触发点4字节
                R8_UART3_LCR = RB_LCR_WORD_SZ;
   13822:	40004737          	lui	a4,0x40004
   13826:	478d                	li	a5,3
   13828:	c0f701a3          	sb	a5,-1021(a4) # 40003c03 <_eusrstack+0x1fffbc03>
C:\Users\liangfan\OneDrive\enbed\CH573\AHL-CH573-EXP-V1.3-20241124\03-Software\CH08\UART-ISR-CH573\Debug/srcc/uart.c:175
                R8_UART3_IER = RB_IER_TXD_EN;
   1382c:	04000793          	li	a5,64
   13830:	c0f700a3          	sb	a5,-1023(a4)
C:\Users\liangfan\OneDrive\enbed\CH573\AHL-CH573-EXP-V1.3-20241124\03-Software\CH08\UART-ISR-CH573\Debug/srcc/uart.c:176
                R8_UART3_DIV = 1;
   13834:	4785                	li	a5,1
   13836:	c0f70723          	sb	a5,-1010(a4)
C:\Users\liangfan\OneDrive\enbed\CH573\AHL-CH573-EXP-V1.3-20241124\03-Software\CH08\UART-ISR-CH573\Debug/srcc/uart.c:179

               //配置波特率115200
                x = 10 * (480000000/(0x08)) / 8 / baud_rate;
   1383a:	047877b7          	lui	a5,0x4787
   1383e:	8c078793          	addi	a5,a5,-1856 # 47868c0 <_data_lma+0x47704f0>
   13842:	02b7d7b3          	divu	a5,a5,a1
C:\Users\liangfan\OneDrive\enbed\CH573\AHL-CH573-EXP-V1.3-20241124\03-Software\CH08\UART-ISR-CH573\Debug/srcc/uart.c:180
                x = (x + 5) / 10;
   13846:	0795                	addi	a5,a5,5
   13848:	46a9                	li	a3,10
   1384a:	02d7d7b3          	divu	a5,a5,a3
C:\Users\liangfan\OneDrive\enbed\CH573\AHL-CH573-EXP-V1.3-20241124\03-Software\CH08\UART-ISR-CH573\Debug/srcc/uart.c:181
                R16_UART3_DL = (uint16_t)x;
   1384e:	07c2                	slli	a5,a5,0x10
   13850:	83c1                	srli	a5,a5,0x10
   13852:	c0f71623          	sh	a5,-1012(a4)
C:\Users\liangfan\OneDrive\enbed\CH573\AHL-CH573-EXP-V1.3-20241124\03-Software\CH08\UART-ISR-CH573\Debug/srcc/uart.c:187
                break;
        default:
            break;
    }

}
   13856:	8082                	ret

00013858 <uart_send1>:
uart_send1():
C:\Users\liangfan\OneDrive\enbed\CH573\AHL-CH573-EXP-V1.3-20241124\03-Software\CH08\UART-ISR-CH573\Debug/srcc/uart.c:201
uint8_t uart_send1(uint8_t uartNo,uint8_t ch)
{
  uint32_t t;

    //判断传入串口号参数是否有误，有误直接退出
    if(uart_is_uartNo(uartNo)==0)
   13858:	470d                	li	a4,3
   1385a:	10a76463          	bltu	a4,a0,13962 <uart_send1+0x10a>
C:\Users\liangfan\OneDrive\enbed\CH573\AHL-CH573-EXP-V1.3-20241124\03-Software\CH08\UART-ISR-CH573\Debug/srcc/uart.c:206
    {
        return 0;
    }
    //判断UARTx号
    switch (uartNo)
   1385e:	4705                	li	a4,1
   13860:	06e50863          	beq	a0,a4,138d0 <uart_send1+0x78>
   13864:	01851713          	slli	a4,a0,0x18
   13868:	8761                	srai	a4,a4,0x18
   1386a:	cb49                	beqz	a4,138fc <uart_send1+0xa4>
   1386c:	4709                	li	a4,2
   1386e:	02e50b63          	beq	a0,a4,138a4 <uart_send1+0x4c>
   13872:	470d                	li	a4,3
   13874:	0ae51f63          	bne	a0,a4,13932 <uart_send1+0xda>
C:\Users\liangfan\OneDrive\enbed\CH573\AHL-CH573-EXP-V1.3-20241124\03-Software\CH08\UART-ISR-CH573\Debug/srcc/uart.c:238
          }
            break;
        case 3:
          for (t = 0; t < 0xFBBB; t++)//查询指定次数
          {
            if(R8_UART3_LSR &RB_LSR_TX_FIFO_EMP){
   13878:	400047b7          	lui	a5,0x40004
   1387c:	c057c783          	lbu	a5,-1019(a5) # 40003c05 <_eusrstack+0x1fffbc05>
   13880:	0207f793          	andi	a5,a5,32
   13884:	ebe9                	bnez	a5,13956 <uart_send1+0xfe>
C:\Users\liangfan\OneDrive\enbed\CH573\AHL-CH573-EXP-V1.3-20241124\03-Software\CH08\UART-ISR-CH573\Debug/srcc/uart.c:236
          for (t = 0; t < 0xFBBB; t++)//查询指定次数
   13886:	4785                	li	a5,1
C:\Users\liangfan\OneDrive\enbed\CH573\AHL-CH573-EXP-V1.3-20241124\03-Software\CH08\UART-ISR-CH573\Debug/srcc/uart.c:238
            if(R8_UART3_LSR &RB_LSR_TX_FIFO_EMP){
   13888:	40004637          	lui	a2,0x40004
C:\Users\liangfan\OneDrive\enbed\CH573\AHL-CH573-EXP-V1.3-20241124\03-Software\CH08\UART-ISR-CH573\Debug/srcc/uart.c:236
          for (t = 0; t < 0xFBBB; t++)//查询指定次数
   1388c:	66c1                	lui	a3,0x10
   1388e:	bbb68693          	addi	a3,a3,-1093 # fbbb <MCU_SECTORSIZE+0xebbb>
C:\Users\liangfan\OneDrive\enbed\CH573\AHL-CH573-EXP-V1.3-20241124\03-Software\CH08\UART-ISR-CH573\Debug/srcc/uart.c:238
            if(R8_UART3_LSR &RB_LSR_TX_FIFO_EMP){
   13892:	c0564703          	lbu	a4,-1019(a2) # 40003c05 <_eusrstack+0x1fffbc05>
   13896:	02077713          	andi	a4,a4,32
   1389a:	ef5d                	bnez	a4,13958 <uart_send1+0x100>
C:\Users\liangfan\OneDrive\enbed\CH573\AHL-CH573-EXP-V1.3-20241124\03-Software\CH08\UART-ISR-CH573\Debug/srcc/uart.c:236 (discriminator 2)
          for (t = 0; t < 0xFBBB; t++)//查询指定次数
   1389c:	0785                	addi	a5,a5,1
   1389e:	fed79ae3          	bne	a5,a3,13892 <uart_send1+0x3a>
   138a2:	a841                	j	13932 <uart_send1+0xda>
C:\Users\liangfan\OneDrive\enbed\CH573\AHL-CH573-EXP-V1.3-20241124\03-Software\CH08\UART-ISR-CH573\Debug/srcc/uart.c:229
            if(R8_UART2_LSR &RB_LSR_TX_FIFO_EMP){
   138a4:	400047b7          	lui	a5,0x40004
   138a8:	8057c783          	lbu	a5,-2043(a5) # 40003805 <_eusrstack+0x1fffb805>
   138ac:	0207f793          	andi	a5,a5,32
   138b0:	efc9                	bnez	a5,1394a <uart_send1+0xf2>
C:\Users\liangfan\OneDrive\enbed\CH573\AHL-CH573-EXP-V1.3-20241124\03-Software\CH08\UART-ISR-CH573\Debug/srcc/uart.c:227
          for (t = 0; t < 0xFBBB; t++)//查询指定次数
   138b2:	4785                	li	a5,1
C:\Users\liangfan\OneDrive\enbed\CH573\AHL-CH573-EXP-V1.3-20241124\03-Software\CH08\UART-ISR-CH573\Debug/srcc/uart.c:229
            if(R8_UART2_LSR &RB_LSR_TX_FIFO_EMP){
   138b4:	40004637          	lui	a2,0x40004
C:\Users\liangfan\OneDrive\enbed\CH573\AHL-CH573-EXP-V1.3-20241124\03-Software\CH08\UART-ISR-CH573\Debug/srcc/uart.c:227
          for (t = 0; t < 0xFBBB; t++)//查询指定次数
   138b8:	66c1                	lui	a3,0x10
   138ba:	bbb68693          	addi	a3,a3,-1093 # fbbb <MCU_SECTORSIZE+0xebbb>
C:\Users\liangfan\OneDrive\enbed\CH573\AHL-CH573-EXP-V1.3-20241124\03-Software\CH08\UART-ISR-CH573\Debug/srcc/uart.c:229
            if(R8_UART2_LSR &RB_LSR_TX_FIFO_EMP){
   138be:	80564703          	lbu	a4,-2043(a2) # 40003805 <_eusrstack+0x1fffb805>
   138c2:	02077713          	andi	a4,a4,32
   138c6:	e359                	bnez	a4,1394c <uart_send1+0xf4>
C:\Users\liangfan\OneDrive\enbed\CH573\AHL-CH573-EXP-V1.3-20241124\03-Software\CH08\UART-ISR-CH573\Debug/srcc/uart.c:227 (discriminator 2)
          for (t = 0; t < 0xFBBB; t++)//查询指定次数
   138c8:	0785                	addi	a5,a5,1
   138ca:	fed79ae3          	bne	a5,a3,138be <uart_send1+0x66>
   138ce:	a095                	j	13932 <uart_send1+0xda>
C:\Users\liangfan\OneDrive\enbed\CH573\AHL-CH573-EXP-V1.3-20241124\03-Software\CH08\UART-ISR-CH573\Debug/srcc/uart.c:220
            if(R8_UART1_LSR &RB_LSR_TX_FIFO_EMP){
   138d0:	400037b7          	lui	a5,0x40003
   138d4:	4057c783          	lbu	a5,1029(a5) # 40003405 <_eusrstack+0x1fffb405>
   138d8:	0207f793          	andi	a5,a5,32
   138dc:	e3ad                	bnez	a5,1393e <uart_send1+0xe6>
C:\Users\liangfan\OneDrive\enbed\CH573\AHL-CH573-EXP-V1.3-20241124\03-Software\CH08\UART-ISR-CH573\Debug/srcc/uart.c:218
          for (t = 0; t < 0xFBBB; t++)//查询指定次数
   138de:	4785                	li	a5,1
C:\Users\liangfan\OneDrive\enbed\CH573\AHL-CH573-EXP-V1.3-20241124\03-Software\CH08\UART-ISR-CH573\Debug/srcc/uart.c:220
            if(R8_UART1_LSR &RB_LSR_TX_FIFO_EMP){
   138e0:	40003637          	lui	a2,0x40003
C:\Users\liangfan\OneDrive\enbed\CH573\AHL-CH573-EXP-V1.3-20241124\03-Software\CH08\UART-ISR-CH573\Debug/srcc/uart.c:218
          for (t = 0; t < 0xFBBB; t++)//查询指定次数
   138e4:	66c1                	lui	a3,0x10
   138e6:	bbb68693          	addi	a3,a3,-1093 # fbbb <MCU_SECTORSIZE+0xebbb>
C:\Users\liangfan\OneDrive\enbed\CH573\AHL-CH573-EXP-V1.3-20241124\03-Software\CH08\UART-ISR-CH573\Debug/srcc/uart.c:220
            if(R8_UART1_LSR &RB_LSR_TX_FIFO_EMP){
   138ea:	40564703          	lbu	a4,1029(a2) # 40003405 <_eusrstack+0x1fffb405>
   138ee:	02077713          	andi	a4,a4,32
   138f2:	e739                	bnez	a4,13940 <uart_send1+0xe8>
C:\Users\liangfan\OneDrive\enbed\CH573\AHL-CH573-EXP-V1.3-20241124\03-Software\CH08\UART-ISR-CH573\Debug/srcc/uart.c:218 (discriminator 2)
          for (t = 0; t < 0xFBBB; t++)//查询指定次数
   138f4:	0785                	addi	a5,a5,1
   138f6:	fed79ae3          	bne	a5,a3,138ea <uart_send1+0x92>
   138fa:	a825                	j	13932 <uart_send1+0xda>
C:\Users\liangfan\OneDrive\enbed\CH573\AHL-CH573-EXP-V1.3-20241124\03-Software\CH08\UART-ISR-CH573\Debug/srcc/uart.c:211
            if(R8_UART0_LSR &RB_LSR_TX_FIFO_EMP){
   138fc:	400037b7          	lui	a5,0x40003
   13900:	0057c783          	lbu	a5,5(a5) # 40003005 <_eusrstack+0x1fffb005>
   13904:	0207f793          	andi	a5,a5,32
   13908:	e385                	bnez	a5,13928 <uart_send1+0xd0>
C:\Users\liangfan\OneDrive\enbed\CH573\AHL-CH573-EXP-V1.3-20241124\03-Software\CH08\UART-ISR-CH573\Debug/srcc/uart.c:209
          for (t = 0; t < 0xFBBB; t++)//查询指定次数
   1390a:	4785                	li	a5,1
C:\Users\liangfan\OneDrive\enbed\CH573\AHL-CH573-EXP-V1.3-20241124\03-Software\CH08\UART-ISR-CH573\Debug/srcc/uart.c:211
            if(R8_UART0_LSR &RB_LSR_TX_FIFO_EMP){
   1390c:	40003637          	lui	a2,0x40003
C:\Users\liangfan\OneDrive\enbed\CH573\AHL-CH573-EXP-V1.3-20241124\03-Software\CH08\UART-ISR-CH573\Debug/srcc/uart.c:209
          for (t = 0; t < 0xFBBB; t++)//查询指定次数
   13910:	66c1                	lui	a3,0x10
   13912:	bbb68693          	addi	a3,a3,-1093 # fbbb <MCU_SECTORSIZE+0xebbb>
C:\Users\liangfan\OneDrive\enbed\CH573\AHL-CH573-EXP-V1.3-20241124\03-Software\CH08\UART-ISR-CH573\Debug/srcc/uart.c:211
            if(R8_UART0_LSR &RB_LSR_TX_FIFO_EMP){
   13916:	00564703          	lbu	a4,5(a2) # 40003005 <_eusrstack+0x1fffb005>
   1391a:	02077713          	andi	a4,a4,32
   1391e:	e711                	bnez	a4,1392a <uart_send1+0xd2>
C:\Users\liangfan\OneDrive\enbed\CH573\AHL-CH573-EXP-V1.3-20241124\03-Software\CH08\UART-ISR-CH573\Debug/srcc/uart.c:209 (discriminator 2)
          for (t = 0; t < 0xFBBB; t++)//查询指定次数
   13920:	0785                	addi	a5,a5,1
   13922:	fed79ae3          	bne	a5,a3,13916 <uart_send1+0xbe>
   13926:	a031                	j	13932 <uart_send1+0xda>
C:\Users\liangfan\OneDrive\enbed\CH573\AHL-CH573-EXP-V1.3-20241124\03-Software\CH08\UART-ISR-CH573\Debug/srcc/uart.c:209
   13928:	4781                	li	a5,0
C:\Users\liangfan\OneDrive\enbed\CH573\AHL-CH573-EXP-V1.3-20241124\03-Software\CH08\UART-ISR-CH573\Debug/srcc/uart.c:212
              R8_UART0_THR = ch;
   1392a:	40003737          	lui	a4,0x40003
   1392e:	00b70423          	sb	a1,8(a4) # 40003008 <_eusrstack+0x1fffb008>
C:\Users\liangfan\OneDrive\enbed\CH573\AHL-CH573-EXP-V1.3-20241124\03-Software\CH08\UART-ISR-CH573\Debug/srcc/uart.c:203
        return 0;
   13932:	6541                	lui	a0,0x10
   13934:	bbb50513          	addi	a0,a0,-1093 # fbbb <MCU_SECTORSIZE+0xebbb>
   13938:	00a7b533          	sltu	a0,a5,a0
   1393c:	8082                	ret
C:\Users\liangfan\OneDrive\enbed\CH573\AHL-CH573-EXP-V1.3-20241124\03-Software\CH08\UART-ISR-CH573\Debug/srcc/uart.c:218
          for (t = 0; t < 0xFBBB; t++)//查询指定次数
   1393e:	4781                	li	a5,0
C:\Users\liangfan\OneDrive\enbed\CH573\AHL-CH573-EXP-V1.3-20241124\03-Software\CH08\UART-ISR-CH573\Debug/srcc/uart.c:221
              R8_UART1_THR = ch;
   13940:	40003737          	lui	a4,0x40003
   13944:	40b70423          	sb	a1,1032(a4) # 40003408 <_eusrstack+0x1fffb408>
C:\Users\liangfan\OneDrive\enbed\CH573\AHL-CH573-EXP-V1.3-20241124\03-Software\CH08\UART-ISR-CH573\Debug/srcc/uart.c:222
              break;
   13948:	b7ed                	j	13932 <uart_send1+0xda>
C:\Users\liangfan\OneDrive\enbed\CH573\AHL-CH573-EXP-V1.3-20241124\03-Software\CH08\UART-ISR-CH573\Debug/srcc/uart.c:227
          for (t = 0; t < 0xFBBB; t++)//查询指定次数
   1394a:	4781                	li	a5,0
C:\Users\liangfan\OneDrive\enbed\CH573\AHL-CH573-EXP-V1.3-20241124\03-Software\CH08\UART-ISR-CH573\Debug/srcc/uart.c:230
              R8_UART2_THR = ch;
   1394c:	40004737          	lui	a4,0x40004
   13950:	80b70423          	sb	a1,-2040(a4) # 40003808 <_eusrstack+0x1fffb808>
C:\Users\liangfan\OneDrive\enbed\CH573\AHL-CH573-EXP-V1.3-20241124\03-Software\CH08\UART-ISR-CH573\Debug/srcc/uart.c:231
              break;
   13954:	bff9                	j	13932 <uart_send1+0xda>
C:\Users\liangfan\OneDrive\enbed\CH573\AHL-CH573-EXP-V1.3-20241124\03-Software\CH08\UART-ISR-CH573\Debug/srcc/uart.c:236
          for (t = 0; t < 0xFBBB; t++)//查询指定次数
   13956:	4781                	li	a5,0
C:\Users\liangfan\OneDrive\enbed\CH573\AHL-CH573-EXP-V1.3-20241124\03-Software\CH08\UART-ISR-CH573\Debug/srcc/uart.c:239
              R8_UART3_THR = ch;
   13958:	40004737          	lui	a4,0x40004
   1395c:	c0b70423          	sb	a1,-1016(a4) # 40003c08 <_eusrstack+0x1fffbc08>
C:\Users\liangfan\OneDrive\enbed\CH573\AHL-CH573-EXP-V1.3-20241124\03-Software\CH08\UART-ISR-CH573\Debug/srcc/uart.c:240
              break;
   13960:	bfc9                	j	13932 <uart_send1+0xda>
C:\Users\liangfan\OneDrive\enbed\CH573\AHL-CH573-EXP-V1.3-20241124\03-Software\CH08\UART-ISR-CH573\Debug/srcc/uart.c:203
        return 0;
   13962:	4501                	li	a0,0
C:\Users\liangfan\OneDrive\enbed\CH573\AHL-CH573-EXP-V1.3-20241124\03-Software\CH08\UART-ISR-CH573\Debug/srcc/uart.c:252

    if (t >= 0xFBBB)
        return 0; //发送超时，发送失败
    else
        return 1; //成功发送
}
   13964:	8082                	ret

00013966 <uart_re1>:
uart_re1():
C:\Users\liangfan\OneDrive\enbed\CH573\AHL-CH573-EXP-V1.3-20241124\03-Software\CH08\UART-ISR-CH573\Debug/srcc/uart.c:428
//======================================================================
uint8_t uart_re1(uint8_t uartNo,uint8_t *fp)
{
    uint8_t dat;
    uint8_t flag;
    switch (uartNo)
   13966:	4705                	li	a4,1
   13968:	02e50a63          	beq	a0,a4,1399c <uart_re1+0x36>
   1396c:	01851713          	slli	a4,a0,0x18
   13970:	8761                	srai	a4,a4,0x18
   13972:	cb09                	beqz	a4,13984 <uart_re1+0x1e>
   13974:	4709                	li	a4,2
   13976:	02e50f63          	beq	a0,a4,139b4 <uart_re1+0x4e>
   1397a:	470d                	li	a4,3
   1397c:	04e50863          	beq	a0,a4,139cc <uart_re1+0x66>
C:\Users\liangfan\OneDrive\enbed\CH573\AHL-CH573-EXP-V1.3-20241124\03-Software\CH08\UART-ISR-CH573\Debug/srcc/uart.c:454
            break;
        default:
            break;
    }
    return (dat);
}
   13980:	853e                	mv	a0,a5
   13982:	8082                	ret
C:\Users\liangfan\OneDrive\enbed\CH573\AHL-CH573-EXP-V1.3-20241124\03-Software\CH08\UART-ISR-CH573\Debug/srcc/uart.c:431
            *fp =1;
   13984:	4785                	li	a5,1
   13986:	00f58023          	sb	a5,0(a1)
C:\Users\liangfan\OneDrive\enbed\CH573\AHL-CH573-EXP-V1.3-20241124\03-Software\CH08\UART-ISR-CH573\Debug/srcc/uart.c:432
            flag = R8_UART0_LSR;
   1398a:	400037b7          	lui	a5,0x40003
   1398e:	0057c703          	lbu	a4,5(a5) # 40003005 <_eusrstack+0x1fffb005>
C:\Users\liangfan\OneDrive\enbed\CH573\AHL-CH573-EXP-V1.3-20241124\03-Software\CH08\UART-ISR-CH573\Debug/srcc/uart.c:433
            return R8_UART0_RBR;
   13992:	0087c783          	lbu	a5,8(a5)
   13996:	0ff7f793          	andi	a5,a5,255
   1399a:	b7dd                	j	13980 <uart_re1+0x1a>
C:\Users\liangfan\OneDrive\enbed\CH573\AHL-CH573-EXP-V1.3-20241124\03-Software\CH08\UART-ISR-CH573\Debug/srcc/uart.c:436
            *fp =1;
   1399c:	4785                	li	a5,1
   1399e:	00f58023          	sb	a5,0(a1)
C:\Users\liangfan\OneDrive\enbed\CH573\AHL-CH573-EXP-V1.3-20241124\03-Software\CH08\UART-ISR-CH573\Debug/srcc/uart.c:437
            flag = R8_UART1_LSR;
   139a2:	400037b7          	lui	a5,0x40003
   139a6:	4057c703          	lbu	a4,1029(a5) # 40003405 <_eusrstack+0x1fffb405>
C:\Users\liangfan\OneDrive\enbed\CH573\AHL-CH573-EXP-V1.3-20241124\03-Software\CH08\UART-ISR-CH573\Debug/srcc/uart.c:438
            dat = R8_UART1_RBR;
   139aa:	4087c783          	lbu	a5,1032(a5)
   139ae:	0ff7f793          	andi	a5,a5,255
C:\Users\liangfan\OneDrive\enbed\CH573\AHL-CH573-EXP-V1.3-20241124\03-Software\CH08\UART-ISR-CH573\Debug/srcc/uart.c:439
            break;
   139b2:	b7f9                	j	13980 <uart_re1+0x1a>
C:\Users\liangfan\OneDrive\enbed\CH573\AHL-CH573-EXP-V1.3-20241124\03-Software\CH08\UART-ISR-CH573\Debug/srcc/uart.c:441
            *fp =1;
   139b4:	4785                	li	a5,1
   139b6:	00f58023          	sb	a5,0(a1)
C:\Users\liangfan\OneDrive\enbed\CH573\AHL-CH573-EXP-V1.3-20241124\03-Software\CH08\UART-ISR-CH573\Debug/srcc/uart.c:442
            flag = R8_UART2_LSR;
   139ba:	400047b7          	lui	a5,0x40004
   139be:	8057c703          	lbu	a4,-2043(a5) # 40003805 <_eusrstack+0x1fffb805>
C:\Users\liangfan\OneDrive\enbed\CH573\AHL-CH573-EXP-V1.3-20241124\03-Software\CH08\UART-ISR-CH573\Debug/srcc/uart.c:443
            dat = R8_UART2_RBR;
   139c2:	8087c783          	lbu	a5,-2040(a5)
   139c6:	0ff7f793          	andi	a5,a5,255
C:\Users\liangfan\OneDrive\enbed\CH573\AHL-CH573-EXP-V1.3-20241124\03-Software\CH08\UART-ISR-CH573\Debug/srcc/uart.c:444
            break;
   139ca:	bf5d                	j	13980 <uart_re1+0x1a>
C:\Users\liangfan\OneDrive\enbed\CH573\AHL-CH573-EXP-V1.3-20241124\03-Software\CH08\UART-ISR-CH573\Debug/srcc/uart.c:446
            *fp =1;
   139cc:	4785                	li	a5,1
   139ce:	00f58023          	sb	a5,0(a1)
C:\Users\liangfan\OneDrive\enbed\CH573\AHL-CH573-EXP-V1.3-20241124\03-Software\CH08\UART-ISR-CH573\Debug/srcc/uart.c:447
            flag = R8_UART3_LSR;
   139d2:	400047b7          	lui	a5,0x40004
   139d6:	c057c703          	lbu	a4,-1019(a5) # 40003c05 <_eusrstack+0x1fffbc05>
C:\Users\liangfan\OneDrive\enbed\CH573\AHL-CH573-EXP-V1.3-20241124\03-Software\CH08\UART-ISR-CH573\Debug/srcc/uart.c:448
            dat = R8_UART3_RBR;
   139da:	c087c783          	lbu	a5,-1016(a5)
   139de:	0ff7f793          	andi	a5,a5,255
C:\Users\liangfan\OneDrive\enbed\CH573\AHL-CH573-EXP-V1.3-20241124\03-Software\CH08\UART-ISR-CH573\Debug/srcc/uart.c:449
            break;
   139e2:	bf79                	j	13980 <uart_re1+0x1a>

000139e4 <uart_enable_re_int>:
uart_enable_re_int():
C:\Users\liangfan\OneDrive\enbed\CH573\AHL-CH573-EXP-V1.3-20241124\03-Software\CH08\UART-ISR-CH573\Debug/srcc/uart.c:497
//功能概要：开串口接收中断
//======================================================================
void uart_enable_re_int(uint8_t uartNo)
{
    //判断传入串口号参数是否有误，有误直接退出
    if(!uart_is_uartNo(uartNo))
   139e4:	478d                	li	a5,3
   139e6:	0ca7e163          	bltu	a5,a0,13aa8 <uart_enable_re_int+0xc4>
C:\Users\liangfan\OneDrive\enbed\CH573\AHL-CH573-EXP-V1.3-20241124\03-Software\CH08\UART-ISR-CH573\Debug/srcc/uart.c:502
    {
        return;
    }

    switch (uartNo)
   139ea:	4785                	li	a5,1
   139ec:	04f50263          	beq	a0,a5,13a30 <uart_enable_re_int+0x4c>
   139f0:	01851793          	slli	a5,a0,0x18
   139f4:	87e1                	srai	a5,a5,0x18
   139f6:	cb81                	beqz	a5,13a06 <uart_enable_re_int+0x22>
   139f8:	4789                	li	a5,2
   139fa:	06f50063          	beq	a0,a5,13a5a <uart_enable_re_int+0x76>
   139fe:	478d                	li	a5,3
   13a00:	08f50163          	beq	a0,a5,13a82 <uart_enable_re_int+0x9e>
   13a04:	8082                	ret
C:\Users\liangfan\OneDrive\enbed\CH573\AHL-CH573-EXP-V1.3-20241124\03-Software\CH08\UART-ISR-CH573\Debug/srcc/uart.c:507
    {
        case 0:
//            R8_UART0_FCR = (R8_UART0_FCR&~RB_FCR_FIFO_TRIG)|(3<<6);
//            R8_UART0_IER |= (RB_IER_RECV_RDY|RB_IER_LINE_STAT);
            R8_UART0_IER |= RB_IER_RECV_RDY;
   13a06:	400037b7          	lui	a5,0x40003
   13a0a:	0017c703          	lbu	a4,1(a5) # 40003001 <_eusrstack+0x1fffb001>
   13a0e:	00176713          	ori	a4,a4,1
   13a12:	00e780a3          	sb	a4,1(a5)
C:\Users\liangfan\OneDrive\enbed\CH573\AHL-CH573-EXP-V1.3-20241124\03-Software\CH08\UART-ISR-CH573\Debug/srcc/uart.c:508
            R8_UART0_MCR |= RB_MCR_INT_OE;
   13a16:	0007c703          	lbu	a4,0(a5)
   13a1a:	00876713          	ori	a4,a4,8
   13a1e:	00e78023          	sb	a4,0(a5)
PFIC_EnableIRQ():
c:\Users\liangfan\OneDrive\enbed\CH573\AHL-CH573-EXP-V1.3-20241124\03-Software\CH08\UART-ISR-CH573\02_CPU/core_riscv.h:87
* Description    : Enable Interrupt
* Input          : IRQn: Interrupt Numbers
* Return         : None
*******************************************************************************/
RV_STATIC_INLINE void PFIC_EnableIRQ(IRQn_Type IRQn){
    PFIC->IENR[((UINT32)(IRQn) >> 5)] = (1 << ((UINT32)(IRQn) & 0x1F));
   13a22:	e000e7b7          	lui	a5,0xe000e
   13a26:	04000737          	lui	a4,0x4000
   13a2a:	10e7a023          	sw	a4,256(a5) # e000e100 <_eusrstack+0xc0006100>
   13a2e:	8082                	ret
uart_enable_re_int():
C:\Users\liangfan\OneDrive\enbed\CH573\AHL-CH573-EXP-V1.3-20241124\03-Software\CH08\UART-ISR-CH573\Debug/srcc/uart.c:515
            break;
        case 1:
//            R8_UART1_FCR = (R8_UART1_FCR&~RB_FCR_FIFO_TRIG)|(3<<6);

//            R8_UART1_IER |= (RB_IER_RECV_RDY|RB_IER_LINE_STAT);
            R8_UART1_IER |= RB_IER_RECV_RDY;
   13a30:	400037b7          	lui	a5,0x40003
   13a34:	4017c703          	lbu	a4,1025(a5) # 40003401 <_eusrstack+0x1fffb401>
   13a38:	00176713          	ori	a4,a4,1
   13a3c:	40e780a3          	sb	a4,1025(a5)
C:\Users\liangfan\OneDrive\enbed\CH573\AHL-CH573-EXP-V1.3-20241124\03-Software\CH08\UART-ISR-CH573\Debug/srcc/uart.c:516
            R8_UART1_MCR |= RB_MCR_INT_OE;
   13a40:	4007c703          	lbu	a4,1024(a5)
   13a44:	00876713          	ori	a4,a4,8
   13a48:	40e78023          	sb	a4,1024(a5)
PFIC_EnableIRQ():
c:\Users\liangfan\OneDrive\enbed\CH573\AHL-CH573-EXP-V1.3-20241124\03-Software\CH08\UART-ISR-CH573\02_CPU/core_riscv.h:87
   13a4c:	e000e7b7          	lui	a5,0xe000e
   13a50:	08000737          	lui	a4,0x8000
   13a54:	10e7a023          	sw	a4,256(a5) # e000e100 <_eusrstack+0xc0006100>
   13a58:	8082                	ret
uart_enable_re_int():
C:\Users\liangfan\OneDrive\enbed\CH573\AHL-CH573-EXP-V1.3-20241124\03-Software\CH08\UART-ISR-CH573\Debug/srcc/uart.c:521
            PFIC_EnableIRQ( UART1_IRQn );
            break;
        case 2:
//            R8_UART2_IER |= (RB_IER_RECV_RDY|RB_IER_LINE_STAT);
            R8_UART2_IER |= RB_IER_RECV_RDY;
   13a5a:	400047b7          	lui	a5,0x40004
   13a5e:	8017c703          	lbu	a4,-2047(a5) # 40003801 <_eusrstack+0x1fffb801>
   13a62:	00176713          	ori	a4,a4,1
   13a66:	80e780a3          	sb	a4,-2047(a5)
C:\Users\liangfan\OneDrive\enbed\CH573\AHL-CH573-EXP-V1.3-20241124\03-Software\CH08\UART-ISR-CH573\Debug/srcc/uart.c:522
            R8_UART2_MCR |= RB_MCR_INT_OE;
   13a6a:	8007c703          	lbu	a4,-2048(a5)
   13a6e:	00876713          	ori	a4,a4,8
   13a72:	80e78023          	sb	a4,-2048(a5)
PFIC_EnableIRQ():
c:\Users\liangfan\OneDrive\enbed\CH573\AHL-CH573-EXP-V1.3-20241124\03-Software\CH08\UART-ISR-CH573\02_CPU/core_riscv.h:87
   13a76:	e000e7b7          	lui	a5,0xe000e
   13a7a:	4709                	li	a4,2
   13a7c:	10e7a223          	sw	a4,260(a5) # e000e104 <_eusrstack+0xc0006104>
   13a80:	8082                	ret
uart_enable_re_int():
C:\Users\liangfan\OneDrive\enbed\CH573\AHL-CH573-EXP-V1.3-20241124\03-Software\CH08\UART-ISR-CH573\Debug/srcc/uart.c:527
            PFIC_EnableIRQ( UART2_IRQn );
            break;
        case 3:
//            R8_UART3_IER |= (RB_IER_RECV_RDY|RB_IER_LINE_STAT);
            R8_UART3_IER |= RB_IER_RECV_RDY;
   13a82:	400047b7          	lui	a5,0x40004
   13a86:	c017c703          	lbu	a4,-1023(a5) # 40003c01 <_eusrstack+0x1fffbc01>
   13a8a:	00176713          	ori	a4,a4,1
   13a8e:	c0e780a3          	sb	a4,-1023(a5)
C:\Users\liangfan\OneDrive\enbed\CH573\AHL-CH573-EXP-V1.3-20241124\03-Software\CH08\UART-ISR-CH573\Debug/srcc/uart.c:528
            R8_UART3_MCR |= RB_MCR_INT_OE;
   13a92:	c007c703          	lbu	a4,-1024(a5)
   13a96:	00876713          	ori	a4,a4,8
   13a9a:	c0e78023          	sb	a4,-1024(a5)
PFIC_EnableIRQ():
c:\Users\liangfan\OneDrive\enbed\CH573\AHL-CH573-EXP-V1.3-20241124\03-Software\CH08\UART-ISR-CH573\02_CPU/core_riscv.h:87
   13a9e:	e000e7b7          	lui	a5,0xe000e
   13aa2:	4711                	li	a4,4
   13aa4:	10e7a223          	sw	a4,260(a5) # e000e104 <_eusrstack+0xc0006104>
uart_enable_re_int():
C:\Users\liangfan\OneDrive\enbed\CH573\AHL-CH573-EXP-V1.3-20241124\03-Software\CH08\UART-ISR-CH573\Debug/srcc/uart.c:536

        default:
            break;
    }

}
   13aa8:	8082                	ret

00013aaa <uart_get_re_int>:
uart_get_re_int():
C:\Users\liangfan\OneDrive\enbed\CH573\AHL-CH573-EXP-V1.3-20241124\03-Software\CH08\UART-ISR-CH573\Debug/srcc/uart.c:589
uint8_t uart_get_re_int(uint8_t uartNo)
{
    uint8_t event;
    uint8_t flag;
    //判断传入串口号参数是否有误，有误直接退出
    if(!uart_is_uartNo(uartNo))
   13aaa:	478d                	li	a5,3
   13aac:	10a7e763          	bltu	a5,a0,13bba <uart_get_re_int+0x110>
C:\Users\liangfan\OneDrive\enbed\CH573\AHL-CH573-EXP-V1.3-20241124\03-Software\CH08\UART-ISR-CH573\Debug/srcc/uart.c:594
    {
        return 0;
    }
    //获取当前接收中断标志，
    switch (uartNo)
   13ab0:	4785                	li	a5,1
   13ab2:	06f50c63          	beq	a0,a5,13b2a <uart_get_re_int+0x80>
   13ab6:	01851793          	slli	a5,a0,0x18
   13aba:	87e1                	srai	a5,a5,0x18
   13abc:	cb8d                	beqz	a5,13aee <uart_get_re_int+0x44>
   13abe:	4789                	li	a5,2
   13ac0:	0af50363          	beq	a0,a5,13b66 <uart_get_re_int+0xbc>
   13ac4:	478d                	li	a5,3
   13ac6:	0ef51b63          	bne	a0,a5,13bbc <uart_get_re_int+0x112>
C:\Users\liangfan\OneDrive\enbed\CH573\AHL-CH573-EXP-V1.3-20241124\03-Software\CH08\UART-ISR-CH573\Debug/srcc/uart.c:676
           default:
               break;
          }
            break;
       case 3:
          event = R8_UART3_IIR&RB_IIR_INT_MASK;
   13aca:	400047b7          	lui	a5,0x40004
   13ace:	c047c783          	lbu	a5,-1020(a5) # 40003c04 <_eusrstack+0x1fffbc04>
   13ad2:	8bbd                	andi	a5,a5,15
C:\Users\liangfan\OneDrive\enbed\CH573\AHL-CH573-EXP-V1.3-20241124\03-Software\CH08\UART-ISR-CH573\Debug/srcc/uart.c:677
          switch (event)
   13ad4:	46b1                	li	a3,12
   13ad6:	0ef6e363          	bltu	a3,a5,13bbc <uart_get_re_int+0x112>
   13ada:	00279613          	slli	a2,a5,0x2
   13ade:	00002597          	auipc	a1,0x2
   13ae2:	60658593          	addi	a1,a1,1542 # 160e4 <strlen+0x2d4>
   13ae6:	962e                	add	a2,a2,a1
   13ae8:	4214                	lw	a3,0(a2)
   13aea:	96ae                	add	a3,a3,a1
   13aec:	8682                	jr	a3
C:\Users\liangfan\OneDrive\enbed\CH573\AHL-CH573-EXP-V1.3-20241124\03-Software\CH08\UART-ISR-CH573\Debug/srcc/uart.c:597
            event = R8_UART0_IIR&RB_IIR_INT_MASK;
   13aee:	400037b7          	lui	a5,0x40003
   13af2:	0047c783          	lbu	a5,4(a5) # 40003004 <_eusrstack+0x1fffb004>
   13af6:	8bbd                	andi	a5,a5,15
C:\Users\liangfan\OneDrive\enbed\CH573\AHL-CH573-EXP-V1.3-20241124\03-Software\CH08\UART-ISR-CH573\Debug/srcc/uart.c:598
           switch (event)
   13af8:	46b1                	li	a3,12
   13afa:	0cf6e163          	bltu	a3,a5,13bbc <uart_get_re_int+0x112>
   13afe:	00279613          	slli	a2,a5,0x2
   13b02:	00002597          	auipc	a1,0x2
   13b06:	61658593          	addi	a1,a1,1558 # 16118 <strlen+0x308>
   13b0a:	962e                	add	a2,a2,a1
   13b0c:	4214                	lw	a3,0(a2)
   13b0e:	96ae                	add	a3,a3,a1
   13b10:	8682                	jr	a3
C:\Users\liangfan\OneDrive\enbed\CH573\AHL-CH573-EXP-V1.3-20241124\03-Software\CH08\UART-ISR-CH573\Debug/srcc/uart.c:601
                flag = 6;
   13b12:	873e                	mv	a4,a5
   13b14:	a065                	j	13bbc <uart_get_re_int+0x112>
C:\Users\liangfan\OneDrive\enbed\CH573\AHL-CH573-EXP-V1.3-20241124\03-Software\CH08\UART-ISR-CH573\Debug/srcc/uart.c:604
                flag = 4;
   13b16:	873e                	mv	a4,a5
C:\Users\liangfan\OneDrive\enbed\CH573\AHL-CH573-EXP-V1.3-20241124\03-Software\CH08\UART-ISR-CH573\Debug/srcc/uart.c:605
                break;
   13b18:	a055                	j	13bbc <uart_get_re_int+0x112>
C:\Users\liangfan\OneDrive\enbed\CH573\AHL-CH573-EXP-V1.3-20241124\03-Software\CH08\UART-ISR-CH573\Debug/srcc/uart.c:607
                flag = 12;
   13b1a:	873e                	mv	a4,a5
C:\Users\liangfan\OneDrive\enbed\CH573\AHL-CH573-EXP-V1.3-20241124\03-Software\CH08\UART-ISR-CH573\Debug/srcc/uart.c:608
                break;
   13b1c:	a045                	j	13bbc <uart_get_re_int+0x112>
C:\Users\liangfan\OneDrive\enbed\CH573\AHL-CH573-EXP-V1.3-20241124\03-Software\CH08\UART-ISR-CH573\Debug/srcc/uart.c:610
                flag = 2;
   13b1e:	873e                	mv	a4,a5
C:\Users\liangfan\OneDrive\enbed\CH573\AHL-CH573-EXP-V1.3-20241124\03-Software\CH08\UART-ISR-CH573\Debug/srcc/uart.c:611
                break;
   13b20:	a871                	j	13bbc <uart_get_re_int+0x112>
C:\Users\liangfan\OneDrive\enbed\CH573\AHL-CH573-EXP-V1.3-20241124\03-Software\CH08\UART-ISR-CH573\Debug/srcc/uart.c:613
                flag = 0;
   13b22:	873e                	mv	a4,a5
C:\Users\liangfan\OneDrive\enbed\CH573\AHL-CH573-EXP-V1.3-20241124\03-Software\CH08\UART-ISR-CH573\Debug/srcc/uart.c:614
                break;
   13b24:	a861                	j	13bbc <uart_get_re_int+0x112>
C:\Users\liangfan\OneDrive\enbed\CH573\AHL-CH573-EXP-V1.3-20241124\03-Software\CH08\UART-ISR-CH573\Debug/srcc/uart.c:616
                flag = 1;
   13b26:	873e                	mv	a4,a5
C:\Users\liangfan\OneDrive\enbed\CH573\AHL-CH573-EXP-V1.3-20241124\03-Software\CH08\UART-ISR-CH573\Debug/srcc/uart.c:617
                break;
   13b28:	a851                	j	13bbc <uart_get_re_int+0x112>
C:\Users\liangfan\OneDrive\enbed\CH573\AHL-CH573-EXP-V1.3-20241124\03-Software\CH08\UART-ISR-CH573\Debug/srcc/uart.c:623
            event = R8_UART1_IIR&RB_IIR_INT_MASK;
   13b2a:	400037b7          	lui	a5,0x40003
   13b2e:	4047c783          	lbu	a5,1028(a5) # 40003404 <_eusrstack+0x1fffb404>
   13b32:	8bbd                	andi	a5,a5,15
C:\Users\liangfan\OneDrive\enbed\CH573\AHL-CH573-EXP-V1.3-20241124\03-Software\CH08\UART-ISR-CH573\Debug/srcc/uart.c:624
           switch (event)
   13b34:	46b1                	li	a3,12
   13b36:	08f6e363          	bltu	a3,a5,13bbc <uart_get_re_int+0x112>
   13b3a:	00279613          	slli	a2,a5,0x2
   13b3e:	00002597          	auipc	a1,0x2
   13b42:	60e58593          	addi	a1,a1,1550 # 1614c <strlen+0x33c>
   13b46:	962e                	add	a2,a2,a1
   13b48:	4214                	lw	a3,0(a2)
   13b4a:	96ae                	add	a3,a3,a1
   13b4c:	8682                	jr	a3
C:\Users\liangfan\OneDrive\enbed\CH573\AHL-CH573-EXP-V1.3-20241124\03-Software\CH08\UART-ISR-CH573\Debug/srcc/uart.c:627
                flag = 6;
   13b4e:	873e                	mv	a4,a5
   13b50:	a0b5                	j	13bbc <uart_get_re_int+0x112>
C:\Users\liangfan\OneDrive\enbed\CH573\AHL-CH573-EXP-V1.3-20241124\03-Software\CH08\UART-ISR-CH573\Debug/srcc/uart.c:630
                flag = 4;
   13b52:	873e                	mv	a4,a5
C:\Users\liangfan\OneDrive\enbed\CH573\AHL-CH573-EXP-V1.3-20241124\03-Software\CH08\UART-ISR-CH573\Debug/srcc/uart.c:631
                break;
   13b54:	a0a5                	j	13bbc <uart_get_re_int+0x112>
C:\Users\liangfan\OneDrive\enbed\CH573\AHL-CH573-EXP-V1.3-20241124\03-Software\CH08\UART-ISR-CH573\Debug/srcc/uart.c:633
                flag = 12;
   13b56:	873e                	mv	a4,a5
C:\Users\liangfan\OneDrive\enbed\CH573\AHL-CH573-EXP-V1.3-20241124\03-Software\CH08\UART-ISR-CH573\Debug/srcc/uart.c:634
                break;
   13b58:	a095                	j	13bbc <uart_get_re_int+0x112>
C:\Users\liangfan\OneDrive\enbed\CH573\AHL-CH573-EXP-V1.3-20241124\03-Software\CH08\UART-ISR-CH573\Debug/srcc/uart.c:636
                flag = 2;
   13b5a:	873e                	mv	a4,a5
C:\Users\liangfan\OneDrive\enbed\CH573\AHL-CH573-EXP-V1.3-20241124\03-Software\CH08\UART-ISR-CH573\Debug/srcc/uart.c:637
                break;
   13b5c:	a085                	j	13bbc <uart_get_re_int+0x112>
C:\Users\liangfan\OneDrive\enbed\CH573\AHL-CH573-EXP-V1.3-20241124\03-Software\CH08\UART-ISR-CH573\Debug/srcc/uart.c:639
                flag = 0;
   13b5e:	873e                	mv	a4,a5
C:\Users\liangfan\OneDrive\enbed\CH573\AHL-CH573-EXP-V1.3-20241124\03-Software\CH08\UART-ISR-CH573\Debug/srcc/uart.c:640
                break;
   13b60:	a8b1                	j	13bbc <uart_get_re_int+0x112>
C:\Users\liangfan\OneDrive\enbed\CH573\AHL-CH573-EXP-V1.3-20241124\03-Software\CH08\UART-ISR-CH573\Debug/srcc/uart.c:642
                flag = 1;
   13b62:	873e                	mv	a4,a5
C:\Users\liangfan\OneDrive\enbed\CH573\AHL-CH573-EXP-V1.3-20241124\03-Software\CH08\UART-ISR-CH573\Debug/srcc/uart.c:643
                break;
   13b64:	a8a1                	j	13bbc <uart_get_re_int+0x112>
C:\Users\liangfan\OneDrive\enbed\CH573\AHL-CH573-EXP-V1.3-20241124\03-Software\CH08\UART-ISR-CH573\Debug/srcc/uart.c:650
           event = R8_UART2_IIR&RB_IIR_INT_MASK;
   13b66:	400047b7          	lui	a5,0x40004
   13b6a:	8047c783          	lbu	a5,-2044(a5) # 40003804 <_eusrstack+0x1fffb804>
   13b6e:	8bbd                	andi	a5,a5,15
C:\Users\liangfan\OneDrive\enbed\CH573\AHL-CH573-EXP-V1.3-20241124\03-Software\CH08\UART-ISR-CH573\Debug/srcc/uart.c:651
           switch (event)
   13b70:	46b1                	li	a3,12
   13b72:	04f6e563          	bltu	a3,a5,13bbc <uart_get_re_int+0x112>
   13b76:	00279613          	slli	a2,a5,0x2
   13b7a:	00002597          	auipc	a1,0x2
   13b7e:	60658593          	addi	a1,a1,1542 # 16180 <strlen+0x370>
   13b82:	962e                	add	a2,a2,a1
   13b84:	4214                	lw	a3,0(a2)
   13b86:	96ae                	add	a3,a3,a1
   13b88:	8682                	jr	a3
C:\Users\liangfan\OneDrive\enbed\CH573\AHL-CH573-EXP-V1.3-20241124\03-Software\CH08\UART-ISR-CH573\Debug/srcc/uart.c:654
                flag = 6;
   13b8a:	873e                	mv	a4,a5
   13b8c:	a805                	j	13bbc <uart_get_re_int+0x112>
C:\Users\liangfan\OneDrive\enbed\CH573\AHL-CH573-EXP-V1.3-20241124\03-Software\CH08\UART-ISR-CH573\Debug/srcc/uart.c:657
                flag = 4;
   13b8e:	873e                	mv	a4,a5
C:\Users\liangfan\OneDrive\enbed\CH573\AHL-CH573-EXP-V1.3-20241124\03-Software\CH08\UART-ISR-CH573\Debug/srcc/uart.c:658
                break;
   13b90:	a035                	j	13bbc <uart_get_re_int+0x112>
C:\Users\liangfan\OneDrive\enbed\CH573\AHL-CH573-EXP-V1.3-20241124\03-Software\CH08\UART-ISR-CH573\Debug/srcc/uart.c:660
                flag = 12;
   13b92:	873e                	mv	a4,a5
C:\Users\liangfan\OneDrive\enbed\CH573\AHL-CH573-EXP-V1.3-20241124\03-Software\CH08\UART-ISR-CH573\Debug/srcc/uart.c:661
                break;
   13b94:	a025                	j	13bbc <uart_get_re_int+0x112>
C:\Users\liangfan\OneDrive\enbed\CH573\AHL-CH573-EXP-V1.3-20241124\03-Software\CH08\UART-ISR-CH573\Debug/srcc/uart.c:663
                flag = 2;
   13b96:	873e                	mv	a4,a5
C:\Users\liangfan\OneDrive\enbed\CH573\AHL-CH573-EXP-V1.3-20241124\03-Software\CH08\UART-ISR-CH573\Debug/srcc/uart.c:664
                break;
   13b98:	a015                	j	13bbc <uart_get_re_int+0x112>
C:\Users\liangfan\OneDrive\enbed\CH573\AHL-CH573-EXP-V1.3-20241124\03-Software\CH08\UART-ISR-CH573\Debug/srcc/uart.c:666
                flag = 0;
   13b9a:	873e                	mv	a4,a5
C:\Users\liangfan\OneDrive\enbed\CH573\AHL-CH573-EXP-V1.3-20241124\03-Software\CH08\UART-ISR-CH573\Debug/srcc/uart.c:667
                break;
   13b9c:	a005                	j	13bbc <uart_get_re_int+0x112>
C:\Users\liangfan\OneDrive\enbed\CH573\AHL-CH573-EXP-V1.3-20241124\03-Software\CH08\UART-ISR-CH573\Debug/srcc/uart.c:669
                flag = 1;
   13b9e:	873e                	mv	a4,a5
C:\Users\liangfan\OneDrive\enbed\CH573\AHL-CH573-EXP-V1.3-20241124\03-Software\CH08\UART-ISR-CH573\Debug/srcc/uart.c:670
                break;
   13ba0:	a831                	j	13bbc <uart_get_re_int+0x112>
C:\Users\liangfan\OneDrive\enbed\CH573\AHL-CH573-EXP-V1.3-20241124\03-Software\CH08\UART-ISR-CH573\Debug/srcc/uart.c:680
          {
           case UART_II_LINE_STAT:
               flag = 6;
   13ba2:	873e                	mv	a4,a5
   13ba4:	a821                	j	13bbc <uart_get_re_int+0x112>
C:\Users\liangfan\OneDrive\enbed\CH573\AHL-CH573-EXP-V1.3-20241124\03-Software\CH08\UART-ISR-CH573\Debug/srcc/uart.c:683
               break;
           case UART_II_RECV_RDY:
               flag = 4;
   13ba6:	873e                	mv	a4,a5
C:\Users\liangfan\OneDrive\enbed\CH573\AHL-CH573-EXP-V1.3-20241124\03-Software\CH08\UART-ISR-CH573\Debug/srcc/uart.c:684
               break;
   13ba8:	a811                	j	13bbc <uart_get_re_int+0x112>
C:\Users\liangfan\OneDrive\enbed\CH573\AHL-CH573-EXP-V1.3-20241124\03-Software\CH08\UART-ISR-CH573\Debug/srcc/uart.c:686
           case UART_II_RECV_TOUT:
               flag = 12;
   13baa:	873e                	mv	a4,a5
C:\Users\liangfan\OneDrive\enbed\CH573\AHL-CH573-EXP-V1.3-20241124\03-Software\CH08\UART-ISR-CH573\Debug/srcc/uart.c:687
               break;
   13bac:	a801                	j	13bbc <uart_get_re_int+0x112>
C:\Users\liangfan\OneDrive\enbed\CH573\AHL-CH573-EXP-V1.3-20241124\03-Software\CH08\UART-ISR-CH573\Debug/srcc/uart.c:689
           case UART_II_THR_EMPTY:
               flag = 2;
   13bae:	873e                	mv	a4,a5
C:\Users\liangfan\OneDrive\enbed\CH573\AHL-CH573-EXP-V1.3-20241124\03-Software\CH08\UART-ISR-CH573\Debug/srcc/uart.c:690
               break;
   13bb0:	a031                	j	13bbc <uart_get_re_int+0x112>
C:\Users\liangfan\OneDrive\enbed\CH573\AHL-CH573-EXP-V1.3-20241124\03-Software\CH08\UART-ISR-CH573\Debug/srcc/uart.c:692
           case UART_II_MODEM_CHG:
               flag = 0;
   13bb2:	873e                	mv	a4,a5
C:\Users\liangfan\OneDrive\enbed\CH573\AHL-CH573-EXP-V1.3-20241124\03-Software\CH08\UART-ISR-CH573\Debug/srcc/uart.c:693
               break;
   13bb4:	a021                	j	13bbc <uart_get_re_int+0x112>
C:\Users\liangfan\OneDrive\enbed\CH573\AHL-CH573-EXP-V1.3-20241124\03-Software\CH08\UART-ISR-CH573\Debug/srcc/uart.c:695
           case UART_II_NO_INTER:
               flag = 1;
   13bb6:	873e                	mv	a4,a5
C:\Users\liangfan\OneDrive\enbed\CH573\AHL-CH573-EXP-V1.3-20241124\03-Software\CH08\UART-ISR-CH573\Debug/srcc/uart.c:696
               break;
   13bb8:	a011                	j	13bbc <uart_get_re_int+0x112>
C:\Users\liangfan\OneDrive\enbed\CH573\AHL-CH573-EXP-V1.3-20241124\03-Software\CH08\UART-ISR-CH573\Debug/srcc/uart.c:591
        return 0;
   13bba:	4701                	li	a4,0
C:\Users\liangfan\OneDrive\enbed\CH573\AHL-CH573-EXP-V1.3-20241124\03-Software\CH08\UART-ISR-CH573\Debug/srcc/uart.c:705
           break;
    default:
        break;
    }
    return flag;
}
   13bbc:	853a                	mv	a0,a4
   13bbe:	8082                	ret

00013bc0 <UART0_IRQHandler>:
UART0_IRQHandler():
C:\Users\liangfan\OneDrive\enbed\CH573\AHL-CH573-EXP-V1.3-20241124\03-Software\CH08\UART-ISR-CH573\Debug/srcc/isr.c:21
// 触发条件：UART_User串口收到一个字节触发
// 备   注：进入本程序后，可使用uart_get_re_int函数可再进行中断标志判断
//          （1-有UART接收中断，0-没有UART接收中断）
//======================================================================
void UART_User_Handler(void)
{
   13bc0:	1141                	addi	sp,sp,-16
C:\Users\liangfan\OneDrive\enbed\CH573\AHL-CH573-EXP-V1.3-20241124\03-Software\CH08\UART-ISR-CH573\Debug/srcc/isr.c:23
    //【1】关中断
    DISABLE_INTERRUPTS;
   13bc2:	42a1                	li	t0,8
   13bc4:	3002b073          	csrc	mstatus,t0
C:\Users\liangfan\OneDrive\enbed\CH573\AHL-CH573-EXP-V1.3-20241124\03-Software\CH08\UART-ISR-CH573\Debug/srcc/isr.c:29

    //【2】声明临时变量
    uint8_t flag,ch;

    //【3】判断是否为本中断触发
    if (!uart_get_re_int(UART_User)) goto UART_User_Handler_exit;
   13bc8:	4501                	li	a0,0
   13bca:	00000097          	auipc	ra,0x0
   13bce:	ee0080e7          	jalr	-288(ra) # 13aaa <uart_get_re_int>
   13bd2:	e519                	bnez	a0,13be0 <UART0_IRQHandler+0x20>
C:\Users\liangfan\OneDrive\enbed\CH573\AHL-CH573-EXP-V1.3-20241124\03-Software\CH08\UART-ISR-CH573\Debug/srcc/isr.c:42
        uart_send1(UART_User,ch);  //回发接收到的字节
    }

    // 【6】开中断
UART_User_Handler_exit:
    ENABLE_INTERRUPTS;
   13bd4:	42a1                	li	t0,8
   13bd6:	3002a073          	csrs	mstatus,t0
C:\Users\liangfan\OneDrive\enbed\CH573\AHL-CH573-EXP-V1.3-20241124\03-Software\CH08\UART-ISR-CH573\Debug/srcc/isr.c:43
}
   13bda:	0141                	addi	sp,sp,16
   13bdc:	30200073          	mret
C:\Users\liangfan\OneDrive\enbed\CH573\AHL-CH573-EXP-V1.3-20241124\03-Software\CH08\UART-ISR-CH573\Debug/srcc/isr.c:32
    ch=uart_re1(UART_User,&flag);   //调用接收一个字节的函数，清接收中断位
   13be0:	00f10593          	addi	a1,sp,15
   13be4:	4501                	li	a0,0
   13be6:	00000097          	auipc	ra,0x0
   13bea:	d80080e7          	jalr	-640(ra) # 13966 <uart_re1>
C:\Users\liangfan\OneDrive\enbed\CH573\AHL-CH573-EXP-V1.3-20241124\03-Software\CH08\UART-ISR-CH573\Debug/srcc/isr.c:35
    if (flag)                       //有数据
   13bee:	00f14783          	lbu	a5,15(sp)
   13bf2:	d3ed                	beqz	a5,13bd4 <UART0_IRQHandler+0x14>
C:\Users\liangfan\OneDrive\enbed\CH573\AHL-CH573-EXP-V1.3-20241124\03-Software\CH08\UART-ISR-CH573\Debug/srcc/isr.c:37
        uart_send1(UART_User,ch);  //回发接收到的字节
   13bf4:	85aa                	mv	a1,a0
   13bf6:	4501                	li	a0,0
   13bf8:	00000097          	auipc	ra,0x0
   13bfc:	c60080e7          	jalr	-928(ra) # 13858 <uart_send1>
   13c00:	bfd1                	j	13bd4 <UART0_IRQHandler+0x14>

00013c02 <printk_putc>:
printk_putc():
C:\Users\liangfan\OneDrive\enbed\CH573\AHL-CH573-EXP-V1.3-20241124\03-Software\CH08\UART-ISR-CH573\Debug/srcc/printf.c:28
//功能概要：通过串口打出一个字符
//参数说明：data:数据：通过串口发送的一字节数据
//函数返回：无
//======================================================================
static void printk_putc(int c, int *count, PRINTK_INFO *info)
{
   13c02:	1141                	addi	sp,sp,-16
   13c04:	c606                	sw	ra,12(sp)
   13c06:	c422                	sw	s0,8(sp)
   13c08:	842e                	mv	s0,a1
C:\Users\liangfan\OneDrive\enbed\CH573\AHL-CH573-EXP-V1.3-20241124\03-Software\CH08\UART-ISR-CH573\Debug/srcc/printf.c:29
	switch (info->dest) {
   13c0a:	421c                	lw	a5,0(a2)
   13c0c:	4705                	li	a4,1
   13c0e:	00e78c63          	beq	a5,a4,13c26 <printk_putc+0x24>
   13c12:	4709                	li	a4,2
   13c14:	00e78e63          	beq	a5,a4,13c30 <printk_putc+0x2e>
C:\Users\liangfan\OneDrive\enbed\CH573\AHL-CH573-EXP-V1.3-20241124\03-Software\CH08\UART-ISR-CH573\Debug/srcc/printf.c:40
		++(info->loc);
		break;
	default:
		break;
	}
	*count += 1;
   13c18:	401c                	lw	a5,0(s0)
   13c1a:	0785                	addi	a5,a5,1
   13c1c:	c01c                	sw	a5,0(s0)
C:\Users\liangfan\OneDrive\enbed\CH573\AHL-CH573-EXP-V1.3-20241124\03-Software\CH08\UART-ISR-CH573\Debug/srcc/printf.c:41
}
   13c1e:	40b2                	lw	ra,12(sp)
   13c20:	4422                	lw	s0,8(sp)
   13c22:	0141                	addi	sp,sp,16
   13c24:	8082                	ret
C:\Users\liangfan\OneDrive\enbed\CH573\AHL-CH573-EXP-V1.3-20241124\03-Software\CH08\UART-ISR-CH573\Debug/srcc/printf.c:31
		info->func((char) c);
   13c26:	425c                	lw	a5,4(a2)
   13c28:	0562                	slli	a0,a0,0x18
   13c2a:	8561                	srai	a0,a0,0x18
   13c2c:	9782                	jalr	a5
C:\Users\liangfan\OneDrive\enbed\CH573\AHL-CH573-EXP-V1.3-20241124\03-Software\CH08\UART-ISR-CH573\Debug/srcc/printf.c:32
		break;
   13c2e:	b7ed                	j	13c18 <printk_putc+0x16>
C:\Users\liangfan\OneDrive\enbed\CH573\AHL-CH573-EXP-V1.3-20241124\03-Software\CH08\UART-ISR-CH573\Debug/srcc/printf.c:34
		*(info->loc) = (unsigned char) c;
   13c30:	461c                	lw	a5,8(a2)
   13c32:	00a78023          	sb	a0,0(a5)
C:\Users\liangfan\OneDrive\enbed\CH573\AHL-CH573-EXP-V1.3-20241124\03-Software\CH08\UART-ISR-CH573\Debug/srcc/printf.c:35
		++(info->loc);
   13c36:	461c                	lw	a5,8(a2)
   13c38:	0785                	addi	a5,a5,1
   13c3a:	c61c                	sw	a5,8(a2)
C:\Users\liangfan\OneDrive\enbed\CH573\AHL-CH573-EXP-V1.3-20241124\03-Software\CH08\UART-ISR-CH573\Debug/srcc/printf.c:36
		break;
   13c3c:	bff1                	j	13c18 <printk_putc+0x16>

00013c3e <printk_mknumstr>:
printk_mknumstr():
C:\Users\liangfan\OneDrive\enbed\CH573\AHL-CH573-EXP-V1.3-20241124\03-Software\CH08\UART-ISR-CH573\Debug/srcc/printf.c:131
	int nlen;
	char *nstrp;

	nlen = 0;
	nstrp = numstr;
	*nstrp++ = '\0';
   13c3e:	00150793          	addi	a5,a0,1
   13c42:	00050023          	sb	zero,0(a0)
C:\Users\liangfan\OneDrive\enbed\CH573\AHL-CH573-EXP-V1.3-20241124\03-Software\CH08\UART-ISR-CH573\Debug/srcc/printf.c:133

	if (neg) {
   13c46:	ce1d                	beqz	a2,13c84 <printk_mknumstr+0x46>
C:\Users\liangfan\OneDrive\enbed\CH573\AHL-CH573-EXP-V1.3-20241124\03-Software\CH08\UART-ISR-CH573\Debug/srcc/printf.c:134
		a = *(int *) nump;
   13c48:	4198                	lw	a4,0(a1)
C:\Users\liangfan\OneDrive\enbed\CH573\AHL-CH573-EXP-V1.3-20241124\03-Software\CH08\UART-ISR-CH573\Debug/srcc/printf.c:144
		}
		while (a != 0) {
			b = (int) a / (int) radix;
			c = (int) a - ((int) b * (int) radix);
			if (c < 0) {
				c = ~c + 1 + '0';
   13c4a:	03000813          	li	a6,48
C:\Users\liangfan\OneDrive\enbed\CH573\AHL-CH573-EXP-V1.3-20241124\03-Software\CH08\UART-ISR-CH573\Debug/srcc/printf.c:135
		if (a == 0) {
   13c4e:	e315                	bnez	a4,13c72 <printk_mknumstr+0x34>
C:\Users\liangfan\OneDrive\enbed\CH573\AHL-CH573-EXP-V1.3-20241124\03-Software\CH08\UART-ISR-CH573\Debug/srcc/printf.c:136
			*nstrp = '0';
   13c50:	03000793          	li	a5,48
   13c54:	00f500a3          	sb	a5,1(a0)
C:\Users\liangfan\OneDrive\enbed\CH573\AHL-CH573-EXP-V1.3-20241124\03-Software\CH08\UART-ISR-CH573\Debug/srcc/printf.c:137
			++nlen;
   13c58:	4605                	li	a2,1
C:\Users\liangfan\OneDrive\enbed\CH573\AHL-CH573-EXP-V1.3-20241124\03-Software\CH08\UART-ISR-CH573\Debug/srcc/printf.c:173
			*nstrp++ = (char) uc;
			++nlen;
		}
	}
	done: return nlen;
}
   13c5a:	8532                	mv	a0,a2
   13c5c:	8082                	ret
C:\Users\liangfan\OneDrive\enbed\CH573\AHL-CH573-EXP-V1.3-20241124\03-Software\CH08\UART-ISR-CH573\Debug/srcc/printf.c:144
				c = ~c + 1 + '0';
   13c5e:	40e80633          	sub	a2,a6,a4
C:\Users\liangfan\OneDrive\enbed\CH573\AHL-CH573-EXP-V1.3-20241124\03-Software\CH08\UART-ISR-CH573\Debug/srcc/printf.c:149
			*nstrp++ = (char) c;
   13c62:	0785                	addi	a5,a5,1
   13c64:	fec78fa3          	sb	a2,-1(a5)
C:\Users\liangfan\OneDrive\enbed\CH573\AHL-CH573-EXP-V1.3-20241124\03-Software\CH08\UART-ISR-CH573\Debug/srcc/printf.c:150
			++nlen;
   13c68:	fff78613          	addi	a2,a5,-1
   13c6c:	8e09                	sub	a2,a2,a0
C:\Users\liangfan\OneDrive\enbed\CH573\AHL-CH573-EXP-V1.3-20241124\03-Software\CH08\UART-ISR-CH573\Debug/srcc/printf.c:148
			a = b;
   13c6e:	872e                	mv	a4,a1
C:\Users\liangfan\OneDrive\enbed\CH573\AHL-CH573-EXP-V1.3-20241124\03-Software\CH08\UART-ISR-CH573\Debug/srcc/printf.c:140
		while (a != 0) {
   13c70:	d5ed                	beqz	a1,13c5a <printk_mknumstr+0x1c>
C:\Users\liangfan\OneDrive\enbed\CH573\AHL-CH573-EXP-V1.3-20241124\03-Software\CH08\UART-ISR-CH573\Debug/srcc/printf.c:141
			b = (int) a / (int) radix;
   13c72:	02d745b3          	div	a1,a4,a3
C:\Users\liangfan\OneDrive\enbed\CH573\AHL-CH573-EXP-V1.3-20241124\03-Software\CH08\UART-ISR-CH573\Debug/srcc/printf.c:142
			c = (int) a - ((int) b * (int) radix);
   13c76:	02d76733          	rem	a4,a4,a3
C:\Users\liangfan\OneDrive\enbed\CH573\AHL-CH573-EXP-V1.3-20241124\03-Software\CH08\UART-ISR-CH573\Debug/srcc/printf.c:146
				c = c + '0';
   13c7a:	03070613          	addi	a2,a4,48 # 8000030 <_data_lma+0x7fe9c60>
C:\Users\liangfan\OneDrive\enbed\CH573\AHL-CH573-EXP-V1.3-20241124\03-Software\CH08\UART-ISR-CH573\Debug/srcc/printf.c:143
			if (c < 0) {
   13c7e:	fe0752e3          	bgez	a4,13c62 <printk_mknumstr+0x24>
   13c82:	bff1                	j	13c5e <printk_mknumstr+0x20>
C:\Users\liangfan\OneDrive\enbed\CH573\AHL-CH573-EXP-V1.3-20241124\03-Software\CH08\UART-ISR-CH573\Debug/srcc/printf.c:153
		ua = *(unsigned int *) nump;
   13c84:	4198                	lw	a4,0(a1)
C:\Users\liangfan\OneDrive\enbed\CH573\AHL-CH573-EXP-V1.3-20241124\03-Software\CH08\UART-ISR-CH573\Debug/srcc/printf.c:160
			ub = (unsigned int) ua / (unsigned int) radix;
   13c86:	8336                	mv	t1,a3
C:\Users\liangfan\OneDrive\enbed\CH573\AHL-CH573-EXP-V1.3-20241124\03-Software\CH08\UART-ISR-CH573\Debug/srcc/printf.c:162
			if (uc < 10) {
   13c88:	48a5                	li	a7,9
C:\Users\liangfan\OneDrive\enbed\CH573\AHL-CH573-EXP-V1.3-20241124\03-Software\CH08\UART-ISR-CH573\Debug/srcc/printf.c:154
		if (ua == 0) {
   13c8a:	e305                	bnez	a4,13caa <printk_mknumstr+0x6c>
C:\Users\liangfan\OneDrive\enbed\CH573\AHL-CH573-EXP-V1.3-20241124\03-Software\CH08\UART-ISR-CH573\Debug/srcc/printf.c:155
			*nstrp = '0';
   13c8c:	03000793          	li	a5,48
   13c90:	00f500a3          	sb	a5,1(a0)
C:\Users\liangfan\OneDrive\enbed\CH573\AHL-CH573-EXP-V1.3-20241124\03-Software\CH08\UART-ISR-CH573\Debug/srcc/printf.c:156
			++nlen;
   13c94:	4605                	li	a2,1
C:\Users\liangfan\OneDrive\enbed\CH573\AHL-CH573-EXP-V1.3-20241124\03-Software\CH08\UART-ISR-CH573\Debug/srcc/printf.c:157
			goto done;
   13c96:	b7d1                	j	13c5a <printk_mknumstr+0x1c>
C:\Users\liangfan\OneDrive\enbed\CH573\AHL-CH573-EXP-V1.3-20241124\03-Software\CH08\UART-ISR-CH573\Debug/srcc/printf.c:168
			*nstrp++ = (char) uc;
   13c98:	0785                	addi	a5,a5,1
   13c9a:	feb78fa3          	sb	a1,-1(a5)
C:\Users\liangfan\OneDrive\enbed\CH573\AHL-CH573-EXP-V1.3-20241124\03-Software\CH08\UART-ISR-CH573\Debug/srcc/printf.c:169
			++nlen;
   13c9e:	fff78613          	addi	a2,a5,-1
   13ca2:	8e09                	sub	a2,a2,a0
C:\Users\liangfan\OneDrive\enbed\CH573\AHL-CH573-EXP-V1.3-20241124\03-Software\CH08\UART-ISR-CH573\Debug/srcc/printf.c:159
		while (ua != 0) {
   13ca4:	fa676be3          	bltu	a4,t1,13c5a <printk_mknumstr+0x1c>
C:\Users\liangfan\OneDrive\enbed\CH573\AHL-CH573-EXP-V1.3-20241124\03-Software\CH08\UART-ISR-CH573\Debug/srcc/printf.c:167
			ua = ub;
   13ca8:	8742                	mv	a4,a6
C:\Users\liangfan\OneDrive\enbed\CH573\AHL-CH573-EXP-V1.3-20241124\03-Software\CH08\UART-ISR-CH573\Debug/srcc/printf.c:160
			ub = (unsigned int) ua / (unsigned int) radix;
   13caa:	02d75833          	divu	a6,a4,a3
C:\Users\liangfan\OneDrive\enbed\CH573\AHL-CH573-EXP-V1.3-20241124\03-Software\CH08\UART-ISR-CH573\Debug/srcc/printf.c:161
			uc = (unsigned int) ua - ((unsigned int) ub * (unsigned int) radix);
   13cae:	02d77633          	remu	a2,a4,a3
C:\Users\liangfan\OneDrive\enbed\CH573\AHL-CH573-EXP-V1.3-20241124\03-Software\CH08\UART-ISR-CH573\Debug/srcc/printf.c:165
				uc = uc - 10 + 'A';
   13cb2:	03760593          	addi	a1,a2,55
C:\Users\liangfan\OneDrive\enbed\CH573\AHL-CH573-EXP-V1.3-20241124\03-Software\CH08\UART-ISR-CH573\Debug/srcc/printf.c:162
			if (uc < 10) {
   13cb6:	fec8e1e3          	bltu	a7,a2,13c98 <printk_mknumstr+0x5a>
C:\Users\liangfan\OneDrive\enbed\CH573\AHL-CH573-EXP-V1.3-20241124\03-Software\CH08\UART-ISR-CH573\Debug/srcc/printf.c:163
				uc = uc + '0';
   13cba:	03060593          	addi	a1,a2,48
   13cbe:	bfe9                	j	13c98 <printk_mknumstr+0x5a>

00013cc0 <printk_pad_space>:
printk_pad_space():
C:\Users\liangfan\OneDrive\enbed\CH573\AHL-CH573-EXP-V1.3-20241124\03-Software\CH08\UART-ISR-CH573\Debug/srcc/printf.c:186
	}
}

/********************************************************************/
static void printk_pad_space(int curlen, int field_width, int *count,
		PRINTK_INFO *info) {
   13cc0:	1101                	addi	sp,sp,-32
   13cc2:	ce06                	sw	ra,28(sp)
   13cc4:	cc22                	sw	s0,24(sp)
   13cc6:	ca26                	sw	s1,20(sp)
   13cc8:	c84a                	sw	s2,16(sp)
   13cca:	c64e                	sw	s3,12(sp)
   13ccc:	842a                	mv	s0,a0
   13cce:	84ae                	mv	s1,a1
   13cd0:	89b2                	mv	s3,a2
   13cd2:	8936                	mv	s2,a3
C:\Users\liangfan\OneDrive\enbed\CH573\AHL-CH573-EXP-V1.3-20241124\03-Software\CH08\UART-ISR-CH573\Debug/srcc/printf.c:189
	int i;

	for (i = curlen; i < field_width; i++) {
   13cd4:	00b55d63          	bge	a0,a1,13cee <printk_pad_space+0x2e>
C:\Users\liangfan\OneDrive\enbed\CH573\AHL-CH573-EXP-V1.3-20241124\03-Software\CH08\UART-ISR-CH573\Debug/srcc/printf.c:190 (discriminator 3)
		printk_putc(' ', count, info);
   13cd8:	864a                	mv	a2,s2
   13cda:	85ce                	mv	a1,s3
   13cdc:	02000513          	li	a0,32
   13ce0:	00000097          	auipc	ra,0x0
   13ce4:	f22080e7          	jalr	-222(ra) # 13c02 <printk_putc>
C:\Users\liangfan\OneDrive\enbed\CH573\AHL-CH573-EXP-V1.3-20241124\03-Software\CH08\UART-ISR-CH573\Debug/srcc/printf.c:189 (discriminator 3)
	for (i = curlen; i < field_width; i++) {
   13ce8:	0405                	addi	s0,s0,1
   13cea:	fe8497e3          	bne	s1,s0,13cd8 <printk_pad_space+0x18>
C:\Users\liangfan\OneDrive\enbed\CH573\AHL-CH573-EXP-V1.3-20241124\03-Software\CH08\UART-ISR-CH573\Debug/srcc/printf.c:192
	}
}
   13cee:	40f2                	lw	ra,28(sp)
   13cf0:	4462                	lw	s0,24(sp)
   13cf2:	44d2                	lw	s1,20(sp)
   13cf4:	4942                	lw	s2,16(sp)
   13cf6:	49b2                	lw	s3,12(sp)
   13cf8:	6105                	addi	sp,sp,32
   13cfa:	8082                	ret

00013cfc <out_char>:
out_char():
C:\Users\liangfan\OneDrive\enbed\CH573\AHL-CH573-EXP-V1.3-20241124\03-Software\CH08\UART-ISR-CH573\Debug/srcc/printf.c:18
void out_char(char data) {
   13cfc:	1141                	addi	sp,sp,-16
   13cfe:	c606                	sw	ra,12(sp)
C:\Users\liangfan\OneDrive\enbed\CH573\AHL-CH573-EXP-V1.3-20241124\03-Software\CH08\UART-ISR-CH573\Debug/srcc/printf.c:19
	uart_send1(UART_printf, data);
   13d00:	0ff57593          	andi	a1,a0,255
   13d04:	4505                	li	a0,1
   13d06:	00000097          	auipc	ra,0x0
   13d0a:	b52080e7          	jalr	-1198(ra) # 13858 <uart_send1>
C:\Users\liangfan\OneDrive\enbed\CH573\AHL-CH573-EXP-V1.3-20241124\03-Software\CH08\UART-ISR-CH573\Debug/srcc/printf.c:20
}
   13d0e:	40b2                	lw	ra,12(sp)
   13d10:	0141                	addi	sp,sp,16
   13d12:	8082                	ret

00013d14 <printk_mkfloatstr>:
printk_mkfloatstr():
C:\Users\liangfan\OneDrive\enbed\CH573\AHL-CH573-EXP-V1.3-20241124\03-Software\CH08\UART-ISR-CH573\Debug/srcc/printf.c:50
{
   13d14:	c8010113          	addi	sp,sp,-896
   13d18:	36112e23          	sw	ra,892(sp)
   13d1c:	36812c23          	sw	s0,888(sp)
   13d20:	36912a23          	sw	s1,884(sp)
   13d24:	37212823          	sw	s2,880(sp)
   13d28:	37312623          	sw	s3,876(sp)
   13d2c:	37412423          	sw	s4,872(sp)
   13d30:	37512223          	sw	s5,868(sp)
   13d34:	37612023          	sw	s6,864(sp)
   13d38:	35712e23          	sw	s7,860(sp)
   13d3c:	35812c23          	sw	s8,856(sp)
   13d40:	35912a23          	sw	s9,852(sp)
   13d44:	35a12823          	sw	s10,848(sp)
   13d48:	35b12623          	sw	s11,844(sp)
   13d4c:	842a                	mv	s0,a0
   13d4e:	8b2e                	mv	s6,a1
   13d50:	8c32                	mv	s8,a2
C:\Users\liangfan\OneDrive\enbed\CH573\AHL-CH573-EXP-V1.3-20241124\03-Software\CH08\UART-ISR-CH573\Debug/srcc/printf.c:52
	uint32_t i=0,j=0,k=0,a[100]={0},b[100]={0};
   13d52:	19000613          	li	a2,400
   13d56:	4581                	li	a1,0
   13d58:	1b08                	addi	a0,sp,432
   13d5a:	fffff097          	auipc	ra,0xfffff
   13d5e:	366080e7          	jalr	870(ra) # 130c0 <memset>
   13d62:	19000613          	li	a2,400
   13d66:	4581                	li	a1,0
   13d68:	1008                	addi	a0,sp,32
   13d6a:	fffff097          	auipc	ra,0xfffff
   13d6e:	356080e7          	jalr	854(ra) # 130c0 <memset>
C:\Users\liangfan\OneDrive\enbed\CH573\AHL-CH573-EXP-V1.3-20241124\03-Software\CH08\UART-ISR-CH573\Debug/srcc/printf.c:59
	p=(uint64_t)*f;//整数部分
   13d72:	4044                	lw	s1,4(s0)
   13d74:	4000                	lw	s0,0(s0)
   13d76:	8522                	mv	a0,s0
   13d78:	85a6                	mv	a1,s1
   13d7a:	00002097          	auipc	ra,0x2
   13d7e:	dee080e7          	jalr	-530(ra) # 15b68 <__fixunsdfdi>
   13d82:	8caa                	mv	s9,a0
   13d84:	8bae                	mv	s7,a1
   13d86:	8aaa                	mv	s5,a0
   13d88:	8a2e                	mv	s4,a1
C:\Users\liangfan\OneDrive\enbed\CH573\AHL-CH573-EXP-V1.3-20241124\03-Software\CH08\UART-ISR-CH573\Debug/srcc/printf.c:60
	tempf=(*f-p);
   13d8a:	00002097          	auipc	ra,0x2
   13d8e:	e7c080e7          	jalr	-388(ra) # 15c06 <__floatundidf>
   13d92:	862a                	mv	a2,a0
   13d94:	86ae                	mv	a3,a1
   13d96:	8522                	mv	a0,s0
   13d98:	85a6                	mv	a1,s1
   13d9a:	00001097          	auipc	ra,0x1
   13d9e:	688080e7          	jalr	1672(ra) # 15422 <__subdf3>
   13da2:	842a                	mv	s0,a0
   13da4:	84ae                	mv	s1,a1
C:\Users\liangfan\OneDrive\enbed\CH573\AHL-CH573-EXP-V1.3-20241124\03-Software\CH08\UART-ISR-CH573\Debug/srcc/printf.c:61
	while(precision_width--)    tempf*=10;
   13da6:	020c0663          	beqz	s8,13dd2 <printk_mkfloatstr+0xbe>
   13daa:	fffc0d13          	addi	s10,s8,-1
   13dae:	00002797          	auipc	a5,0x2
   13db2:	4d278793          	addi	a5,a5,1234 # 16280 <strlen+0x470>
   13db6:	0007a903          	lw	s2,0(a5)
   13dba:	0047a983          	lw	s3,4(a5)
   13dbe:	5dfd                	li	s11,-1
C:\Users\liangfan\OneDrive\enbed\CH573\AHL-CH573-EXP-V1.3-20241124\03-Software\CH08\UART-ISR-CH573\Debug/srcc/printf.c:61 (discriminator 2)
   13dc0:	864a                	mv	a2,s2
   13dc2:	86ce                	mv	a3,s3
   13dc4:	00001097          	auipc	ra,0x1
   13dc8:	196080e7          	jalr	406(ra) # 14f5a <__muldf3>
   13dcc:	1d7d                	addi	s10,s10,-1
   13dce:	ffbd19e3          	bne	s10,s11,13dc0 <printk_mkfloatstr+0xac>
C:\Users\liangfan\OneDrive\enbed\CH573\AHL-CH573-EXP-V1.3-20241124\03-Software\CH08\UART-ISR-CH573\Debug/srcc/printf.c:62
    q=tempf;
   13dd2:	00002097          	auipc	ra,0x2
   13dd6:	d96080e7          	jalr	-618(ra) # 15b68 <__fixunsdfdi>
   13dda:	ce2a                	sw	a0,28(sp)
   13ddc:	8dae                	mv	s11,a1
   13dde:	8d2a                	mv	s10,a0
   13de0:	89ae                	mv	s3,a1
C:\Users\liangfan\OneDrive\enbed\CH573\AHL-CH573-EXP-V1.3-20241124\03-Software\CH08\UART-ISR-CH573\Debug/srcc/printf.c:66
	while(tempf<0.1&&tempf!=0)    //【20201119】-2/3   原为while(m<1)
   13de2:	00002797          	auipc	a5,0x2
   13de6:	4a678793          	addi	a5,a5,1190 # 16288 <strlen+0x478>
   13dea:	4390                	lw	a2,0(a5)
   13dec:	43d4                	lw	a3,4(a5)
   13dee:	8522                	mv	a0,s0
   13df0:	85a6                	mv	a1,s1
   13df2:	00001097          	auipc	ra,0x1
   13df6:	0b2080e7          	jalr	178(ra) # 14ea4 <__ledf2>
   13dfa:	0e055e63          	bgez	a0,13ef6 <printk_mkfloatstr+0x1e2>
   13dfe:	4601                	li	a2,0
   13e00:	4681                	li	a3,0
   13e02:	8522                	mv	a0,s0
   13e04:	85a6                	mv	a1,s1
   13e06:	00001097          	auipc	ra,0x1
   13e0a:	034080e7          	jalr	52(ra) # 14e3a <__eqdf2>
C:\Users\liangfan\OneDrive\enbed\CH573\AHL-CH573-EXP-V1.3-20241124\03-Software\CH08\UART-ISR-CH573\Debug/srcc/printf.c:52
	uint32_t i=0,j=0,k=0,a[100]={0},b[100]={0};
   13e0e:	4901                	li	s2,0
C:\Users\liangfan\OneDrive\enbed\CH573\AHL-CH573-EXP-V1.3-20241124\03-Software\CH08\UART-ISR-CH573\Debug/srcc/printf.c:66
	while(tempf<0.1&&tempf!=0)    //【20201119】-2/3   原为while(m<1)
   13e10:	c56d                	beqz	a0,13efa <printk_mkfloatstr+0x1e6>
C:\Users\liangfan\OneDrive\enbed\CH573\AHL-CH573-EXP-V1.3-20241124\03-Software\CH08\UART-ISR-CH573\Debug/srcc/printf.c:68
		tempf=tempf*10;
   13e12:	00002797          	auipc	a5,0x2
   13e16:	46e78793          	addi	a5,a5,1134 # 16280 <strlen+0x470>
   13e1a:	0047a803          	lw	a6,4(a5)
   13e1e:	439c                	lw	a5,0(a5)
   13e20:	c83e                	sw	a5,16(sp)
   13e22:	ca42                	sw	a6,20(sp)
C:\Users\liangfan\OneDrive\enbed\CH573\AHL-CH573-EXP-V1.3-20241124\03-Software\CH08\UART-ISR-CH573\Debug/srcc/printf.c:66
	while(tempf<0.1&&tempf!=0)    //【20201119】-2/3   原为while(m<1)
   13e24:	00002797          	auipc	a5,0x2
   13e28:	46478793          	addi	a5,a5,1124 # 16288 <strlen+0x478>
   13e2c:	0047a803          	lw	a6,4(a5)
   13e30:	439c                	lw	a5,0(a5)
   13e32:	c43e                	sw	a5,8(sp)
   13e34:	c642                	sw	a6,12(sp)
C:\Users\liangfan\OneDrive\enbed\CH573\AHL-CH573-EXP-V1.3-20241124\03-Software\CH08\UART-ISR-CH573\Debug/srcc/printf.c:68
		tempf=tempf*10;
   13e36:	4642                	lw	a2,16(sp)
   13e38:	46d2                	lw	a3,20(sp)
   13e3a:	8522                	mv	a0,s0
   13e3c:	85a6                	mv	a1,s1
   13e3e:	00001097          	auipc	ra,0x1
   13e42:	11c080e7          	jalr	284(ra) # 14f5a <__muldf3>
   13e46:	842a                	mv	s0,a0
   13e48:	84ae                	mv	s1,a1
C:\Users\liangfan\OneDrive\enbed\CH573\AHL-CH573-EXP-V1.3-20241124\03-Software\CH08\UART-ISR-CH573\Debug/srcc/printf.c:69
		k++;			
   13e4a:	0905                	addi	s2,s2,1
C:\Users\liangfan\OneDrive\enbed\CH573\AHL-CH573-EXP-V1.3-20241124\03-Software\CH08\UART-ISR-CH573\Debug/srcc/printf.c:66
	while(tempf<0.1&&tempf!=0)    //【20201119】-2/3   原为while(m<1)
   13e4c:	4622                	lw	a2,8(sp)
   13e4e:	46b2                	lw	a3,12(sp)
   13e50:	00001097          	auipc	ra,0x1
   13e54:	054080e7          	jalr	84(ra) # 14ea4 <__ledf2>
   13e58:	00055b63          	bgez	a0,13e6e <printk_mkfloatstr+0x15a>
C:\Users\liangfan\OneDrive\enbed\CH573\AHL-CH573-EXP-V1.3-20241124\03-Software\CH08\UART-ISR-CH573\Debug/srcc/printf.c:66 (discriminator 1)
   13e5c:	4601                	li	a2,0
   13e5e:	4681                	li	a3,0
   13e60:	8522                	mv	a0,s0
   13e62:	85a6                	mv	a1,s1
   13e64:	00001097          	auipc	ra,0x1
   13e68:	fd6080e7          	jalr	-42(ra) # 14e3a <__eqdf2>
   13e6c:	f569                	bnez	a0,13e36 <printk_mkfloatstr+0x122>
C:\Users\liangfan\OneDrive\enbed\CH573\AHL-CH573-EXP-V1.3-20241124\03-Software\CH08\UART-ISR-CH573\Debug/srcc/printf.c:72
	if(p==0)//整数部分为0
   13e6e:	019bebb3          	or	s7,s7,s9
   13e72:	080b9663          	bnez	s7,13efe <printk_mkfloatstr+0x1ea>
C:\Users\liangfan\OneDrive\enbed\CH573\AHL-CH573-EXP-V1.3-20241124\03-Software\CH08\UART-ISR-CH573\Debug/srcc/printf.c:73
		c[i++]='0';
   13e76:	03000793          	li	a5,48
   13e7a:	00fb0023          	sb	a5,0(s6)
   13e7e:	4485                	li	s1,1
C:\Users\liangfan\OneDrive\enbed\CH573\AHL-CH573-EXP-V1.3-20241124\03-Software\CH08\UART-ISR-CH573\Debug/srcc/printf.c:87
	c[i++]='.';   //小数点
   13e80:	00148413          	addi	s0,s1,1
   13e84:	009b07b3          	add	a5,s6,s1
   13e88:	02e00713          	li	a4,46
   13e8c:	00e78023          	sb	a4,0(a5)
C:\Users\liangfan\OneDrive\enbed\CH573\AHL-CH573-EXP-V1.3-20241124\03-Software\CH08\UART-ISR-CH573\Debug/srcc/printf.c:88
	if(q==0)     //小数部分为0
   13e90:	4772                	lw	a4,28(sp)
   13e92:	00ededb3          	or	s11,s11,a4
   13e96:	0c0d9a63          	bnez	s11,13f6a <printk_mkfloatstr+0x256>
C:\Users\liangfan\OneDrive\enbed\CH573\AHL-CH573-EXP-V1.3-20241124\03-Software\CH08\UART-ISR-CH573\Debug/srcc/printf.c:89
		while(zeroNum--) c[i++]='0';     //【20201119】-3/3   原为 c[i++]='0';
   13e9a:	000c0d63          	beqz	s8,13eb4 <printk_mkfloatstr+0x1a0>
   13e9e:	018b0733          	add	a4,s6,s8
   13ea2:	94ba                	add	s1,s1,a4
   13ea4:	03000713          	li	a4,48
C:\Users\liangfan\OneDrive\enbed\CH573\AHL-CH573-EXP-V1.3-20241124\03-Software\CH08\UART-ISR-CH573\Debug/srcc/printf.c:89 (discriminator 2)
   13ea8:	00e780a3          	sb	a4,1(a5)
   13eac:	0785                	addi	a5,a5,1
   13eae:	fef49de3          	bne	s1,a5,13ea8 <printk_mkfloatstr+0x194>
   13eb2:	9462                	add	s0,s0,s8
C:\Users\liangfan\OneDrive\enbed\CH573\AHL-CH573-EXP-V1.3-20241124\03-Software\CH08\UART-ISR-CH573\Debug/srcc/printf.c:109
	c[i]='\0';
   13eb4:	9b22                	add	s6,s6,s0
   13eb6:	000b0023          	sb	zero,0(s6)
C:\Users\liangfan\OneDrive\enbed\CH573\AHL-CH573-EXP-V1.3-20241124\03-Software\CH08\UART-ISR-CH573\Debug/srcc/printf.c:111
}
   13eba:	8522                	mv	a0,s0
   13ebc:	37c12083          	lw	ra,892(sp)
   13ec0:	37812403          	lw	s0,888(sp)
   13ec4:	37412483          	lw	s1,884(sp)
   13ec8:	37012903          	lw	s2,880(sp)
   13ecc:	36c12983          	lw	s3,876(sp)
   13ed0:	36812a03          	lw	s4,872(sp)
   13ed4:	36412a83          	lw	s5,868(sp)
   13ed8:	36012b03          	lw	s6,864(sp)
   13edc:	35c12b83          	lw	s7,860(sp)
   13ee0:	35812c03          	lw	s8,856(sp)
   13ee4:	35412c83          	lw	s9,852(sp)
   13ee8:	35012d03          	lw	s10,848(sp)
   13eec:	34c12d83          	lw	s11,844(sp)
   13ef0:	38010113          	addi	sp,sp,896
   13ef4:	8082                	ret
C:\Users\liangfan\OneDrive\enbed\CH573\AHL-CH573-EXP-V1.3-20241124\03-Software\CH08\UART-ISR-CH573\Debug/srcc/printf.c:52
	uint32_t i=0,j=0,k=0,a[100]={0},b[100]={0};
   13ef6:	4901                	li	s2,0
   13ef8:	bf9d                	j	13e6e <printk_mkfloatstr+0x15a>
   13efa:	4901                	li	s2,0
   13efc:	bf8d                	j	13e6e <printk_mkfloatstr+0x15a>
   13efe:	1b010c93          	addi	s9,sp,432
C:\Users\liangfan\OneDrive\enbed\CH573\AHL-CH573-EXP-V1.3-20241124\03-Software\CH08\UART-ISR-CH573\Debug/srcc/printf.c:72
	if(p==0)//整数部分为0
   13f02:	8466                	mv	s0,s9
C:\Users\liangfan\OneDrive\enbed\CH573\AHL-CH573-EXP-V1.3-20241124\03-Software\CH08\UART-ISR-CH573\Debug/srcc/printf.c:52
	uint32_t i=0,j=0,k=0,a[100]={0},b[100]={0};
   13f04:	4b81                	li	s7,0
   13f06:	a021                	j	13f0e <printk_mkfloatstr+0x1fa>
C:\Users\liangfan\OneDrive\enbed\CH573\AHL-CH573-EXP-V1.3-20241124\03-Software\CH08\UART-ISR-CH573\Debug/srcc/printf.c:79
			p/=10;
   13f08:	8aaa                	mv	s5,a0
   13f0a:	8a2e                	mv	s4,a1
C:\Users\liangfan\OneDrive\enbed\CH573\AHL-CH573-EXP-V1.3-20241124\03-Software\CH08\UART-ISR-CH573\Debug/srcc/printf.c:78
			a[j++]=p%10;
   13f0c:	8ba6                	mv	s7,s1
   13f0e:	001b8493          	addi	s1,s7,1
   13f12:	4629                	li	a2,10
   13f14:	4681                	li	a3,0
   13f16:	8556                	mv	a0,s5
   13f18:	85d2                	mv	a1,s4
   13f1a:	00001097          	auipc	ra,0x1
   13f1e:	b92080e7          	jalr	-1134(ra) # 14aac <__umoddi3>
   13f22:	c008                	sw	a0,0(s0)
C:\Users\liangfan\OneDrive\enbed\CH573\AHL-CH573-EXP-V1.3-20241124\03-Software\CH08\UART-ISR-CH573\Debug/srcc/printf.c:79
			p/=10;
   13f24:	4629                	li	a2,10
   13f26:	4681                	li	a3,0
   13f28:	8556                	mv	a0,s5
   13f2a:	85d2                	mv	a1,s4
   13f2c:	00000097          	auipc	ra,0x0
   13f30:	7e8080e7          	jalr	2024(ra) # 14714 <__udivdi3>
   13f34:	0411                	addi	s0,s0,4
C:\Users\liangfan\OneDrive\enbed\CH573\AHL-CH573-EXP-V1.3-20241124\03-Software\CH08\UART-ISR-CH573\Debug/srcc/printf.c:76
		while(p!=0)//倒序的数字
   13f36:	fc0a19e3          	bnez	s4,13f08 <printk_mkfloatstr+0x1f4>
   13f3a:	000a1563          	bnez	s4,13f44 <printk_mkfloatstr+0x230>
   13f3e:	47a5                	li	a5,9
   13f40:	fd57e4e3          	bltu	a5,s5,13f08 <printk_mkfloatstr+0x1f4>
C:\Users\liangfan\OneDrive\enbed\CH573\AHL-CH573-EXP-V1.3-20241124\03-Software\CH08\UART-ISR-CH573\Debug/srcc/printf.c:81
		while(j>0)//将倒序数字转为正序，并转换为对应的字符形式
   13f44:	dc95                	beqz	s1,13e80 <printk_mkfloatstr+0x16c>
   13f46:	0b8a                	slli	s7,s7,0x2
   13f48:	1b1c                	addi	a5,sp,432
   13f4a:	9bbe                	add	s7,s7,a5
   13f4c:	875a                	mv	a4,s6
   13f4e:	a011                	j	13f52 <printk_mkfloatstr+0x23e>
   13f50:	8bbe                	mv	s7,a5
C:\Users\liangfan\OneDrive\enbed\CH573\AHL-CH573-EXP-V1.3-20241124\03-Software\CH08\UART-ISR-CH573\Debug/srcc/printf.c:83
			c[i++]=a[j-1]+'0';
   13f52:	000ba783          	lw	a5,0(s7)
   13f56:	03078793          	addi	a5,a5,48
   13f5a:	00f70023          	sb	a5,0(a4)
C:\Users\liangfan\OneDrive\enbed\CH573\AHL-CH573-EXP-V1.3-20241124\03-Software\CH08\UART-ISR-CH573\Debug/srcc/printf.c:84
			j--;
   13f5e:	ffcb8793          	addi	a5,s7,-4
   13f62:	0705                	addi	a4,a4,1
C:\Users\liangfan\OneDrive\enbed\CH573\AHL-CH573-EXP-V1.3-20241124\03-Software\CH08\UART-ISR-CH573\Debug/srcc/printf.c:81
		while(j>0)//将倒序数字转为正序，并转换为对应的字符形式
   13f64:	ff9b96e3          	bne	s7,s9,13f50 <printk_mkfloatstr+0x23c>
   13f68:	bf21                	j	13e80 <printk_mkfloatstr+0x16c>
   13f6a:	02010a13          	addi	s4,sp,32
C:\Users\liangfan\OneDrive\enbed\CH573\AHL-CH573-EXP-V1.3-20241124\03-Software\CH08\UART-ISR-CH573\Debug/srcc/printf.c:88
	if(q==0)     //小数部分为0
   13f6e:	8ad2                	mv	s5,s4
C:\Users\liangfan\OneDrive\enbed\CH573\AHL-CH573-EXP-V1.3-20241124\03-Software\CH08\UART-ISR-CH573\Debug/srcc/printf.c:92
		j=0;
   13f70:	4481                	li	s1,0
C:\Users\liangfan\OneDrive\enbed\CH573\AHL-CH573-EXP-V1.3-20241124\03-Software\CH08\UART-ISR-CH573\Debug/srcc/printf.c:93
		while(q!=0)//倒序的数字
   13f72:	4ba5                	li	s7,9
   13f74:	a019                	j	13f7a <printk_mkfloatstr+0x266>
C:\Users\liangfan\OneDrive\enbed\CH573\AHL-CH573-EXP-V1.3-20241124\03-Software\CH08\UART-ISR-CH573\Debug/srcc/printf.c:96
			q/=10;
   13f76:	8d2a                	mv	s10,a0
   13f78:	89ae                	mv	s3,a1
C:\Users\liangfan\OneDrive\enbed\CH573\AHL-CH573-EXP-V1.3-20241124\03-Software\CH08\UART-ISR-CH573\Debug/srcc/printf.c:95
			b[j++]=q%10;
   13f7a:	0485                	addi	s1,s1,1
   13f7c:	4629                	li	a2,10
   13f7e:	4681                	li	a3,0
   13f80:	856a                	mv	a0,s10
   13f82:	85ce                	mv	a1,s3
   13f84:	00001097          	auipc	ra,0x1
   13f88:	b28080e7          	jalr	-1240(ra) # 14aac <__umoddi3>
   13f8c:	00aaa023          	sw	a0,0(s5)
C:\Users\liangfan\OneDrive\enbed\CH573\AHL-CH573-EXP-V1.3-20241124\03-Software\CH08\UART-ISR-CH573\Debug/srcc/printf.c:96
			q/=10;
   13f90:	4629                	li	a2,10
   13f92:	4681                	li	a3,0
   13f94:	856a                	mv	a0,s10
   13f96:	85ce                	mv	a1,s3
   13f98:	00000097          	auipc	ra,0x0
   13f9c:	77c080e7          	jalr	1916(ra) # 14714 <__udivdi3>
   13fa0:	0a91                	addi	s5,s5,4
C:\Users\liangfan\OneDrive\enbed\CH573\AHL-CH573-EXP-V1.3-20241124\03-Software\CH08\UART-ISR-CH573\Debug/srcc/printf.c:93
		while(q!=0)//倒序的数字
   13fa2:	fc099ae3          	bnez	s3,13f76 <printk_mkfloatstr+0x262>
   13fa6:	00099463          	bnez	s3,13fae <printk_mkfloatstr+0x29a>
   13faa:	fdabe6e3          	bltu	s7,s10,13f76 <printk_mkfloatstr+0x262>
C:\Users\liangfan\OneDrive\enbed\CH573\AHL-CH573-EXP-V1.3-20241124\03-Software\CH08\UART-ISR-CH573\Debug/srcc/printf.c:98
		while(k!=0)
   13fae:	00090f63          	beqz	s2,13fcc <printk_mkfloatstr+0x2b8>
   13fb2:	00249793          	slli	a5,s1,0x2
   13fb6:	1018                	addi	a4,sp,32
   13fb8:	97ba                	add	a5,a5,a4
   13fba:	94ca                	add	s1,s1,s2
   13fbc:	00249713          	slli	a4,s1,0x2
   13fc0:	9752                	add	a4,a4,s4
C:\Users\liangfan\OneDrive\enbed\CH573\AHL-CH573-EXP-V1.3-20241124\03-Software\CH08\UART-ISR-CH573\Debug/srcc/printf.c:100
			b[j++]=0;
   13fc2:	0007a023          	sw	zero,0(a5)
C:\Users\liangfan\OneDrive\enbed\CH573\AHL-CH573-EXP-V1.3-20241124\03-Software\CH08\UART-ISR-CH573\Debug/srcc/printf.c:101
			k--;
   13fc6:	0791                	addi	a5,a5,4
C:\Users\liangfan\OneDrive\enbed\CH573\AHL-CH573-EXP-V1.3-20241124\03-Software\CH08\UART-ISR-CH573\Debug/srcc/printf.c:98
		while(k!=0)
   13fc8:	fee79de3          	bne	a5,a4,13fc2 <printk_mkfloatstr+0x2ae>
C:\Users\liangfan\OneDrive\enbed\CH573\AHL-CH573-EXP-V1.3-20241124\03-Software\CH08\UART-ISR-CH573\Debug/srcc/printf.c:103
		while(j>0)//将倒序数字转为正序，并转换为对应的字符形式
   13fcc:	ee0484e3          	beqz	s1,13eb4 <printk_mkfloatstr+0x1a0>
   13fd0:	00249793          	slli	a5,s1,0x2
   13fd4:	0698                	addi	a4,sp,832
   13fd6:	97ba                	add	a5,a5,a4
   13fd8:	cdc78793          	addi	a5,a5,-804
   13fdc:	008b06b3          	add	a3,s6,s0
   13fe0:	a011                	j	13fe4 <printk_mkfloatstr+0x2d0>
   13fe2:	87ba                	mv	a5,a4
C:\Users\liangfan\OneDrive\enbed\CH573\AHL-CH573-EXP-V1.3-20241124\03-Software\CH08\UART-ISR-CH573\Debug/srcc/printf.c:105
			c[i++]=b[j-1]+'0';
   13fe4:	4398                	lw	a4,0(a5)
   13fe6:	03070713          	addi	a4,a4,48
   13fea:	00e68023          	sb	a4,0(a3)
C:\Users\liangfan\OneDrive\enbed\CH573\AHL-CH573-EXP-V1.3-20241124\03-Software\CH08\UART-ISR-CH573\Debug/srcc/printf.c:106
			j--;
   13fee:	ffc78713          	addi	a4,a5,-4
   13ff2:	0685                	addi	a3,a3,1
C:\Users\liangfan\OneDrive\enbed\CH573\AHL-CH573-EXP-V1.3-20241124\03-Software\CH08\UART-ISR-CH573\Debug/srcc/printf.c:103
		while(j>0)//将倒序数字转为正序，并转换为对应的字符形式
   13ff4:	fefa17e3          	bne	s4,a5,13fe2 <printk_mkfloatstr+0x2ce>
   13ff8:	9426                	add	s0,s0,s1
   13ffa:	bd6d                	j	13eb4 <printk_mkfloatstr+0x1a0>

00013ffc <printk>:
printk():
C:\Users\liangfan\OneDrive\enbed\CH573\AHL-CH573-EXP-V1.3-20241124\03-Software\CH08\UART-ISR-CH573\Debug/srcc/printf.c:202
//       fmt:输出格式信息
//       ap:va_list指针指向格式信息输出
//函数返回：无
//======================================================================
int printk(PRINTK_INFO *info, const char *fmt, char * ap)
{
   13ffc:	7175                	addi	sp,sp,-144
   13ffe:	c706                	sw	ra,140(sp)
   14000:	c522                	sw	s0,136(sp)
   14002:	c326                	sw	s1,132(sp)
   14004:	c14a                	sw	s2,128(sp)
   14006:	dece                	sw	s3,124(sp)
   14008:	dcd2                	sw	s4,120(sp)
   1400a:	dad6                	sw	s5,116(sp)
   1400c:	d8da                	sw	s6,112(sp)
   1400e:	d6de                	sw	s7,108(sp)
   14010:	d4e2                	sw	s8,104(sp)
   14012:	d2e6                	sw	s9,100(sp)
   14014:	d0ea                	sw	s10,96(sp)
   14016:	ceee                	sw	s11,92(sp)
   14018:	8a2a                	mv	s4,a0
C:\Users\liangfan\OneDrive\enbed\CH573\AHL-CH573-EXP-V1.3-20241124\03-Software\CH08\UART-ISR-CH573\Debug/srcc/printf.c:226

	}un1;*/
	char *p;
	int c;
	//char temp1;
	char vstr[33]={'0'};
   1401a:	d602                	sw	zero,44(sp)
   1401c:	d802                	sw	zero,48(sp)
   1401e:	da02                	sw	zero,52(sp)
   14020:	dc02                	sw	zero,56(sp)
   14022:	de02                	sw	zero,60(sp)
   14024:	c082                	sw	zero,64(sp)
   14026:	c282                	sw	zero,68(sp)
   14028:	c482                	sw	zero,72(sp)
   1402a:	04010623          	sb	zero,76(sp)
   1402e:	03000793          	li	a5,48
   14032:	02f10623          	sb	a5,44(sp)
C:\Users\liangfan\OneDrive\enbed\CH573\AHL-CH573-EXP-V1.3-20241124\03-Software\CH08\UART-ISR-CH573\Debug/srcc/printf.c:247
	int *ivalp;
	char *sval;
	int cval;
	unsigned int uval;

	count = 0;
   14036:	d402                	sw	zero,40(sp)
C:\Users\liangfan\OneDrive\enbed\CH573\AHL-CH573-EXP-V1.3-20241124\03-Software\CH08\UART-ISR-CH573\Debug/srcc/printf.c:251
	length_modifier=0;
	precision_used=TRUE;
	//从格式字符串第一个字符开始格式化输出数据
	for (p = (char *) fmt; (c = *p) != 0; p++)
   14038:	00058503          	lb	a0,0(a1)
   1403c:	68050163          	beqz	a0,146be <printk+0x6c2>
   14040:	8b2e                	mv	s6,a1
   14042:	8bb2                	mv	s7,a2
C:\Users\liangfan\OneDrive\enbed\CH573\AHL-CH573-EXP-V1.3-20241124\03-Software\CH08\UART-ISR-CH573\Debug/srcc/printf.c:249
	precision_used=TRUE;
   14044:	4d05                	li	s10,1
C:\Users\liangfan\OneDrive\enbed\CH573\AHL-CH573-EXP-V1.3-20241124\03-Software\CH08\UART-ISR-CH573\Debug/srcc/printf.c:248
	length_modifier=0;
   14046:	4c81                	li	s9,0
C:\Users\liangfan\OneDrive\enbed\CH573\AHL-CH573-EXP-V1.3-20241124\03-Software\CH08\UART-ISR-CH573\Debug/srcc/printf.c:279
		//此时字符为%  查看百分号后的第一个格式字符，对输出格式字符并做出相应输出判断
		//检查相应的修改标志
		flags_used = 0;
		done = FALSE;
		while (!done) {
			switch (/* c = */*++p) {
   14048:	00002417          	auipc	s0,0x2
   1404c:	16c40413          	addi	s0,s0,364 # 161b4 <strlen+0x3a4>
C:\Users\liangfan\OneDrive\enbed\CH573\AHL-CH573-EXP-V1.3-20241124\03-Software\CH08\UART-ISR-CH573\Debug/srcc/printf.c:387
			--p;
			break;
		}

		//p为格式字符串的首地址
		switch (c = *++p) {
   14050:	00002c17          	auipc	s8,0x2
   14054:	1a8c0c13          	addi	s8,s8,424 # 161f8 <strlen+0x3e8>
   14058:	a035                	j	14084 <printk+0x88>
C:\Users\liangfan\OneDrive\enbed\CH573\AHL-CH573-EXP-V1.3-20241124\03-Software\CH08\UART-ISR-CH573\Debug/srcc/printf.c:263
				printk_putc(0x0D /* CR */, &count, info);
   1405a:	8652                	mv	a2,s4
   1405c:	102c                	addi	a1,sp,40
   1405e:	4535                	li	a0,13
   14060:	00000097          	auipc	ra,0x0
   14064:	ba2080e7          	jalr	-1118(ra) # 13c02 <printk_putc>
C:\Users\liangfan\OneDrive\enbed\CH573\AHL-CH573-EXP-V1.3-20241124\03-Software\CH08\UART-ISR-CH573\Debug/srcc/printf.c:264
				printk_putc(0x0A /* LF */, &count, info);
   14068:	8652                	mv	a2,s4
   1406a:	102c                	addi	a1,sp,40
   1406c:	4529                	li	a0,10
   1406e:	00000097          	auipc	ra,0x0
   14072:	b94080e7          	jalr	-1132(ra) # 13c02 <printk_putc>
   14076:	8ada                	mv	s5,s6
C:\Users\liangfan\OneDrive\enbed\CH573\AHL-CH573-EXP-V1.3-20241124\03-Software\CH08\UART-ISR-CH573\Debug/srcc/printf.c:251 (discriminator 2)
	for (p = (char *) fmt; (c = *p) != 0; p++)
   14078:	001a8b13          	addi	s6,s5,1
   1407c:	001a8503          	lb	a0,1(s5)
   14080:	62050f63          	beqz	a0,146be <printk+0x6c2>
C:\Users\liangfan\OneDrive\enbed\CH573\AHL-CH573-EXP-V1.3-20241124\03-Software\CH08\UART-ISR-CH573\Debug/srcc/printf.c:254
		if (c != '%')
   14084:	02500793          	li	a5,37
   14088:	00f50d63          	beq	a0,a5,140a2 <printk+0xa6>
C:\Users\liangfan\OneDrive\enbed\CH573\AHL-CH573-EXP-V1.3-20241124\03-Software\CH08\UART-ISR-CH573\Debug/srcc/printf.c:258
			if (c != '\n') {
   1408c:	47a9                	li	a5,10
   1408e:	fcf506e3          	beq	a0,a5,1405a <printk+0x5e>
C:\Users\liangfan\OneDrive\enbed\CH573\AHL-CH573-EXP-V1.3-20241124\03-Software\CH08\UART-ISR-CH573\Debug/srcc/printf.c:259
				printk_putc(c, &count, info);
   14092:	8652                	mv	a2,s4
   14094:	102c                	addi	a1,sp,40
   14096:	00000097          	auipc	ra,0x0
   1409a:	b6c080e7          	jalr	-1172(ra) # 13c02 <printk_putc>
   1409e:	8ada                	mv	s5,s6
   140a0:	bfe1                	j	14078 <printk+0x7c>
C:\Users\liangfan\OneDrive\enbed\CH573\AHL-CH573-EXP-V1.3-20241124\03-Software\CH08\UART-ISR-CH573\Debug/srcc/printf.c:276
		flags_used = 0;
   140a2:	4481                	li	s1,0
C:\Users\liangfan\OneDrive\enbed\CH573\AHL-CH573-EXP-V1.3-20241124\03-Software\CH08\UART-ISR-CH573\Debug/srcc/printf.c:279
			switch (/* c = */*++p) {
   140a4:	4641                	li	a2,16
   140a6:	a021                	j	140ae <printk+0xb2>
C:\Users\liangfan\OneDrive\enbed\CH573\AHL-CH573-EXP-V1.3-20241124\03-Software\CH08\UART-ISR-CH573\Debug/srcc/printf.c:281
				flags_used |= FLAGS_MINUS;
   140a8:	0014e493          	ori	s1,s1,1
C:\Users\liangfan\OneDrive\enbed\CH573\AHL-CH573-EXP-V1.3-20241124\03-Software\CH08\UART-ISR-CH573\Debug/srcc/printf.c:282
				break;
   140ac:	8b36                	mv	s6,a3
C:\Users\liangfan\OneDrive\enbed\CH573\AHL-CH573-EXP-V1.3-20241124\03-Software\CH08\UART-ISR-CH573\Debug/srcc/printf.c:279
			switch (/* c = */*++p) {
   140ae:	001b0693          	addi	a3,s6,1
   140b2:	001b4783          	lbu	a5,1(s6)
   140b6:	1781                	addi	a5,a5,-32
   140b8:	0ff7f713          	andi	a4,a5,255
   140bc:	08e66c63          	bltu	a2,a4,14154 <printk+0x158>
   140c0:	00271793          	slli	a5,a4,0x2
   140c4:	97a2                	add	a5,a5,s0
   140c6:	439c                	lw	a5,0(a5)
   140c8:	97a2                	add	a5,a5,s0
   140ca:	8782                	jr	a5
C:\Users\liangfan\OneDrive\enbed\CH573\AHL-CH573-EXP-V1.3-20241124\03-Software\CH08\UART-ISR-CH573\Debug/srcc/printf.c:284
				flags_used |= FLAGS_PLUS;
   140cc:	0024e493          	ori	s1,s1,2
C:\Users\liangfan\OneDrive\enbed\CH573\AHL-CH573-EXP-V1.3-20241124\03-Software\CH08\UART-ISR-CH573\Debug/srcc/printf.c:285
				break;
   140d0:	bff1                	j	140ac <printk+0xb0>
C:\Users\liangfan\OneDrive\enbed\CH573\AHL-CH573-EXP-V1.3-20241124\03-Software\CH08\UART-ISR-CH573\Debug/srcc/printf.c:287
				flags_used |= FLAGS_SPACE;
   140d2:	0044e493          	ori	s1,s1,4
C:\Users\liangfan\OneDrive\enbed\CH573\AHL-CH573-EXP-V1.3-20241124\03-Software\CH08\UART-ISR-CH573\Debug/srcc/printf.c:288
				break;
   140d6:	bfd9                	j	140ac <printk+0xb0>
C:\Users\liangfan\OneDrive\enbed\CH573\AHL-CH573-EXP-V1.3-20241124\03-Software\CH08\UART-ISR-CH573\Debug/srcc/printf.c:290
				flags_used |= FLAGS_ZERO;
   140d8:	0084e493          	ori	s1,s1,8
C:\Users\liangfan\OneDrive\enbed\CH573\AHL-CH573-EXP-V1.3-20241124\03-Software\CH08\UART-ISR-CH573\Debug/srcc/printf.c:291
				break;
   140dc:	bfc1                	j	140ac <printk+0xb0>
C:\Users\liangfan\OneDrive\enbed\CH573\AHL-CH573-EXP-V1.3-20241124\03-Software\CH08\UART-ISR-CH573\Debug/srcc/printf.c:293
				flags_used |= FLAGS_POUND;
   140de:	0104e493          	ori	s1,s1,16
C:\Users\liangfan\OneDrive\enbed\CH573\AHL-CH573-EXP-V1.3-20241124\03-Software\CH08\UART-ISR-CH573\Debug/srcc/printf.c:294
				break;
   140e2:	b7e9                	j	140ac <printk+0xb0>
C:\Users\liangfan\OneDrive\enbed\CH573\AHL-CH573-EXP-V1.3-20241124\03-Software\CH08\UART-ISR-CH573\Debug/srcc/printf.c:319
				field_width = (field_width * 10) + (c - '0');
   140e4:	00291793          	slli	a5,s2,0x2
   140e8:	993e                	add	s2,s2,a5
   140ea:	0906                	slli	s2,s2,0x1
   140ec:	993a                	add	s2,s2,a4
   140ee:	8b36                	mv	s6,a3
C:\Users\liangfan\OneDrive\enbed\CH573\AHL-CH573-EXP-V1.3-20241124\03-Software\CH08\UART-ISR-CH573\Debug/srcc/printf.c:308
			switch (c = *++p) {
   140f0:	001b0693          	addi	a3,s6,1
   140f4:	001b0703          	lb	a4,1(s6)
   140f8:	fd070713          	addi	a4,a4,-48
   140fc:	fee674e3          	bgeu	a2,a4,140e4 <printk+0xe8>
C:\Users\liangfan\OneDrive\enbed\CH573\AHL-CH573-EXP-V1.3-20241124\03-Software\CH08\UART-ISR-CH573\Debug/srcc/printf.c:329
		if (/* (c = *++p) */*++p == '.') {
   14100:	001b0703          	lb	a4,1(s6)
   14104:	02e00793          	li	a5,46
   14108:	04f70963          	beq	a4,a5,1415a <printk+0x15e>
C:\Users\liangfan\OneDrive\enbed\CH573\AHL-CH573-EXP-V1.3-20241124\03-Software\CH08\UART-ISR-CH573\Debug/srcc/printf.c:366
			precision_width = 0;
   1410c:	4981                	li	s3,0
C:\Users\liangfan\OneDrive\enbed\CH573\AHL-CH573-EXP-V1.3-20241124\03-Software\CH08\UART-ISR-CH573\Debug/srcc/printf.c:365
			precision_used = FALSE;
   1410e:	4d01                	li	s10,0
C:\Users\liangfan\OneDrive\enbed\CH573\AHL-CH573-EXP-V1.3-20241124\03-Software\CH08\UART-ISR-CH573\Debug/srcc/printf.c:370
		switch (/* c = */*++p) {
   14110:	001b0693          	addi	a3,s6,1
   14114:	001b0783          	lb	a5,1(s6)
   14118:	06800713          	li	a4,104
   1411c:	06e78a63          	beq	a5,a4,14190 <printk+0x194>
   14120:	06c00713          	li	a4,108
   14124:	04e78e63          	beq	a5,a4,14180 <printk+0x184>
   14128:	04c00713          	li	a4,76
   1412c:	04e78e63          	beq	a5,a4,14188 <printk+0x18c>
C:\Users\liangfan\OneDrive\enbed\CH573\AHL-CH573-EXP-V1.3-20241124\03-Software\CH08\UART-ISR-CH573\Debug/srcc/printf.c:387
		switch (c = *++p) {
   14130:	001b0a93          	addi	s5,s6,1
   14134:	001b0503          	lb	a0,1(s6)
   14138:	fa850793          	addi	a5,a0,-88
   1413c:	0ff7f693          	andi	a3,a5,255
   14140:	02000713          	li	a4,32
   14144:	4cd76763          	bltu	a4,a3,14612 <printk+0x616>
   14148:	00269793          	slli	a5,a3,0x2
   1414c:	97e2                	add	a5,a5,s8
   1414e:	439c                	lw	a5,0(a5)
   14150:	97e2                	add	a5,a5,s8
   14152:	8782                	jr	a5
C:\Users\liangfan\OneDrive\enbed\CH573\AHL-CH573-EXP-V1.3-20241124\03-Software\CH08\UART-ISR-CH573\Debug/srcc/printf.c:305
		field_width = 0;
   14154:	4901                	li	s2,0
C:\Users\liangfan\OneDrive\enbed\CH573\AHL-CH573-EXP-V1.3-20241124\03-Software\CH08\UART-ISR-CH573\Debug/srcc/printf.c:308
			switch (c = *++p) {
   14156:	4625                	li	a2,9
   14158:	bf61                	j	140f0 <printk+0xf4>
C:\Users\liangfan\OneDrive\enbed\CH573\AHL-CH573-EXP-V1.3-20241124\03-Software\CH08\UART-ISR-CH573\Debug/srcc/printf.c:329
		if (/* (c = *++p) */*++p == '.') {
   1415a:	8b36                	mv	s6,a3
C:\Users\liangfan\OneDrive\enbed\CH573\AHL-CH573-EXP-V1.3-20241124\03-Software\CH08\UART-ISR-CH573\Debug/srcc/printf.c:335
			precision_width = 0;
   1415c:	4981                	li	s3,0
C:\Users\liangfan\OneDrive\enbed\CH573\AHL-CH573-EXP-V1.3-20241124\03-Software\CH08\UART-ISR-CH573\Debug/srcc/printf.c:338
				switch ( c = *++p) {
   1415e:	4625                	li	a2,9
   14160:	a039                	j	1416e <printk+0x172>
C:\Users\liangfan\OneDrive\enbed\CH573\AHL-CH573-EXP-V1.3-20241124\03-Software\CH08\UART-ISR-CH573\Debug/srcc/printf.c:350
				precision_width = (precision_width * 10) +	(c - '0');
   14162:	00299793          	slli	a5,s3,0x2
   14166:	99be                	add	s3,s3,a5
   14168:	0986                	slli	s3,s3,0x1
   1416a:	99ba                	add	s3,s3,a4
   1416c:	8b36                	mv	s6,a3
C:\Users\liangfan\OneDrive\enbed\CH573\AHL-CH573-EXP-V1.3-20241124\03-Software\CH08\UART-ISR-CH573\Debug/srcc/printf.c:338
				switch ( c = *++p) {
   1416e:	001b0693          	addi	a3,s6,1
   14172:	001b0703          	lb	a4,1(s6)
   14176:	fd070713          	addi	a4,a4,-48
   1417a:	fee674e3          	bgeu	a2,a4,14162 <printk+0x166>
   1417e:	bf49                	j	14110 <printk+0x114>
C:\Users\liangfan\OneDrive\enbed\CH573\AHL-CH573-EXP-V1.3-20241124\03-Software\CH08\UART-ISR-CH573\Debug/srcc/printf.c:375
			 length_modifier |= LENMOD_l;
   14180:	001cec93          	ori	s9,s9,1
C:\Users\liangfan\OneDrive\enbed\CH573\AHL-CH573-EXP-V1.3-20241124\03-Software\CH08\UART-ISR-CH573\Debug/srcc/printf.c:370
		switch (/* c = */*++p) {
   14184:	8b36                	mv	s6,a3
C:\Users\liangfan\OneDrive\enbed\CH573\AHL-CH573-EXP-V1.3-20241124\03-Software\CH08\UART-ISR-CH573\Debug/srcc/printf.c:376
			break;
   14186:	b76d                	j	14130 <printk+0x134>
C:\Users\liangfan\OneDrive\enbed\CH573\AHL-CH573-EXP-V1.3-20241124\03-Software\CH08\UART-ISR-CH573\Debug/srcc/printf.c:378
			 length_modifier |= LENMOD_L;
   14188:	002cec93          	ori	s9,s9,2
C:\Users\liangfan\OneDrive\enbed\CH573\AHL-CH573-EXP-V1.3-20241124\03-Software\CH08\UART-ISR-CH573\Debug/srcc/printf.c:370
		switch (/* c = */*++p) {
   1418c:	8b36                	mv	s6,a3
C:\Users\liangfan\OneDrive\enbed\CH573\AHL-CH573-EXP-V1.3-20241124\03-Software\CH08\UART-ISR-CH573\Debug/srcc/printf.c:379
			break;
   1418e:	b74d                	j	14130 <printk+0x134>
C:\Users\liangfan\OneDrive\enbed\CH573\AHL-CH573-EXP-V1.3-20241124\03-Software\CH08\UART-ISR-CH573\Debug/srcc/printf.c:370
		switch (/* c = */*++p) {
   14190:	8b36                	mv	s6,a3
   14192:	bf79                	j	14130 <printk+0x134>
C:\Users\liangfan\OneDrive\enbed\CH573\AHL-CH573-EXP-V1.3-20241124\03-Software\CH08\UART-ISR-CH573\Debug/srcc/printf.c:391
		case 'd':
		case 'i':
			 //此时ap为指向可变参数列表的第一个参数
			ival = (int) va_arg1(ap, int);  //返回当前参数，并将ap指向下一个参数
   14194:	004b8793          	addi	a5,s7,4
   14198:	c63e                	sw	a5,12(sp)
   1419a:	000ba783          	lw	a5,0(s7)
   1419e:	d23e                	sw	a5,36(sp)
C:\Users\liangfan\OneDrive\enbed\CH573\AHL-CH573-EXP-V1.3-20241124\03-Software\CH08\UART-ISR-CH573\Debug/srcc/printf.c:392
			vlen = printk_mknumstr(vstr, &ival, TRUE, 10);//将整型转换成字符型保存在vstr中，返回字符数vlen
   141a0:	46a9                	li	a3,10
   141a2:	4605                	li	a2,1
   141a4:	104c                	addi	a1,sp,36
   141a6:	1068                	addi	a0,sp,44
   141a8:	00000097          	auipc	ra,0x0
   141ac:	a96080e7          	jalr	-1386(ra) # 13c3e <printk_mknumstr>
   141b0:	8b2a                	mv	s6,a0
C:\Users\liangfan\OneDrive\enbed\CH573\AHL-CH573-EXP-V1.3-20241124\03-Software\CH08\UART-ISR-CH573\Debug/srcc/printf.c:393
			vstrp = &vstr[vlen];  //指向转换后的最后一个字符
   141b2:	107c                	addi	a5,sp,44
   141b4:	00a789b3          	add	s3,a5,a0
C:\Users\liangfan\OneDrive\enbed\CH573\AHL-CH573-EXP-V1.3-20241124\03-Software\CH08\UART-ISR-CH573\Debug/srcc/printf.c:396

			//若参数小于0，添加'-'号，并将字符长度加1
			if (ival < 0) {
   141b8:	5792                	lw	a5,36(sp)
   141ba:	0007ca63          	bltz	a5,141ce <printk+0x1d2>
C:\Users\liangfan\OneDrive\enbed\CH573\AHL-CH573-EXP-V1.3-20241124\03-Software\CH08\UART-ISR-CH573\Debug/srcc/printf.c:402
				schar = '-';
				++vlen;
			}
			//若参数不小于0，添加‘+’号或者‘ ’或者为0，并将字符长度加1
			else {
				if (IS_FLAG_PLUS(flags_used)) {
   141be:	0024f793          	andi	a5,s1,2
   141c2:	cf8d                	beqz	a5,141fc <printk+0x200>
C:\Users\liangfan\OneDrive\enbed\CH573\AHL-CH573-EXP-V1.3-20241124\03-Software\CH08\UART-ISR-CH573\Debug/srcc/printf.c:404
					schar = '+';
					++vlen;
   141c4:	00150b13          	addi	s6,a0,1
C:\Users\liangfan\OneDrive\enbed\CH573\AHL-CH573-EXP-V1.3-20241124\03-Software\CH08\UART-ISR-CH573\Debug/srcc/printf.c:403
					schar = '+';
   141c8:	02b00d93          	li	s11,43
   141cc:	a029                	j	141d6 <printk+0x1da>
C:\Users\liangfan\OneDrive\enbed\CH573\AHL-CH573-EXP-V1.3-20241124\03-Software\CH08\UART-ISR-CH573\Debug/srcc/printf.c:398
				++vlen;
   141ce:	00150b13          	addi	s6,a0,1
C:\Users\liangfan\OneDrive\enbed\CH573\AHL-CH573-EXP-V1.3-20241124\03-Software\CH08\UART-ISR-CH573\Debug/srcc/printf.c:397
				schar = '-';
   141d2:	02d00d93          	li	s11,45
C:\Users\liangfan\OneDrive\enbed\CH573\AHL-CH573-EXP-V1.3-20241124\03-Software\CH08\UART-ISR-CH573\Debug/srcc/printf.c:419
			dschar = FALSE;

			/*
			 * do the ZERO pad.
			 */
			if (IS_FLAG_ZERO(flags_used)) {
   141d6:	0084f793          	andi	a5,s1,8
   141da:	eb95                	bnez	a5,1420e <printk+0x212>
C:\Users\liangfan\OneDrive\enbed\CH573\AHL-CH573-EXP-V1.3-20241124\03-Software\CH08\UART-ISR-CH573\Debug/srcc/printf.c:426
					printk_putc(schar, &count, info);  //输出符号
				dschar = TRUE;
				printk_pad_zero(vlen, field_width, &count, info);
				vlen = field_width;
			} else {
				if (!IS_FLAG_MINUS(flags_used)) {
   141dc:	0014f793          	andi	a5,s1,1
   141e0:	4a078e63          	beqz	a5,1469c <printk+0x6a0>
C:\Users\liangfan\OneDrive\enbed\CH573\AHL-CH573-EXP-V1.3-20241124\03-Software\CH08\UART-ISR-CH573\Debug/srcc/printf.c:391
			ival = (int) va_arg1(ap, int);  //返回当前参数，并将ap指向下一个参数
   141e4:	4bb2                	lw	s7,12(sp)
C:\Users\liangfan\OneDrive\enbed\CH573\AHL-CH573-EXP-V1.3-20241124\03-Software\CH08\UART-ISR-CH573\Debug/srcc/printf.c:437
				}
			}

			/* the string was built in reverse order, now display in */
			/* correct order */
			if (!dschar && schar) {
   141e6:	280d8d63          	beqz	s11,14480 <printk+0x484>
C:\Users\liangfan\OneDrive\enbed\CH573\AHL-CH573-EXP-V1.3-20241124\03-Software\CH08\UART-ISR-CH573\Debug/srcc/printf.c:438
				printk_putc(schar, &count, info);
   141ea:	8652                	mv	a2,s4
   141ec:	102c                	addi	a1,sp,40
   141ee:	856e                	mv	a0,s11
   141f0:	00000097          	auipc	ra,0x0
   141f4:	a12080e7          	jalr	-1518(ra) # 13c02 <printk_putc>
C:\Users\liangfan\OneDrive\enbed\CH573\AHL-CH573-EXP-V1.3-20241124\03-Software\CH08\UART-ISR-CH573\Debug/srcc/printf.c:391
			ival = (int) va_arg1(ap, int);  //返回当前参数，并将ap指向下一个参数
   141f8:	4bb2                	lw	s7,12(sp)
   141fa:	a459                	j	14480 <printk+0x484>
C:\Users\liangfan\OneDrive\enbed\CH573\AHL-CH573-EXP-V1.3-20241124\03-Software\CH08\UART-ISR-CH573\Debug/srcc/printf.c:406
					if (IS_FLAG_SPACE(flags_used)) {
   141fc:	0044f793          	andi	a5,s1,4
   14200:	46078663          	beqz	a5,1466c <printk+0x670>
C:\Users\liangfan\OneDrive\enbed\CH573\AHL-CH573-EXP-V1.3-20241124\03-Software\CH08\UART-ISR-CH573\Debug/srcc/printf.c:408
						++vlen;
   14204:	00150b13          	addi	s6,a0,1
C:\Users\liangfan\OneDrive\enbed\CH573\AHL-CH573-EXP-V1.3-20241124\03-Software\CH08\UART-ISR-CH573\Debug/srcc/printf.c:407
						schar = ' ';
   14208:	02000d93          	li	s11,32
   1420c:	b7e9                	j	141d6 <printk+0x1da>
C:\Users\liangfan\OneDrive\enbed\CH573\AHL-CH573-EXP-V1.3-20241124\03-Software\CH08\UART-ISR-CH573\Debug/srcc/printf.c:421
					printk_putc(schar, &count, info);  //输出符号
   1420e:	8652                	mv	a2,s4
   14210:	102c                	addi	a1,sp,40
   14212:	856e                	mv	a0,s11
   14214:	00000097          	auipc	ra,0x0
   14218:	9ee080e7          	jalr	-1554(ra) # 13c02 <printk_putc>
printk_pad_zero():
C:\Users\liangfan\OneDrive\enbed\CH573\AHL-CH573-EXP-V1.3-20241124\03-Software\CH08\UART-ISR-CH573\Debug/srcc/printf.c:179
	for (i = curlen; i < field_width; i++) {
   1421c:	332b5963          	bge	s6,s2,1454e <printk+0x552>
C:\Users\liangfan\OneDrive\enbed\CH573\AHL-CH573-EXP-V1.3-20241124\03-Software\CH08\UART-ISR-CH573\Debug/srcc/printf.c:180
		printk_putc('0', count, info);
   14220:	8652                	mv	a2,s4
   14222:	102c                	addi	a1,sp,40
   14224:	03000513          	li	a0,48
   14228:	00000097          	auipc	ra,0x0
   1422c:	9da080e7          	jalr	-1574(ra) # 13c02 <printk_putc>
C:\Users\liangfan\OneDrive\enbed\CH573\AHL-CH573-EXP-V1.3-20241124\03-Software\CH08\UART-ISR-CH573\Debug/srcc/printf.c:179
	for (i = curlen; i < field_width; i++) {
   14230:	0b05                	addi	s6,s6,1
   14232:	ff2b17e3          	bne	s6,s2,14220 <printk+0x224>
   14236:	8b4a                	mv	s6,s2
printk():
C:\Users\liangfan\OneDrive\enbed\CH573\AHL-CH573-EXP-V1.3-20241124\03-Software\CH08\UART-ISR-CH573\Debug/srcc/printf.c:391
			ival = (int) va_arg1(ap, int);  //返回当前参数，并将ap指向下一个参数
   14238:	4bb2                	lw	s7,12(sp)
   1423a:	a4e9                	j	14504 <printk+0x508>
C:\Users\liangfan\OneDrive\enbed\CH573\AHL-CH573-EXP-V1.3-20241124\03-Software\CH08\UART-ISR-CH573\Debug/srcc/printf.c:452
			//实际传入变参数 函数后 浮点数变为:0x6000000040091EB8 实际是将其转化为double型数据
			//但是顺序反了，我们要做的是将后四字节提前，然后把0x60移到紧接着前四个字节后的位置。
			
			//【20200816】  XSX，解决浮点数不优化问题
			ap=ap+4;
			fval= (double)va_arg1(ap,double);
   1423c:	00cb8b13          	addi	s6,s7,12
   14240:	004bad83          	lw	s11,4(s7)
   14244:	008bab83          	lw	s7,8(s7)
   14248:	cc6e                	sw	s11,24(sp)
   1424a:	ce5e                	sw	s7,28(sp)
C:\Users\liangfan\OneDrive\enbed\CH573\AHL-CH573-EXP-V1.3-20241124\03-Software\CH08\UART-ISR-CH573\Debug/srcc/printf.c:456
			
			//【20200816】  XSX，解决负数的浮点数输出问题
			//若参数小于0，添加'-'号，并将字符长度加1
			if (fval < 0) {
   1424c:	4601                	li	a2,0
   1424e:	4681                	li	a3,0
   14250:	856e                	mv	a0,s11
   14252:	85de                	mv	a1,s7
   14254:	00001097          	auipc	ra,0x1
   14258:	c50080e7          	jalr	-944(ra) # 14ea4 <__ledf2>
   1425c:	00054e63          	bltz	a0,14278 <printk+0x27c>
C:\Users\liangfan\OneDrive\enbed\CH573\AHL-CH573-EXP-V1.3-20241124\03-Software\CH08\UART-ISR-CH573\Debug/srcc/printf.c:463
				fval = -fval;				//负数取它的正数
				++vlen;
			}
			//若参数不小于0，添加‘+’号或者‘ ’或者为0，并将字符长度加1
			else {
				if (IS_FLAG_PLUS(flags_used)) {
   14260:	0024f793          	andi	a5,s1,2
C:\Users\liangfan\OneDrive\enbed\CH573\AHL-CH573-EXP-V1.3-20241124\03-Software\CH08\UART-ISR-CH573\Debug/srcc/printf.c:464
					schar = '+';
   14264:	02b00b93          	li	s7,43
C:\Users\liangfan\OneDrive\enbed\CH573\AHL-CH573-EXP-V1.3-20241124\03-Software\CH08\UART-ISR-CH573\Debug/srcc/printf.c:463
				if (IS_FLAG_PLUS(flags_used)) {
   14268:	e385                	bnez	a5,14288 <printk+0x28c>
C:\Users\liangfan\OneDrive\enbed\CH573\AHL-CH573-EXP-V1.3-20241124\03-Software\CH08\UART-ISR-CH573\Debug/srcc/printf.c:467
					++vlen;
				} else {
					if (IS_FLAG_SPACE(flags_used)) {
   1426a:	0044fb93          	andi	s7,s1,4
   1426e:	000b8d63          	beqz	s7,14288 <printk+0x28c>
C:\Users\liangfan\OneDrive\enbed\CH573\AHL-CH573-EXP-V1.3-20241124\03-Software\CH08\UART-ISR-CH573\Debug/srcc/printf.c:468
						schar = ' ';
   14272:	02000b93          	li	s7,32
   14276:	a809                	j	14288 <printk+0x28c>
C:\Users\liangfan\OneDrive\enbed\CH573\AHL-CH573-EXP-V1.3-20241124\03-Software\CH08\UART-ISR-CH573\Debug/srcc/printf.c:458
				fval = -fval;				//负数取它的正数
   14278:	cc6e                	sw	s11,24(sp)
   1427a:	800007b7          	lui	a5,0x80000
   1427e:	0177c7b3          	xor	a5,a5,s7
   14282:	ce3e                	sw	a5,28(sp)
C:\Users\liangfan\OneDrive\enbed\CH573\AHL-CH573-EXP-V1.3-20241124\03-Software\CH08\UART-ISR-CH573\Debug/srcc/printf.c:457
				schar = '-';
   14284:	02d00b93          	li	s7,45
C:\Users\liangfan\OneDrive\enbed\CH573\AHL-CH573-EXP-V1.3-20241124\03-Software\CH08\UART-ISR-CH573\Debug/srcc/printf.c:478
				}
			}
			dschar = FALSE;
			
			//确定是否使用小数点精度数值
			if(precision_used)
   14288:	060d1c63          	bnez	s10,14300 <printk+0x304>
C:\Users\liangfan\OneDrive\enbed\CH573\AHL-CH573-EXP-V1.3-20241124\03-Software\CH08\UART-ISR-CH573\Debug/srcc/printf.c:485
				vlen = printk_mkfloatstr(&fval,vstr,precision_width);//将整型转换成字符型保存在vstr中，返回字符数vlen
				vstrp = &vstr[0];  //指向转换后的第一个字符
			}
			else
			{
				if(length_modifier==0)   //浮点型精度到小数点后8位
   1428c:	080c9363          	bnez	s9,14312 <printk+0x316>
C:\Users\liangfan\OneDrive\enbed\CH573\AHL-CH573-EXP-V1.3-20241124\03-Software\CH08\UART-ISR-CH573\Debug/srcc/printf.c:487
				{
					vlen = printk_mkfloatstr(&fval,vstr,6);//将整型转换成字符型保存在vstr中，返回字符数vlen
   14290:	4619                	li	a2,6
   14292:	106c                	addi	a1,sp,44
   14294:	0828                	addi	a0,sp,24
   14296:	00000097          	auipc	ra,0x0
   1429a:	a7e080e7          	jalr	-1410(ra) # 13d14 <printk_mkfloatstr>
   1429e:	89aa                	mv	s3,a0
C:\Users\liangfan\OneDrive\enbed\CH573\AHL-CH573-EXP-V1.3-20241124\03-Software\CH08\UART-ISR-CH573\Debug/srcc/printf.c:503
			

			/*
			 * do the ZERO pad.
			 */
			if (IS_FLAG_ZERO(flags_used)) {
   142a0:	0084f793          	andi	a5,s1,8
   142a4:	cbc1                	beqz	a5,14334 <printk+0x338>
C:\Users\liangfan\OneDrive\enbed\CH573\AHL-CH573-EXP-V1.3-20241124\03-Software\CH08\UART-ISR-CH573\Debug/srcc/printf.c:504
				if (schar)
   142a6:	060b9f63          	bnez	s7,14324 <printk+0x328>
printk_pad_zero():
C:\Users\liangfan\OneDrive\enbed\CH573\AHL-CH573-EXP-V1.3-20241124\03-Software\CH08\UART-ISR-CH573\Debug/srcc/printf.c:179
	for (i = curlen; i < field_width; i++) {
   142aa:	0129dd63          	bge	s3,s2,142c4 <printk+0x2c8>
C:\Users\liangfan\OneDrive\enbed\CH573\AHL-CH573-EXP-V1.3-20241124\03-Software\CH08\UART-ISR-CH573\Debug/srcc/printf.c:180
		printk_putc('0', count, info);
   142ae:	8652                	mv	a2,s4
   142b0:	102c                	addi	a1,sp,40
   142b2:	03000513          	li	a0,48
   142b6:	00000097          	auipc	ra,0x0
   142ba:	94c080e7          	jalr	-1716(ra) # 13c02 <printk_putc>
C:\Users\liangfan\OneDrive\enbed\CH573\AHL-CH573-EXP-V1.3-20241124\03-Software\CH08\UART-ISR-CH573\Debug/srcc/printf.c:179
	for (i = curlen; i < field_width; i++) {
   142be:	0985                	addi	s3,s3,1
   142c0:	ff2997e3          	bne	s3,s2,142ae <printk+0x2b2>
printk():
C:\Users\liangfan\OneDrive\enbed\CH573\AHL-CH573-EXP-V1.3-20241124\03-Software\CH08\UART-ISR-CH573\Debug/srcc/printf.c:524
			/* the string was built in reverse order, now display in */
			/* correct order */
			if (!dschar && schar) {
				printk_putc(schar, &count, info);
			}
			while (*vstrp)
   142c4:	02c10503          	lb	a0,44(sp)
   142c8:	89ca                	mv	s3,s2
   142ca:	cd09                	beqz	a0,142e4 <printk+0x2e8>
   142cc:	02c10b93          	addi	s7,sp,44
C:\Users\liangfan\OneDrive\enbed\CH573\AHL-CH573-EXP-V1.3-20241124\03-Software\CH08\UART-ISR-CH573\Debug/srcc/printf.c:525
				printk_putc(*vstrp++, &count, info);
   142d0:	0b85                	addi	s7,s7,1
   142d2:	8652                	mv	a2,s4
   142d4:	102c                	addi	a1,sp,40
   142d6:	00000097          	auipc	ra,0x0
   142da:	92c080e7          	jalr	-1748(ra) # 13c02 <printk_putc>
C:\Users\liangfan\OneDrive\enbed\CH573\AHL-CH573-EXP-V1.3-20241124\03-Software\CH08\UART-ISR-CH573\Debug/srcc/printf.c:524
			while (*vstrp)
   142de:	000b8503          	lb	a0,0(s7)
   142e2:	f57d                	bnez	a0,142d0 <printk+0x2d4>
C:\Users\liangfan\OneDrive\enbed\CH573\AHL-CH573-EXP-V1.3-20241124\03-Software\CH08\UART-ISR-CH573\Debug/srcc/printf.c:526
			if (IS_FLAG_MINUS(flags_used)) {
   142e4:	8885                	andi	s1,s1,1
C:\Users\liangfan\OneDrive\enbed\CH573\AHL-CH573-EXP-V1.3-20241124\03-Software\CH08\UART-ISR-CH573\Debug/srcc/printf.c:452
			fval= (double)va_arg1(ap,double);
   142e6:	8bda                	mv	s7,s6
C:\Users\liangfan\OneDrive\enbed\CH573\AHL-CH573-EXP-V1.3-20241124\03-Software\CH08\UART-ISR-CH573\Debug/srcc/printf.c:526
			if (IS_FLAG_MINUS(flags_used)) {
   142e8:	d80488e3          	beqz	s1,14078 <printk+0x7c>
C:\Users\liangfan\OneDrive\enbed\CH573\AHL-CH573-EXP-V1.3-20241124\03-Software\CH08\UART-ISR-CH573\Debug/srcc/printf.c:527
				printk_pad_space(vlen, field_width, &count, info);
   142ec:	86d2                	mv	a3,s4
   142ee:	1030                	addi	a2,sp,40
   142f0:	85ca                	mv	a1,s2
   142f2:	854e                	mv	a0,s3
   142f4:	00000097          	auipc	ra,0x0
   142f8:	9cc080e7          	jalr	-1588(ra) # 13cc0 <printk_pad_space>
C:\Users\liangfan\OneDrive\enbed\CH573\AHL-CH573-EXP-V1.3-20241124\03-Software\CH08\UART-ISR-CH573\Debug/srcc/printf.c:452
			fval= (double)va_arg1(ap,double);
   142fc:	8bda                	mv	s7,s6
   142fe:	bbad                	j	14078 <printk+0x7c>
C:\Users\liangfan\OneDrive\enbed\CH573\AHL-CH573-EXP-V1.3-20241124\03-Software\CH08\UART-ISR-CH573\Debug/srcc/printf.c:480
				vlen = printk_mkfloatstr(&fval,vstr,precision_width);//将整型转换成字符型保存在vstr中，返回字符数vlen
   14300:	864e                	mv	a2,s3
   14302:	106c                	addi	a1,sp,44
   14304:	0828                	addi	a0,sp,24
   14306:	00000097          	auipc	ra,0x0
   1430a:	a0e080e7          	jalr	-1522(ra) # 13d14 <printk_mkfloatstr>
   1430e:	89aa                	mv	s3,a0
C:\Users\liangfan\OneDrive\enbed\CH573\AHL-CH573-EXP-V1.3-20241124\03-Software\CH08\UART-ISR-CH573\Debug/srcc/printf.c:481
				vstrp = &vstr[0];  //指向转换后的第一个字符
   14310:	bf41                	j	142a0 <printk+0x2a4>
C:\Users\liangfan\OneDrive\enbed\CH573\AHL-CH573-EXP-V1.3-20241124\03-Software\CH08\UART-ISR-CH573\Debug/srcc/printf.c:492
					vlen = printk_mkfloatstr(&fval,vstr,6);//将整型转换成字符型保存在vstr中，返回字符数vlen
   14312:	4619                	li	a2,6
   14314:	106c                	addi	a1,sp,44
   14316:	0828                	addi	a0,sp,24
   14318:	00000097          	auipc	ra,0x0
   1431c:	9fc080e7          	jalr	-1540(ra) # 13d14 <printk_mkfloatstr>
   14320:	89aa                	mv	s3,a0
C:\Users\liangfan\OneDrive\enbed\CH573\AHL-CH573-EXP-V1.3-20241124\03-Software\CH08\UART-ISR-CH573\Debug/srcc/printf.c:493
					vstrp = &vstr[0];  //指向转换后的第一个字符
   14322:	bfbd                	j	142a0 <printk+0x2a4>
C:\Users\liangfan\OneDrive\enbed\CH573\AHL-CH573-EXP-V1.3-20241124\03-Software\CH08\UART-ISR-CH573\Debug/srcc/printf.c:505
					printk_putc(schar, &count, info);  //输出符号
   14324:	8652                	mv	a2,s4
   14326:	102c                	addi	a1,sp,40
   14328:	855e                	mv	a0,s7
   1432a:	00000097          	auipc	ra,0x0
   1432e:	8d8080e7          	jalr	-1832(ra) # 13c02 <printk_putc>
   14332:	bfa5                	j	142aa <printk+0x2ae>
C:\Users\liangfan\OneDrive\enbed\CH573\AHL-CH573-EXP-V1.3-20241124\03-Software\CH08\UART-ISR-CH573\Debug/srcc/printf.c:510
				if (!IS_FLAG_MINUS(flags_used)) {
   14334:	0014f793          	andi	a5,s1,1
   14338:	c799                	beqz	a5,14346 <printk+0x34a>
C:\Users\liangfan\OneDrive\enbed\CH573\AHL-CH573-EXP-V1.3-20241124\03-Software\CH08\UART-ISR-CH573\Debug/srcc/printf.c:521
			if (!dschar && schar) {
   1433a:	020b9d63          	bnez	s7,14374 <printk+0x378>
C:\Users\liangfan\OneDrive\enbed\CH573\AHL-CH573-EXP-V1.3-20241124\03-Software\CH08\UART-ISR-CH573\Debug/srcc/printf.c:524
			while (*vstrp)
   1433e:	02c10503          	lb	a0,44(sp)
   14342:	f549                	bnez	a0,142cc <printk+0x2d0>
   14344:	b765                	j	142ec <printk+0x2f0>
C:\Users\liangfan\OneDrive\enbed\CH573\AHL-CH573-EXP-V1.3-20241124\03-Software\CH08\UART-ISR-CH573\Debug/srcc/printf.c:511
					printk_pad_space(vlen, field_width, &count, info);  //输出空格
   14346:	86d2                	mv	a3,s4
   14348:	1030                	addi	a2,sp,40
   1434a:	85ca                	mv	a1,s2
   1434c:	854e                	mv	a0,s3
   1434e:	00000097          	auipc	ra,0x0
   14352:	972080e7          	jalr	-1678(ra) # 13cc0 <printk_pad_space>
C:\Users\liangfan\OneDrive\enbed\CH573\AHL-CH573-EXP-V1.3-20241124\03-Software\CH08\UART-ISR-CH573\Debug/srcc/printf.c:513
					if (schar)
   14356:	000b9763          	bnez	s7,14364 <printk+0x368>
C:\Users\liangfan\OneDrive\enbed\CH573\AHL-CH573-EXP-V1.3-20241124\03-Software\CH08\UART-ISR-CH573\Debug/srcc/printf.c:524
			while (*vstrp)
   1435a:	02c10503          	lb	a0,44(sp)
C:\Users\liangfan\OneDrive\enbed\CH573\AHL-CH573-EXP-V1.3-20241124\03-Software\CH08\UART-ISR-CH573\Debug/srcc/printf.c:452
			fval= (double)va_arg1(ap,double);
   1435e:	8bda                	mv	s7,s6
C:\Users\liangfan\OneDrive\enbed\CH573\AHL-CH573-EXP-V1.3-20241124\03-Software\CH08\UART-ISR-CH573\Debug/srcc/printf.c:524
			while (*vstrp)
   14360:	f535                	bnez	a0,142cc <printk+0x2d0>
   14362:	bb19                	j	14078 <printk+0x7c>
C:\Users\liangfan\OneDrive\enbed\CH573\AHL-CH573-EXP-V1.3-20241124\03-Software\CH08\UART-ISR-CH573\Debug/srcc/printf.c:514
						printk_putc(schar, &count, info);
   14364:	8652                	mv	a2,s4
   14366:	102c                	addi	a1,sp,40
   14368:	855e                	mv	a0,s7
   1436a:	00000097          	auipc	ra,0x0
   1436e:	898080e7          	jalr	-1896(ra) # 13c02 <printk_putc>
   14372:	b7e5                	j	1435a <printk+0x35e>
C:\Users\liangfan\OneDrive\enbed\CH573\AHL-CH573-EXP-V1.3-20241124\03-Software\CH08\UART-ISR-CH573\Debug/srcc/printf.c:522
				printk_putc(schar, &count, info);
   14374:	8652                	mv	a2,s4
   14376:	102c                	addi	a1,sp,40
   14378:	855e                	mv	a0,s7
   1437a:	00000097          	auipc	ra,0x0
   1437e:	888080e7          	jalr	-1912(ra) # 13c02 <printk_putc>
   14382:	bf75                	j	1433e <printk+0x342>
C:\Users\liangfan\OneDrive\enbed\CH573\AHL-CH573-EXP-V1.3-20241124\03-Software\CH08\UART-ISR-CH573\Debug/srcc/printf.c:533
			}
            break;
        //以下是16进制整形输出
		case 'x':
		case 'X':
			uval = (unsigned int) va_arg1(ap, unsigned int);
   14384:	004b8d93          	addi	s11,s7,4
   14388:	000ba783          	lw	a5,0(s7)
   1438c:	ca3e                	sw	a5,20(sp)
C:\Users\liangfan\OneDrive\enbed\CH573\AHL-CH573-EXP-V1.3-20241124\03-Software\CH08\UART-ISR-CH573\Debug/srcc/printf.c:534
			vlen = printk_mknumstr(vstr, &uval, FALSE, 16);
   1438e:	46c1                	li	a3,16
   14390:	4601                	li	a2,0
   14392:	084c                	addi	a1,sp,20
   14394:	1068                	addi	a0,sp,44
   14396:	00000097          	auipc	ra,0x0
   1439a:	8a8080e7          	jalr	-1880(ra) # 13c3e <printk_mknumstr>
   1439e:	8b2a                	mv	s6,a0
C:\Users\liangfan\OneDrive\enbed\CH573\AHL-CH573-EXP-V1.3-20241124\03-Software\CH08\UART-ISR-CH573\Debug/srcc/printf.c:535
			vstrp = &vstr[vlen];
   143a0:	107c                	addi	a5,sp,44
   143a2:	00a789b3          	add	s3,a5,a0
C:\Users\liangfan\OneDrive\enbed\CH573\AHL-CH573-EXP-V1.3-20241124\03-Software\CH08\UART-ISR-CH573\Debug/srcc/printf.c:538

			dschar = FALSE;
			if (IS_FLAG_ZERO(flags_used)) {
   143a6:	0084f793          	andi	a5,s1,8
   143aa:	c3a5                	beqz	a5,1440a <printk+0x40e>
C:\Users\liangfan\OneDrive\enbed\CH573\AHL-CH573-EXP-V1.3-20241124\03-Software\CH08\UART-ISR-CH573\Debug/srcc/printf.c:539
				if (IS_FLAG_POUND(flags_used)) {
   143ac:	0104fb93          	andi	s7,s1,16
   143b0:	020b9863          	bnez	s7,143e0 <printk+0x3e4>
C:\Users\liangfan\OneDrive\enbed\CH573\AHL-CH573-EXP-V1.3-20241124\03-Software\CH08\UART-ISR-CH573\Debug/srcc/printf.c:537
			dschar = FALSE;
   143b4:	c65e                	sw	s7,12(sp)
printk_pad_zero():
C:\Users\liangfan\OneDrive\enbed\CH573\AHL-CH573-EXP-V1.3-20241124\03-Software\CH08\UART-ISR-CH573\Debug/srcc/printf.c:179
	for (i = curlen; i < field_width; i++) {
   143b6:	29255b63          	bge	a0,s2,1464c <printk+0x650>
C:\Users\liangfan\OneDrive\enbed\CH573\AHL-CH573-EXP-V1.3-20241124\03-Software\CH08\UART-ISR-CH573\Debug/srcc/printf.c:180
		printk_putc('0', count, info);
   143ba:	8652                	mv	a2,s4
   143bc:	102c                	addi	a1,sp,40
   143be:	03000513          	li	a0,48
   143c2:	00000097          	auipc	ra,0x0
   143c6:	840080e7          	jalr	-1984(ra) # 13c02 <printk_putc>
C:\Users\liangfan\OneDrive\enbed\CH573\AHL-CH573-EXP-V1.3-20241124\03-Software\CH08\UART-ISR-CH573\Debug/srcc/printf.c:179
	for (i = curlen; i < field_width; i++) {
   143ca:	0b05                	addi	s6,s6,1
   143cc:	ff2b47e3          	blt	s6,s2,143ba <printk+0x3be>
printk():
C:\Users\liangfan\OneDrive\enbed\CH573\AHL-CH573-EXP-V1.3-20241124\03-Software\CH08\UART-ISR-CH573\Debug/srcc/printf.c:561
						dschar = TRUE;
					}
				}
			}

			if ((IS_FLAG_POUND(flags_used)) && !dschar) {
   143d0:	180b8563          	beqz	s7,1455a <printk+0x55e>
   143d4:	8b4a                	mv	s6,s2
C:\Users\liangfan\OneDrive\enbed\CH573\AHL-CH573-EXP-V1.3-20241124\03-Software\CH08\UART-ISR-CH573\Debug/srcc/printf.c:533 (discriminator 1)
			uval = (unsigned int) va_arg1(ap, unsigned int);
   143d6:	8bee                	mv	s7,s11
C:\Users\liangfan\OneDrive\enbed\CH573\AHL-CH573-EXP-V1.3-20241124\03-Software\CH08\UART-ISR-CH573\Debug/srcc/printf.c:561 (discriminator 1)
			if ((IS_FLAG_POUND(flags_used)) && !dschar) {
   143d8:	47b2                	lw	a5,12(sp)
   143da:	12079563          	bnez	a5,14504 <printk+0x508>
   143de:	a4a1                	j	14626 <printk+0x62a>
C:\Users\liangfan\OneDrive\enbed\CH573\AHL-CH573-EXP-V1.3-20241124\03-Software\CH08\UART-ISR-CH573\Debug/srcc/printf.c:540
					printk_putc('0', &count, info);
   143e0:	8652                	mv	a2,s4
   143e2:	102c                	addi	a1,sp,40
   143e4:	03000513          	li	a0,48
   143e8:	00000097          	auipc	ra,0x0
   143ec:	81a080e7          	jalr	-2022(ra) # 13c02 <printk_putc>
C:\Users\liangfan\OneDrive\enbed\CH573\AHL-CH573-EXP-V1.3-20241124\03-Software\CH08\UART-ISR-CH573\Debug/srcc/printf.c:541
					printk_putc('x', &count, info);
   143f0:	8652                	mv	a2,s4
   143f2:	102c                	addi	a1,sp,40
   143f4:	07800513          	li	a0,120
   143f8:	00000097          	auipc	ra,0x0
   143fc:	80a080e7          	jalr	-2038(ra) # 13c02 <printk_putc>
printk_pad_zero():
C:\Users\liangfan\OneDrive\enbed\CH573\AHL-CH573-EXP-V1.3-20241124\03-Software\CH08\UART-ISR-CH573\Debug/srcc/printf.c:179
	for (i = curlen; i < field_width; i++) {
   14400:	152b5a63          	bge	s6,s2,14554 <printk+0x558>
printk():
C:\Users\liangfan\OneDrive\enbed\CH573\AHL-CH573-EXP-V1.3-20241124\03-Software\CH08\UART-ISR-CH573\Debug/srcc/printf.c:543
					dschar = TRUE;
   14404:	4785                	li	a5,1
   14406:	c63e                	sw	a5,12(sp)
   14408:	bf4d                	j	143ba <printk+0x3be>
C:\Users\liangfan\OneDrive\enbed\CH573\AHL-CH573-EXP-V1.3-20241124\03-Software\CH08\UART-ISR-CH573\Debug/srcc/printf.c:548
				if (!IS_FLAG_MINUS(flags_used)) {
   1440a:	0014f793          	andi	a5,s1,1
   1440e:	20079963          	bnez	a5,14620 <printk+0x624>
C:\Users\liangfan\OneDrive\enbed\CH573\AHL-CH573-EXP-V1.3-20241124\03-Software\CH08\UART-ISR-CH573\Debug/srcc/printf.c:549
					if (IS_FLAG_POUND(flags_used)) {
   14412:	0104f793          	andi	a5,s1,16
   14416:	22078e63          	beqz	a5,14652 <printk+0x656>
C:\Users\liangfan\OneDrive\enbed\CH573\AHL-CH573-EXP-V1.3-20241124\03-Software\CH08\UART-ISR-CH573\Debug/srcc/printf.c:550
						vlen += 2;
   1441a:	00250b13          	addi	s6,a0,2
C:\Users\liangfan\OneDrive\enbed\CH573\AHL-CH573-EXP-V1.3-20241124\03-Software\CH08\UART-ISR-CH573\Debug/srcc/printf.c:552
					printk_pad_space(vlen, field_width, &count, info);
   1441e:	86d2                	mv	a3,s4
   14420:	1030                	addi	a2,sp,40
   14422:	85ca                	mv	a1,s2
   14424:	855a                	mv	a0,s6
   14426:	00000097          	auipc	ra,0x0
   1442a:	89a080e7          	jalr	-1894(ra) # 13cc0 <printk_pad_space>
C:\Users\liangfan\OneDrive\enbed\CH573\AHL-CH573-EXP-V1.3-20241124\03-Software\CH08\UART-ISR-CH573\Debug/srcc/printf.c:554
						printk_putc('0', &count, info);
   1442e:	8652                	mv	a2,s4
   14430:	102c                	addi	a1,sp,40
   14432:	03000513          	li	a0,48
   14436:	fffff097          	auipc	ra,0xfffff
   1443a:	7cc080e7          	jalr	1996(ra) # 13c02 <printk_putc>
C:\Users\liangfan\OneDrive\enbed\CH573\AHL-CH573-EXP-V1.3-20241124\03-Software\CH08\UART-ISR-CH573\Debug/srcc/printf.c:555
						printk_putc('x', &count, info);
   1443e:	8652                	mv	a2,s4
   14440:	102c                	addi	a1,sp,40
   14442:	07800513          	li	a0,120
   14446:	fffff097          	auipc	ra,0xfffff
   1444a:	7bc080e7          	jalr	1980(ra) # 13c02 <printk_putc>
C:\Users\liangfan\OneDrive\enbed\CH573\AHL-CH573-EXP-V1.3-20241124\03-Software\CH08\UART-ISR-CH573\Debug/srcc/printf.c:561
			if ((IS_FLAG_POUND(flags_used)) && !dschar) {
   1444e:	ac09                	j	14660 <printk+0x664>
C:\Users\liangfan\OneDrive\enbed\CH573\AHL-CH573-EXP-V1.3-20241124\03-Software\CH08\UART-ISR-CH573\Debug/srcc/printf.c:569
				vlen += 2;
			}
			goto cont_xd;
		//无符号以八进制表示的整数输出
		case 'o':
			uval = (unsigned int) va_arg1(ap, unsigned int);
   14450:	004b8993          	addi	s3,s7,4
   14454:	000ba783          	lw	a5,0(s7)
   14458:	ca3e                	sw	a5,20(sp)
C:\Users\liangfan\OneDrive\enbed\CH573\AHL-CH573-EXP-V1.3-20241124\03-Software\CH08\UART-ISR-CH573\Debug/srcc/printf.c:570
			vlen = printk_mknumstr(vstr, &uval, FALSE, 8);
   1445a:	46a1                	li	a3,8
   1445c:	4601                	li	a2,0
   1445e:	084c                	addi	a1,sp,20
   14460:	1068                	addi	a0,sp,44
   14462:	fffff097          	auipc	ra,0xfffff
   14466:	7dc080e7          	jalr	2012(ra) # 13c3e <printk_mknumstr>
   1446a:	8b2a                	mv	s6,a0
C:\Users\liangfan\OneDrive\enbed\CH573\AHL-CH573-EXP-V1.3-20241124\03-Software\CH08\UART-ISR-CH573\Debug/srcc/printf.c:569
			uval = (unsigned int) va_arg1(ap, unsigned int);
   1446c:	8bce                	mv	s7,s3
C:\Users\liangfan\OneDrive\enbed\CH573\AHL-CH573-EXP-V1.3-20241124\03-Software\CH08\UART-ISR-CH573\Debug/srcc/printf.c:586
			goto cont_u;
		case 'u':
			uval = (unsigned int) va_arg1(ap, unsigned int);
			vlen = printk_mknumstr(vstr, &uval, FALSE, 10);

			cont_u: vstrp = &vstr[vlen];
   1446e:	107c                	addi	a5,sp,44
   14470:	016789b3          	add	s3,a5,s6
C:\Users\liangfan\OneDrive\enbed\CH573\AHL-CH573-EXP-V1.3-20241124\03-Software\CH08\UART-ISR-CH573\Debug/srcc/printf.c:588

			if (IS_FLAG_ZERO(flags_used)) {
   14474:	0084f793          	andi	a5,s1,8
   14478:	eba5                	bnez	a5,144e8 <printk+0x4ec>
C:\Users\liangfan\OneDrive\enbed\CH573\AHL-CH573-EXP-V1.3-20241124\03-Software\CH08\UART-ISR-CH573\Debug/srcc/printf.c:592
				printk_pad_zero(vlen, field_width, &count, info);
				vlen = field_width;
			} else {
				if (!IS_FLAG_MINUS(flags_used)) {
   1447a:	0014f793          	andi	a5,s1,1
   1447e:	cfc5                	beqz	a5,14536 <printk+0x53a>
C:\Users\liangfan\OneDrive\enbed\CH573\AHL-CH573-EXP-V1.3-20241124\03-Software\CH08\UART-ISR-CH573\Debug/srcc/printf.c:597
					printk_pad_space(vlen, field_width, &count, info);
				}
			}

			cont_xd: while (*vstrp)
   14480:	00098503          	lb	a0,0(s3)
   14484:	e159                	bnez	a0,1450a <printk+0x50e>
   14486:	a879                	j	14524 <printk+0x528>
C:\Users\liangfan\OneDrive\enbed\CH573\AHL-CH573-EXP-V1.3-20241124\03-Software\CH08\UART-ISR-CH573\Debug/srcc/printf.c:574
			uval = (unsigned int) va_arg1(ap, unsigned int);
   14488:	004b8993          	addi	s3,s7,4
   1448c:	000ba783          	lw	a5,0(s7)
   14490:	ca3e                	sw	a5,20(sp)
C:\Users\liangfan\OneDrive\enbed\CH573\AHL-CH573-EXP-V1.3-20241124\03-Software\CH08\UART-ISR-CH573\Debug/srcc/printf.c:575
			vlen = printk_mknumstr(vstr, &uval, FALSE, 2);
   14492:	4689                	li	a3,2
   14494:	4601                	li	a2,0
   14496:	084c                	addi	a1,sp,20
   14498:	1068                	addi	a0,sp,44
   1449a:	fffff097          	auipc	ra,0xfffff
   1449e:	7a4080e7          	jalr	1956(ra) # 13c3e <printk_mknumstr>
   144a2:	8b2a                	mv	s6,a0
C:\Users\liangfan\OneDrive\enbed\CH573\AHL-CH573-EXP-V1.3-20241124\03-Software\CH08\UART-ISR-CH573\Debug/srcc/printf.c:574
			uval = (unsigned int) va_arg1(ap, unsigned int);
   144a4:	8bce                	mv	s7,s3
C:\Users\liangfan\OneDrive\enbed\CH573\AHL-CH573-EXP-V1.3-20241124\03-Software\CH08\UART-ISR-CH573\Debug/srcc/printf.c:576
			goto cont_u;
   144a6:	b7e1                	j	1446e <printk+0x472>
C:\Users\liangfan\OneDrive\enbed\CH573\AHL-CH573-EXP-V1.3-20241124\03-Software\CH08\UART-ISR-CH573\Debug/srcc/printf.c:579
			uval = (unsigned int) va_arg1(ap, void *);
   144a8:	004b8993          	addi	s3,s7,4
   144ac:	000ba783          	lw	a5,0(s7)
   144b0:	ca3e                	sw	a5,20(sp)
C:\Users\liangfan\OneDrive\enbed\CH573\AHL-CH573-EXP-V1.3-20241124\03-Software\CH08\UART-ISR-CH573\Debug/srcc/printf.c:580
			vlen = printk_mknumstr(vstr, &uval, FALSE, 16);
   144b2:	46c1                	li	a3,16
   144b4:	4601                	li	a2,0
   144b6:	084c                	addi	a1,sp,20
   144b8:	1068                	addi	a0,sp,44
   144ba:	fffff097          	auipc	ra,0xfffff
   144be:	784080e7          	jalr	1924(ra) # 13c3e <printk_mknumstr>
   144c2:	8b2a                	mv	s6,a0
C:\Users\liangfan\OneDrive\enbed\CH573\AHL-CH573-EXP-V1.3-20241124\03-Software\CH08\UART-ISR-CH573\Debug/srcc/printf.c:579
			uval = (unsigned int) va_arg1(ap, void *);
   144c4:	8bce                	mv	s7,s3
C:\Users\liangfan\OneDrive\enbed\CH573\AHL-CH573-EXP-V1.3-20241124\03-Software\CH08\UART-ISR-CH573\Debug/srcc/printf.c:581
			goto cont_u;
   144c6:	b765                	j	1446e <printk+0x472>
C:\Users\liangfan\OneDrive\enbed\CH573\AHL-CH573-EXP-V1.3-20241124\03-Software\CH08\UART-ISR-CH573\Debug/srcc/printf.c:583
			uval = (unsigned int) va_arg1(ap, unsigned int);
   144c8:	004b8993          	addi	s3,s7,4
   144cc:	000ba783          	lw	a5,0(s7)
   144d0:	ca3e                	sw	a5,20(sp)
C:\Users\liangfan\OneDrive\enbed\CH573\AHL-CH573-EXP-V1.3-20241124\03-Software\CH08\UART-ISR-CH573\Debug/srcc/printf.c:584
			vlen = printk_mknumstr(vstr, &uval, FALSE, 10);
   144d2:	46a9                	li	a3,10
   144d4:	4601                	li	a2,0
   144d6:	084c                	addi	a1,sp,20
   144d8:	1068                	addi	a0,sp,44
   144da:	fffff097          	auipc	ra,0xfffff
   144de:	764080e7          	jalr	1892(ra) # 13c3e <printk_mknumstr>
   144e2:	8b2a                	mv	s6,a0
C:\Users\liangfan\OneDrive\enbed\CH573\AHL-CH573-EXP-V1.3-20241124\03-Software\CH08\UART-ISR-CH573\Debug/srcc/printf.c:583
			uval = (unsigned int) va_arg1(ap, unsigned int);
   144e4:	8bce                	mv	s7,s3
   144e6:	b761                	j	1446e <printk+0x472>
printk_pad_zero():
C:\Users\liangfan\OneDrive\enbed\CH573\AHL-CH573-EXP-V1.3-20241124\03-Software\CH08\UART-ISR-CH573\Debug/srcc/printf.c:179
	for (i = curlen; i < field_width; i++) {
   144e8:	072b5c63          	bge	s6,s2,14560 <printk+0x564>
C:\Users\liangfan\OneDrive\enbed\CH573\AHL-CH573-EXP-V1.3-20241124\03-Software\CH08\UART-ISR-CH573\Debug/srcc/printf.c:180
		printk_putc('0', count, info);
   144ec:	8652                	mv	a2,s4
   144ee:	102c                	addi	a1,sp,40
   144f0:	03000513          	li	a0,48
   144f4:	fffff097          	auipc	ra,0xfffff
   144f8:	70e080e7          	jalr	1806(ra) # 13c02 <printk_putc>
C:\Users\liangfan\OneDrive\enbed\CH573\AHL-CH573-EXP-V1.3-20241124\03-Software\CH08\UART-ISR-CH573\Debug/srcc/printf.c:179
	for (i = curlen; i < field_width; i++) {
   144fc:	0b05                	addi	s6,s6,1
   144fe:	ff2b17e3          	bne	s6,s2,144ec <printk+0x4f0>
   14502:	8b4a                	mv	s6,s2
printk():
C:\Users\liangfan\OneDrive\enbed\CH573\AHL-CH573-EXP-V1.3-20241124\03-Software\CH08\UART-ISR-CH573\Debug/srcc/printf.c:597 (discriminator 1)
			cont_xd: while (*vstrp)
   14504:	00098503          	lb	a0,0(s3)
   14508:	c919                	beqz	a0,1451e <printk+0x522>
C:\Users\liangfan\OneDrive\enbed\CH573\AHL-CH573-EXP-V1.3-20241124\03-Software\CH08\UART-ISR-CH573\Debug/srcc/printf.c:598
				printk_putc(*vstrp--, &count, info);
   1450a:	19fd                	addi	s3,s3,-1
   1450c:	8652                	mv	a2,s4
   1450e:	102c                	addi	a1,sp,40
   14510:	fffff097          	auipc	ra,0xfffff
   14514:	6f2080e7          	jalr	1778(ra) # 13c02 <printk_putc>
C:\Users\liangfan\OneDrive\enbed\CH573\AHL-CH573-EXP-V1.3-20241124\03-Software\CH08\UART-ISR-CH573\Debug/srcc/printf.c:597
			cont_xd: while (*vstrp)
   14518:	00098503          	lb	a0,0(s3)
   1451c:	f57d                	bnez	a0,1450a <printk+0x50e>
C:\Users\liangfan\OneDrive\enbed\CH573\AHL-CH573-EXP-V1.3-20241124\03-Software\CH08\UART-ISR-CH573\Debug/srcc/printf.c:600

			if (IS_FLAG_MINUS(flags_used)) {
   1451e:	8885                	andi	s1,s1,1
   14520:	b4048ce3          	beqz	s1,14078 <printk+0x7c>
C:\Users\liangfan\OneDrive\enbed\CH573\AHL-CH573-EXP-V1.3-20241124\03-Software\CH08\UART-ISR-CH573\Debug/srcc/printf.c:601
				printk_pad_space(vlen, field_width, &count, info);
   14524:	86d2                	mv	a3,s4
   14526:	1030                	addi	a2,sp,40
   14528:	85ca                	mv	a1,s2
   1452a:	855a                	mv	a0,s6
   1452c:	fffff097          	auipc	ra,0xfffff
   14530:	794080e7          	jalr	1940(ra) # 13cc0 <printk_pad_space>
   14534:	b691                	j	14078 <printk+0x7c>
C:\Users\liangfan\OneDrive\enbed\CH573\AHL-CH573-EXP-V1.3-20241124\03-Software\CH08\UART-ISR-CH573\Debug/srcc/printf.c:593
					printk_pad_space(vlen, field_width, &count, info);
   14536:	86d2                	mv	a3,s4
   14538:	1030                	addi	a2,sp,40
   1453a:	85ca                	mv	a1,s2
   1453c:	855a                	mv	a0,s6
   1453e:	fffff097          	auipc	ra,0xfffff
   14542:	782080e7          	jalr	1922(ra) # 13cc0 <printk_pad_space>
C:\Users\liangfan\OneDrive\enbed\CH573\AHL-CH573-EXP-V1.3-20241124\03-Software\CH08\UART-ISR-CH573\Debug/srcc/printf.c:597
			cont_xd: while (*vstrp)
   14546:	00098503          	lb	a0,0(s3)
   1454a:	f161                	bnez	a0,1450a <printk+0x50e>
   1454c:	b635                	j	14078 <printk+0x7c>
printk_pad_zero():
C:\Users\liangfan\OneDrive\enbed\CH573\AHL-CH573-EXP-V1.3-20241124\03-Software\CH08\UART-ISR-CH573\Debug/srcc/printf.c:179
	for (i = curlen; i < field_width; i++) {
   1454e:	8b4a                	mv	s6,s2
printk():
C:\Users\liangfan\OneDrive\enbed\CH573\AHL-CH573-EXP-V1.3-20241124\03-Software\CH08\UART-ISR-CH573\Debug/srcc/printf.c:391
			ival = (int) va_arg1(ap, int);  //返回当前参数，并将ap指向下一个参数
   14550:	4bb2                	lw	s7,12(sp)
   14552:	bf4d                	j	14504 <printk+0x508>
printk_pad_zero():
C:\Users\liangfan\OneDrive\enbed\CH573\AHL-CH573-EXP-V1.3-20241124\03-Software\CH08\UART-ISR-CH573\Debug/srcc/printf.c:179
	for (i = curlen; i < field_width; i++) {
   14554:	8b4a                	mv	s6,s2
printk():
C:\Users\liangfan\OneDrive\enbed\CH573\AHL-CH573-EXP-V1.3-20241124\03-Software\CH08\UART-ISR-CH573\Debug/srcc/printf.c:533
			uval = (unsigned int) va_arg1(ap, unsigned int);
   14556:	8bee                	mv	s7,s11
   14558:	b775                	j	14504 <printk+0x508>
   1455a:	8b4a                	mv	s6,s2
   1455c:	8bee                	mv	s7,s11
   1455e:	b75d                	j	14504 <printk+0x508>
printk_pad_zero():
C:\Users\liangfan\OneDrive\enbed\CH573\AHL-CH573-EXP-V1.3-20241124\03-Software\CH08\UART-ISR-CH573\Debug/srcc/printf.c:179
	for (i = curlen; i < field_width; i++) {
   14560:	8b4a                	mv	s6,s2
   14562:	b74d                	j	14504 <printk+0x508>
printk():
C:\Users\liangfan\OneDrive\enbed\CH573\AHL-CH573-EXP-V1.3-20241124\03-Software\CH08\UART-ISR-CH573\Debug/srcc/printf.c:607
			}

			break;
        //字符型输出
		case 'c':
			cval = (char) va_arg1(ap, unsigned int);
   14564:	004b8493          	addi	s1,s7,4
C:\Users\liangfan\OneDrive\enbed\CH573\AHL-CH573-EXP-V1.3-20241124\03-Software\CH08\UART-ISR-CH573\Debug/srcc/printf.c:608
			printk_putc(cval, &count, info);
   14568:	8652                	mv	a2,s4
   1456a:	102c                	addi	a1,sp,40
   1456c:	000b8503          	lb	a0,0(s7)
   14570:	fffff097          	auipc	ra,0xfffff
   14574:	692080e7          	jalr	1682(ra) # 13c02 <printk_putc>
C:\Users\liangfan\OneDrive\enbed\CH573\AHL-CH573-EXP-V1.3-20241124\03-Software\CH08\UART-ISR-CH573\Debug/srcc/printf.c:607
			cval = (char) va_arg1(ap, unsigned int);
   14578:	8ba6                	mv	s7,s1
C:\Users\liangfan\OneDrive\enbed\CH573\AHL-CH573-EXP-V1.3-20241124\03-Software\CH08\UART-ISR-CH573\Debug/srcc/printf.c:609
			break;
   1457a:	bcfd                	j	14078 <printk+0x7c>
C:\Users\liangfan\OneDrive\enbed\CH573\AHL-CH573-EXP-V1.3-20241124\03-Software\CH08\UART-ISR-CH573\Debug/srcc/printf.c:611
		case 's':
			sval = (char *) va_arg1(ap, char *);
   1457c:	004b8d93          	addi	s11,s7,4
   14580:	000bab03          	lw	s6,0(s7)
   14584:	8bee                	mv	s7,s11
C:\Users\liangfan\OneDrive\enbed\CH573\AHL-CH573-EXP-V1.3-20241124\03-Software\CH08\UART-ISR-CH573\Debug/srcc/printf.c:612
			if (sval) {
   14586:	ae0b09e3          	beqz	s6,14078 <printk+0x7c>
C:\Users\liangfan\OneDrive\enbed\CH573\AHL-CH573-EXP-V1.3-20241124\03-Software\CH08\UART-ISR-CH573\Debug/srcc/printf.c:613
				vlen = strlen(sval);
   1458a:	855a                	mv	a0,s6
   1458c:	00002097          	auipc	ra,0x2
   14590:	884080e7          	jalr	-1916(ra) # 15e10 <strlen>
   14594:	c62a                	sw	a0,12(sp)
C:\Users\liangfan\OneDrive\enbed\CH573\AHL-CH573-EXP-V1.3-20241124\03-Software\CH08\UART-ISR-CH573\Debug/srcc/printf.c:614
				if (!IS_FLAG_MINUS(flags_used)) {
   14596:	8885                	andi	s1,s1,1
   14598:	cc85                	beqz	s1,145d0 <printk+0x5d4>
C:\Users\liangfan\OneDrive\enbed\CH573\AHL-CH573-EXP-V1.3-20241124\03-Software\CH08\UART-ISR-CH573\Debug/srcc/printf.c:617
					printk_pad_space(vlen, field_width, &count, info);
				}
				if(precision_width!=0)
   1459a:	04099363          	bnez	s3,145e0 <printk+0x5e4>
C:\Users\liangfan\OneDrive\enbed\CH573\AHL-CH573-EXP-V1.3-20241124\03-Software\CH08\UART-ISR-CH573\Debug/srcc/printf.c:628
							printk_putc(*sval++, &count, info);					
					}
				}
				else    //precision_width=0情况
				{
					while (*sval)
   1459e:	000b0503          	lb	a0,0(s6)
   145a2:	c919                	beqz	a0,145b8 <printk+0x5bc>
C:\Users\liangfan\OneDrive\enbed\CH573\AHL-CH573-EXP-V1.3-20241124\03-Software\CH08\UART-ISR-CH573\Debug/srcc/printf.c:629
					   printk_putc(*sval++, &count, info);
   145a4:	0b05                	addi	s6,s6,1
   145a6:	8652                	mv	a2,s4
   145a8:	102c                	addi	a1,sp,40
   145aa:	fffff097          	auipc	ra,0xfffff
   145ae:	658080e7          	jalr	1624(ra) # 13c02 <printk_putc>
C:\Users\liangfan\OneDrive\enbed\CH573\AHL-CH573-EXP-V1.3-20241124\03-Software\CH08\UART-ISR-CH573\Debug/srcc/printf.c:628
					while (*sval)
   145b2:	000b0503          	lb	a0,0(s6)
   145b6:	f57d                	bnez	a0,145a4 <printk+0x5a8>
C:\Users\liangfan\OneDrive\enbed\CH573\AHL-CH573-EXP-V1.3-20241124\03-Software\CH08\UART-ISR-CH573\Debug/srcc/printf.c:611
			sval = (char *) va_arg1(ap, char *);
   145b8:	8bee                	mv	s7,s11
C:\Users\liangfan\OneDrive\enbed\CH573\AHL-CH573-EXP-V1.3-20241124\03-Software\CH08\UART-ISR-CH573\Debug/srcc/printf.c:631
				}
				if (IS_FLAG_MINUS(flags_used)) {
   145ba:	aa048fe3          	beqz	s1,14078 <printk+0x7c>
C:\Users\liangfan\OneDrive\enbed\CH573\AHL-CH573-EXP-V1.3-20241124\03-Software\CH08\UART-ISR-CH573\Debug/srcc/printf.c:632
					printk_pad_space(vlen, field_width, &count, info);
   145be:	86d2                	mv	a3,s4
   145c0:	1030                	addi	a2,sp,40
   145c2:	85ca                	mv	a1,s2
   145c4:	4532                	lw	a0,12(sp)
   145c6:	fffff097          	auipc	ra,0xfffff
   145ca:	6fa080e7          	jalr	1786(ra) # 13cc0 <printk_pad_space>
   145ce:	b46d                	j	14078 <printk+0x7c>
C:\Users\liangfan\OneDrive\enbed\CH573\AHL-CH573-EXP-V1.3-20241124\03-Software\CH08\UART-ISR-CH573\Debug/srcc/printf.c:615
					printk_pad_space(vlen, field_width, &count, info);
   145d0:	86d2                	mv	a3,s4
   145d2:	1030                	addi	a2,sp,40
   145d4:	85ca                	mv	a1,s2
   145d6:	fffff097          	auipc	ra,0xfffff
   145da:	6ea080e7          	jalr	1770(ra) # 13cc0 <printk_pad_space>
   145de:	bf75                	j	1459a <printk+0x59e>
C:\Users\liangfan\OneDrive\enbed\CH573\AHL-CH573-EXP-V1.3-20241124\03-Software\CH08\UART-ISR-CH573\Debug/srcc/printf.c:620
					while (precision_width>=1&&*sval)
   145e0:	fd305ce3          	blez	s3,145b8 <printk+0x5bc>
   145e4:	000b0503          	lb	a0,0(s6)
   145e8:	d961                	beqz	a0,145b8 <printk+0x5bc>
   145ea:	99da                	add	s3,s3,s6
C:\Users\liangfan\OneDrive\enbed\CH573\AHL-CH573-EXP-V1.3-20241124\03-Software\CH08\UART-ISR-CH573\Debug/srcc/printf.c:623
							printk_putc(*sval++, &count, info);					
   145ec:	0b05                	addi	s6,s6,1
   145ee:	8652                	mv	a2,s4
   145f0:	102c                	addi	a1,sp,40
   145f2:	fffff097          	auipc	ra,0xfffff
   145f6:	610080e7          	jalr	1552(ra) # 13c02 <printk_putc>
C:\Users\liangfan\OneDrive\enbed\CH573\AHL-CH573-EXP-V1.3-20241124\03-Software\CH08\UART-ISR-CH573\Debug/srcc/printf.c:620
					while (precision_width>=1&&*sval)
   145fa:	fb3b0fe3          	beq	s6,s3,145b8 <printk+0x5bc>
C:\Users\liangfan\OneDrive\enbed\CH573\AHL-CH573-EXP-V1.3-20241124\03-Software\CH08\UART-ISR-CH573\Debug/srcc/printf.c:620 (discriminator 1)
   145fe:	000b0503          	lb	a0,0(s6)
   14602:	f56d                	bnez	a0,145ec <printk+0x5f0>
   14604:	bf55                	j	145b8 <printk+0x5bc>
C:\Users\liangfan\OneDrive\enbed\CH573\AHL-CH573-EXP-V1.3-20241124\03-Software\CH08\UART-ISR-CH573\Debug/srcc/printf.c:637
				}
			}
			break;
		case 'n':
			ivalp = (int *) va_arg1(ap, int *);
   14606:	000ba783          	lw	a5,0(s7)
C:\Users\liangfan\OneDrive\enbed\CH573\AHL-CH573-EXP-V1.3-20241124\03-Software\CH08\UART-ISR-CH573\Debug/srcc/printf.c:638
			*ivalp = count;
   1460a:	5722                	lw	a4,40(sp)
   1460c:	c398                	sw	a4,0(a5)
C:\Users\liangfan\OneDrive\enbed\CH573\AHL-CH573-EXP-V1.3-20241124\03-Software\CH08\UART-ISR-CH573\Debug/srcc/printf.c:637
			ivalp = (int *) va_arg1(ap, int *);
   1460e:	0b91                	addi	s7,s7,4
C:\Users\liangfan\OneDrive\enbed\CH573\AHL-CH573-EXP-V1.3-20241124\03-Software\CH08\UART-ISR-CH573\Debug/srcc/printf.c:639
			break;
   14610:	b4a5                	j	14078 <printk+0x7c>
C:\Users\liangfan\OneDrive\enbed\CH573\AHL-CH573-EXP-V1.3-20241124\03-Software\CH08\UART-ISR-CH573\Debug/srcc/printf.c:642

		default:
			printk_putc(c, &count, info);
   14612:	8652                	mv	a2,s4
   14614:	102c                	addi	a1,sp,40
   14616:	fffff097          	auipc	ra,0xfffff
   1461a:	5ec080e7          	jalr	1516(ra) # 13c02 <printk_putc>
C:\Users\liangfan\OneDrive\enbed\CH573\AHL-CH573-EXP-V1.3-20241124\03-Software\CH08\UART-ISR-CH573\Debug/srcc/printf.c:643
			break;
   1461e:	bca9                	j	14078 <printk+0x7c>
C:\Users\liangfan\OneDrive\enbed\CH573\AHL-CH573-EXP-V1.3-20241124\03-Software\CH08\UART-ISR-CH573\Debug/srcc/printf.c:561
			if ((IS_FLAG_POUND(flags_used)) && !dschar) {
   14620:	0104f793          	andi	a5,s1,16
   14624:	c7b5                	beqz	a5,14690 <printk+0x694>
C:\Users\liangfan\OneDrive\enbed\CH573\AHL-CH573-EXP-V1.3-20241124\03-Software\CH08\UART-ISR-CH573\Debug/srcc/printf.c:562
				printk_putc('0', &count, info);
   14626:	8652                	mv	a2,s4
   14628:	102c                	addi	a1,sp,40
   1462a:	03000513          	li	a0,48
   1462e:	fffff097          	auipc	ra,0xfffff
   14632:	5d4080e7          	jalr	1492(ra) # 13c02 <printk_putc>
C:\Users\liangfan\OneDrive\enbed\CH573\AHL-CH573-EXP-V1.3-20241124\03-Software\CH08\UART-ISR-CH573\Debug/srcc/printf.c:563
				printk_putc('x', &count, info);
   14636:	8652                	mv	a2,s4
   14638:	102c                	addi	a1,sp,40
   1463a:	07800513          	li	a0,120
   1463e:	fffff097          	auipc	ra,0xfffff
   14642:	5c4080e7          	jalr	1476(ra) # 13c02 <printk_putc>
C:\Users\liangfan\OneDrive\enbed\CH573\AHL-CH573-EXP-V1.3-20241124\03-Software\CH08\UART-ISR-CH573\Debug/srcc/printf.c:564
				vlen += 2;
   14646:	0b09                	addi	s6,s6,2
C:\Users\liangfan\OneDrive\enbed\CH573\AHL-CH573-EXP-V1.3-20241124\03-Software\CH08\UART-ISR-CH573\Debug/srcc/printf.c:533
			uval = (unsigned int) va_arg1(ap, unsigned int);
   14648:	8bee                	mv	s7,s11
   1464a:	bd6d                	j	14504 <printk+0x508>
printk_pad_zero():
C:\Users\liangfan\OneDrive\enbed\CH573\AHL-CH573-EXP-V1.3-20241124\03-Software\CH08\UART-ISR-CH573\Debug/srcc/printf.c:179
	for (i = curlen; i < field_width; i++) {
   1464c:	8b4a                	mv	s6,s2
printk():
C:\Users\liangfan\OneDrive\enbed\CH573\AHL-CH573-EXP-V1.3-20241124\03-Software\CH08\UART-ISR-CH573\Debug/srcc/printf.c:533
			uval = (unsigned int) va_arg1(ap, unsigned int);
   1464e:	8bee                	mv	s7,s11
   14650:	bd55                	j	14504 <printk+0x508>
C:\Users\liangfan\OneDrive\enbed\CH573\AHL-CH573-EXP-V1.3-20241124\03-Software\CH08\UART-ISR-CH573\Debug/srcc/printf.c:552
					printk_pad_space(vlen, field_width, &count, info);
   14652:	86d2                	mv	a3,s4
   14654:	1030                	addi	a2,sp,40
   14656:	85ca                	mv	a1,s2
   14658:	fffff097          	auipc	ra,0xfffff
   1465c:	668080e7          	jalr	1640(ra) # 13cc0 <printk_pad_space>
C:\Users\liangfan\OneDrive\enbed\CH573\AHL-CH573-EXP-V1.3-20241124\03-Software\CH08\UART-ISR-CH573\Debug/srcc/printf.c:597
			cont_xd: while (*vstrp)
   14660:	00098503          	lb	a0,0(s3)
   14664:	8bee                	mv	s7,s11
   14666:	ea0512e3          	bnez	a0,1450a <printk+0x50e>
   1466a:	b439                	j	14078 <printk+0x7c>
C:\Users\liangfan\OneDrive\enbed\CH573\AHL-CH573-EXP-V1.3-20241124\03-Software\CH08\UART-ISR-CH573\Debug/srcc/printf.c:419
			if (IS_FLAG_ZERO(flags_used)) {
   1466c:	0084fd93          	andi	s11,s1,8
   14670:	ba0d96e3          	bnez	s11,1421c <printk+0x220>
C:\Users\liangfan\OneDrive\enbed\CH573\AHL-CH573-EXP-V1.3-20241124\03-Software\CH08\UART-ISR-CH573\Debug/srcc/printf.c:426
				if (!IS_FLAG_MINUS(flags_used)) {
   14674:	0014f793          	andi	a5,s1,1
   14678:	b60796e3          	bnez	a5,141e4 <printk+0x1e8>
C:\Users\liangfan\OneDrive\enbed\CH573\AHL-CH573-EXP-V1.3-20241124\03-Software\CH08\UART-ISR-CH573\Debug/srcc/printf.c:427
					printk_pad_space(vlen, field_width, &count, info);  //输出空格
   1467c:	86d2                	mv	a3,s4
   1467e:	1030                	addi	a2,sp,40
   14680:	85ca                	mv	a1,s2
   14682:	855a                	mv	a0,s6
   14684:	fffff097          	auipc	ra,0xfffff
   14688:	63c080e7          	jalr	1596(ra) # 13cc0 <printk_pad_space>
C:\Users\liangfan\OneDrive\enbed\CH573\AHL-CH573-EXP-V1.3-20241124\03-Software\CH08\UART-ISR-CH573\Debug/srcc/printf.c:391
			ival = (int) va_arg1(ap, int);  //返回当前参数，并将ap指向下一个参数
   1468c:	4bb2                	lw	s7,12(sp)
   1468e:	bd65                	j	14546 <printk+0x54a>
C:\Users\liangfan\OneDrive\enbed\CH573\AHL-CH573-EXP-V1.3-20241124\03-Software\CH08\UART-ISR-CH573\Debug/srcc/printf.c:597
			cont_xd: while (*vstrp)
   14690:	00098503          	lb	a0,0(s3)
C:\Users\liangfan\OneDrive\enbed\CH573\AHL-CH573-EXP-V1.3-20241124\03-Software\CH08\UART-ISR-CH573\Debug/srcc/printf.c:533
			uval = (unsigned int) va_arg1(ap, unsigned int);
   14694:	8bee                	mv	s7,s11
C:\Users\liangfan\OneDrive\enbed\CH573\AHL-CH573-EXP-V1.3-20241124\03-Software\CH08\UART-ISR-CH573\Debug/srcc/printf.c:597
			cont_xd: while (*vstrp)
   14696:	e6051ae3          	bnez	a0,1450a <printk+0x50e>
   1469a:	b569                	j	14524 <printk+0x528>
C:\Users\liangfan\OneDrive\enbed\CH573\AHL-CH573-EXP-V1.3-20241124\03-Software\CH08\UART-ISR-CH573\Debug/srcc/printf.c:427
					printk_pad_space(vlen, field_width, &count, info);  //输出空格
   1469c:	86d2                	mv	a3,s4
   1469e:	1030                	addi	a2,sp,40
   146a0:	85ca                	mv	a1,s2
   146a2:	855a                	mv	a0,s6
   146a4:	fffff097          	auipc	ra,0xfffff
   146a8:	61c080e7          	jalr	1564(ra) # 13cc0 <printk_pad_space>
C:\Users\liangfan\OneDrive\enbed\CH573\AHL-CH573-EXP-V1.3-20241124\03-Software\CH08\UART-ISR-CH573\Debug/srcc/printf.c:430
						printk_putc(schar, &count, info);
   146ac:	8652                	mv	a2,s4
   146ae:	102c                	addi	a1,sp,40
   146b0:	856e                	mv	a0,s11
   146b2:	fffff097          	auipc	ra,0xfffff
   146b6:	550080e7          	jalr	1360(ra) # 13c02 <printk_putc>
C:\Users\liangfan\OneDrive\enbed\CH573\AHL-CH573-EXP-V1.3-20241124\03-Software\CH08\UART-ISR-CH573\Debug/srcc/printf.c:391
			ival = (int) va_arg1(ap, int);  //返回当前参数，并将ap指向下一个参数
   146ba:	4bb2                	lw	s7,12(sp)
   146bc:	b569                	j	14546 <printk+0x54a>
C:\Users\liangfan\OneDrive\enbed\CH573\AHL-CH573-EXP-V1.3-20241124\03-Software\CH08\UART-ISR-CH573\Debug/srcc/printf.c:646
		}
	}
	return count;
   146be:	5522                	lw	a0,40(sp)
C:\Users\liangfan\OneDrive\enbed\CH573\AHL-CH573-EXP-V1.3-20241124\03-Software\CH08\UART-ISR-CH573\Debug/srcc/printf.c:647
}
   146c0:	40ba                	lw	ra,140(sp)
   146c2:	442a                	lw	s0,136(sp)
   146c4:	449a                	lw	s1,132(sp)
   146c6:	490a                	lw	s2,128(sp)
   146c8:	59f6                	lw	s3,124(sp)
   146ca:	5a66                	lw	s4,120(sp)
   146cc:	5ad6                	lw	s5,116(sp)
   146ce:	5b46                	lw	s6,112(sp)
   146d0:	5bb6                	lw	s7,108(sp)
   146d2:	5c26                	lw	s8,104(sp)
   146d4:	5c96                	lw	s9,100(sp)
   146d6:	5d06                	lw	s10,96(sp)
   146d8:	4df6                	lw	s11,92(sp)
   146da:	6149                	addi	sp,sp,144
   146dc:	8082                	ret

000146de <myprintf>:
myprintf():
C:\Users\liangfan\OneDrive\enbed\CH573\AHL-CH573-EXP-V1.3-20241124\03-Software\CH08\UART-ISR-CH573\Debug/srcc/printf.c:656
//参数说明：const char *:打印参数字符串：对输入的字符串进行解析并按格式输出
//       例如： printf("c=%c\n",c); 将c按char型进行输出
//函数返回：字符串长度
//======================================================================
int myprintf(const char *fmt, ...)
{
   146de:	7139                	addi	sp,sp,-64
   146e0:	ce06                	sw	ra,28(sp)
   146e2:	d22e                	sw	a1,36(sp)
   146e4:	d432                	sw	a2,40(sp)
   146e6:	d636                	sw	a3,44(sp)
   146e8:	d83a                	sw	a4,48(sp)
   146ea:	da3e                	sw	a5,52(sp)
   146ec:	dc42                	sw	a6,56(sp)
   146ee:	de46                	sw	a7,60(sp)
C:\Users\liangfan\OneDrive\enbed\CH573\AHL-CH573-EXP-V1.3-20241124\03-Software\CH08\UART-ISR-CH573\Debug/srcc/printf.c:662
	//char * ap;
  va_list ap;
	char c;
	int rvalue;
	PRINTK_INFO info;
	info.dest = DEST_CONSOLE;  //宏定义为1
   146f0:	4785                	li	a5,1
   146f2:	c03e                	sw	a5,0(sp)
C:\Users\liangfan\OneDrive\enbed\CH573\AHL-CH573-EXP-V1.3-20241124\03-Software\CH08\UART-ISR-CH573\Debug/srcc/printf.c:663
	info.func = &out_char;     //调用的串口输出函数
   146f4:	fffff797          	auipc	a5,0xfffff
   146f8:	60878793          	addi	a5,a5,1544 # 13cfc <out_char>
   146fc:	c23e                	sw	a5,4(sp)
C:\Users\liangfan\OneDrive\enbed\CH573\AHL-CH573-EXP-V1.3-20241124\03-Software\CH08\UART-ISR-CH573\Debug/srcc/printf.c:664
	va_start(ap, fmt);  //对ap 进行初始化，让它指向可变参数表里面的第一个参数
   146fe:	1050                	addi	a2,sp,36
   14700:	c632                	sw	a2,12(sp)
C:\Users\liangfan\OneDrive\enbed\CH573\AHL-CH573-EXP-V1.3-20241124\03-Software\CH08\UART-ISR-CH573\Debug/srcc/printf.c:665
	rvalue = printk(&info, fmt, ap);
   14702:	85aa                	mv	a1,a0
   14704:	850a                	mv	a0,sp
   14706:	00000097          	auipc	ra,0x0
   1470a:	8f6080e7          	jalr	-1802(ra) # 13ffc <printk>
C:\Users\liangfan\OneDrive\enbed\CH573\AHL-CH573-EXP-V1.3-20241124\03-Software\CH08\UART-ISR-CH573\Debug/srcc/printf.c:670
    
	va_end(ap);

	return rvalue;
}
   1470e:	40f2                	lw	ra,28(sp)
   14710:	6121                	addi	sp,sp,64
   14712:	8082                	ret

00014714 <__udivdi3>:
__udivdi3():
   14714:	87b6                	mv	a5,a3
   14716:	88b2                	mv	a7,a2
   14718:	832a                	mv	t1,a0
   1471a:	882e                	mv	a6,a1
   1471c:	14069d63          	bnez	a3,14876 <__udivdi3+0x162>
   14720:	0ac5f963          	bgeu	a1,a2,147d2 <__udivdi3+0xbe>
   14724:	6741                	lui	a4,0x10
   14726:	1ae66e63          	bltu	a2,a4,148e2 <__udivdi3+0x1ce>
   1472a:	010007b7          	lui	a5,0x1000
   1472e:	34f66363          	bltu	a2,a5,14a74 <__udivdi3+0x360>
   14732:	01865693          	srli	a3,a2,0x18
   14736:	47e1                	li	a5,24
   14738:	00002717          	auipc	a4,0x2
   1473c:	b9870713          	addi	a4,a4,-1128 # 162d0 <__clz_tab>
   14740:	9736                	add	a4,a4,a3
   14742:	00074703          	lbu	a4,0(a4)
   14746:	97ba                	add	a5,a5,a4
   14748:	02000713          	li	a4,32
   1474c:	8f1d                	sub	a4,a4,a5
   1474e:	cb19                	beqz	a4,14764 <__udivdi3+0x50>
   14750:	00e59833          	sll	a6,a1,a4
   14754:	00f557b3          	srl	a5,a0,a5
   14758:	00e618b3          	sll	a7,a2,a4
   1475c:	0107e833          	or	a6,a5,a6
   14760:	00e51333          	sll	t1,a0,a4
   14764:	0108d613          	srli	a2,a7,0x10
   14768:	02c85533          	divu	a0,a6,a2
   1476c:	01089693          	slli	a3,a7,0x10
   14770:	82c1                	srli	a3,a3,0x10
   14772:	01035793          	srli	a5,t1,0x10
   14776:	02c87733          	remu	a4,a6,a2
   1477a:	02a685b3          	mul	a1,a3,a0
   1477e:	0742                	slli	a4,a4,0x10
   14780:	00f76833          	or	a6,a4,a5
   14784:	00b87a63          	bgeu	a6,a1,14798 <__udivdi3+0x84>
   14788:	9846                	add	a6,a6,a7
   1478a:	fff50793          	addi	a5,a0,-1
   1478e:	01186463          	bltu	a6,a7,14796 <__udivdi3+0x82>
   14792:	30b86763          	bltu	a6,a1,14aa0 <__udivdi3+0x38c>
   14796:	853e                	mv	a0,a5
   14798:	40b80833          	sub	a6,a6,a1
   1479c:	02c85733          	divu	a4,a6,a2
   147a0:	0342                	slli	t1,t1,0x10
   147a2:	01035313          	srli	t1,t1,0x10
   147a6:	02c87833          	remu	a6,a6,a2
   147aa:	02e686b3          	mul	a3,a3,a4
   147ae:	0842                	slli	a6,a6,0x10
   147b0:	00686833          	or	a6,a6,t1
   147b4:	00d87b63          	bgeu	a6,a3,147ca <__udivdi3+0xb6>
   147b8:	9846                	add	a6,a6,a7
   147ba:	fff70793          	addi	a5,a4,-1
   147be:	01186563          	bltu	a6,a7,147c8 <__udivdi3+0xb4>
   147c2:	1779                	addi	a4,a4,-2
   147c4:	00d86363          	bltu	a6,a3,147ca <__udivdi3+0xb6>
   147c8:	873e                	mv	a4,a5
   147ca:	0542                	slli	a0,a0,0x10
   147cc:	8d59                	or	a0,a0,a4
   147ce:	4581                	li	a1,0
   147d0:	8082                	ret
   147d2:	e601                	bnez	a2,147da <__udivdi3+0xc6>
   147d4:	4705                	li	a4,1
   147d6:	02c758b3          	divu	a7,a4,a2
   147da:	6741                	lui	a4,0x10
   147dc:	0ee8ea63          	bltu	a7,a4,148d0 <__udivdi3+0x1bc>
   147e0:	010007b7          	lui	a5,0x1000
   147e4:	28f8ec63          	bltu	a7,a5,14a7c <__udivdi3+0x368>
   147e8:	0188d693          	srli	a3,a7,0x18
   147ec:	47e1                	li	a5,24
   147ee:	00002717          	auipc	a4,0x2
   147f2:	ae270713          	addi	a4,a4,-1310 # 162d0 <__clz_tab>
   147f6:	9736                	add	a4,a4,a3
   147f8:	00074683          	lbu	a3,0(a4)
   147fc:	96be                	add	a3,a3,a5
   147fe:	02000793          	li	a5,32
   14802:	8f95                	sub	a5,a5,a3
   14804:	ebe5                	bnez	a5,148f4 <__udivdi3+0x1e0>
   14806:	01089e93          	slli	t4,a7,0x10
   1480a:	41158733          	sub	a4,a1,a7
   1480e:	0108df13          	srli	t5,a7,0x10
   14812:	010ede93          	srli	t4,t4,0x10
   14816:	4585                	li	a1,1
   14818:	01035793          	srli	a5,t1,0x10
   1481c:	03e75533          	divu	a0,a4,t5
   14820:	03e77733          	remu	a4,a4,t5
   14824:	03d506b3          	mul	a3,a0,t4
   14828:	0742                	slli	a4,a4,0x10
   1482a:	8fd9                	or	a5,a5,a4
   1482c:	00d7fa63          	bgeu	a5,a3,14840 <__udivdi3+0x12c>
   14830:	97c6                	add	a5,a5,a7
   14832:	fff50713          	addi	a4,a0,-1
   14836:	0117e463          	bltu	a5,a7,1483e <__udivdi3+0x12a>
   1483a:	26d7e663          	bltu	a5,a3,14aa6 <__udivdi3+0x392>
   1483e:	853a                	mv	a0,a4
   14840:	8f95                	sub	a5,a5,a3
   14842:	03e7d733          	divu	a4,a5,t5
   14846:	0342                	slli	t1,t1,0x10
   14848:	01035313          	srli	t1,t1,0x10
   1484c:	03e7f7b3          	remu	a5,a5,t5
   14850:	03d70eb3          	mul	t4,a4,t4
   14854:	07c2                	slli	a5,a5,0x10
   14856:	0067e7b3          	or	a5,a5,t1
   1485a:	01d7fb63          	bgeu	a5,t4,14870 <__udivdi3+0x15c>
   1485e:	97c6                	add	a5,a5,a7
   14860:	fff70693          	addi	a3,a4,-1
   14864:	0117e563          	bltu	a5,a7,1486e <__udivdi3+0x15a>
   14868:	1779                	addi	a4,a4,-2
   1486a:	01d7e363          	bltu	a5,t4,14870 <__udivdi3+0x15c>
   1486e:	8736                	mv	a4,a3
   14870:	0542                	slli	a0,a0,0x10
   14872:	8d59                	or	a0,a0,a4
   14874:	8082                	ret
   14876:	04d5e263          	bltu	a1,a3,148ba <__udivdi3+0x1a6>
   1487a:	67c1                	lui	a5,0x10
   1487c:	04f6e263          	bltu	a3,a5,148c0 <__udivdi3+0x1ac>
   14880:	010007b7          	lui	a5,0x1000
   14884:	1ef6e463          	bltu	a3,a5,14a6c <__udivdi3+0x358>
   14888:	0186d713          	srli	a4,a3,0x18
   1488c:	4861                	li	a6,24
   1488e:	00002797          	auipc	a5,0x2
   14892:	a4278793          	addi	a5,a5,-1470 # 162d0 <__clz_tab>
   14896:	97ba                	add	a5,a5,a4
   14898:	0007c703          	lbu	a4,0(a5)
   1489c:	02000e13          	li	t3,32
   148a0:	9742                	add	a4,a4,a6
   148a2:	40ee0e33          	sub	t3,t3,a4
   148a6:	0c0e1a63          	bnez	t3,1497a <__udivdi3+0x266>
   148aa:	1cb6ed63          	bltu	a3,a1,14a84 <__udivdi3+0x370>
   148ae:	00c53533          	sltu	a0,a0,a2
   148b2:	00154513          	xori	a0,a0,1
   148b6:	4581                	li	a1,0
   148b8:	8082                	ret
   148ba:	4581                	li	a1,0
   148bc:	4501                	li	a0,0
   148be:	8082                	ret
   148c0:	0ff00793          	li	a5,255
   148c4:	1cd7f363          	bgeu	a5,a3,14a8a <__udivdi3+0x376>
   148c8:	0086d713          	srli	a4,a3,0x8
   148cc:	4821                	li	a6,8
   148ce:	b7c1                	j	1488e <__udivdi3+0x17a>
   148d0:	0ff00713          	li	a4,255
   148d4:	86c6                	mv	a3,a7
   148d6:	f1177ce3          	bgeu	a4,a7,147ee <__udivdi3+0xda>
   148da:	0088d693          	srli	a3,a7,0x8
   148de:	47a1                	li	a5,8
   148e0:	b739                	j	147ee <__udivdi3+0xda>
   148e2:	0ff00713          	li	a4,255
   148e6:	86b2                	mv	a3,a2
   148e8:	e4c778e3          	bgeu	a4,a2,14738 <__udivdi3+0x24>
   148ec:	00865693          	srli	a3,a2,0x8
   148f0:	47a1                	li	a5,8
   148f2:	b599                	j	14738 <__udivdi3+0x24>
   148f4:	00f898b3          	sll	a7,a7,a5
   148f8:	00d5d633          	srl	a2,a1,a3
   148fc:	0108df13          	srli	t5,a7,0x10
   14900:	03e65e33          	divu	t3,a2,t5
   14904:	00f59733          	sll	a4,a1,a5
   14908:	00d556b3          	srl	a3,a0,a3
   1490c:	8f55                	or	a4,a4,a3
   1490e:	01089e93          	slli	t4,a7,0x10
   14912:	010ede93          	srli	t4,t4,0x10
   14916:	00f51333          	sll	t1,a0,a5
   1491a:	01075593          	srli	a1,a4,0x10
   1491e:	03e676b3          	remu	a3,a2,t5
   14922:	03ce87b3          	mul	a5,t4,t3
   14926:	06c2                	slli	a3,a3,0x10
   14928:	8ecd                	or	a3,a3,a1
   1492a:	00f6fb63          	bgeu	a3,a5,14940 <__udivdi3+0x22c>
   1492e:	96c6                	add	a3,a3,a7
   14930:	fffe0613          	addi	a2,t3,-1
   14934:	1716e463          	bltu	a3,a7,14a9c <__udivdi3+0x388>
   14938:	16f6f263          	bgeu	a3,a5,14a9c <__udivdi3+0x388>
   1493c:	1e79                	addi	t3,t3,-2
   1493e:	96c6                	add	a3,a3,a7
   14940:	8e9d                	sub	a3,a3,a5
   14942:	03e6d633          	divu	a2,a3,t5
   14946:	01071793          	slli	a5,a4,0x10
   1494a:	83c1                	srli	a5,a5,0x10
   1494c:	03e6f6b3          	remu	a3,a3,t5
   14950:	02ce8533          	mul	a0,t4,a2
   14954:	01069713          	slli	a4,a3,0x10
   14958:	8f5d                	or	a4,a4,a5
   1495a:	00a77b63          	bgeu	a4,a0,14970 <__udivdi3+0x25c>
   1495e:	9746                	add	a4,a4,a7
   14960:	fff60793          	addi	a5,a2,-1
   14964:	13176863          	bltu	a4,a7,14a94 <__udivdi3+0x380>
   14968:	12a77663          	bgeu	a4,a0,14a94 <__udivdi3+0x380>
   1496c:	1679                	addi	a2,a2,-2
   1496e:	9746                	add	a4,a4,a7
   14970:	010e1593          	slli	a1,t3,0x10
   14974:	8f09                	sub	a4,a4,a0
   14976:	8dd1                	or	a1,a1,a2
   14978:	b545                	j	14818 <__udivdi3+0x104>
   1497a:	00e657b3          	srl	a5,a2,a4
   1497e:	01c696b3          	sll	a3,a3,t3
   14982:	8edd                	or	a3,a3,a5
   14984:	00e5d333          	srl	t1,a1,a4
   14988:	0106df13          	srli	t5,a3,0x10
   1498c:	03e357b3          	divu	a5,t1,t5
   14990:	01069e93          	slli	t4,a3,0x10
   14994:	010ede93          	srli	t4,t4,0x10
   14998:	01c59833          	sll	a6,a1,t3
   1499c:	00e55733          	srl	a4,a0,a4
   149a0:	01076833          	or	a6,a4,a6
   149a4:	01085893          	srli	a7,a6,0x10
   149a8:	01c61633          	sll	a2,a2,t3
   149ac:	03e37333          	remu	t1,t1,t5
   149b0:	02fe85b3          	mul	a1,t4,a5
   149b4:	0342                	slli	t1,t1,0x10
   149b6:	011368b3          	or	a7,t1,a7
   149ba:	00b8fb63          	bgeu	a7,a1,149d0 <__udivdi3+0x2bc>
   149be:	98b6                	add	a7,a7,a3
   149c0:	fff78713          	addi	a4,a5,-1
   149c4:	0cd8ea63          	bltu	a7,a3,14a98 <__udivdi3+0x384>
   149c8:	0cb8f863          	bgeu	a7,a1,14a98 <__udivdi3+0x384>
   149cc:	17f9                	addi	a5,a5,-2
   149ce:	98b6                	add	a7,a7,a3
   149d0:	40b888b3          	sub	a7,a7,a1
   149d4:	03e8d733          	divu	a4,a7,t5
   149d8:	0842                	slli	a6,a6,0x10
   149da:	01085813          	srli	a6,a6,0x10
   149de:	03e8f8b3          	remu	a7,a7,t5
   149e2:	02ee8333          	mul	t1,t4,a4
   149e6:	08c2                	slli	a7,a7,0x10
   149e8:	0108e5b3          	or	a1,a7,a6
   149ec:	0065fb63          	bgeu	a1,t1,14a02 <__udivdi3+0x2ee>
   149f0:	95b6                	add	a1,a1,a3
   149f2:	fff70813          	addi	a6,a4,-1
   149f6:	08d5ed63          	bltu	a1,a3,14a90 <__udivdi3+0x37c>
   149fa:	0865fb63          	bgeu	a1,t1,14a90 <__udivdi3+0x37c>
   149fe:	1779                	addi	a4,a4,-2
   14a00:	95b6                	add	a1,a1,a3
   14a02:	07c2                	slli	a5,a5,0x10
   14a04:	6f41                	lui	t5,0x10
   14a06:	8fd9                	or	a5,a5,a4
   14a08:	ffff0713          	addi	a4,t5,-1 # ffff <MCU_SECTORSIZE+0xefff>
   14a0c:	00e7f6b3          	and	a3,a5,a4
   14a10:	0107d893          	srli	a7,a5,0x10
   14a14:	8f71                	and	a4,a4,a2
   14a16:	8241                	srli	a2,a2,0x10
   14a18:	02e68eb3          	mul	t4,a3,a4
   14a1c:	406585b3          	sub	a1,a1,t1
   14a20:	02c686b3          	mul	a3,a3,a2
   14a24:	010ed813          	srli	a6,t4,0x10
   14a28:	02e88733          	mul	a4,a7,a4
   14a2c:	96ba                	add	a3,a3,a4
   14a2e:	96c2                	add	a3,a3,a6
   14a30:	02c88633          	mul	a2,a7,a2
   14a34:	00e6f363          	bgeu	a3,a4,14a3a <__udivdi3+0x326>
   14a38:	967a                	add	a2,a2,t5
   14a3a:	0106d893          	srli	a7,a3,0x10
   14a3e:	9646                	add	a2,a2,a7
   14a40:	02c5e263          	bltu	a1,a2,14a64 <__udivdi3+0x350>
   14a44:	00c58563          	beq	a1,a2,14a4e <__udivdi3+0x33a>
   14a48:	853e                	mv	a0,a5
   14a4a:	4581                	li	a1,0
   14a4c:	8082                	ret
   14a4e:	6741                	lui	a4,0x10
   14a50:	177d                	addi	a4,a4,-1
   14a52:	8ef9                	and	a3,a3,a4
   14a54:	06c2                	slli	a3,a3,0x10
   14a56:	00eefeb3          	and	t4,t4,a4
   14a5a:	01c51533          	sll	a0,a0,t3
   14a5e:	96f6                	add	a3,a3,t4
   14a60:	fed574e3          	bgeu	a0,a3,14a48 <__udivdi3+0x334>
   14a64:	fff78513          	addi	a0,a5,-1
   14a68:	4581                	li	a1,0
   14a6a:	8082                	ret
   14a6c:	0106d713          	srli	a4,a3,0x10
   14a70:	4841                	li	a6,16
   14a72:	bd31                	j	1488e <__udivdi3+0x17a>
   14a74:	01065693          	srli	a3,a2,0x10
   14a78:	47c1                	li	a5,16
   14a7a:	b97d                	j	14738 <__udivdi3+0x24>
   14a7c:	0108d693          	srli	a3,a7,0x10
   14a80:	47c1                	li	a5,16
   14a82:	b3b5                	j	147ee <__udivdi3+0xda>
   14a84:	4581                	li	a1,0
   14a86:	4505                	li	a0,1
   14a88:	8082                	ret
   14a8a:	8736                	mv	a4,a3
   14a8c:	4801                	li	a6,0
   14a8e:	b501                	j	1488e <__udivdi3+0x17a>
   14a90:	8742                	mv	a4,a6
   14a92:	bf85                	j	14a02 <__udivdi3+0x2ee>
   14a94:	863e                	mv	a2,a5
   14a96:	bde9                	j	14970 <__udivdi3+0x25c>
   14a98:	87ba                	mv	a5,a4
   14a9a:	bf1d                	j	149d0 <__udivdi3+0x2bc>
   14a9c:	8e32                	mv	t3,a2
   14a9e:	b54d                	j	14940 <__udivdi3+0x22c>
   14aa0:	1579                	addi	a0,a0,-2
   14aa2:	9846                	add	a6,a6,a7
   14aa4:	b9d5                	j	14798 <__udivdi3+0x84>
   14aa6:	1579                	addi	a0,a0,-2
   14aa8:	97c6                	add	a5,a5,a7
   14aaa:	bb59                	j	14840 <__udivdi3+0x12c>

00014aac <__umoddi3>:
__umoddi3():
   14aac:	87b6                	mv	a5,a3
   14aae:	8832                	mv	a6,a2
   14ab0:	832a                	mv	t1,a0
   14ab2:	872e                	mv	a4,a1
   14ab4:	8e2e                	mv	t3,a1
   14ab6:	14069363          	bnez	a3,14bfc <__umoddi3+0x150>
   14aba:	0ac5f163          	bgeu	a1,a2,14b5c <__umoddi3+0xb0>
   14abe:	6741                	lui	a4,0x10
   14ac0:	1ae67863          	bgeu	a2,a4,14c70 <__umoddi3+0x1c4>
   14ac4:	0ff00713          	li	a4,255
   14ac8:	86b2                	mv	a3,a2
   14aca:	00c77563          	bgeu	a4,a2,14ad4 <__umoddi3+0x28>
   14ace:	00865693          	srli	a3,a2,0x8
   14ad2:	47a1                	li	a5,8
   14ad4:	00001717          	auipc	a4,0x1
   14ad8:	7fc70713          	addi	a4,a4,2044 # 162d0 <__clz_tab>
   14adc:	9736                	add	a4,a4,a3
   14ade:	00074703          	lbu	a4,0(a4)
   14ae2:	02000893          	li	a7,32
   14ae6:	97ba                	add	a5,a5,a4
   14ae8:	40f888b3          	sub	a7,a7,a5
   14aec:	00088c63          	beqz	a7,14b04 <__umoddi3+0x58>
   14af0:	011595b3          	sll	a1,a1,a7
   14af4:	00f557b3          	srl	a5,a0,a5
   14af8:	01161833          	sll	a6,a2,a7
   14afc:	00b7ee33          	or	t3,a5,a1
   14b00:	01151333          	sll	t1,a0,a7
   14b04:	01085613          	srli	a2,a6,0x10
   14b08:	02ce57b3          	divu	a5,t3,a2
   14b0c:	01081513          	slli	a0,a6,0x10
   14b10:	8141                	srli	a0,a0,0x10
   14b12:	01035693          	srli	a3,t1,0x10
   14b16:	02ce7e33          	remu	t3,t3,a2
   14b1a:	02f507b3          	mul	a5,a0,a5
   14b1e:	0e42                	slli	t3,t3,0x10
   14b20:	00de6733          	or	a4,t3,a3
   14b24:	00f77863          	bgeu	a4,a5,14b34 <__umoddi3+0x88>
   14b28:	9742                	add	a4,a4,a6
   14b2a:	01076563          	bltu	a4,a6,14b34 <__umoddi3+0x88>
   14b2e:	00f77363          	bgeu	a4,a5,14b34 <__umoddi3+0x88>
   14b32:	9742                	add	a4,a4,a6
   14b34:	8f1d                	sub	a4,a4,a5
   14b36:	02c756b3          	divu	a3,a4,a2
   14b3a:	01031793          	slli	a5,t1,0x10
   14b3e:	83c1                	srli	a5,a5,0x10
   14b40:	02c77733          	remu	a4,a4,a2
   14b44:	02d50533          	mul	a0,a0,a3
   14b48:	0742                	slli	a4,a4,0x10
   14b4a:	8fd9                	or	a5,a5,a4
   14b4c:	08a7ec63          	bltu	a5,a0,14be4 <__umoddi3+0x138>
   14b50:	40a78533          	sub	a0,a5,a0
   14b54:	01155533          	srl	a0,a0,a7
   14b58:	4581                	li	a1,0
   14b5a:	8082                	ret
   14b5c:	e601                	bnez	a2,14b64 <__umoddi3+0xb8>
   14b5e:	4705                	li	a4,1
   14b60:	02c75833          	divu	a6,a4,a2
   14b64:	6741                	lui	a4,0x10
   14b66:	0ee86c63          	bltu	a6,a4,14c5e <__umoddi3+0x1b2>
   14b6a:	010007b7          	lui	a5,0x1000
   14b6e:	2af86563          	bltu	a6,a5,14e18 <__umoddi3+0x36c>
   14b72:	01885693          	srli	a3,a6,0x18
   14b76:	47e1                	li	a5,24
   14b78:	00001717          	auipc	a4,0x1
   14b7c:	75870713          	addi	a4,a4,1880 # 162d0 <__clz_tab>
   14b80:	9736                	add	a4,a4,a3
   14b82:	00074703          	lbu	a4,0(a4)
   14b86:	02000893          	li	a7,32
   14b8a:	97ba                	add	a5,a5,a4
   14b8c:	40f888b3          	sub	a7,a7,a5
   14b90:	1e089a63          	bnez	a7,14d84 <__umoddi3+0x2d8>
   14b94:	01081e13          	slli	t3,a6,0x10
   14b98:	410585b3          	sub	a1,a1,a6
   14b9c:	01085613          	srli	a2,a6,0x10
   14ba0:	010e5e13          	srli	t3,t3,0x10
   14ba4:	01035713          	srli	a4,t1,0x10
   14ba8:	02c5d6b3          	divu	a3,a1,a2
   14bac:	02c5f5b3          	remu	a1,a1,a2
   14bb0:	03c686b3          	mul	a3,a3,t3
   14bb4:	05c2                	slli	a1,a1,0x10
   14bb6:	8f4d                	or	a4,a4,a1
   14bb8:	00d77763          	bgeu	a4,a3,14bc6 <__umoddi3+0x11a>
   14bbc:	9742                	add	a4,a4,a6
   14bbe:	01076463          	bltu	a4,a6,14bc6 <__umoddi3+0x11a>
   14bc2:	26d76a63          	bltu	a4,a3,14e36 <__umoddi3+0x38a>
   14bc6:	8f15                	sub	a4,a4,a3
   14bc8:	02c75533          	divu	a0,a4,a2
   14bcc:	0342                	slli	t1,t1,0x10
   14bce:	01035313          	srli	t1,t1,0x10
   14bd2:	02c77733          	remu	a4,a4,a2
   14bd6:	03c50533          	mul	a0,a0,t3
   14bda:	0742                	slli	a4,a4,0x10
   14bdc:	006767b3          	or	a5,a4,t1
   14be0:	00a7f863          	bgeu	a5,a0,14bf0 <__umoddi3+0x144>
   14be4:	97c2                	add	a5,a5,a6
   14be6:	0107e563          	bltu	a5,a6,14bf0 <__umoddi3+0x144>
   14bea:	00a7f363          	bgeu	a5,a0,14bf0 <__umoddi3+0x144>
   14bee:	97c2                	add	a5,a5,a6
   14bf0:	40a78533          	sub	a0,a5,a0
   14bf4:	01155533          	srl	a0,a0,a7
   14bf8:	4581                	li	a1,0
   14bfa:	8082                	ret
   14bfc:	882a                	mv	a6,a0
   14bfe:	f4d5eee3          	bltu	a1,a3,14b5a <__umoddi3+0xae>
   14c02:	67c1                	lui	a5,0x10
   14c04:	04f6e563          	bltu	a3,a5,14c4e <__umoddi3+0x1a2>
   14c08:	010007b7          	lui	a5,0x1000
   14c0c:	20f6e263          	bltu	a3,a5,14e10 <__umoddi3+0x364>
   14c10:	0186d313          	srli	t1,a3,0x18
   14c14:	48e1                	li	a7,24
   14c16:	00001797          	auipc	a5,0x1
   14c1a:	6ba78793          	addi	a5,a5,1722 # 162d0 <__clz_tab>
   14c1e:	979a                	add	a5,a5,t1
   14c20:	0007ce03          	lbu	t3,0(a5)
   14c24:	02000313          	li	t1,32
   14c28:	9e46                	add	t3,t3,a7
   14c2a:	41c30333          	sub	t1,t1,t3
   14c2e:	04031963          	bnez	t1,14c80 <__umoddi3+0x1d4>
   14c32:	00b6e463          	bltu	a3,a1,14c3a <__umoddi3+0x18e>
   14c36:	00c56963          	bltu	a0,a2,14c48 <__umoddi3+0x19c>
   14c3a:	40c50833          	sub	a6,a0,a2
   14c3e:	8d95                	sub	a1,a1,a3
   14c40:	01053733          	sltu	a4,a0,a6
   14c44:	40e58733          	sub	a4,a1,a4
   14c48:	8542                	mv	a0,a6
   14c4a:	85ba                	mv	a1,a4
   14c4c:	8082                	ret
   14c4e:	0ff00793          	li	a5,255
   14c52:	1cd7fb63          	bgeu	a5,a3,14e28 <__umoddi3+0x37c>
   14c56:	0086d313          	srli	t1,a3,0x8
   14c5a:	48a1                	li	a7,8
   14c5c:	bf6d                	j	14c16 <__umoddi3+0x16a>
   14c5e:	0ff00713          	li	a4,255
   14c62:	86c2                	mv	a3,a6
   14c64:	f1077ae3          	bgeu	a4,a6,14b78 <__umoddi3+0xcc>
   14c68:	00885693          	srli	a3,a6,0x8
   14c6c:	47a1                	li	a5,8
   14c6e:	b729                	j	14b78 <__umoddi3+0xcc>
   14c70:	010007b7          	lui	a5,0x1000
   14c74:	1af66663          	bltu	a2,a5,14e20 <__umoddi3+0x374>
   14c78:	01865693          	srli	a3,a2,0x18
   14c7c:	47e1                	li	a5,24
   14c7e:	bd99                	j	14ad4 <__umoddi3+0x28>
   14c80:	01c657b3          	srl	a5,a2,t3
   14c84:	006696b3          	sll	a3,a3,t1
   14c88:	8edd                	or	a3,a3,a5
   14c8a:	01c5d8b3          	srl	a7,a1,t3
   14c8e:	0106d713          	srli	a4,a3,0x10
   14c92:	02e8deb3          	divu	t4,a7,a4
   14c96:	01069f13          	slli	t5,a3,0x10
   14c9a:	01c557b3          	srl	a5,a0,t3
   14c9e:	010f5f13          	srli	t5,t5,0x10
   14ca2:	006595b3          	sll	a1,a1,t1
   14ca6:	8ddd                	or	a1,a1,a5
   14ca8:	0105d813          	srli	a6,a1,0x10
   14cac:	00661633          	sll	a2,a2,t1
   14cb0:	00651533          	sll	a0,a0,t1
   14cb4:	02e8f8b3          	remu	a7,a7,a4
   14cb8:	03df07b3          	mul	a5,t5,t4
   14cbc:	08c2                	slli	a7,a7,0x10
   14cbe:	0108e833          	or	a6,a7,a6
   14cc2:	00f87b63          	bgeu	a6,a5,14cd8 <__umoddi3+0x22c>
   14cc6:	9836                	add	a6,a6,a3
   14cc8:	fffe8893          	addi	a7,t4,-1
   14ccc:	16d86363          	bltu	a6,a3,14e32 <__umoddi3+0x386>
   14cd0:	16f87163          	bgeu	a6,a5,14e32 <__umoddi3+0x386>
   14cd4:	1ef9                	addi	t4,t4,-2
   14cd6:	9836                	add	a6,a6,a3
   14cd8:	40f80833          	sub	a6,a6,a5
   14cdc:	02e857b3          	divu	a5,a6,a4
   14ce0:	05c2                	slli	a1,a1,0x10
   14ce2:	81c1                	srli	a1,a1,0x10
   14ce4:	02e87833          	remu	a6,a6,a4
   14ce8:	02ff0f33          	mul	t5,t5,a5
   14cec:	01081713          	slli	a4,a6,0x10
   14cf0:	8f4d                	or	a4,a4,a1
   14cf2:	01e77b63          	bgeu	a4,t5,14d08 <__umoddi3+0x25c>
   14cf6:	9736                	add	a4,a4,a3
   14cf8:	fff78593          	addi	a1,a5,-1 # ffffff <_data_lma+0xfe9c2f>
   14cfc:	12d76963          	bltu	a4,a3,14e2e <__umoddi3+0x382>
   14d00:	13e77763          	bgeu	a4,t5,14e2e <__umoddi3+0x382>
   14d04:	17f9                	addi	a5,a5,-2
   14d06:	9736                	add	a4,a4,a3
   14d08:	0ec2                	slli	t4,t4,0x10
   14d0a:	62c1                	lui	t0,0x10
   14d0c:	00feeeb3          	or	t4,t4,a5
   14d10:	fff28813          	addi	a6,t0,-1 # ffff <MCU_SECTORSIZE+0xefff>
   14d14:	010ef8b3          	and	a7,t4,a6
   14d18:	01065593          	srli	a1,a2,0x10
   14d1c:	010ede93          	srli	t4,t4,0x10
   14d20:	01067833          	and	a6,a2,a6
   14d24:	03088fb3          	mul	t6,a7,a6
   14d28:	41e70733          	sub	a4,a4,t5
   14d2c:	030e8833          	mul	a6,t4,a6
   14d30:	010fd793          	srli	a5,t6,0x10
   14d34:	02b888b3          	mul	a7,a7,a1
   14d38:	98c2                	add	a7,a7,a6
   14d3a:	97c6                	add	a5,a5,a7
   14d3c:	02be8eb3          	mul	t4,t4,a1
   14d40:	0107f363          	bgeu	a5,a6,14d46 <__umoddi3+0x29a>
   14d44:	9e96                	add	t4,t4,t0
   14d46:	6841                	lui	a6,0x10
   14d48:	187d                	addi	a6,a6,-1
   14d4a:	0107d593          	srli	a1,a5,0x10
   14d4e:	0107f7b3          	and	a5,a5,a6
   14d52:	07c2                	slli	a5,a5,0x10
   14d54:	010fffb3          	and	t6,t6,a6
   14d58:	95f6                	add	a1,a1,t4
   14d5a:	97fe                	add	a5,a5,t6
   14d5c:	0ab76263          	bltu	a4,a1,14e00 <__umoddi3+0x354>
   14d60:	08b70e63          	beq	a4,a1,14dfc <__umoddi3+0x350>
   14d64:	40f507b3          	sub	a5,a0,a5
   14d68:	00f53533          	sltu	a0,a0,a5
   14d6c:	40b705b3          	sub	a1,a4,a1
   14d70:	8d89                	sub	a1,a1,a0
   14d72:	01c59e33          	sll	t3,a1,t3
   14d76:	0067d533          	srl	a0,a5,t1
   14d7a:	00ae6533          	or	a0,t3,a0
   14d7e:	0065d5b3          	srl	a1,a1,t1
   14d82:	8082                	ret
   14d84:	01181833          	sll	a6,a6,a7
   14d88:	00f5d733          	srl	a4,a1,a5
   14d8c:	01085613          	srli	a2,a6,0x10
   14d90:	02c756b3          	divu	a3,a4,a2
   14d94:	01081e13          	slli	t3,a6,0x10
   14d98:	00f557b3          	srl	a5,a0,a5
   14d9c:	010e5e13          	srli	t3,t3,0x10
   14da0:	011595b3          	sll	a1,a1,a7
   14da4:	8ddd                	or	a1,a1,a5
   14da6:	0105de93          	srli	t4,a1,0x10
   14daa:	01151333          	sll	t1,a0,a7
   14dae:	02c77733          	remu	a4,a4,a2
   14db2:	02de07b3          	mul	a5,t3,a3
   14db6:	01071693          	slli	a3,a4,0x10
   14dba:	01d6e6b3          	or	a3,a3,t4
   14dbe:	00f6f863          	bgeu	a3,a5,14dce <__umoddi3+0x322>
   14dc2:	96c2                	add	a3,a3,a6
   14dc4:	0106e563          	bltu	a3,a6,14dce <__umoddi3+0x322>
   14dc8:	00f6f363          	bgeu	a3,a5,14dce <__umoddi3+0x322>
   14dcc:	96c2                	add	a3,a3,a6
   14dce:	8e9d                	sub	a3,a3,a5
   14dd0:	02c6d733          	divu	a4,a3,a2
   14dd4:	01059793          	slli	a5,a1,0x10
   14dd8:	83c1                	srli	a5,a5,0x10
   14dda:	02c6f6b3          	remu	a3,a3,a2
   14dde:	02ee0733          	mul	a4,t3,a4
   14de2:	01069593          	slli	a1,a3,0x10
   14de6:	8ddd                	or	a1,a1,a5
   14de8:	00e5f863          	bgeu	a1,a4,14df8 <__umoddi3+0x34c>
   14dec:	95c2                	add	a1,a1,a6
   14dee:	0105e563          	bltu	a1,a6,14df8 <__umoddi3+0x34c>
   14df2:	00e5f363          	bgeu	a1,a4,14df8 <__umoddi3+0x34c>
   14df6:	95c2                	add	a1,a1,a6
   14df8:	8d99                	sub	a1,a1,a4
   14dfa:	b36d                	j	14ba4 <__umoddi3+0xf8>
   14dfc:	f6f574e3          	bgeu	a0,a5,14d64 <__umoddi3+0x2b8>
   14e00:	40c78633          	sub	a2,a5,a2
   14e04:	00c7b7b3          	sltu	a5,a5,a2
   14e08:	97b6                	add	a5,a5,a3
   14e0a:	8d9d                	sub	a1,a1,a5
   14e0c:	87b2                	mv	a5,a2
   14e0e:	bf99                	j	14d64 <__umoddi3+0x2b8>
   14e10:	0106d313          	srli	t1,a3,0x10
   14e14:	48c1                	li	a7,16
   14e16:	b501                	j	14c16 <__umoddi3+0x16a>
   14e18:	01085693          	srli	a3,a6,0x10
   14e1c:	47c1                	li	a5,16
   14e1e:	bba9                	j	14b78 <__umoddi3+0xcc>
   14e20:	01065693          	srli	a3,a2,0x10
   14e24:	47c1                	li	a5,16
   14e26:	b17d                	j	14ad4 <__umoddi3+0x28>
   14e28:	8336                	mv	t1,a3
   14e2a:	4881                	li	a7,0
   14e2c:	b3ed                	j	14c16 <__umoddi3+0x16a>
   14e2e:	87ae                	mv	a5,a1
   14e30:	bde1                	j	14d08 <__umoddi3+0x25c>
   14e32:	8ec6                	mv	t4,a7
   14e34:	b555                	j	14cd8 <__umoddi3+0x22c>
   14e36:	9742                	add	a4,a4,a6
   14e38:	b379                	j	14bc6 <__umoddi3+0x11a>

00014e3a <__eqdf2>:
__eqdf2():
   14e3a:	0145d713          	srli	a4,a1,0x14
   14e3e:	001007b7          	lui	a5,0x100
   14e42:	17fd                	addi	a5,a5,-1
   14e44:	0146d813          	srli	a6,a3,0x14
   14e48:	7ff77713          	andi	a4,a4,2047
   14e4c:	7ff00893          	li	a7,2047
   14e50:	00b7fe33          	and	t3,a5,a1
   14e54:	8eaa                	mv	t4,a0
   14e56:	8ff5                	and	a5,a5,a3
   14e58:	81fd                	srli	a1,a1,0x1f
   14e5a:	8f32                	mv	t5,a2
   14e5c:	7ff87813          	andi	a6,a6,2047
   14e60:	82fd                	srli	a3,a3,0x1f
   14e62:	01170b63          	beq	a4,a7,14e78 <__eqdf2+0x3e>
   14e66:	4305                	li	t1,1
   14e68:	01180663          	beq	a6,a7,14e74 <__eqdf2+0x3a>
   14e6c:	01071463          	bne	a4,a6,14e74 <__eqdf2+0x3a>
   14e70:	00fe0d63          	beq	t3,a5,14e8a <__eqdf2+0x50>
   14e74:	851a                	mv	a0,t1
   14e76:	8082                	ret
   14e78:	00ae68b3          	or	a7,t3,a0
   14e7c:	4305                	li	t1,1
   14e7e:	fe089be3          	bnez	a7,14e74 <__eqdf2+0x3a>
   14e82:	fee819e3          	bne	a6,a4,14e74 <__eqdf2+0x3a>
   14e86:	8fd1                	or	a5,a5,a2
   14e88:	f7f5                	bnez	a5,14e74 <__eqdf2+0x3a>
   14e8a:	4305                	li	t1,1
   14e8c:	ffee94e3          	bne	t4,t5,14e74 <__eqdf2+0x3a>
   14e90:	4301                	li	t1,0
   14e92:	fed581e3          	beq	a1,a3,14e74 <__eqdf2+0x3a>
   14e96:	4305                	li	t1,1
   14e98:	ff71                	bnez	a4,14e74 <__eqdf2+0x3a>
   14e9a:	00ae6533          	or	a0,t3,a0
   14e9e:	00a03333          	snez	t1,a0
   14ea2:	bfc9                	j	14e74 <__eqdf2+0x3a>

00014ea4 <__ledf2>:
__ltdf2():
   14ea4:	0145d713          	srli	a4,a1,0x14
   14ea8:	001007b7          	lui	a5,0x100
   14eac:	17fd                	addi	a5,a5,-1
   14eae:	0146d813          	srli	a6,a3,0x14
   14eb2:	7ff77713          	andi	a4,a4,2047
   14eb6:	7ff00893          	li	a7,2047
   14eba:	00b7fe33          	and	t3,a5,a1
   14ebe:	8eaa                	mv	t4,a0
   14ec0:	8ff5                	and	a5,a5,a3
   14ec2:	81fd                	srli	a1,a1,0x1f
   14ec4:	8f32                	mv	t5,a2
   14ec6:	7ff87813          	andi	a6,a6,2047
   14eca:	82fd                	srli	a3,a3,0x1f
   14ecc:	03170e63          	beq	a4,a7,14f08 <__ledf2+0x64>
   14ed0:	01180d63          	beq	a6,a7,14eea <__ledf2+0x46>
   14ed4:	e329                	bnez	a4,14f16 <__ledf2+0x72>
   14ed6:	00ae68b3          	or	a7,t3,a0
   14eda:	00081f63          	bnez	a6,14ef8 <__ledf2+0x54>
   14ede:	8e5d                	or	a2,a2,a5
   14ee0:	ee01                	bnez	a2,14ef8 <__ledf2+0x54>
   14ee2:	4301                	li	t1,0
   14ee4:	04088c63          	beqz	a7,14f3c <__ledf2+0x98>
   14ee8:	a821                	j	14f00 <__ledf2+0x5c>
   14eea:	00c7e8b3          	or	a7,a5,a2
   14eee:	4309                	li	t1,2
   14ef0:	04089663          	bnez	a7,14f3c <__ledf2+0x98>
   14ef4:	d36d                	beqz	a4,14ed6 <__ledf2+0x32>
   14ef6:	a005                	j	14f16 <__ledf2+0x72>
   14ef8:	04088463          	beqz	a7,14f40 <__ledf2+0x9c>
   14efc:	02d58563          	beq	a1,a3,14f26 <__ledf2+0x82>
   14f00:	4305                	li	t1,1
   14f02:	cd8d                	beqz	a1,14f3c <__ledf2+0x98>
   14f04:	537d                	li	t1,-1
   14f06:	a81d                	j	14f3c <__ledf2+0x98>
   14f08:	00ae68b3          	or	a7,t3,a0
   14f0c:	4309                	li	t1,2
   14f0e:	02089763          	bnez	a7,14f3c <__ledf2+0x98>
   14f12:	02e80a63          	beq	a6,a4,14f46 <__ledf2+0xa2>
   14f16:	00081463          	bnez	a6,14f1e <__ledf2+0x7a>
   14f1a:	8e5d                	or	a2,a2,a5
   14f1c:	d275                	beqz	a2,14f00 <__ledf2+0x5c>
   14f1e:	fed591e3          	bne	a1,a3,14f00 <__ledf2+0x5c>
   14f22:	fce84fe3          	blt	a6,a4,14f00 <__ledf2+0x5c>
   14f26:	01074963          	blt	a4,a6,14f38 <__ledf2+0x94>
   14f2a:	fdc7ebe3          	bltu	a5,t3,14f00 <__ledf2+0x5c>
   14f2e:	00fe0f63          	beq	t3,a5,14f4c <__ledf2+0xa8>
   14f32:	4301                	li	t1,0
   14f34:	00fe7463          	bgeu	t3,a5,14f3c <__ledf2+0x98>
   14f38:	d5f1                	beqz	a1,14f04 <__ledf2+0x60>
   14f3a:	4305                	li	t1,1
   14f3c:	851a                	mv	a0,t1
   14f3e:	8082                	ret
   14f40:	feed                	bnez	a3,14f3a <__ledf2+0x96>
   14f42:	537d                	li	t1,-1
   14f44:	bfe5                	j	14f3c <__ledf2+0x98>
   14f46:	8e5d                	or	a2,a2,a5
   14f48:	da79                	beqz	a2,14f1e <__ledf2+0x7a>
   14f4a:	bfcd                	j	14f3c <__ledf2+0x98>
   14f4c:	fbdf6ae3          	bltu	t5,t4,14f00 <__ledf2+0x5c>
   14f50:	4301                	li	t1,0
   14f52:	ffeef5e3          	bgeu	t4,t5,14f3c <__ledf2+0x98>
   14f56:	f1f5                	bnez	a1,14f3a <__ledf2+0x96>
   14f58:	b775                	j	14f04 <__ledf2+0x60>

00014f5a <__muldf3>:
__muldf3():
   14f5a:	7139                	addi	sp,sp,-64
   14f5c:	d84a                	sw	s2,48(sp)
   14f5e:	0145d913          	srli	s2,a1,0x14
   14f62:	d64e                	sw	s3,44(sp)
   14f64:	d452                	sw	s4,40(sp)
   14f66:	d256                	sw	s5,36(sp)
   14f68:	00c59993          	slli	s3,a1,0xc
   14f6c:	de06                	sw	ra,60(sp)
   14f6e:	dc22                	sw	s0,56(sp)
   14f70:	da26                	sw	s1,52(sp)
   14f72:	d05a                	sw	s6,32(sp)
   14f74:	ce5e                	sw	s7,28(sp)
   14f76:	7ff97913          	andi	s2,s2,2047
   14f7a:	8a2a                	mv	s4,a0
   14f7c:	00c9d993          	srli	s3,s3,0xc
   14f80:	01f5da93          	srli	s5,a1,0x1f
   14f84:	0e090d63          	beqz	s2,1507e <__muldf3+0x124>
   14f88:	7ff00793          	li	a5,2047
   14f8c:	18f90a63          	beq	s2,a5,15120 <__muldf3+0x1c6>
   14f90:	01d55413          	srli	s0,a0,0x1d
   14f94:	098e                	slli	s3,s3,0x3
   14f96:	013469b3          	or	s3,s0,s3
   14f9a:	00800437          	lui	s0,0x800
   14f9e:	0089e433          	or	s0,s3,s0
   14fa2:	00351493          	slli	s1,a0,0x3
   14fa6:	c0190913          	addi	s2,s2,-1023
   14faa:	4981                	li	s3,0
   14fac:	4b81                	li	s7,0
   14fae:	0146d713          	srli	a4,a3,0x14
   14fb2:	00c69a13          	slli	s4,a3,0xc
   14fb6:	7ff77713          	andi	a4,a4,2047
   14fba:	85b2                	mv	a1,a2
   14fbc:	00ca5a13          	srli	s4,s4,0xc
   14fc0:	01f6db13          	srli	s6,a3,0x1f
   14fc4:	10070d63          	beqz	a4,150de <__muldf3+0x184>
   14fc8:	7ff00793          	li	a5,2047
   14fcc:	04f70363          	beq	a4,a5,15012 <__muldf3+0xb8>
   14fd0:	01d65793          	srli	a5,a2,0x1d
   14fd4:	0a0e                	slli	s4,s4,0x3
   14fd6:	0147ea33          	or	s4,a5,s4
   14fda:	c0170713          	addi	a4,a4,-1023
   14fde:	008007b7          	lui	a5,0x800
   14fe2:	00fa67b3          	or	a5,s4,a5
   14fe6:	00361593          	slli	a1,a2,0x3
   14fea:	993a                	add	s2,s2,a4
   14fec:	4881                	li	a7,0
   14fee:	016ac733          	xor	a4,s5,s6
   14ff2:	46bd                	li	a3,15
   14ff4:	853a                	mv	a0,a4
   14ff6:	00190813          	addi	a6,s2,1
   14ffa:	1736ec63          	bltu	a3,s3,15172 <__muldf3+0x218>
   14ffe:	00001617          	auipc	a2,0x1
   15002:	29260613          	addi	a2,a2,658 # 16290 <strlen+0x480>
   15006:	098a                	slli	s3,s3,0x2
   15008:	99b2                	add	s3,s3,a2
   1500a:	0009a683          	lw	a3,0(s3)
   1500e:	96b2                	add	a3,a3,a2
   15010:	8682                	jr	a3
   15012:	00ca67b3          	or	a5,s4,a2
   15016:	7ff90913          	addi	s2,s2,2047
   1501a:	12079d63          	bnez	a5,15154 <__muldf3+0x1fa>
   1501e:	0029e993          	ori	s3,s3,2
   15022:	4581                	li	a1,0
   15024:	4889                	li	a7,2
   15026:	b7e1                	j	14fee <__muldf3+0x94>
   15028:	4701                	li	a4,0
   1502a:	7ff00793          	li	a5,2047
   1502e:	00080437          	lui	s0,0x80
   15032:	4481                	li	s1,0
   15034:	0432                	slli	s0,s0,0xc
   15036:	07d2                	slli	a5,a5,0x14
   15038:	8031                	srli	s0,s0,0xc
   1503a:	077e                	slli	a4,a4,0x1f
   1503c:	8c5d                	or	s0,s0,a5
   1503e:	8c59                	or	s0,s0,a4
   15040:	85a2                	mv	a1,s0
   15042:	50f2                	lw	ra,60(sp)
   15044:	5462                	lw	s0,56(sp)
   15046:	8526                	mv	a0,s1
   15048:	5942                	lw	s2,48(sp)
   1504a:	54d2                	lw	s1,52(sp)
   1504c:	59b2                	lw	s3,44(sp)
   1504e:	5a22                	lw	s4,40(sp)
   15050:	5a92                	lw	s5,36(sp)
   15052:	5b02                	lw	s6,32(sp)
   15054:	4bf2                	lw	s7,28(sp)
   15056:	6121                	addi	sp,sp,64
   15058:	8082                	ret
   1505a:	855a                	mv	a0,s6
   1505c:	843e                	mv	s0,a5
   1505e:	84ae                	mv	s1,a1
   15060:	8bc6                	mv	s7,a7
   15062:	4789                	li	a5,2
   15064:	10fb8163          	beq	s7,a5,15166 <__muldf3+0x20c>
   15068:	478d                	li	a5,3
   1506a:	fafb8fe3          	beq	s7,a5,15028 <__muldf3+0xce>
   1506e:	4785                	li	a5,1
   15070:	872a                	mv	a4,a0
   15072:	3afb9663          	bne	s7,a5,1541e <__muldf3+0x4c4>
   15076:	4781                	li	a5,0
   15078:	4401                	li	s0,0
   1507a:	4481                	li	s1,0
   1507c:	bf65                	j	15034 <__muldf3+0xda>
   1507e:	00a9e433          	or	s0,s3,a0
   15082:	c461                	beqz	s0,1514a <__muldf3+0x1f0>
   15084:	c636                	sw	a3,12(sp)
   15086:	c432                	sw	a2,8(sp)
   15088:	2c098263          	beqz	s3,1534c <__muldf3+0x3f2>
   1508c:	854e                	mv	a0,s3
   1508e:	00001097          	auipc	ra,0x1
   15092:	d0c080e7          	jalr	-756(ra) # 15d9a <__clzsi2>
   15096:	4622                	lw	a2,8(sp)
   15098:	46b2                	lw	a3,12(sp)
   1509a:	87aa                	mv	a5,a0
   1509c:	ff550713          	addi	a4,a0,-11
   150a0:	4475                	li	s0,29
   150a2:	ff878493          	addi	s1,a5,-8 # 7ffff8 <_data_lma+0x7e9c28>
   150a6:	8c19                	sub	s0,s0,a4
   150a8:	009999b3          	sll	s3,s3,s1
   150ac:	008a5433          	srl	s0,s4,s0
   150b0:	01346433          	or	s0,s0,s3
   150b4:	009a14b3          	sll	s1,s4,s1
   150b8:	0146d713          	srli	a4,a3,0x14
   150bc:	c0d00913          	li	s2,-1011
   150c0:	00c69a13          	slli	s4,a3,0xc
   150c4:	7ff77713          	andi	a4,a4,2047
   150c8:	40f90933          	sub	s2,s2,a5
   150cc:	4981                	li	s3,0
   150ce:	4b81                	li	s7,0
   150d0:	85b2                	mv	a1,a2
   150d2:	00ca5a13          	srli	s4,s4,0xc
   150d6:	01f6db13          	srli	s6,a3,0x1f
   150da:	ee0717e3          	bnez	a4,14fc8 <__muldf3+0x6e>
   150de:	00ca67b3          	or	a5,s4,a2
   150e2:	cba1                	beqz	a5,15132 <__muldf3+0x1d8>
   150e4:	240a0163          	beqz	s4,15326 <__muldf3+0x3cc>
   150e8:	8552                	mv	a0,s4
   150ea:	c432                	sw	a2,8(sp)
   150ec:	00001097          	auipc	ra,0x1
   150f0:	cae080e7          	jalr	-850(ra) # 15d9a <__clzsi2>
   150f4:	4622                	lw	a2,8(sp)
   150f6:	872a                	mv	a4,a0
   150f8:	ff550693          	addi	a3,a0,-11
   150fc:	47f5                	li	a5,29
   150fe:	ff870593          	addi	a1,a4,-8
   15102:	8f95                	sub	a5,a5,a3
   15104:	00ba1a33          	sll	s4,s4,a1
   15108:	00f657b3          	srl	a5,a2,a5
   1510c:	0147e7b3          	or	a5,a5,s4
   15110:	00b615b3          	sll	a1,a2,a1
   15114:	40e90933          	sub	s2,s2,a4
   15118:	c0d90913          	addi	s2,s2,-1011
   1511c:	4881                	li	a7,0
   1511e:	bdc1                	j	14fee <__muldf3+0x94>
   15120:	00a9e433          	or	s0,s3,a0
   15124:	ec01                	bnez	s0,1513c <__muldf3+0x1e2>
   15126:	49a1                	li	s3,8
   15128:	4481                	li	s1,0
   1512a:	7ff00913          	li	s2,2047
   1512e:	4b89                	li	s7,2
   15130:	bdbd                	j	14fae <__muldf3+0x54>
   15132:	0019e993          	ori	s3,s3,1
   15136:	4581                	li	a1,0
   15138:	4885                	li	a7,1
   1513a:	bd55                	j	14fee <__muldf3+0x94>
   1513c:	844e                	mv	s0,s3
   1513e:	84aa                	mv	s1,a0
   15140:	49b1                	li	s3,12
   15142:	7ff00913          	li	s2,2047
   15146:	4b8d                	li	s7,3
   15148:	b59d                	j	14fae <__muldf3+0x54>
   1514a:	4991                	li	s3,4
   1514c:	4481                	li	s1,0
   1514e:	4901                	li	s2,0
   15150:	4b85                	li	s7,1
   15152:	bdb1                	j	14fae <__muldf3+0x54>
   15154:	0039e993          	ori	s3,s3,3
   15158:	87d2                	mv	a5,s4
   1515a:	488d                	li	a7,3
   1515c:	bd49                	j	14fee <__muldf3+0x94>
   1515e:	4789                	li	a5,2
   15160:	8556                	mv	a0,s5
   15162:	f0fb93e3          	bne	s7,a5,15068 <__muldf3+0x10e>
   15166:	872a                	mv	a4,a0
   15168:	7ff00793          	li	a5,2047
   1516c:	4401                	li	s0,0
   1516e:	4481                	li	s1,0
   15170:	b5d1                	j	15034 <__muldf3+0xda>
   15172:	6ec1                	lui	t4,0x10
   15174:	fffe8613          	addi	a2,t4,-1 # ffff <MCU_SECTORSIZE+0xefff>
   15178:	0104d693          	srli	a3,s1,0x10
   1517c:	0105de13          	srli	t3,a1,0x10
   15180:	8cf1                	and	s1,s1,a2
   15182:	8df1                	and	a1,a1,a2
   15184:	02958633          	mul	a2,a1,s1
   15188:	02b68333          	mul	t1,a3,a1
   1518c:	01065893          	srli	a7,a2,0x10
   15190:	029e0533          	mul	a0,t3,s1
   15194:	951a                	add	a0,a0,t1
   15196:	98aa                	add	a7,a7,a0
   15198:	03c682b3          	mul	t0,a3,t3
   1519c:	0068f363          	bgeu	a7,t1,151a2 <__muldf3+0x248>
   151a0:	92f6                	add	t0,t0,t4
   151a2:	6fc1                	lui	t6,0x10
   151a4:	ffff8313          	addi	t1,t6,-1 # ffff <MCU_SECTORSIZE+0xefff>
   151a8:	0067f533          	and	a0,a5,t1
   151ac:	0107d393          	srli	t2,a5,0x10
   151b0:	0068f7b3          	and	a5,a7,t1
   151b4:	07c2                	slli	a5,a5,0x10
   151b6:	00667333          	and	t1,a2,t1
   151ba:	933e                	add	t1,t1,a5
   151bc:	02950633          	mul	a2,a0,s1
   151c0:	0108d893          	srli	a7,a7,0x10
   151c4:	02a687b3          	mul	a5,a3,a0
   151c8:	01065f13          	srli	t5,a2,0x10
   151cc:	029384b3          	mul	s1,t2,s1
   151d0:	94be                	add	s1,s1,a5
   151d2:	94fa                	add	s1,s1,t5
   151d4:	02768eb3          	mul	t4,a3,t2
   151d8:	00f4f363          	bgeu	s1,a5,151de <__muldf3+0x284>
   151dc:	9efe                	add	t4,t4,t6
   151de:	6a41                	lui	s4,0x10
   151e0:	fffa0793          	addi	a5,s4,-1 # ffff <MCU_SECTORSIZE+0xefff>
   151e4:	01045f93          	srli	t6,s0,0x10
   151e8:	00f476b3          	and	a3,s0,a5
   151ec:	00f4f9b3          	and	s3,s1,a5
   151f0:	8e7d                	and	a2,a2,a5
   151f2:	80c1                	srli	s1,s1,0x10
   151f4:	02d58433          	mul	s0,a1,a3
   151f8:	09c2                	slli	s3,s3,0x10
   151fa:	01d48f33          	add	t5,s1,t4
   151fe:	99b2                	add	s3,s3,a2
   15200:	98ce                	add	a7,a7,s3
   15202:	02de07b3          	mul	a5,t3,a3
   15206:	01045e93          	srli	t4,s0,0x10
   1520a:	02bf85b3          	mul	a1,t6,a1
   1520e:	97ae                	add	a5,a5,a1
   15210:	9ebe                	add	t4,t4,a5
   15212:	03fe0e33          	mul	t3,t3,t6
   15216:	00bef363          	bgeu	t4,a1,1521c <__muldf3+0x2c2>
   1521a:	9e52                	add	t3,t3,s4
   1521c:	67c1                	lui	a5,0x10
   1521e:	fff78593          	addi	a1,a5,-1 # ffff <MCU_SECTORSIZE+0xefff>
   15222:	00bef633          	and	a2,t4,a1
   15226:	8c6d                	and	s0,s0,a1
   15228:	0642                	slli	a2,a2,0x10
   1522a:	9622                	add	a2,a2,s0
   1522c:	010ede93          	srli	t4,t4,0x10
   15230:	02d505b3          	mul	a1,a0,a3
   15234:	9e76                	add	t3,t3,t4
   15236:	02af8533          	mul	a0,t6,a0
   1523a:	0105d413          	srli	s0,a1,0x10
   1523e:	02d386b3          	mul	a3,t2,a3
   15242:	96aa                	add	a3,a3,a0
   15244:	96a2                	add	a3,a3,s0
   15246:	03f38fb3          	mul	t6,t2,t6
   1524a:	00a6f363          	bgeu	a3,a0,15250 <__muldf3+0x2f6>
   1524e:	9fbe                	add	t6,t6,a5
   15250:	6541                	lui	a0,0x10
   15252:	157d                	addi	a0,a0,-1
   15254:	00a6f7b3          	and	a5,a3,a0
   15258:	07c2                	slli	a5,a5,0x10
   1525a:	8d6d                	and	a0,a0,a1
   1525c:	97aa                	add	a5,a5,a0
   1525e:	005885b3          	add	a1,a7,t0
   15262:	0135b9b3          	sltu	s3,a1,s3
   15266:	97fa                	add	a5,a5,t5
   15268:	95b2                	add	a1,a1,a2
   1526a:	01378433          	add	s0,a5,s3
   1526e:	00c5b633          	sltu	a2,a1,a2
   15272:	01c40eb3          	add	t4,s0,t3
   15276:	00ce8533          	add	a0,t4,a2
   1527a:	01343433          	sltu	s0,s0,s3
   1527e:	01e7b7b3          	sltu	a5,a5,t5
   15282:	8fc1                	or	a5,a5,s0
   15284:	01cebe33          	sltu	t3,t4,t3
   15288:	0106d413          	srli	s0,a3,0x10
   1528c:	00c53633          	sltu	a2,a0,a2
   15290:	943e                	add	s0,s0,a5
   15292:	00ce6633          	or	a2,t3,a2
   15296:	00959493          	slli	s1,a1,0x9
   1529a:	9432                	add	s0,s0,a2
   1529c:	947e                	add	s0,s0,t6
   1529e:	0064e4b3          	or	s1,s1,t1
   152a2:	0426                	slli	s0,s0,0x9
   152a4:	01755693          	srli	a3,a0,0x17
   152a8:	009034b3          	snez	s1,s1
   152ac:	81dd                	srli	a1,a1,0x17
   152ae:	00951793          	slli	a5,a0,0x9
   152b2:	8ccd                	or	s1,s1,a1
   152b4:	8c55                	or	s0,s0,a3
   152b6:	8cdd                	or	s1,s1,a5
   152b8:	00741793          	slli	a5,s0,0x7
   152bc:	0007db63          	bgez	a5,152d2 <__muldf3+0x378>
   152c0:	0014d793          	srli	a5,s1,0x1
   152c4:	8885                	andi	s1,s1,1
   152c6:	01f41693          	slli	a3,s0,0x1f
   152ca:	8cdd                	or	s1,s1,a5
   152cc:	8cd5                	or	s1,s1,a3
   152ce:	8005                	srli	s0,s0,0x1
   152d0:	8942                	mv	s2,a6
   152d2:	3ff90793          	addi	a5,s2,1023
   152d6:	08f05d63          	blez	a5,15370 <__muldf3+0x416>
   152da:	0074f693          	andi	a3,s1,7
   152de:	ce81                	beqz	a3,152f6 <__muldf3+0x39c>
   152e0:	00f4f693          	andi	a3,s1,15
   152e4:	4611                	li	a2,4
   152e6:	00c68863          	beq	a3,a2,152f6 <__muldf3+0x39c>
   152ea:	00448693          	addi	a3,s1,4
   152ee:	0096b4b3          	sltu	s1,a3,s1
   152f2:	9426                	add	s0,s0,s1
   152f4:	84b6                	mv	s1,a3
   152f6:	00741693          	slli	a3,s0,0x7
   152fa:	0006d863          	bgez	a3,1530a <__muldf3+0x3b0>
   152fe:	ff0007b7          	lui	a5,0xff000
   15302:	17fd                	addi	a5,a5,-1
   15304:	8c7d                	and	s0,s0,a5
   15306:	40090793          	addi	a5,s2,1024
   1530a:	7fe00693          	li	a3,2046
   1530e:	10f6c363          	blt	a3,a5,15414 <__muldf3+0x4ba>
   15312:	0034d693          	srli	a3,s1,0x3
   15316:	01d41493          	slli	s1,s0,0x1d
   1531a:	0426                	slli	s0,s0,0x9
   1531c:	8cd5                	or	s1,s1,a3
   1531e:	8031                	srli	s0,s0,0xc
   15320:	7ff7f793          	andi	a5,a5,2047
   15324:	bb01                	j	15034 <__muldf3+0xda>
   15326:	8532                	mv	a0,a2
   15328:	c432                	sw	a2,8(sp)
   1532a:	00001097          	auipc	ra,0x1
   1532e:	a70080e7          	jalr	-1424(ra) # 15d9a <__clzsi2>
   15332:	01550693          	addi	a3,a0,21 # 10015 <MCU_SECTORSIZE+0xf015>
   15336:	47f1                	li	a5,28
   15338:	02050713          	addi	a4,a0,32
   1533c:	4622                	lw	a2,8(sp)
   1533e:	dad7dfe3          	bge	a5,a3,150fc <__muldf3+0x1a2>
   15342:	1561                	addi	a0,a0,-8
   15344:	00a617b3          	sll	a5,a2,a0
   15348:	4581                	li	a1,0
   1534a:	b3e9                	j	15114 <__muldf3+0x1ba>
   1534c:	00001097          	auipc	ra,0x1
   15350:	a4e080e7          	jalr	-1458(ra) # 15d9a <__clzsi2>
   15354:	01550713          	addi	a4,a0,21
   15358:	45f1                	li	a1,28
   1535a:	02050793          	addi	a5,a0,32
   1535e:	4622                	lw	a2,8(sp)
   15360:	46b2                	lw	a3,12(sp)
   15362:	d2e5dfe3          	bge	a1,a4,150a0 <__muldf3+0x146>
   15366:	1561                	addi	a0,a0,-8
   15368:	00aa1433          	sll	s0,s4,a0
   1536c:	4481                	li	s1,0
   1536e:	b3a9                	j	150b8 <__muldf3+0x15e>
   15370:	4685                	li	a3,1
   15372:	8e9d                	sub	a3,a3,a5
   15374:	e7b1                	bnez	a5,153c0 <__muldf3+0x466>
   15376:	41e90913          	addi	s2,s2,1054
   1537a:	012497b3          	sll	a5,s1,s2
   1537e:	00d4d4b3          	srl	s1,s1,a3
   15382:	01241933          	sll	s2,s0,s2
   15386:	00f037b3          	snez	a5,a5
   1538a:	009964b3          	or	s1,s2,s1
   1538e:	8cdd                	or	s1,s1,a5
   15390:	0074f793          	andi	a5,s1,7
   15394:	00d456b3          	srl	a3,s0,a3
   15398:	cf81                	beqz	a5,153b0 <__muldf3+0x456>
   1539a:	00f4f793          	andi	a5,s1,15
   1539e:	4611                	li	a2,4
   153a0:	00c78863          	beq	a5,a2,153b0 <__muldf3+0x456>
   153a4:	00448793          	addi	a5,s1,4
   153a8:	0097b4b3          	sltu	s1,a5,s1
   153ac:	96a6                	add	a3,a3,s1
   153ae:	84be                	mv	s1,a5
   153b0:	00869793          	slli	a5,a3,0x8
   153b4:	0407d863          	bgez	a5,15404 <__muldf3+0x4aa>
   153b8:	4785                	li	a5,1
   153ba:	4401                	li	s0,0
   153bc:	4481                	li	s1,0
   153be:	b99d                	j	15034 <__muldf3+0xda>
   153c0:	03800613          	li	a2,56
   153c4:	cad649e3          	blt	a2,a3,15076 <__muldf3+0x11c>
   153c8:	467d                	li	a2,31
   153ca:	fad656e3          	bge	a2,a3,15376 <__muldf3+0x41c>
   153ce:	5605                	li	a2,-31
   153d0:	40f607b3          	sub	a5,a2,a5
   153d4:	02000593          	li	a1,32
   153d8:	00f45633          	srl	a2,s0,a5
   153dc:	00b68763          	beq	a3,a1,153ea <__muldf3+0x490>
   153e0:	43e90913          	addi	s2,s2,1086
   153e4:	012417b3          	sll	a5,s0,s2
   153e8:	8cdd                	or	s1,s1,a5
   153ea:	009034b3          	snez	s1,s1
   153ee:	8cd1                	or	s1,s1,a2
   153f0:	0074f693          	andi	a3,s1,7
   153f4:	4401                	li	s0,0
   153f6:	ca99                	beqz	a3,1540c <__muldf3+0x4b2>
   153f8:	00f4f793          	andi	a5,s1,15
   153fc:	4611                	li	a2,4
   153fe:	4681                	li	a3,0
   15400:	fac792e3          	bne	a5,a2,153a4 <__muldf3+0x44a>
   15404:	00969413          	slli	s0,a3,0x9
   15408:	8031                	srli	s0,s0,0xc
   1540a:	06f6                	slli	a3,a3,0x1d
   1540c:	808d                	srli	s1,s1,0x3
   1540e:	8cd5                	or	s1,s1,a3
   15410:	4781                	li	a5,0
   15412:	b10d                	j	15034 <__muldf3+0xda>
   15414:	7ff00793          	li	a5,2047
   15418:	4401                	li	s0,0
   1541a:	4481                	li	s1,0
   1541c:	b921                	j	15034 <__muldf3+0xda>
   1541e:	8942                	mv	s2,a6
   15420:	bd4d                	j	152d2 <__muldf3+0x378>

00015422 <__subdf3>:
__subdf3():
   15422:	00100737          	lui	a4,0x100
   15426:	177d                	addi	a4,a4,-1
   15428:	1101                	addi	sp,sp,-32
   1542a:	00b77333          	and	t1,a4,a1
   1542e:	0146d893          	srli	a7,a3,0x14
   15432:	8f75                	and	a4,a4,a3
   15434:	01d65e93          	srli	t4,a2,0x1d
   15438:	cc22                	sw	s0,24(sp)
   1543a:	ca26                	sw	s1,20(sp)
   1543c:	030e                	slli	t1,t1,0x3
   1543e:	0145d493          	srli	s1,a1,0x14
   15442:	01d55793          	srli	a5,a0,0x1d
   15446:	070e                	slli	a4,a4,0x3
   15448:	ce06                	sw	ra,28(sp)
   1544a:	c84a                	sw	s2,16(sp)
   1544c:	c64e                	sw	s3,12(sp)
   1544e:	7ff8f893          	andi	a7,a7,2047
   15452:	7ff00e13          	li	t3,2047
   15456:	00eee733          	or	a4,t4,a4
   1545a:	7ff4f493          	andi	s1,s1,2047
   1545e:	01f5d413          	srli	s0,a1,0x1f
   15462:	0067e333          	or	t1,a5,t1
   15466:	00351f13          	slli	t5,a0,0x3
   1546a:	82fd                	srli	a3,a3,0x1f
   1546c:	00361e93          	slli	t4,a2,0x3
   15470:	19c88263          	beq	a7,t3,155f4 <__subdf3+0x1d2>
   15474:	0016c693          	xori	a3,a3,1
   15478:	411485b3          	sub	a1,s1,a7
   1547c:	12d40763          	beq	s0,a3,155aa <__subdf3+0x188>
   15480:	18b05363          	blez	a1,15606 <__subdf3+0x1e4>
   15484:	1a088d63          	beqz	a7,1563e <__subdf3+0x21c>
   15488:	008007b7          	lui	a5,0x800
   1548c:	8f5d                	or	a4,a4,a5
   1548e:	59c48563          	beq	s1,t3,15a18 <__subdf3+0x5f6>
   15492:	03800793          	li	a5,56
   15496:	34b7c863          	blt	a5,a1,157e6 <__subdf3+0x3c4>
   1549a:	47fd                	li	a5,31
   1549c:	48b7c963          	blt	a5,a1,1592e <__subdf3+0x50c>
   154a0:	02000793          	li	a5,32
   154a4:	8f8d                	sub	a5,a5,a1
   154a6:	00bed9b3          	srl	s3,t4,a1
   154aa:	00f71833          	sll	a6,a4,a5
   154ae:	00fe9eb3          	sll	t4,t4,a5
   154b2:	01386833          	or	a6,a6,s3
   154b6:	00b75733          	srl	a4,a4,a1
   154ba:	01d039b3          	snez	s3,t4
   154be:	01386833          	or	a6,a6,s3
   154c2:	40e30333          	sub	t1,t1,a4
   154c6:	410f09b3          	sub	s3,t5,a6
   154ca:	013f37b3          	sltu	a5,t5,s3
   154ce:	40f30633          	sub	a2,t1,a5
   154d2:	00861793          	slli	a5,a2,0x8
   154d6:	2407d563          	bgez	a5,15720 <__subdf3+0x2fe>
   154da:	00800937          	lui	s2,0x800
   154de:	197d                	addi	s2,s2,-1
   154e0:	01267933          	and	s2,a2,s2
   154e4:	2e090163          	beqz	s2,157c6 <__subdf3+0x3a4>
   154e8:	854a                	mv	a0,s2
   154ea:	00001097          	auipc	ra,0x1
   154ee:	8b0080e7          	jalr	-1872(ra) # 15d9a <__clzsi2>
   154f2:	ff850713          	addi	a4,a0,-8
   154f6:	02000793          	li	a5,32
   154fa:	8f99                	sub	a5,a5,a4
   154fc:	00f9d7b3          	srl	a5,s3,a5
   15500:	00e91633          	sll	a2,s2,a4
   15504:	8fd1                	or	a5,a5,a2
   15506:	00e999b3          	sll	s3,s3,a4
   1550a:	2a974463          	blt	a4,s1,157b2 <__subdf3+0x390>
   1550e:	8f05                	sub	a4,a4,s1
   15510:	00170613          	addi	a2,a4,1 # 100001 <_data_lma+0xe9c31>
   15514:	46fd                	li	a3,31
   15516:	3ac6c763          	blt	a3,a2,158c4 <__subdf3+0x4a2>
   1551a:	02000713          	li	a4,32
   1551e:	8f11                	sub	a4,a4,a2
   15520:	00c9d6b3          	srl	a3,s3,a2
   15524:	00e99833          	sll	a6,s3,a4
   15528:	00e79733          	sll	a4,a5,a4
   1552c:	8f55                	or	a4,a4,a3
   1552e:	01003833          	snez	a6,a6
   15532:	010769b3          	or	s3,a4,a6
   15536:	00c7d633          	srl	a2,a5,a2
   1553a:	4481                	li	s1,0
   1553c:	0079f793          	andi	a5,s3,7
   15540:	cf81                	beqz	a5,15558 <__subdf3+0x136>
   15542:	00f9f693          	andi	a3,s3,15
   15546:	4791                	li	a5,4
   15548:	00f68863          	beq	a3,a5,15558 <__subdf3+0x136>
   1554c:	00498693          	addi	a3,s3,4
   15550:	0136b833          	sltu	a6,a3,s3
   15554:	9642                	add	a2,a2,a6
   15556:	89b6                	mv	s3,a3
   15558:	00861793          	slli	a5,a2,0x8
   1555c:	1c07d663          	bgez	a5,15728 <__subdf3+0x306>
   15560:	00148713          	addi	a4,s1,1
   15564:	7ff00793          	li	a5,2047
   15568:	8805                	andi	s0,s0,1
   1556a:	20f70663          	beq	a4,a5,15776 <__subdf3+0x354>
   1556e:	ff8007b7          	lui	a5,0xff800
   15572:	17fd                	addi	a5,a5,-1
   15574:	8ff1                	and	a5,a5,a2
   15576:	01d79813          	slli	a6,a5,0x1d
   1557a:	0039d993          	srli	s3,s3,0x3
   1557e:	07a6                	slli	a5,a5,0x9
   15580:	01386833          	or	a6,a6,s3
   15584:	83b1                	srli	a5,a5,0xc
   15586:	7ff77713          	andi	a4,a4,2047
   1558a:	00c79693          	slli	a3,a5,0xc
   1558e:	0752                	slli	a4,a4,0x14
   15590:	82b1                	srli	a3,a3,0xc
   15592:	047e                	slli	s0,s0,0x1f
   15594:	8ed9                	or	a3,a3,a4
   15596:	8ec1                	or	a3,a3,s0
   15598:	40f2                	lw	ra,28(sp)
   1559a:	4462                	lw	s0,24(sp)
   1559c:	44d2                	lw	s1,20(sp)
   1559e:	4942                	lw	s2,16(sp)
   155a0:	49b2                	lw	s3,12(sp)
   155a2:	8542                	mv	a0,a6
   155a4:	85b6                	mv	a1,a3
   155a6:	6105                	addi	sp,sp,32
   155a8:	8082                	ret
   155aa:	0ab05663          	blez	a1,15656 <__subdf3+0x234>
   155ae:	12088a63          	beqz	a7,156e2 <__subdf3+0x2c0>
   155b2:	008007b7          	lui	a5,0x800
   155b6:	8f5d                	or	a4,a4,a5
   155b8:	2dc48963          	beq	s1,t3,1588a <__subdf3+0x468>
   155bc:	03800793          	li	a5,56
   155c0:	18b7c763          	blt	a5,a1,1574e <__subdf3+0x32c>
   155c4:	47fd                	li	a5,31
   155c6:	3cb7d463          	bge	a5,a1,1598e <__subdf3+0x56c>
   155ca:	fe058813          	addi	a6,a1,-32
   155ce:	02000793          	li	a5,32
   155d2:	010759b3          	srl	s3,a4,a6
   155d6:	00f58a63          	beq	a1,a5,155ea <__subdf3+0x1c8>
   155da:	04000793          	li	a5,64
   155de:	40b785b3          	sub	a1,a5,a1
   155e2:	00b71733          	sll	a4,a4,a1
   155e6:	00eeeeb3          	or	t4,t4,a4
   155ea:	01d03833          	snez	a6,t4
   155ee:	01386833          	or	a6,a6,s3
   155f2:	a295                	j	15756 <__subdf3+0x334>
   155f4:	01d767b3          	or	a5,a4,t4
   155f8:	80148593          	addi	a1,s1,-2047
   155fc:	e399                	bnez	a5,15602 <__subdf3+0x1e0>
   155fe:	0016c693          	xori	a3,a3,1
   15602:	04d40a63          	beq	s0,a3,15656 <__subdf3+0x234>
   15606:	e1d1                	bnez	a1,1568a <__subdf3+0x268>
   15608:	00148793          	addi	a5,s1,1
   1560c:	7fe7f793          	andi	a5,a5,2046
   15610:	1e079b63          	bnez	a5,15806 <__subdf3+0x3e4>
   15614:	01e367b3          	or	a5,t1,t5
   15618:	01d76833          	or	a6,a4,t4
   1561c:	16049263          	bnez	s1,15780 <__subdf3+0x35e>
   15620:	3c078463          	beqz	a5,159e8 <__subdf3+0x5c6>
   15624:	42081863          	bnez	a6,15a54 <__subdf3+0x632>
   15628:	00351813          	slli	a6,a0,0x3
   1562c:	01d31693          	slli	a3,t1,0x1d
   15630:	00385813          	srli	a6,a6,0x3
   15634:	0106e833          	or	a6,a3,a6
   15638:	00335793          	srli	a5,t1,0x3
   1563c:	a219                	j	15742 <__subdf3+0x320>
   1563e:	01d767b3          	or	a5,a4,t4
   15642:	1a078763          	beqz	a5,157f0 <__subdf3+0x3ce>
   15646:	fff58793          	addi	a5,a1,-1
   1564a:	3a078d63          	beqz	a5,15a04 <__subdf3+0x5e2>
   1564e:	23c58e63          	beq	a1,t3,1588a <__subdf3+0x468>
   15652:	85be                	mv	a1,a5
   15654:	bd3d                	j	15492 <__subdf3+0x70>
   15656:	1c059b63          	bnez	a1,1582c <__subdf3+0x40a>
   1565a:	00148693          	addi	a3,s1,1
   1565e:	7fe6f793          	andi	a5,a3,2046
   15662:	efc1                	bnez	a5,156fa <__subdf3+0x2d8>
   15664:	01e367b3          	or	a5,t1,t5
   15668:	36049263          	bnez	s1,159cc <__subdf3+0x5aa>
   1566c:	44078f63          	beqz	a5,15aca <__subdf3+0x6a8>
   15670:	01d767b3          	or	a5,a4,t4
   15674:	46079663          	bnez	a5,15ae0 <__subdf3+0x6be>
   15678:	050e                	slli	a0,a0,0x3
   1567a:	01d31813          	slli	a6,t1,0x1d
   1567e:	810d                	srli	a0,a0,0x3
   15680:	00a86833          	or	a6,a6,a0
   15684:	00335793          	srli	a5,t1,0x3
   15688:	a86d                	j	15742 <__subdf3+0x320>
   1568a:	409885b3          	sub	a1,a7,s1
   1568e:	20049963          	bnez	s1,158a0 <__subdf3+0x47e>
   15692:	01e367b3          	or	a5,t1,t5
   15696:	30078f63          	beqz	a5,159b4 <__subdf3+0x592>
   1569a:	fff58793          	addi	a5,a1,-1
   1569e:	40078b63          	beqz	a5,15ab4 <__subdf3+0x692>
   156a2:	7ff00513          	li	a0,2047
   156a6:	20a58563          	beq	a1,a0,158b0 <__subdf3+0x48e>
   156aa:	85be                	mv	a1,a5
   156ac:	03800793          	li	a5,56
   156b0:	2ab7c463          	blt	a5,a1,15958 <__subdf3+0x536>
   156b4:	47fd                	li	a5,31
   156b6:	3cb7ca63          	blt	a5,a1,15a8a <__subdf3+0x668>
   156ba:	02000793          	li	a5,32
   156be:	8f8d                	sub	a5,a5,a1
   156c0:	00f31833          	sll	a6,t1,a5
   156c4:	00bf5633          	srl	a2,t5,a1
   156c8:	00ff17b3          	sll	a5,t5,a5
   156cc:	00c86833          	or	a6,a6,a2
   156d0:	00f039b3          	snez	s3,a5
   156d4:	00b35333          	srl	t1,t1,a1
   156d8:	01386833          	or	a6,a6,s3
   156dc:	40670733          	sub	a4,a4,t1
   156e0:	a441                	j	15960 <__subdf3+0x53e>
   156e2:	01d767b3          	or	a5,a4,t4
   156e6:	10078563          	beqz	a5,157f0 <__subdf3+0x3ce>
   156ea:	fff58793          	addi	a5,a1,-1
   156ee:	20078163          	beqz	a5,158f0 <__subdf3+0x4ce>
   156f2:	2fc58263          	beq	a1,t3,159d6 <__subdf3+0x5b4>
   156f6:	85be                	mv	a1,a5
   156f8:	b5d1                	j	155bc <__subdf3+0x19a>
   156fa:	7ff00793          	li	a5,2047
   156fe:	06f68b63          	beq	a3,a5,15774 <__subdf3+0x352>
   15702:	9efa                	add	t4,t4,t5
   15704:	01eeb633          	sltu	a2,t4,t5
   15708:	00e307b3          	add	a5,t1,a4
   1570c:	97b2                	add	a5,a5,a2
   1570e:	01f79813          	slli	a6,a5,0x1f
   15712:	001ede93          	srli	t4,t4,0x1
   15716:	01d869b3          	or	s3,a6,t4
   1571a:	0017d613          	srli	a2,a5,0x1
   1571e:	84b6                	mv	s1,a3
   15720:	0079f793          	andi	a5,s3,7
   15724:	e0079fe3          	bnez	a5,15542 <__subdf3+0x120>
   15728:	01d61793          	slli	a5,a2,0x1d
   1572c:	0039d813          	srli	a6,s3,0x3
   15730:	00f86833          	or	a6,a6,a5
   15734:	85a6                	mv	a1,s1
   15736:	00365793          	srli	a5,a2,0x3
   1573a:	7ff00713          	li	a4,2047
   1573e:	06e58063          	beq	a1,a4,1579e <__subdf3+0x37c>
   15742:	07b2                	slli	a5,a5,0xc
   15744:	83b1                	srli	a5,a5,0xc
   15746:	7ff5f713          	andi	a4,a1,2047
   1574a:	8805                	andi	s0,s0,1
   1574c:	bd3d                	j	1558a <__subdf3+0x168>
   1574e:	01d76733          	or	a4,a4,t4
   15752:	00e03833          	snez	a6,a4
   15756:	01e809b3          	add	s3,a6,t5
   1575a:	01e9b7b3          	sltu	a5,s3,t5
   1575e:	00678633          	add	a2,a5,t1
   15762:	00861793          	slli	a5,a2,0x8
   15766:	fa07dde3          	bgez	a5,15720 <__subdf3+0x2fe>
   1576a:	0485                	addi	s1,s1,1
   1576c:	7ff00793          	li	a5,2047
   15770:	18f49e63          	bne	s1,a5,1590c <__subdf3+0x4ea>
   15774:	8805                	andi	s0,s0,1
   15776:	7ff00713          	li	a4,2047
   1577a:	4781                	li	a5,0
   1577c:	4801                	li	a6,0
   1577e:	b531                	j	1558a <__subdf3+0x168>
   15780:	10079363          	bnez	a5,15886 <__subdf3+0x464>
   15784:	3c080363          	beqz	a6,15b4a <__subdf3+0x728>
   15788:	00361813          	slli	a6,a2,0x3
   1578c:	01d71793          	slli	a5,a4,0x1d
   15790:	00385813          	srli	a6,a6,0x3
   15794:	00f86833          	or	a6,a6,a5
   15798:	8436                	mv	s0,a3
   1579a:	00375793          	srli	a5,a4,0x3
   1579e:	00f867b3          	or	a5,a6,a5
   157a2:	dbe9                	beqz	a5,15774 <__subdf3+0x352>
   157a4:	4401                	li	s0,0
   157a6:	7ff00713          	li	a4,2047
   157aa:	000807b7          	lui	a5,0x80
   157ae:	4801                	li	a6,0
   157b0:	bbe9                	j	1558a <__subdf3+0x168>
   157b2:	ff800637          	lui	a2,0xff800
   157b6:	167d                	addi	a2,a2,-1
   157b8:	8e7d                	and	a2,a2,a5
   157ba:	0079f793          	andi	a5,s3,7
   157be:	8c99                	sub	s1,s1,a4
   157c0:	d80791e3          	bnez	a5,15542 <__subdf3+0x120>
   157c4:	b795                	j	15728 <__subdf3+0x306>
   157c6:	854e                	mv	a0,s3
   157c8:	00000097          	auipc	ra,0x0
   157cc:	5d2080e7          	jalr	1490(ra) # 15d9a <__clzsi2>
   157d0:	01850713          	addi	a4,a0,24
   157d4:	47fd                	li	a5,31
   157d6:	d2e7d0e3          	bge	a5,a4,154f6 <__subdf3+0xd4>
   157da:	ff850613          	addi	a2,a0,-8
   157de:	00c997b3          	sll	a5,s3,a2
   157e2:	4981                	li	s3,0
   157e4:	b31d                	j	1550a <__subdf3+0xe8>
   157e6:	01d76833          	or	a6,a4,t4
   157ea:	01003833          	snez	a6,a6
   157ee:	b9e1                	j	154c6 <__subdf3+0xa4>
   157f0:	00351813          	slli	a6,a0,0x3
   157f4:	01d31793          	slli	a5,t1,0x1d
   157f8:	00385813          	srli	a6,a6,0x3
   157fc:	00f86833          	or	a6,a6,a5
   15800:	00335793          	srli	a5,t1,0x3
   15804:	bf1d                	j	1573a <__subdf3+0x318>
   15806:	41df09b3          	sub	s3,t5,t4
   1580a:	40e30933          	sub	s2,t1,a4
   1580e:	013f3633          	sltu	a2,t5,s3
   15812:	40c90933          	sub	s2,s2,a2
   15816:	00891793          	slli	a5,s2,0x8
   1581a:	2007ca63          	bltz	a5,15a2e <__subdf3+0x60c>
   1581e:	0129e833          	or	a6,s3,s2
   15822:	cc0811e3          	bnez	a6,154e4 <__subdf3+0xc2>
   15826:	4781                	li	a5,0
   15828:	4401                	li	s0,0
   1582a:	bf21                	j	15742 <__subdf3+0x320>
   1582c:	409885b3          	sub	a1,a7,s1
   15830:	14048163          	beqz	s1,15972 <__subdf3+0x550>
   15834:	008006b7          	lui	a3,0x800
   15838:	7ff00793          	li	a5,2047
   1583c:	00d36333          	or	t1,t1,a3
   15840:	20f88163          	beq	a7,a5,15a42 <__subdf3+0x620>
   15844:	03800793          	li	a5,56
   15848:	22b7cc63          	blt	a5,a1,15a80 <__subdf3+0x65e>
   1584c:	47fd                	li	a5,31
   1584e:	2cb7c963          	blt	a5,a1,15b20 <__subdf3+0x6fe>
   15852:	02000793          	li	a5,32
   15856:	8f8d                	sub	a5,a5,a1
   15858:	00f31833          	sll	a6,t1,a5
   1585c:	00bf56b3          	srl	a3,t5,a1
   15860:	00ff17b3          	sll	a5,t5,a5
   15864:	00d86833          	or	a6,a6,a3
   15868:	00f039b3          	snez	s3,a5
   1586c:	00b35333          	srl	t1,t1,a1
   15870:	01386833          	or	a6,a6,s3
   15874:	971a                	add	a4,a4,t1
   15876:	01d809b3          	add	s3,a6,t4
   1587a:	01d9b7b3          	sltu	a5,s3,t4
   1587e:	00e78633          	add	a2,a5,a4
   15882:	84c6                	mv	s1,a7
   15884:	bdf9                	j	15762 <__subdf3+0x340>
   15886:	f0081fe3          	bnez	a6,157a4 <__subdf3+0x382>
   1588a:	00351813          	slli	a6,a0,0x3
   1588e:	01d31793          	slli	a5,t1,0x1d
   15892:	00385813          	srli	a6,a6,0x3
   15896:	00f86833          	or	a6,a6,a5
   1589a:	00335793          	srli	a5,t1,0x3
   1589e:	b701                	j	1579e <__subdf3+0x37c>
   158a0:	00800537          	lui	a0,0x800
   158a4:	7ff00793          	li	a5,2047
   158a8:	00a36333          	or	t1,t1,a0
   158ac:	e0f890e3          	bne	a7,a5,156ac <__subdf3+0x28a>
   158b0:	060e                	slli	a2,a2,0x3
   158b2:	01d71813          	slli	a6,a4,0x1d
   158b6:	820d                	srli	a2,a2,0x3
   158b8:	00c86833          	or	a6,a6,a2
   158bc:	00375793          	srli	a5,a4,0x3
   158c0:	8436                	mv	s0,a3
   158c2:	bdf1                	j	1579e <__subdf3+0x37c>
   158c4:	1705                	addi	a4,a4,-31
   158c6:	02000693          	li	a3,32
   158ca:	00e7d733          	srl	a4,a5,a4
   158ce:	00d60a63          	beq	a2,a3,158e2 <__subdf3+0x4c0>
   158d2:	04000693          	li	a3,64
   158d6:	40c68633          	sub	a2,a3,a2
   158da:	00c79633          	sll	a2,a5,a2
   158de:	00c9e9b3          	or	s3,s3,a2
   158e2:	01303833          	snez	a6,s3
   158e6:	00e869b3          	or	s3,a6,a4
   158ea:	4601                	li	a2,0
   158ec:	4481                	li	s1,0
   158ee:	bd0d                	j	15720 <__subdf3+0x2fe>
   158f0:	01df09b3          	add	s3,t5,t4
   158f4:	00e307b3          	add	a5,t1,a4
   158f8:	01e9bf33          	sltu	t5,s3,t5
   158fc:	01e78633          	add	a2,a5,t5
   15900:	00861793          	slli	a5,a2,0x8
   15904:	4485                	li	s1,1
   15906:	e007dde3          	bgez	a5,15720 <__subdf3+0x2fe>
   1590a:	4489                	li	s1,2
   1590c:	ff8007b7          	lui	a5,0xff800
   15910:	17fd                	addi	a5,a5,-1
   15912:	8ff1                	and	a5,a5,a2
   15914:	0019d713          	srli	a4,s3,0x1
   15918:	0019f813          	andi	a6,s3,1
   1591c:	01076833          	or	a6,a4,a6
   15920:	01f79993          	slli	s3,a5,0x1f
   15924:	0109e9b3          	or	s3,s3,a6
   15928:	0017d613          	srli	a2,a5,0x1
   1592c:	b901                	j	1553c <__subdf3+0x11a>
   1592e:	fe058813          	addi	a6,a1,-32
   15932:	02000793          	li	a5,32
   15936:	010759b3          	srl	s3,a4,a6
   1593a:	00f58a63          	beq	a1,a5,1594e <__subdf3+0x52c>
   1593e:	04000793          	li	a5,64
   15942:	40b785b3          	sub	a1,a5,a1
   15946:	00b71733          	sll	a4,a4,a1
   1594a:	00eeeeb3          	or	t4,t4,a4
   1594e:	01d03833          	snez	a6,t4
   15952:	01386833          	or	a6,a6,s3
   15956:	be85                	j	154c6 <__subdf3+0xa4>
   15958:	01e36333          	or	t1,t1,t5
   1595c:	00603833          	snez	a6,t1
   15960:	410e89b3          	sub	s3,t4,a6
   15964:	013eb7b3          	sltu	a5,t4,s3
   15968:	40f70633          	sub	a2,a4,a5
   1596c:	84c6                	mv	s1,a7
   1596e:	8436                	mv	s0,a3
   15970:	b68d                	j	154d2 <__subdf3+0xb0>
   15972:	01e367b3          	or	a5,t1,t5
   15976:	18078763          	beqz	a5,15b04 <__subdf3+0x6e2>
   1597a:	fff58793          	addi	a5,a1,-1
   1597e:	1c078c63          	beqz	a5,15b56 <__subdf3+0x734>
   15982:	7ff00693          	li	a3,2047
   15986:	0ad58e63          	beq	a1,a3,15a42 <__subdf3+0x620>
   1598a:	85be                	mv	a1,a5
   1598c:	bd65                	j	15844 <__subdf3+0x422>
   1598e:	02000793          	li	a5,32
   15992:	8f8d                	sub	a5,a5,a1
   15994:	00bed9b3          	srl	s3,t4,a1
   15998:	00f71833          	sll	a6,a4,a5
   1599c:	00fe9eb3          	sll	t4,t4,a5
   159a0:	01386833          	or	a6,a6,s3
   159a4:	00b75733          	srl	a4,a4,a1
   159a8:	01d039b3          	snez	s3,t4
   159ac:	01386833          	or	a6,a6,s3
   159b0:	933a                	add	t1,t1,a4
   159b2:	b355                	j	15756 <__subdf3+0x334>
   159b4:	00361813          	slli	a6,a2,0x3
   159b8:	01d71793          	slli	a5,a4,0x1d
   159bc:	00385813          	srli	a6,a6,0x3
   159c0:	0107e833          	or	a6,a5,a6
   159c4:	8436                	mv	s0,a3
   159c6:	00375793          	srli	a5,a4,0x3
   159ca:	bb85                	j	1573a <__subdf3+0x318>
   159cc:	cbbd                	beqz	a5,15a42 <__subdf3+0x620>
   159ce:	01d76733          	or	a4,a4,t4
   159d2:	dc0719e3          	bnez	a4,157a4 <__subdf3+0x382>
   159d6:	050e                	slli	a0,a0,0x3
   159d8:	01d31813          	slli	a6,t1,0x1d
   159dc:	810d                	srli	a0,a0,0x3
   159de:	00a86833          	or	a6,a6,a0
   159e2:	00335793          	srli	a5,t1,0x3
   159e6:	bb65                	j	1579e <__subdf3+0x37c>
   159e8:	e2080fe3          	beqz	a6,15826 <__subdf3+0x404>
   159ec:	00361813          	slli	a6,a2,0x3
   159f0:	01d71793          	slli	a5,a4,0x1d
   159f4:	00385813          	srli	a6,a6,0x3
   159f8:	00f86833          	or	a6,a6,a5
   159fc:	8436                	mv	s0,a3
   159fe:	00375793          	srli	a5,a4,0x3
   15a02:	b381                	j	15742 <__subdf3+0x320>
   15a04:	41df09b3          	sub	s3,t5,t4
   15a08:	40e307b3          	sub	a5,t1,a4
   15a0c:	013f3f33          	sltu	t5,t5,s3
   15a10:	41e78633          	sub	a2,a5,t5
   15a14:	4485                	li	s1,1
   15a16:	bc75                	j	154d2 <__subdf3+0xb0>
   15a18:	00351813          	slli	a6,a0,0x3
   15a1c:	01d31693          	slli	a3,t1,0x1d
   15a20:	00385813          	srli	a6,a6,0x3
   15a24:	0106e833          	or	a6,a3,a6
   15a28:	00335793          	srli	a5,t1,0x3
   15a2c:	bb8d                	j	1579e <__subdf3+0x37c>
   15a2e:	41ee89b3          	sub	s3,t4,t5
   15a32:	40670633          	sub	a2,a4,t1
   15a36:	013eb933          	sltu	s2,t4,s3
   15a3a:	41260933          	sub	s2,a2,s2
   15a3e:	8436                	mv	s0,a3
   15a40:	b455                	j	154e4 <__subdf3+0xc2>
   15a42:	060e                	slli	a2,a2,0x3
   15a44:	01d71813          	slli	a6,a4,0x1d
   15a48:	820d                	srli	a2,a2,0x3
   15a4a:	00c86833          	or	a6,a6,a2
   15a4e:	00375793          	srli	a5,a4,0x3
   15a52:	b3b1                	j	1579e <__subdf3+0x37c>
   15a54:	41df09b3          	sub	s3,t5,t4
   15a58:	40e307b3          	sub	a5,t1,a4
   15a5c:	013f3633          	sltu	a2,t5,s3
   15a60:	40c78633          	sub	a2,a5,a2
   15a64:	00861793          	slli	a5,a2,0x8
   15a68:	0a07d763          	bgez	a5,15b16 <__subdf3+0x6f4>
   15a6c:	41ee89b3          	sub	s3,t4,t5
   15a70:	406707b3          	sub	a5,a4,t1
   15a74:	013ebeb3          	sltu	t4,t4,s3
   15a78:	41d78633          	sub	a2,a5,t4
   15a7c:	8436                	mv	s0,a3
   15a7e:	bc7d                	j	1553c <__subdf3+0x11a>
   15a80:	01e36333          	or	t1,t1,t5
   15a84:	00603833          	snez	a6,t1
   15a88:	b3fd                	j	15876 <__subdf3+0x454>
   15a8a:	fe058813          	addi	a6,a1,-32
   15a8e:	02000793          	li	a5,32
   15a92:	010359b3          	srl	s3,t1,a6
   15a96:	00f58a63          	beq	a1,a5,15aaa <__subdf3+0x688>
   15a9a:	04000793          	li	a5,64
   15a9e:	40b785b3          	sub	a1,a5,a1
   15aa2:	00b31333          	sll	t1,t1,a1
   15aa6:	006f6f33          	or	t5,t5,t1
   15aaa:	01e03833          	snez	a6,t5
   15aae:	01386833          	or	a6,a6,s3
   15ab2:	b57d                	j	15960 <__subdf3+0x53e>
   15ab4:	41ee89b3          	sub	s3,t4,t5
   15ab8:	406707b3          	sub	a5,a4,t1
   15abc:	013ebeb3          	sltu	t4,t4,s3
   15ac0:	41d78633          	sub	a2,a5,t4
   15ac4:	8436                	mv	s0,a3
   15ac6:	4485                	li	s1,1
   15ac8:	b429                	j	154d2 <__subdf3+0xb0>
   15aca:	00361813          	slli	a6,a2,0x3
   15ace:	01d71793          	slli	a5,a4,0x1d
   15ad2:	00385813          	srli	a6,a6,0x3
   15ad6:	00f86833          	or	a6,a6,a5
   15ada:	00375793          	srli	a5,a4,0x3
   15ade:	b195                	j	15742 <__subdf3+0x320>
   15ae0:	01df09b3          	add	s3,t5,t4
   15ae4:	00e307b3          	add	a5,t1,a4
   15ae8:	01e9bf33          	sltu	t5,s3,t5
   15aec:	01e78633          	add	a2,a5,t5
   15af0:	00861793          	slli	a5,a2,0x8
   15af4:	c207d6e3          	bgez	a5,15720 <__subdf3+0x2fe>
   15af8:	ff8007b7          	lui	a5,0xff800
   15afc:	17fd                	addi	a5,a5,-1
   15afe:	8e7d                	and	a2,a2,a5
   15b00:	4485                	li	s1,1
   15b02:	b939                	j	15720 <__subdf3+0x2fe>
   15b04:	060e                	slli	a2,a2,0x3
   15b06:	01d71813          	slli	a6,a4,0x1d
   15b0a:	820d                	srli	a2,a2,0x3
   15b0c:	00c86833          	or	a6,a6,a2
   15b10:	00375793          	srli	a5,a4,0x3
   15b14:	b11d                	j	1573a <__subdf3+0x318>
   15b16:	00c9e833          	or	a6,s3,a2
   15b1a:	d00806e3          	beqz	a6,15826 <__subdf3+0x404>
   15b1e:	b109                	j	15720 <__subdf3+0x2fe>
   15b20:	fe058813          	addi	a6,a1,-32
   15b24:	02000793          	li	a5,32
   15b28:	010359b3          	srl	s3,t1,a6
   15b2c:	00f58a63          	beq	a1,a5,15b40 <__subdf3+0x71e>
   15b30:	04000793          	li	a5,64
   15b34:	40b785b3          	sub	a1,a5,a1
   15b38:	00b31333          	sll	t1,t1,a1
   15b3c:	006f6f33          	or	t5,t5,t1
   15b40:	01e03833          	snez	a6,t5
   15b44:	01386833          	or	a6,a6,s3
   15b48:	b33d                	j	15876 <__subdf3+0x454>
   15b4a:	4401                	li	s0,0
   15b4c:	7ff00713          	li	a4,2047
   15b50:	000807b7          	lui	a5,0x80
   15b54:	bc1d                	j	1558a <__subdf3+0x168>
   15b56:	01df09b3          	add	s3,t5,t4
   15b5a:	00e307b3          	add	a5,t1,a4
   15b5e:	01d9beb3          	sltu	t4,s3,t4
   15b62:	01d78633          	add	a2,a5,t4
   15b66:	bb69                	j	15900 <__subdf3+0x4de>

00015b68 <__fixunsdfdi>:
__fixunsdfdi():
   15b68:	0145d793          	srli	a5,a1,0x14
   15b6c:	001006b7          	lui	a3,0x100
   15b70:	fff68713          	addi	a4,a3,-1 # fffff <_data_lma+0xe9c2f>
   15b74:	7ff7f793          	andi	a5,a5,2047
   15b78:	3fe00613          	li	a2,1022
   15b7c:	8f6d                	and	a4,a4,a1
   15b7e:	81fd                	srli	a1,a1,0x1f
   15b80:	00f65363          	bge	a2,a5,15b86 <__fixunsdfdi+0x1e>
   15b84:	c581                	beqz	a1,15b8c <__fixunsdfdi+0x24>
   15b86:	4501                	li	a0,0
   15b88:	4581                	li	a1,0
   15b8a:	8082                	ret
   15b8c:	43e00613          	li	a2,1086
   15b90:	00f65563          	bge	a2,a5,15b9a <__fixunsdfdi+0x32>
   15b94:	557d                	li	a0,-1
   15b96:	55fd                	li	a1,-1
   15b98:	8082                	ret
   15b9a:	43200613          	li	a2,1074
   15b9e:	00d765b3          	or	a1,a4,a3
   15ba2:	00f65c63          	bge	a2,a5,15bba <__fixunsdfdi+0x52>
   15ba6:	bad78713          	addi	a4,a5,-1107 # 7fbad <_data_lma+0x697dd>
   15baa:	bcd78793          	addi	a5,a5,-1075
   15bae:	04074063          	bltz	a4,15bee <__fixunsdfdi+0x86>
   15bb2:	00e515b3          	sll	a1,a0,a4
   15bb6:	4501                	li	a0,0
   15bb8:	8082                	ret
   15bba:	43300693          	li	a3,1075
   15bbe:	8e9d                	sub	a3,a3,a5
   15bc0:	477d                	li	a4,31
   15bc2:	00d75b63          	bge	a4,a3,15bd8 <__fixunsdfdi+0x70>
   15bc6:	41300713          	li	a4,1043
   15bca:	40f707b3          	sub	a5,a4,a5
   15bce:	00f5d7b3          	srl	a5,a1,a5
   15bd2:	4581                	li	a1,0
   15bd4:	853e                	mv	a0,a5
   15bd6:	8082                	ret
   15bd8:	bed78713          	addi	a4,a5,-1043
   15bdc:	00e59733          	sll	a4,a1,a4
   15be0:	00d55533          	srl	a0,a0,a3
   15be4:	00a767b3          	or	a5,a4,a0
   15be8:	00d5d5b3          	srl	a1,a1,a3
   15bec:	b7e5                	j	15bd4 <__fixunsdfdi+0x6c>
   15bee:	46fd                	li	a3,31
   15bf0:	00155713          	srli	a4,a0,0x1
   15bf4:	8e9d                	sub	a3,a3,a5
   15bf6:	00d75733          	srl	a4,a4,a3
   15bfa:	00f595b3          	sll	a1,a1,a5
   15bfe:	8dd9                	or	a1,a1,a4
   15c00:	00f51533          	sll	a0,a0,a5
   15c04:	8082                	ret

00015c06 <__floatundidf>:
__floatundidf():
   15c06:	00b567b3          	or	a5,a0,a1
   15c0a:	c3b1                	beqz	a5,15c4e <__floatundidf+0x48>
   15c0c:	1141                	addi	sp,sp,-16
   15c0e:	c422                	sw	s0,8(sp)
   15c10:	c226                	sw	s1,4(sp)
   15c12:	c04a                	sw	s2,0(sp)
   15c14:	c606                	sw	ra,12(sp)
   15c16:	84aa                	mv	s1,a0
   15c18:	892e                	mv	s2,a1
   15c1a:	842e                	mv	s0,a1
   15c1c:	c1b9                	beqz	a1,15c62 <__floatundidf+0x5c>
   15c1e:	852e                	mv	a0,a1
   15c20:	00000097          	auipc	ra,0x0
   15c24:	17a080e7          	jalr	378(ra) # 15d9a <__clzsi2>
   15c28:	43e00693          	li	a3,1086
   15c2c:	8e89                	sub	a3,a3,a0
   15c2e:	43300793          	li	a5,1075
   15c32:	06d7c763          	blt	a5,a3,15ca0 <__floatundidf+0x9a>
   15c36:	00c91793          	slli	a5,s2,0xc
   15c3a:	462d                	li	a2,11
   15c3c:	8726                	mv	a4,s1
   15c3e:	7ff6f693          	andi	a3,a3,2047
   15c42:	83b1                	srli	a5,a5,0xc
   15c44:	0ca65f63          	bge	a2,a0,15d22 <__floatundidf+0x11c>
   15c48:	ff550613          	addi	a2,a0,-11 # 7ffff5 <_data_lma+0x7e9c25>
   15c4c:	a825                	j	15c84 <__floatundidf+0x7e>
   15c4e:	4781                	li	a5,0
   15c50:	4681                	li	a3,0
   15c52:	07b2                	slli	a5,a5,0xc
   15c54:	06d2                	slli	a3,a3,0x14
   15c56:	83b1                	srli	a5,a5,0xc
   15c58:	4701                	li	a4,0
   15c5a:	8fd5                	or	a5,a5,a3
   15c5c:	853a                	mv	a0,a4
   15c5e:	85be                	mv	a1,a5
   15c60:	8082                	ret
   15c62:	00000097          	auipc	ra,0x0
   15c66:	138080e7          	jalr	312(ra) # 15d9a <__clzsi2>
   15c6a:	862a                	mv	a2,a0
   15c6c:	43e00693          	li	a3,1086
   15c70:	02050513          	addi	a0,a0,32
   15c74:	8e89                	sub	a3,a3,a0
   15c76:	02a00713          	li	a4,42
   15c7a:	7ff6f693          	andi	a3,a3,2047
   15c7e:	0ca74c63          	blt	a4,a0,15d56 <__floatundidf+0x150>
   15c82:	0655                	addi	a2,a2,21
   15c84:	02b00713          	li	a4,43
   15c88:	8f09                	sub	a4,a4,a0
   15c8a:	00c917b3          	sll	a5,s2,a2
   15c8e:	00e4d733          	srl	a4,s1,a4
   15c92:	8f5d                	or	a4,a4,a5
   15c94:	00c71793          	slli	a5,a4,0xc
   15c98:	83b1                	srli	a5,a5,0xc
   15c9a:	00c49733          	sll	a4,s1,a2
   15c9e:	a051                	j	15d22 <__floatundidf+0x11c>
   15ca0:	43600793          	li	a5,1078
   15ca4:	02d7d963          	bge	a5,a3,15cd6 <__floatundidf+0xd0>
   15ca8:	01850713          	addi	a4,a0,24
   15cac:	03850793          	addi	a5,a0,56
   15cb0:	0c074763          	bltz	a4,15d7e <__floatundidf+0x178>
   15cb4:	00e49633          	sll	a2,s1,a4
   15cb8:	4701                	li	a4,0
   15cba:	4421                	li	s0,8
   15cbc:	8c09                	sub	s0,s0,a0
   15cbe:	8f51                	or	a4,a4,a2
   15cc0:	fe040793          	addi	a5,s0,-32 # 7ffe0 <_data_lma+0x69c10>
   15cc4:	00e03733          	snez	a4,a4
   15cc8:	0807cf63          	bltz	a5,15d66 <__floatundidf+0x160>
   15ccc:	00f954b3          	srl	s1,s2,a5
   15cd0:	4781                	li	a5,0
   15cd2:	8cd9                	or	s1,s1,a4
   15cd4:	843e                	mv	s0,a5
   15cd6:	47a1                	li	a5,8
   15cd8:	06a7c163          	blt	a5,a0,15d3a <__floatundidf+0x134>
   15cdc:	ff800737          	lui	a4,0xff800
   15ce0:	177d                	addi	a4,a4,-1
   15ce2:	0074f613          	andi	a2,s1,7
   15ce6:	00e477b3          	and	a5,s0,a4
   15cea:	c605                	beqz	a2,15d12 <__floatundidf+0x10c>
   15cec:	00f4f613          	andi	a2,s1,15
   15cf0:	4591                	li	a1,4
   15cf2:	02b60063          	beq	a2,a1,15d12 <__floatundidf+0x10c>
   15cf6:	00448613          	addi	a2,s1,4
   15cfa:	009634b3          	sltu	s1,a2,s1
   15cfe:	97a6                	add	a5,a5,s1
   15d00:	00879593          	slli	a1,a5,0x8
   15d04:	0805d963          	bgez	a1,15d96 <__floatundidf+0x190>
   15d08:	43f00693          	li	a3,1087
   15d0c:	8ff9                	and	a5,a5,a4
   15d0e:	8e89                	sub	a3,a3,a0
   15d10:	84b2                	mv	s1,a2
   15d12:	01d79713          	slli	a4,a5,0x1d
   15d16:	808d                	srli	s1,s1,0x3
   15d18:	07a6                	slli	a5,a5,0x9
   15d1a:	8f45                	or	a4,a4,s1
   15d1c:	83b1                	srli	a5,a5,0xc
   15d1e:	7ff6f693          	andi	a3,a3,2047
   15d22:	40b2                	lw	ra,12(sp)
   15d24:	4422                	lw	s0,8(sp)
   15d26:	07b2                	slli	a5,a5,0xc
   15d28:	06d2                	slli	a3,a3,0x14
   15d2a:	83b1                	srli	a5,a5,0xc
   15d2c:	8fd5                	or	a5,a5,a3
   15d2e:	4492                	lw	s1,4(sp)
   15d30:	4902                	lw	s2,0(sp)
   15d32:	853a                	mv	a0,a4
   15d34:	85be                	mv	a1,a5
   15d36:	0141                	addi	sp,sp,16
   15d38:	8082                	ret
   15d3a:	02800713          	li	a4,40
   15d3e:	ff850613          	addi	a2,a0,-8
   15d42:	8f09                	sub	a4,a4,a0
   15d44:	00e4d733          	srl	a4,s1,a4
   15d48:	00c417b3          	sll	a5,s0,a2
   15d4c:	00f76433          	or	s0,a4,a5
   15d50:	00c494b3          	sll	s1,s1,a2
   15d54:	b761                	j	15cdc <__floatundidf+0xd6>
   15d56:	ff560793          	addi	a5,a2,-11 # ff7ffff5 <_eusrstack+0xdf7f7ff5>
   15d5a:	00f497b3          	sll	a5,s1,a5
   15d5e:	07b2                	slli	a5,a5,0xc
   15d60:	83b1                	srli	a5,a5,0xc
   15d62:	4701                	li	a4,0
   15d64:	bf7d                	j	15d22 <__floatundidf+0x11c>
   15d66:	467d                	li	a2,31
   15d68:	00191793          	slli	a5,s2,0x1
   15d6c:	8e01                	sub	a2,a2,s0
   15d6e:	00c797b3          	sll	a5,a5,a2
   15d72:	0084d4b3          	srl	s1,s1,s0
   15d76:	8cdd                	or	s1,s1,a5
   15d78:	008957b3          	srl	a5,s2,s0
   15d7c:	bf99                	j	15cd2 <__floatundidf+0xcc>
   15d7e:	467d                	li	a2,31
   15d80:	8e1d                	sub	a2,a2,a5
   15d82:	0014d713          	srli	a4,s1,0x1
   15d86:	00c75733          	srl	a4,a4,a2
   15d8a:	00f91633          	sll	a2,s2,a5
   15d8e:	8e59                	or	a2,a2,a4
   15d90:	00f49733          	sll	a4,s1,a5
   15d94:	b71d                	j	15cba <__floatundidf+0xb4>
   15d96:	84b2                	mv	s1,a2
   15d98:	bfad                	j	15d12 <__floatundidf+0x10c>

00015d9a <__clzsi2>:
__clzsi2():
   15d9a:	67c1                	lui	a5,0x10
   15d9c:	02f57e63          	bgeu	a0,a5,15dd8 <__clzsi2+0x3e>
   15da0:	0ff00793          	li	a5,255
   15da4:	02000713          	li	a4,32
   15da8:	00a7ec63          	bltu	a5,a0,15dc0 <__clzsi2+0x26>
   15dac:	00000797          	auipc	a5,0x0
   15db0:	52478793          	addi	a5,a5,1316 # 162d0 <__clz_tab>
   15db4:	97aa                	add	a5,a5,a0
   15db6:	0007c503          	lbu	a0,0(a5)
   15dba:	40a70533          	sub	a0,a4,a0
   15dbe:	8082                	ret
   15dc0:	8121                	srli	a0,a0,0x8
   15dc2:	00000797          	auipc	a5,0x0
   15dc6:	50e78793          	addi	a5,a5,1294 # 162d0 <__clz_tab>
   15dca:	97aa                	add	a5,a5,a0
   15dcc:	0007c503          	lbu	a0,0(a5)
   15dd0:	4761                	li	a4,24
   15dd2:	40a70533          	sub	a0,a4,a0
   15dd6:	8082                	ret
   15dd8:	010007b7          	lui	a5,0x1000
   15ddc:	00f56e63          	bltu	a0,a5,15df8 <__clzsi2+0x5e>
   15de0:	8161                	srli	a0,a0,0x18
   15de2:	00000797          	auipc	a5,0x0
   15de6:	4ee78793          	addi	a5,a5,1262 # 162d0 <__clz_tab>
   15dea:	97aa                	add	a5,a5,a0
   15dec:	0007c503          	lbu	a0,0(a5)
   15df0:	4721                	li	a4,8
   15df2:	40a70533          	sub	a0,a4,a0
   15df6:	8082                	ret
   15df8:	8141                	srli	a0,a0,0x10
   15dfa:	00000797          	auipc	a5,0x0
   15dfe:	4d678793          	addi	a5,a5,1238 # 162d0 <__clz_tab>
   15e02:	97aa                	add	a5,a5,a0
   15e04:	0007c503          	lbu	a0,0(a5)
   15e08:	4741                	li	a4,16
   15e0a:	40a70533          	sub	a0,a4,a0
   15e0e:	8082                	ret

00015e10 <strlen>:
strlen():
   15e10:	87aa                	mv	a5,a0
   15e12:	0785                	addi	a5,a5,1
   15e14:	fff7c703          	lbu	a4,-1(a5)
   15e18:	ff6d                	bnez	a4,15e12 <strlen+0x2>
   15e1a:	40a78533          	sub	a0,a5,a0
   15e1e:	157d                	addi	a0,a0,-1
   15e20:	8082                	ret
   15e22:	0000                	unimp
   15e24:	2d2d                	jal	1645e <_data_lma+0x8e>
   15e26:	2d2d                	jal	16460 <_data_lma+0x90>
   15e28:	2d2d                	jal	16462 <_data_lma+0x92>
   15e2a:	2d2d                	jal	16464 <_data_lma+0x94>
   15e2c:	2d2d                	jal	16466 <_data_lma+0x96>
   15e2e:	2d2d                	jal	16468 <_data_lma+0x98>
   15e30:	2d2d                	jal	1646a <_data_lma+0x9a>
   15e32:	2d2d                	jal	1646c <_data_lma+0x9c>
   15e34:	2d2d                	jal	1646e <_data_lma+0x9e>
   15e36:	2d2d                	jal	16470 <_data_lma+0xa0>
   15e38:	2d2d                	jal	16472 <_data_lma+0xa2>
   15e3a:	2d2d                	jal	16474 <_data_lma+0xa4>
   15e3c:	2d2d                	jal	16476 <_data_lma+0xa6>
   15e3e:	2d2d                	jal	16478 <_data_lma+0xa8>
   15e40:	2d2d                	jal	1647a <_data_lma+0xaa>
   15e42:	2d2d                	jal	1647c <_data_lma+0xac>
   15e44:	2d2d                	jal	1647e <_data_lma+0xae>
   15e46:	2d2d                	jal	16480 <_data_lma+0xb0>
   15e48:	2d2d                	jal	16482 <_data_lma+0xb2>
   15e4a:	2d2d                	jal	16484 <_data_lma+0xb4>
   15e4c:	2d2d                	jal	16486 <_data_lma+0xb6>
   15e4e:	2d2d                	jal	16488 <_data_lma+0xb8>
   15e50:	2d2d                	jal	1648a <_data_lma+0xba>
   15e52:	2d2d                	jal	1648c <_data_lma+0xbc>
   15e54:	2d2d                	jal	1648e <_data_lma+0xbe>
   15e56:	2d2d                	jal	16490 <_data_lma+0xc0>
   15e58:	2d2d                	jal	16492 <_data_lma+0xc2>
   15e5a:	2d2d                	jal	16494 <_data_lma+0xc4>
   15e5c:	2d2d                	jal	16496 <_data_lma+0xc6>
   15e5e:	0a2d                	addi	s4,s4,11
   15e60:	0000                	unimp
   15e62:	0000                	unimp
   15e64:	2d2d                	jal	1649e <_data_lma+0xce>
   15e66:	2d2d                	jal	164a0 <_data_lma+0xd0>
   15e68:	2d2d                	jal	164a2 <_data_lma+0xd2>
   15e6a:	2d2d                	jal	164a4 <_data_lma+0xd4>
   15e6c:	2d2d                	jal	164a6 <_data_lma+0xd6>
   15e6e:	2d2d                	jal	164a8 <_data_lma+0xd8>
   15e70:	2d2d                	jal	164aa <_data_lma+0xda>
   15e72:	2d2d                	jal	164ac <_data_lma+0xdc>
   15e74:	2d2d                	jal	164ae <_data_lma+0xde>
   15e76:	2d2d                	jal	164b0 <_data_lma+0xe0>
   15e78:	2d2d                	jal	164b2 <_data_lma+0xe2>
   15e7a:	2d2d                	jal	164b4 <_data_lma+0xe4>
   15e7c:	2d2d                	jal	164b6 <_data_lma+0xe6>
   15e7e:	2d2d                	jal	164b8 <_data_lma+0xe8>
   15e80:	2d2d                	jal	164ba <_data_lma+0xea>
   15e82:	2d2d                	jal	164bc <_data_lma+0xec>
   15e84:	2d2d                	jal	164be <_data_lma+0xee>
   15e86:	2d2d                	jal	164c0 <_data_lma+0xf0>
   15e88:	2d2d                	jal	164c2 <_data_lma+0xf2>
   15e8a:	2d2d                	jal	164c4 <_data_lma+0xf4>
   15e8c:	2d2d                	jal	164c6 <_data_lma+0xf6>
   15e8e:	2d2d                	jal	164c8 <_data_lma+0xf8>
   15e90:	2d2d                	jal	164ca <_data_lma+0xfa>
   15e92:	2d2d                	jal	164cc <_data_lma+0xfc>
   15e94:	2d2d                	jal	164ce <_data_lma+0xfe>
   15e96:	2d2d                	jal	164d0 <_data_lma+0x100>
   15e98:	2d2d                	jal	164d2 <_data_lma+0x102>
   15e9a:	2d2d                	jal	164d4 <_data_lma+0x104>
   15e9c:	2d2d                	jal	164d6 <_data_lma+0x106>
   15e9e:	2d2d                	jal	164d8 <_data_lma+0x108>
   15ea0:	000a                	c.slli	zero,0x2
   15ea2:	0000                	unimp
   15ea4:	efa1                	bnez	a5,15efc <strlen+0xec>
   15ea6:	f0bd                	bnez	s1,15e0c <__clzsi2+0x72>
   15ea8:	f9ba                	fsw	fa4,240(sp)
   15eaa:	abc2                	fsd	fa6,464(sp)
   15eac:	e1cc                	fsw	fa1,4(a1)
   15eae:	beca                	fsd	fs2,376(sp)
   15eb0:	efa1                	bnez	a5,15f08 <strlen+0xf8>
   15eb2:	2020                	fld	fs0,64(s0)
   15eb4:	2020                	fld	fs0,64(s0)
   15eb6:	2020                	fld	fs0,64(s0)
   15eb8:	2020                	fld	fs0,64(s0)
   15eba:	2020                	fld	fs0,64(s0)
   15ebc:	2020                	fld	fs0,64(s0)
   15ebe:	2020                	fld	fs0,64(s0)
   15ec0:	2020                	fld	fs0,64(s0)
   15ec2:	2020                	fld	fs0,64(s0)
   15ec4:	2020                	fld	fs0,64(s0)
   15ec6:	2020                	fld	fs0,64(s0)
   15ec8:	2020                	fld	fs0,64(s0)
   15eca:	2020                	fld	fs0,64(s0)
   15ecc:	2020                	fld	fs0,64(s0)
   15ece:	2020                	fld	fs0,64(s0)
   15ed0:	2020                	fld	fs0,64(s0)
   15ed2:	2020                	fld	fs0,64(s0)
   15ed4:	2020                	fld	fs0,64(s0)
   15ed6:	2020                	fld	fs0,64(s0)
   15ed8:	2020                	fld	fs0,64(s0)
   15eda:	2020                	fld	fs0,64(s0)
   15edc:	2020                	fld	fs0,64(s0)
   15ede:	2020                	fld	fs0,64(s0)
   15ee0:	0a20                	addi	s0,sp,280
   15ee2:	0000                	unimp
   15ee4:	bea1                	j	15a3c <__subdf3+0x61a>
   15ee6:	d0d6                	sw	s5,96(sp)
   15ee8:	c4ce                	sw	s3,72(sp)
   15eea:	c6b3fbc3          	fmadd.q	fs7,ft7,fa1,fs8
   15eee:	bfa1                	j	15e46 <strlen+0x36>
   15ef0:	b5434547          	0xb5434547
   15ef4:	4ec4                	lw	s1,28(a3)
   15ef6:	e0b1534f          	fnmadd.s	ft6,ft2,fa1,ft8,unknown
   15efa:	f2bfccb3          	0xf2bfccb3
   15efe:	dcbc                	sw	a5,120(s1)
   15f00:	4155a8a3          	sw	s5,1041(a1)
   15f04:	5452                	lw	s0,52(sp)
   15f06:	b9b9                	j	15b64 <__subdf3+0x742>
   15f08:	febc                	fsw	fa5,120(a3)
   15f0a:	e2b2                	fsw	fa2,68(sp)
   15f0c:	d4ca                	sw	s2,104(sp)
   15f0e:	f9d1                	bnez	a1,15ea2 <strlen+0x92>
   15f10:	fdc0                	fsw	fs0,60(a1)
   15f12:	2020a9a3          	sw	sp,531(ra)
   15f16:	2020                	fld	fs0,64(s0)
   15f18:	2020                	fld	fs0,64(s0)
   15f1a:	2020                	fld	fs0,64(s0)
   15f1c:	2020                	fld	fs0,64(s0)
   15f1e:	2020                	fld	fs0,64(s0)
   15f20:	2020                	fld	fs0,64(s0)
   15f22:	000a                	c.slli	zero,0x2
   15f24:	bea1                	j	15a7c <__subdf3+0x65a>
   15f26:	f2d0ccb3          	0xf2d0ccb3
   15f2a:	a6b9                	j	16278 <strlen+0x468>
   15f2c:	dcc4                	sw	s1,60(s1)
   15f2e:	bfa1                	j	15e86 <strlen+0x76>
   15f30:	2020                	fld	fs0,64(s0)
   15f32:	2020                	fld	fs0,64(s0)
   15f34:	2020                	fld	fs0,64(s0)
   15f36:	2020                	fld	fs0,64(s0)
   15f38:	2020                	fld	fs0,64(s0)
   15f3a:	2020                	fld	fs0,64(s0)
   15f3c:	2020                	fld	fs0,64(s0)
   15f3e:	2020                	fld	fs0,64(s0)
   15f40:	2020                	fld	fs0,64(s0)
   15f42:	2020                	fld	fs0,64(s0)
   15f44:	2020                	fld	fs0,64(s0)
   15f46:	2020                	fld	fs0,64(s0)
   15f48:	2020                	fld	fs0,64(s0)
   15f4a:	2020                	fld	fs0,64(s0)
   15f4c:	2020                	fld	fs0,64(s0)
   15f4e:	2020                	fld	fs0,64(s0)
   15f50:	2020                	fld	fs0,64(s0)
   15f52:	2020                	fld	fs0,64(s0)
   15f54:	2020                	fld	fs0,64(s0)
   15f56:	2020                	fld	fs0,64(s0)
   15f58:	2020                	fld	fs0,64(s0)
   15f5a:	2020                	fld	fs0,64(s0)
   15f5c:	2020                	fld	fs0,64(s0)
   15f5e:	2020                	fld	fs0,64(s0)
   15f60:	0a20                	addi	s0,sp,280
   15f62:	0000                	unimp
   15f64:	2020                	fld	fs0,64(s0)
   15f66:	2020                	fld	fs0,64(s0)
   15f68:	a220                	fsd	fs0,64(a2)
   15f6a:	20d9                	jal	16030 <strlen+0x220>
   15f6c:	b6c0                	fsd	fs0,168(a3)
   15f6e:	abc9                	j	16540 <_data_lma+0x170>
   15f70:	c1c9                	beqz	a1,15ff2 <strlen+0x1e2>
   15f72:	bba3b8cb          	fnmsub.d	fa7,ft7,fs10,fs7,rup
   15f76:	2020                	fld	fs0,64(s0)
   15f78:	2020                	fld	fs0,64(s0)
   15f7a:	2020                	fld	fs0,64(s0)
   15f7c:	2020                	fld	fs0,64(s0)
   15f7e:	2020                	fld	fs0,64(s0)
   15f80:	2020                	fld	fs0,64(s0)
   15f82:	2020                	fld	fs0,64(s0)
   15f84:	2020                	fld	fs0,64(s0)
   15f86:	2020                	fld	fs0,64(s0)
   15f88:	2020                	fld	fs0,64(s0)
   15f8a:	2020                	fld	fs0,64(s0)
   15f8c:	2020                	fld	fs0,64(s0)
   15f8e:	2020                	fld	fs0,64(s0)
   15f90:	2020                	fld	fs0,64(s0)
   15f92:	2020                	fld	fs0,64(s0)
   15f94:	2020                	fld	fs0,64(s0)
   15f96:	2020                	fld	fs0,64(s0)
   15f98:	2020                	fld	fs0,64(s0)
   15f9a:	2020                	fld	fs0,64(s0)
   15f9c:	2020                	fld	fs0,64(s0)
   15f9e:	2020                	fld	fs0,64(s0)
   15fa0:	0a20                	addi	s0,sp,280
   15fa2:	0000                	unimp
   15fa4:	2020                	fld	fs0,64(s0)
   15fa6:	2020                	fld	fs0,64(s0)
   15fa8:	a220                	fsd	fs0,64(a2)
   15faa:	20da                	fld	ft1,400(sp)
   15fac:	a7bbc3d3          	0xa7bbc3d3
   15fb0:	aeb4                	fsd	fa3,88(a3)
   15fb2:	d4d2dabf cfb6d0d6 	0xcfb6d0d6d4d2dabf
   15fba:	bdcabdb7          	lui	s11,0xbdcab
   15fbe:	d3bd                	beqz	a5,15f24 <strlen+0x114>
   15fc0:	d5ca                	sw	s2,232(sp)
   15fc2:	bbd2                	fsd	fs4,496(sp)
   15fc4:	f6b8                	fsw	fa4,104(a3)
   15fc6:	dabdd6d7          	0xdabdd6d7
   15fca:	d8bbaca3          	sw	a1,-615(s7)
   15fce:	bbd2a2b7          	lui	t0,0xbbd2a
   15fd2:	f6b8                	fsw	fa4,104(a3)
   15fd4:	dabdd6d7          	0xdabdd6d7
   15fd8:	a3a1                	j	16520 <_data_lma+0x150>
   15fda:	2020                	fld	fs0,64(s0)
   15fdc:	2020                	fld	fs0,64(s0)
   15fde:	2020                	fld	fs0,64(s0)
   15fe0:	2020                	fld	fs0,64(s0)
   15fe2:	0a20                	addi	s0,sp,280
   15fe4:	0000                	unimp
   15fe6:	0000                	unimp
   15fe8:	bea1                	j	15b40 <__subdf3+0x71e>
   15fea:	febcb2d3          	0xfebcb2d3
   15fee:	acc1                	j	162be <strlen+0x4ae>
   15ff0:	d3bd                	beqz	a5,15f56 <strlen+0x146>
   15ff2:	bfa1                	j	15f4a <strlen+0x13a>
   15ff4:	fbbc                	fsw	fa5,112(a5)
   15ff6:	beb1                	j	15b52 <__subdf3+0x730>
   15ff8:	a4b9                	j	16246 <strlen+0x436>
   15ffa:	3530ccb3          	0x3530ccb3
   15ffe:	555f 6573 4272      	0x42726573555f
   16004:	6472616f          	jal	sp,3ce4a <_data_lma+0x26a7a>
   16008:	c4ce                	sw	s3,72(sp)
   1600a:	febc                	fsw	fa5,120(a3)
   1600c:	d0bc                	sw	a5,96(s1)
   1600e:	7375c2cf          	fnmadd.d	ft5,fa1,fs7,fa4,rmm
   16012:	7265                	lui	tp,0xffff9
   16014:	682e                	flw	fa6,200(sp)
   16016:	c4ce                	sw	s3,72(sp)
   16018:	febc                	fsw	fa5,120(a3)
   1601a:	2020                	fld	fs0,64(s0)
   1601c:	2020                	fld	fs0,64(s0)
   1601e:	2020                	fld	fs0,64(s0)
   16020:	2020                	fld	fs0,64(s0)
   16022:	2020                	fld	fs0,64(s0)
   16024:	2020                	fld	fs0,64(s0)
   16026:	000a                	c.slli	zero,0x2
   16028:	bea1                	j	15b80 <__fixunsdfdi+0x18>
   1602a:	d9b2                	sw	a2,240(sp)
   1602c:	b5cbf7d7          	0xb5cbf7d7
   16030:	bfa1f7c3          	fmadd.q	fa5,ft3,fs10,fs7
   16034:	a8cd                	j	16126 <strlen+0x316>
   16036:	fdb9                	bnez	a1,15f94 <strlen+0x184>
   16038:	cbb2                	sw	a2,212(sp)
   1603a:	a5b5                	j	166a6 <_data_lma+0x2d6>
   1603c:	b8c0                	fsd	fs0,176(s1)
   1603e:	b0a1                	j	15886 <__subdf3+0x464>
   16040:	a4b9                	j	1628e <strlen+0x47e>
   16042:	dfbe                	sw	a5,252(sp)
   16044:	b1a1                	j	15c8c <__floatundidf+0x86>
   16046:	faa1                	bnez	a3,15f96 <strlen+0x186>
   16048:	b0a1                	j	15890 <__subdf3+0x46e>
   1604a:	aeb4                	fsd	fa3,88(a3)
   1604c:	a4b9dabf b1a1dfbe 	0xb1a1dfbea4b9dabf
   16054:	2020                	fld	fs0,64(s0)
   16056:	2020                	fld	fs0,64(s0)
   16058:	2020                	fld	fs0,64(s0)
   1605a:	2020                	fld	fs0,64(s0)
   1605c:	2020                	fld	fs0,64(s0)
   1605e:	2020                	fld	fs0,64(s0)
   16060:	2020                	fld	fs0,64(s0)
   16062:	2020                	fld	fs0,64(s0)
   16064:	2020                	fld	fs0,64(s0)
   16066:	0a20                	addi	s0,sp,280
   16068:	0000                	unimp
   1606a:	0000                	unimp
   1606c:	4c20                	lw	s0,88(s0)
   1606e:	4749                	li	a4,18
   16070:	5448                	lw	a0,44(s0)
   16072:	425f 554c 3a45      	0x3a45554c425f
   16078:	20204e4f          	fnmadd.s	ft8,ft0,ft2,ft4,rmm
   1607c:	0a20                	addi	s0,sp,280
   1607e:	0000                	unimp
   16080:	b520                	fsd	fs0,104(a0)
   16082:	c9c6                	sw	a7,208(sp)
   16084:	cbc1                	beqz	a5,16114 <strlen+0x304>
   16086:	b4b8                	fsd	fa4,104(s1)
   16088:	cace                	sw	s3,84(sp)
   1608a:	6dfd                	lui	s11,0x1f
   1608c:	694c                	flw	fa1,20(a0)
   1608e:	43746867          	0x43746867
   16092:	746e756f          	jal	a0,fd7d8 <_data_lma+0xe7408>
   16096:	3d20                	fld	fs0,120(a0)
   16098:	2520                	fld	fs0,72(a0)
   1609a:	0a64                	addi	s1,sp,284
   1609c:	000a                	c.slli	zero,0x2
   1609e:	0000                	unimp
   160a0:	4c20                	lw	s0,88(s0)
   160a2:	4749                	li	a4,18
   160a4:	5448                	lw	a0,44(s0)
   160a6:	425f 554c 3a45      	0x3a45554c425f
   160ac:	2046464f          	fnmadd.s	fa2,fa2,ft4,ft4,rmm
   160b0:	0a20                	addi	s0,sp,280
   160b2:	0000                	unimp
   160b4:	2020                	fld	fs0,64(s0)
   160b6:	bea1                	j	15c0e <__floatundidf+0x8>
   160b8:	7355                	lui	t1,0xffff5
   160ba:	7265                	lui	tp,0xffff9
   160bc:	e1cc                	fsw	fa1,4(a1)
   160be:	beca                	fsd	fs2,376(sp)
   160c0:	bfa1                	j	16018 <strlen+0x208>
   160c2:	abbdbaa3          	0xabbdbaa3
   160c6:	f8bd                	bnez	s1,1603c <strlen+0x22c>
   160c8:	ebc8                	fsw	fa0,20(a5)
   160ca:	7355                	lui	t1,0xffff5
   160cc:	7265                	lui	tp,0xffff9
   160ce:	c4b5                	beqz	s1,1613a <strlen+0x32a>
   160d0:	616d                	addi	sp,sp,240
   160d2:	6e69                	lui	t3,0x1a
   160d4:	afba                	fsd	fa4,472(sp)
   160d6:	fdca                	fsw	fs2,248(sp)
   160d8:	b4d6                	fsd	fs5,104(sp)
   160da:	d0d0                	sw	a2,36(s1)
   160dc:	2e2e                	fld	ft8,200(sp)
   160de:	0d2e                	slli	s10,s10,0xb
   160e0:	0a0a                	slli	s4,s4,0x2
   160e2:	0000                	unimp
   160e4:	dace                	sw	s3,116(sp)
   160e6:	ffff                	0xffff
   160e8:	dad2                	sw	s4,116(sp)
   160ea:	ffff                	0xffff
   160ec:	daca                	sw	s2,116(sp)
   160ee:	ffff                	0xffff
   160f0:	dad8                	sw	a4,52(a3)
   160f2:	ffff                	0xffff
   160f4:	dac2                	sw	a6,116(sp)
   160f6:	ffff                	0xffff
   160f8:	dad8                	sw	a4,52(a3)
   160fa:	ffff                	0xffff
   160fc:	dabe                	sw	a5,116(sp)
   160fe:	ffff                	0xffff
   16100:	dad8                	sw	a4,52(a3)
   16102:	ffff                	0xffff
   16104:	dad8                	sw	a4,52(a3)
   16106:	ffff                	0xffff
   16108:	dad8                	sw	a4,52(a3)
   1610a:	ffff                	0xffff
   1610c:	dad8                	sw	a4,52(a3)
   1610e:	ffff                	0xffff
   16110:	dad8                	sw	a4,52(a3)
   16112:	ffff                	0xffff
   16114:	dac6                	sw	a7,116(sp)
   16116:	ffff                	0xffff
   16118:	da0a                	sw	sp,52(sp)
   1611a:	ffff                	0xffff
   1611c:	da0e                	sw	gp,52(sp)
   1611e:	ffff                	0xffff
   16120:	da06                	sw	ra,52(sp)
   16122:	ffff                	0xffff
   16124:	daa4                	sw	s1,112(a3)
   16126:	ffff                	0xffff
   16128:	d9fe                	sw	t6,240(sp)
   1612a:	ffff                	0xffff
   1612c:	daa4                	sw	s1,112(a3)
   1612e:	ffff                	0xffff
   16130:	d9fa                	sw	t5,240(sp)
   16132:	ffff                	0xffff
   16134:	daa4                	sw	s1,112(a3)
   16136:	ffff                	0xffff
   16138:	daa4                	sw	s1,112(a3)
   1613a:	ffff                	0xffff
   1613c:	daa4                	sw	s1,112(a3)
   1613e:	ffff                	0xffff
   16140:	daa4                	sw	s1,112(a3)
   16142:	ffff                	0xffff
   16144:	daa4                	sw	s1,112(a3)
   16146:	ffff                	0xffff
   16148:	da02                	sw	zero,52(sp)
   1614a:	ffff                	0xffff
   1614c:	da12                	sw	tp,52(sp)
   1614e:	ffff                	0xffff
   16150:	da16                	sw	t0,52(sp)
   16152:	ffff                	0xffff
   16154:	da0e                	sw	gp,52(sp)
   16156:	ffff                	0xffff
   16158:	da70                	sw	a2,116(a2)
   1615a:	ffff                	0xffff
   1615c:	da06                	sw	ra,52(sp)
   1615e:	ffff                	0xffff
   16160:	da70                	sw	a2,116(a2)
   16162:	ffff                	0xffff
   16164:	da02                	sw	zero,52(sp)
   16166:	ffff                	0xffff
   16168:	da70                	sw	a2,116(a2)
   1616a:	ffff                	0xffff
   1616c:	da70                	sw	a2,116(a2)
   1616e:	ffff                	0xffff
   16170:	da70                	sw	a2,116(a2)
   16172:	ffff                	0xffff
   16174:	da70                	sw	a2,116(a2)
   16176:	ffff                	0xffff
   16178:	da70                	sw	a2,116(a2)
   1617a:	ffff                	0xffff
   1617c:	da0a                	sw	sp,52(sp)
   1617e:	ffff                	0xffff
   16180:	da1a                	sw	t1,52(sp)
   16182:	ffff                	0xffff
   16184:	da1e                	sw	t2,52(sp)
   16186:	ffff                	0xffff
   16188:	da16                	sw	t0,52(sp)
   1618a:	ffff                	0xffff
   1618c:	da3c                	sw	a5,112(a2)
   1618e:	ffff                	0xffff
   16190:	da0e                	sw	gp,52(sp)
   16192:	ffff                	0xffff
   16194:	da3c                	sw	a5,112(a2)
   16196:	ffff                	0xffff
   16198:	da0a                	sw	sp,52(sp)
   1619a:	ffff                	0xffff
   1619c:	da3c                	sw	a5,112(a2)
   1619e:	ffff                	0xffff
   161a0:	da3c                	sw	a5,112(a2)
   161a2:	ffff                	0xffff
   161a4:	da3c                	sw	a5,112(a2)
   161a6:	ffff                	0xffff
   161a8:	da3c                	sw	a5,112(a2)
   161aa:	ffff                	0xffff
   161ac:	da3c                	sw	a5,112(a2)
   161ae:	ffff                	0xffff
   161b0:	da12                	sw	tp,52(sp)
   161b2:	ffff                	0xffff
   161b4:	df1e                	sw	t2,188(sp)
   161b6:	ffff                	0xffff
   161b8:	dfa0                	sw	s0,120(a5)
   161ba:	ffff                	0xffff
   161bc:	dfa0                	sw	s0,120(a5)
   161be:	ffff                	0xffff
   161c0:	df2a                	sw	a0,188(sp)
   161c2:	ffff                	0xffff
   161c4:	dfa0                	sw	s0,120(a5)
   161c6:	ffff                	0xffff
   161c8:	dfa0                	sw	s0,120(a5)
   161ca:	ffff                	0xffff
   161cc:	dfa0                	sw	s0,120(a5)
   161ce:	ffff                	0xffff
   161d0:	dfa0                	sw	s0,120(a5)
   161d2:	ffff                	0xffff
   161d4:	dfa0                	sw	s0,120(a5)
   161d6:	ffff                	0xffff
   161d8:	dfa0                	sw	s0,120(a5)
   161da:	ffff                	0xffff
   161dc:	dfa0                	sw	s0,120(a5)
   161de:	ffff                	0xffff
   161e0:	df18                	sw	a4,56(a4)
   161e2:	ffff                	0xffff
   161e4:	dfa0                	sw	s0,120(a5)
   161e6:	ffff                	0xffff
   161e8:	def4                	sw	a3,124(a3)
   161ea:	ffff                	0xffff
   161ec:	dfa0                	sw	s0,120(a5)
   161ee:	ffff                	0xffff
   161f0:	dfa0                	sw	s0,120(a5)
   161f2:	ffff                	0xffff
   161f4:	df24                	sw	s1,120(a4)
   161f6:	ffff                	0xffff
   161f8:	e18c                	fsw	fa1,0(a1)
   161fa:	ffff                	0xffff
   161fc:	e41a                	fsw	ft6,8(sp)
   161fe:	ffff                	0xffff
   16200:	e41a                	fsw	ft6,8(sp)
   16202:	ffff                	0xffff
   16204:	e41a                	fsw	ft6,8(sp)
   16206:	ffff                	0xffff
   16208:	e41a                	fsw	ft6,8(sp)
   1620a:	ffff                	0xffff
   1620c:	e41a                	fsw	ft6,8(sp)
   1620e:	ffff                	0xffff
   16210:	e41a                	fsw	ft6,8(sp)
   16212:	ffff                	0xffff
   16214:	e41a                	fsw	ft6,8(sp)
   16216:	ffff                	0xffff
   16218:	e41a                	fsw	ft6,8(sp)
   1621a:	ffff                	0xffff
   1621c:	e41a                	fsw	ft6,8(sp)
   1621e:	ffff                	0xffff
   16220:	e290                	fsw	fa2,0(a3)
   16222:	ffff                	0xffff
   16224:	e36c                	fsw	fa1,68(a4)
   16226:	ffff                	0xffff
   16228:	df9c                	sw	a5,56(a5)
   1622a:	ffff                	0xffff
   1622c:	e41a                	fsw	ft6,8(sp)
   1622e:	ffff                	0xffff
   16230:	e044                	fsw	fs1,4(s0)
   16232:	ffff                	0xffff
   16234:	e41a                	fsw	ft6,8(sp)
   16236:	ffff                	0xffff
   16238:	e41a                	fsw	ft6,8(sp)
   1623a:	ffff                	0xffff
   1623c:	df9c                	sw	a5,56(a5)
   1623e:	ffff                	0xffff
   16240:	e41a                	fsw	ft6,8(sp)
   16242:	ffff                	0xffff
   16244:	e41a                	fsw	ft6,8(sp)
   16246:	ffff                	0xffff
   16248:	e41a                	fsw	ft6,8(sp)
   1624a:	ffff                	0xffff
   1624c:	e41a                	fsw	ft6,8(sp)
   1624e:	ffff                	0xffff
   16250:	e40e                	fsw	ft3,8(sp)
   16252:	ffff                	0xffff
   16254:	e258                	fsw	fa4,4(a2)
   16256:	ffff                	0xffff
   16258:	e2b0                	fsw	fa2,64(a3)
   1625a:	ffff                	0xffff
   1625c:	e41a                	fsw	ft6,8(sp)
   1625e:	ffff                	0xffff
   16260:	e41a                	fsw	ft6,8(sp)
   16262:	ffff                	0xffff
   16264:	e384                	fsw	fs1,0(a5)
   16266:	ffff                	0xffff
   16268:	e41a                	fsw	ft6,8(sp)
   1626a:	ffff                	0xffff
   1626c:	e2d0                	fsw	fa2,4(a3)
   1626e:	ffff                	0xffff
   16270:	e41a                	fsw	ft6,8(sp)
   16272:	ffff                	0xffff
   16274:	e41a                	fsw	ft6,8(sp)
   16276:	ffff                	0xffff
   16278:	e18c                	fsw	fa1,0(a1)
   1627a:	ffff                	0xffff
	...
   16284:	0000                	unimp
   16286:	4024                	lw	s1,64(s0)
   16288:	999a                	add	s3,s3,t1
   1628a:	9999                	andi	a1,a1,-26
   1628c:	9999                	andi	a1,a1,-26
   1628e:	3fb9                	jal	161ec <strlen+0x3dc>
   16290:	eee2                	fsw	fs8,92(sp)
   16292:	ffff                	0xffff
   16294:	edcc                	fsw	fa1,28(a1)
   16296:	ffff                	0xffff
   16298:	edcc                	fsw	fa1,28(a1)
   1629a:	ffff                	0xffff
   1629c:	edca                	fsw	fs2,216(sp)
   1629e:	ffff                	0xffff
   162a0:	edd2                	fsw	fs4,216(sp)
   162a2:	ffff                	0xffff
   162a4:	edd2                	fsw	fs4,216(sp)
   162a6:	ffff                	0xffff
   162a8:	ed98                	fsw	fa4,24(a1)
   162aa:	ffff                	0xffff
   162ac:	edca                	fsw	fs2,216(sp)
   162ae:	ffff                	0xffff
   162b0:	edd2                	fsw	fs4,216(sp)
   162b2:	ffff                	0xffff
   162b4:	ed98                	fsw	fa4,24(a1)
   162b6:	ffff                	0xffff
   162b8:	edd2                	fsw	fs4,216(sp)
   162ba:	ffff                	0xffff
   162bc:	edca                	fsw	fs2,216(sp)
   162be:	ffff                	0xffff
   162c0:	eece                	fsw	fs3,92(sp)
   162c2:	ffff                	0xffff
   162c4:	eece                	fsw	fs3,92(sp)
   162c6:	ffff                	0xffff
   162c8:	eece                	fsw	fs3,92(sp)
   162ca:	ffff                	0xffff
   162cc:	ed98                	fsw	fa4,24(a1)
   162ce:	ffff                	0xffff

000162d0 <__clz_tab>:
   162d0:	0100 0202 0303 0303 0404 0404 0404 0404     ................
   162e0:	0505 0505 0505 0505 0505 0505 0505 0505     ................
   162f0:	0606 0606 0606 0606 0606 0606 0606 0606     ................
   16300:	0606 0606 0606 0606 0606 0606 0606 0606     ................
   16310:	0707 0707 0707 0707 0707 0707 0707 0707     ................
   16320:	0707 0707 0707 0707 0707 0707 0707 0707     ................
   16330:	0707 0707 0707 0707 0707 0707 0707 0707     ................
   16340:	0707 0707 0707 0707 0707 0707 0707 0707     ................
   16350:	0808 0808 0808 0808 0808 0808 0808 0808     ................
   16360:	0808 0808 0808 0808 0808 0808 0808 0808     ................
   16370:	0808 0808 0808 0808 0808 0808 0808 0808     ................
   16380:	0808 0808 0808 0808 0808 0808 0808 0808     ................
   16390:	0808 0808 0808 0808 0808 0808 0808 0808     ................
   163a0:	0808 0808 0808 0808 0808 0808 0808 0808     ................
   163b0:	0808 0808 0808 0808 0808 0808 0808 0808     ................
   163c0:	0808 0808 0808 0808 0808 0808 0808 0808     ................
