
GPIO-ASM-CH573.elf:     file format elf32-littleriscv
GPIO-ASM-CH573.elf
architecture: riscv:rv32, flags 0x00000112:
EXEC_P, HAS_SYMS, D_PAGED
start address 0x00012000

Program Header:
    LOAD off    0x00001000 vaddr 0x00012000 paddr 0x00012000 align 2**12
         filesz 0x000000ec memsz 0x000000ec flags r-x
    LOAD off    0x00001600 vaddr 0x20005600 paddr 0x00013000 align 2**12
         filesz 0x0000049c memsz 0x0000049c flags r-x
    LOAD off    0x000024a0 vaddr 0x000134a0 paddr 0x000134a0 align 2**12
         filesz 0x00002b88 memsz 0x00002b88 flags r-x
    LOAD off    0x00005aa0 vaddr 0x20005aa0 paddr 0x00016028 align 2**12
         filesz 0x00000230 memsz 0x00000234 flags rw-

Sections:
Idx Name            Size      VMA       LMA       File off  Algn  Flags
  0 .init           00000004  00012000  00012000  00001000  2**1  CONTENTS, ALLOC, LOAD, READONLY, CODE
  1 .vector         000000e8  00012004  00012004  00001004  2**1  CONTENTS, ALLOC, LOAD, READONLY, CODE
  2 .highcodelalign 00000000  00013000  00013000  00005cd0  2**0  CONTENTS
  3 .highcode       0000049c  20005600  00013000  00001600  2**1  CONTENTS, ALLOC, LOAD, READONLY, CODE
  4 .text           00002b88  000134a0  000134a0  000024a0  2**3  CONTENTS, ALLOC, LOAD, READONLY, CODE
  5 .fini           00000000  00016028  00016028  00005cd0  2**0  CONTENTS, ALLOC, LOAD, CODE
  6 .dalign         00000000  20005a9c  20005a9c  00005cd0  2**0  CONTENTS
  7 .dlalign        00000000  00016028  00016028  00005cd0  2**0  CONTENTS
  8 .data           00000230  20005aa0  00016028  00005aa0  2**4  CONTENTS, ALLOC, LOAD, DATA
  9 .bss            00000004  20005cd0  00016258  00005cd0  2**2  ALLOC
 10 .stack          00000000  20008000  20008000  00005cd0  2**0  CONTENTS
 11 .debug_info     00004248  00000000  00000000  00005cd0  2**0  CONTENTS, READONLY, DEBUGGING
 12 .debug_abbrev   00000df4  00000000  00000000  00009f18  2**0  CONTENTS, READONLY, DEBUGGING
 13 .debug_loc      0000225b  00000000  00000000  0000ad0c  2**0  CONTENTS, READONLY, DEBUGGING
 14 .debug_aranges  000001d0  00000000  00000000  0000cf68  2**3  CONTENTS, READONLY, DEBUGGING
 15 .debug_ranges   00000230  00000000  00000000  0000d138  2**3  CONTENTS, READONLY, DEBUGGING
 16 .debug_line     000044e7  00000000  00000000  0000d368  2**0  CONTENTS, READONLY, DEBUGGING
 17 .debug_str      00000b87  00000000  00000000  0001184f  2**0  CONTENTS, READONLY, DEBUGGING
 18 .comment        00000033  00000000  00000000  000123d6  2**0  CONTENTS, READONLY
 19 .debug_frame    00000544  00000000  00000000  0001240c  2**2  CONTENTS, READONLY, DEBUGGING
SYMBOL TABLE:
00012000 l    d  .init	00000000 .init
00012004 l    d  .vector	00000000 .vector
00013000 l    d  .highcodelalign	00000000 .highcodelalign
20005600 l    d  .highcode	00000000 .highcode
000134a0 l    d  .text	00000000 .text
00016028 l    d  .fini	00000000 .fini
20005a9c l    d  .dalign	00000000 .dalign
00016028 l    d  .dlalign	00000000 .dlalign
20005aa0 l    d  .data	00000000 .data
20005cd0 l    d  .bss	00000000 .bss
20008000 l    d  .stack	00000000 .stack
00000000 l    d  .debug_info	00000000 .debug_info
00000000 l    d  .debug_abbrev	00000000 .debug_abbrev
00000000 l    d  .debug_loc	00000000 .debug_loc
00000000 l    d  .debug_aranges	00000000 .debug_aranges
00000000 l    d  .debug_ranges	00000000 .debug_ranges
00000000 l    d  .debug_line	00000000 .debug_line
00000000 l    d  .debug_str	00000000 .debug_str
00000000 l    d  .comment	00000000 .comment
00000000 l    d  .debug_frame	00000000 .debug_frame
00000000 l    df *ABS*	00000000 ./obj/startup_CH573.o
00012004 l       .vector	00000000 _vector_base
00000000 l    df *ABS*	00000000 ISP573.c
20005600 l     F .highcode	00000010 FLASH_ROM_BEG
20005610 l     F .highcode	0000000e FLASH_ROM_END
20005610 l       .highcode	00000000 .loop17
2000561e l     F .highcode	0000000e FLASH_ROM_IN
2000561e l       .highcode	00000000 .loop28
2000562c l     F .highcode	0000000e FLASH_ROM_OUT
2000562c l       .highcode	00000000 .loop39
2000563a l     F .highcode	00000060 FLASH_ROM_ADDR
2000569a l     F .highcode	00000056 FLASH_ROM_WAIT
20005924 l       .highcode	00000000 .loop400
00000000 l    df *ABS*	00000000 ./obj/gpio.o
00000000 l       *ABS*	00000000 PTA_NUM
00000100 l       *ABS*	00000000 PTB_NUM
00000000 l       *ABS*	00000000 GPIO_INPUT
00000001 l       *ABS*	00000000 GPIO_OUTPUT
00000001 l       *ABS*	00000000 RISING_EDGE
00000002 l       *ABS*	00000000 FALLING_EDGE
00000003 l       *ABS*	00000000 LowLevel
00000004 l       *ABS*	00000000 HighLevel
00000001 l       *ABS*	00000000 PULL_UP
00000000 l       *ABS*	00000000 PULL_DOWN
40001018 l       *ABS*	00000000 R16_PIN_ALTERNATE
4000101a l       *ABS*	00000000 R16_PIN_ANALOG_IE
40001090 l       *ABS*	00000000 R16_PA_INT_EN
40001092 l       *ABS*	00000000 R16_PB_INT_EN
40001094 l       *ABS*	00000000 R16_PA_INT_MODE
40001096 l       *ABS*	00000000 R16_PB_INT_MODE
4000109c l       *ABS*	00000000 R16_PA_INT_IF
4000109e l       *ABS*	00000000 R16_PB_INT_IF
400010a0 l       *ABS*	00000000 R32_PA_DIR
400010a4 l       *ABS*	00000000 R32_PA_PIN
400010a8 l       *ABS*	00000000 R32_PA_OUT
400010ac l       *ABS*	00000000 R32_PA_CLR
400010b0 l       *ABS*	00000000 R32_PA_PU
400010b4 l       *ABS*	00000000 R32_PA_PD_DRV
400010c0 l       *ABS*	00000000 R32_PB_DIR
400010c4 l       *ABS*	00000000 R32_PB_PIN
400010c8 l       *ABS*	00000000 R32_PB_OUT
400010cc l       *ABS*	00000000 R32_PB_CLR
400010d0 l       *ABS*	00000000 R32_PB_PU
400010d4 l       *ABS*	00000000 R32_PB_PD_DRV
00000000 l       *ABS*	00000000 NOERROR
00000001 l       *ABS*	00000000 ERROR
00000000 l       *ABS*	00000000 LEDON
00000001 l       *ABS*	00000000 LEDOFF
00013560 l       .text	00000000 gpio_port_pin_resolution
00013596 l       .text	00000000 GPIOA
000135a2 l       .text	00000000 GPIOB
00013604 l       .text	00000000 GPIOA_input_H
000135ae l       .text	00000000 GPIOA_output_H
0001369a l       .text	00000000 exit
0001367a l       .text	00000000 GPIOB_input_H
00013624 l       .text	00000000 GPIOB_output_H
000135cc l       .text	00000000 OUT_PUT_LOW_A
000135e8 l       .text	00000000 OUT_PUT_HIGH_A
00013642 l       .text	00000000 OUT_PUT_LOW_B
0001365e l       .text	00000000 OUT_PUT_HIGH_B
000136bc l       .text	00000000 GPIOA_SET
000136f8 l       .text	00000000 GPIOB_SET
000136c0 l       .text	00000000 GPIOA_SET_LOW
000136dc l       .text	00000000 GPIOA_SET_HIGH
00013734 l       .text	00000000 SET_exit
000136fc l       .text	00000000 GPIOB_SET_LOW
00013718 l       .text	00000000 GPIOB_SET_HIGH
00013752 l       .text	00000000 GPIOA_REVERSE
000137aa l       .text	00000000 GPIOB_REVERSE
0001378e l       .text	00000000 GPIOA_REV_H
00013772 l       .text	00000000 GPIOA_REV_L
00013802 l       .text	00000000 gpio_reverse_exit
000137e6 l       .text	00000000 GPIOB_REV_H
000137ca l       .text	00000000 GPIOB_REV_L
00013820 l       .text	00000000 GPIOA_GET
00013880 l       .text	00000000 GPIOB_GET
00013840 l       .text	00000000 GPIOA_GET_IN
00013860 l       .text	00000000 GPIOA_GET_OUT
000138e0 l       .text	00000000 RETURN_0
000138e8 l       .text	00000000 RETURN_1
000138a0 l       .text	00000000 GPIOB_GET_IN
000138c0 l       .text	00000000 GPIOB_GET_OUT
00000000 l    df *ABS*	00000000 ./obj/main.o
00000000 l       *ABS*	00000000 PTA_NUM
00000100 l       *ABS*	00000000 PTB_NUM
00000000 l       *ABS*	00000000 GPIO_INPUT
00000001 l       *ABS*	00000000 GPIO_OUTPUT
00000001 l       *ABS*	00000000 RISING_EDGE
00000002 l       *ABS*	00000000 FALLING_EDGE
00000003 l       *ABS*	00000000 LowLevel
00000004 l       *ABS*	00000000 HighLevel
00000001 l       *ABS*	00000000 PULL_UP
00000000 l       *ABS*	00000000 PULL_DOWN
40001018 l       *ABS*	00000000 R16_PIN_ALTERNATE
4000101a l       *ABS*	00000000 R16_PIN_ANALOG_IE
40001090 l       *ABS*	00000000 R16_PA_INT_EN
40001092 l       *ABS*	00000000 R16_PB_INT_EN
40001094 l       *ABS*	00000000 R16_PA_INT_MODE
40001096 l       *ABS*	00000000 R16_PB_INT_MODE
4000109c l       *ABS*	00000000 R16_PA_INT_IF
4000109e l       *ABS*	00000000 R16_PB_INT_IF
400010a0 l       *ABS*	00000000 R32_PA_DIR
400010a4 l       *ABS*	00000000 R32_PA_PIN
400010a8 l       *ABS*	00000000 R32_PA_OUT
400010ac l       *ABS*	00000000 R32_PA_CLR
400010b0 l       *ABS*	00000000 R32_PA_PU
400010b4 l       *ABS*	00000000 R32_PA_PD_DRV
400010c0 l       *ABS*	00000000 R32_PB_DIR
400010c4 l       *ABS*	00000000 R32_PB_PIN
400010c8 l       *ABS*	00000000 R32_PB_OUT
400010cc l       *ABS*	00000000 R32_PB_CLR
400010d0 l       *ABS*	00000000 R32_PB_PU
400010d4 l       *ABS*	00000000 R32_PB_PD_DRV
000927c0 l       *ABS*	00000000 MAINLOOP_COUNT
0000010e l       *ABS*	00000000 LIGHT_BLUE
0000010c l       *ABS*	00000000 LIGHT_RED
0000010d l       *ABS*	00000000 LIGHT_GREEN
00000000 l       *ABS*	00000000 LIGHT_ON
00000001 l       *ABS*	00000000 LIGHT_OFF
20005aa0 l       .data	00000000 hello_information
20005c73 l       .data	00000000 printf_format1
20005c89 l       .data	00000000 printf_format2
20005c8d l       .data	00000000 printf_format3
20005c9e l       .data	00000000 printf_format4
20005cc0 l       .data	00000000 mMainLoopCount
20005cc4 l       .data	00000000 mLigtCount
20005cc8 l       .data	00000000 mFlag
00013922 l       .text	00000000 main_loop
000139ce l       .text	00000000 main_Light_OFF
000139fc l       .text	00000000 main_exit
00000000 l    df *ABS*	00000000 flash.c
00000000 l    df *ABS*	00000000 gec.c
00000000 l    df *ABS*	00000000 uart.c
00000000 l    df *ABS*	00000000 printf.c
00013e4a l     F .text	00000040 printk_putc
00013e8a l     F .text	00000072 printk_mknumstr
00013efc l     F .text	00000038 printk_pad_space
00000000 l    df *ABS*	00000000 libgcc2.c
00000000 l    df *ABS*	00000000 libgcc2.c
00000000 l    df *ABS*	00000000 eqdf2.c
00000000 l    df *ABS*	00000000 ledf2.c
00000000 l    df *ABS*	00000000 muldf3.c
00000000 l    df *ABS*	00000000 subdf3.c
00000000 l    df *ABS*	00000000 fixunsdfdi.c
00000000 l    df *ABS*	00000000 floatundidf.c
00000000 l    df *ABS*	00000000 libgcc2.c
00000000 l    df *ABS*	00000000 strlen.c
00000000 l    df *ABS*	00000000 libgcc2.c
00013bca g     F .text	000000c6 flash_write
00014e36 g     F .text	0000006a .hidden __eqdf2
200064d0 g       .data	00000000 __global_pointer$
00000025 g       *ABS*	00000000 GEC_USER_SECTOR_END
00012098  w      .vector	00000000 HardFault_Handler
000120ac  w      .vector	00000000 GPIOB_IRQHandler
000120a8  w      .vector	00000000 GPIOA_IRQHandler
0001209c  w      .vector	00000000 SysTick_Handler
00012094  w      .vector	00000000 NMI_Handler
000120cc  w      .vector	00000000 UART1_IRQHandler
20005cd0 g       .bss	00000000 _sbss
00000012 g       *ABS*	00000000 GEC_USER_SECTOR_START
000120c8  w      .vector	00000000 UART0_IRQHandler
00014ea0 g     F .text	000000b6 .hidden __ltdf2
00012004 g       .init	00000000 _einit
000120b4  w      .vector	00000000 BB_IRQHandler
200056f0 g     F .highcode	000003aa FLASH_EEPROM_CMD
00013aac g     F .text	00000020 flash_erase
00013b48 g     F .text	00000082 flash_Best
000120a4  w      .vector	00000000 TMR0_IRQHandler
00014aa8 g     F .text	0000038e .hidden __umoddi3
00013acc g     F .text	00000022 flash_write_sect
00014710 g     F .text	00000398 .hidden __udivdi3
00013f42 g     F .text	00000278 printk_mkfloatstr
000120d0  w      .vector	00000000 RTC_IRQHandler
20005cd4 g       .bss	00000000 _ebss
00001000 g       *ABS*	00000000 MCU_SECTORSIZE
00014ea0 g     F .text	000000b6 .hidden __ledf2
20007fff g       *ABS*	00000000 GEC_USER_RAM_END
000146da g     F .text	00000036 myprintf
00013b0e g     F .text	0000003a flash_write_DoubleWord
000120e0  w      .vector	00000000 UART2_IRQHandler
000120d8  w      .vector	00000000 PWMX_IRQHandler
00015d96 g     F .text	00000076 .hidden __clzsi2
00013808 g     F .text	00000000 gpio_get
00012000 g       .init	00000000 _start
20005cd0 g     O .bss	00000004 component_fun
00015c02 g     F .text	00000194 .hidden __floatundidf
20005600 g       *ABS*	00000000 GEC_USER_RAM_START
000120d4  w      .vector	00000000 ADC_IRQHandler
20005600 g       .highcode	00000000 _highcode_vma_start
000120c4  w      .vector	00000000 TMR2_IRQHandler
20005aa0 g       .data	00000000 _data_vma
00013f34 g     F .text	0000000e out_char
000120bc  w      .vector	00000000 USB_IRQHandler
000141ba g     F .text	00000520 printk
00013aee g     F .text	00000020 flash_read_logic
00014f56 g     F .text	000004c8 .hidden __muldf3
00013a02 g     F .text	000000a8 memset
000138f4 g     F .text	00000000 main
00013c90 g     F .text	000000b8 IRQ_OPC_CHANGE
00013000 g       .highcodelalign	00000000 _highcode_lma
00014e36 g     F .text	0000006a .hidden __nedf2
00015b64 g     F .text	0000009e .hidden __fixunsdfdi
00015f28 g     O .text	00000100 .hidden __clz_tab
000120b8  w      .vector	00000000 LLE_IRQHandler
00012000 g       .init	00000000 _sinit
000120e8  w      .vector	00000000 WDOG_BAT_IRQHandler
000120dc  w      .vector	00000000 TMR3_IRQHandler
20008000 g       .stack	00000000 _eusrstack
000120a0  w      .vector	00000000 SW_Handler
00013d48 g     F .text	00000080 Vectors_Init
20005cd0 g       .data	00000000 _edata
000120b0  w      .vector	00000000 SPI0_IRQHandler
20005a9c g       .highcode	00000000 _highcode_vma_end
00016028 g       .dlalign	00000000 _data_lma
000134a0  w      .text	00000000 handle_reset
00015e0c g     F .text	00000012 strlen
000120e4  w      .vector	00000000 UART3_IRQHandler
00013dc8 g     F .text	00000082 uart_send1
000136a2 g     F .text	00000000 gpio_set
0001373a g     F .text	00000000 gpio_reverse
0001357a g       .text	00000000 gpio_init
0001541e g     F .text	00000746 .hidden __subdf3
000120c0  w      .vector	00000000 TMR1_IRQHandler
00000000 g       *ABS*	00000000 MCU_FLASH_ADDR_START



Disassembly of section .init:

00012000 <_sinit>:
_start():
E:\16-24-BOOK\20-24-Machinery\22-24-CHB-20211026-20241126\06-User\AHL-CH573-EXP-V1.5-20241126\03-Software\CH07\GPIO-ASM-CH573\Debug/srcs/startup_CH573.S:14
	.section	.init,"ax",@progbits   /*ax是 allocation  execute的缩写，表示该节区可分配并且可执行，progbits是类型*/
	.global	_start   /*将_start标签定义为全局可见*/
	.align	1   /*将当前PC地址推进到2的1次方个字节对齐的位置*/
    .option	norelax  /*	不允许链接松弛*/
_start:     /*定义此处的标签为_start*/
	j	handle_reset     /*跳转指令跳转到标签handle_reset所在的位置*/
   12000:	4a00106f          	j	134a0 <handle_reset>

Disassembly of section .vector:

00012004 <_vector_base>:
_vector_base():
   12004:	8000                	0x8000
   12006:	2000                	fld	fs0,0(s0)
   12008:	0000                	unimp
   1200a:	0000                	unimp
E:\16-24-BOOK\20-24-Machinery\22-24-CHB-20211026-20241126\06-User\AHL-CH573-EXP-V1.5-20241126\03-Software\CH07\GPIO-ASM-CH573\Debug/srcs/startup_CH573.S:22
    .align  1
_vector_base:
    .option norvc; /*表示接下来的汇编程序不可以被汇编生成16位宽的压缩指令*/
    .word   _eusrstack
    .word   0
        j   NMI_Handler                 /* NMI Handler */
   1200c:	0880006f          	j	12094 <NMI_Handler>
E:\16-24-BOOK\20-24-Machinery\22-24-CHB-20211026-20241126\06-User\AHL-CH573-EXP-V1.5-20241126\03-Software\CH07\GPIO-ASM-CH573\Debug/srcs/startup_CH573.S:23
        j   HardFault_Handler           /* Hard Fault Handler */
   12010:	0880006f          	j	12098 <HardFault_Handler>
	...
E:\16-24-BOOK\20-24-Machinery\22-24-CHB-20211026-20241126\06-User\AHL-CH573-EXP-V1.5-20241126\03-Software\CH07\GPIO-ASM-CH573\Debug/srcs/startup_CH573.S:32
    .word   0
    .word   0
    .word   0
    .word   0
    .word   0
        j   SysTick_Handler            /* SysTick Handler */
   12034:	0680006f          	j	1209c <SysTick_Handler>
   12038:	0000                	unimp
   1203a:	0000                	unimp
E:\16-24-BOOK\20-24-Machinery\22-24-CHB-20211026-20241126\06-User\AHL-CH573-EXP-V1.5-20241126\03-Software\CH07\GPIO-ASM-CH573\Debug/srcs/startup_CH573.S:34
    .word   0
        j   SW_Handler                 /* SW Handler */
   1203c:	0640006f          	j	120a0 <SW_Handler>
   12040:	0000                	unimp
   12042:	0000                	unimp
E:\16-24-BOOK\20-24-Machinery\22-24-CHB-20211026-20241126\06-User\AHL-CH573-EXP-V1.5-20241126\03-Software\CH07\GPIO-ASM-CH573\Debug/srcs/startup_CH573.S:37
    .word   0
    /* External Interrupts */
        j   TMR0_IRQHandler            /* 0:  TMR0 */
   12044:	0600006f          	j	120a4 <TMR0_IRQHandler>
E:\16-24-BOOK\20-24-Machinery\22-24-CHB-20211026-20241126\06-User\AHL-CH573-EXP-V1.5-20241126\03-Software\CH07\GPIO-ASM-CH573\Debug/srcs/startup_CH573.S:38
        j   GPIOA_IRQHandler           /* GPIOA */
   12048:	0600006f          	j	120a8 <GPIOA_IRQHandler>
E:\16-24-BOOK\20-24-Machinery\22-24-CHB-20211026-20241126\06-User\AHL-CH573-EXP-V1.5-20241126\03-Software\CH07\GPIO-ASM-CH573\Debug/srcs/startup_CH573.S:39
        j   GPIOB_IRQHandler           /* GPIOB */
   1204c:	0600006f          	j	120ac <GPIOB_IRQHandler>
E:\16-24-BOOK\20-24-Machinery\22-24-CHB-20211026-20241126\06-User\AHL-CH573-EXP-V1.5-20241126\03-Software\CH07\GPIO-ASM-CH573\Debug/srcs/startup_CH573.S:40
        j   SPI0_IRQHandler            /* SPI0 */
   12050:	0600006f          	j	120b0 <SPI0_IRQHandler>
E:\16-24-BOOK\20-24-Machinery\22-24-CHB-20211026-20241126\06-User\AHL-CH573-EXP-V1.5-20241126\03-Software\CH07\GPIO-ASM-CH573\Debug/srcs/startup_CH573.S:41
        j   BB_IRQHandler              /* BLEB */
   12054:	0600006f          	j	120b4 <BB_IRQHandler>
E:\16-24-BOOK\20-24-Machinery\22-24-CHB-20211026-20241126\06-User\AHL-CH573-EXP-V1.5-20241126\03-Software\CH07\GPIO-ASM-CH573\Debug/srcs/startup_CH573.S:42
        j   LLE_IRQHandler             /* BLEL */
   12058:	0600006f          	j	120b8 <LLE_IRQHandler>
E:\16-24-BOOK\20-24-Machinery\22-24-CHB-20211026-20241126\06-User\AHL-CH573-EXP-V1.5-20241126\03-Software\CH07\GPIO-ASM-CH573\Debug/srcs/startup_CH573.S:43
        j   USB_IRQHandler             /* USB */
   1205c:	0600006f          	j	120bc <USB_IRQHandler>
   12060:	0000                	unimp
   12062:	0000                	unimp
E:\16-24-BOOK\20-24-Machinery\22-24-CHB-20211026-20241126\06-User\AHL-CH573-EXP-V1.5-20241126\03-Software\CH07\GPIO-ASM-CH573\Debug/srcs/startup_CH573.S:45
        .word   0
        j   TMR1_IRQHandler            /* TMR1 */
   12064:	05c0006f          	j	120c0 <TMR1_IRQHandler>
E:\16-24-BOOK\20-24-Machinery\22-24-CHB-20211026-20241126\06-User\AHL-CH573-EXP-V1.5-20241126\03-Software\CH07\GPIO-ASM-CH573\Debug/srcs/startup_CH573.S:46
        j   TMR2_IRQHandler            /* TMR2 */
   12068:	05c0006f          	j	120c4 <TMR2_IRQHandler>
E:\16-24-BOOK\20-24-Machinery\22-24-CHB-20211026-20241126\06-User\AHL-CH573-EXP-V1.5-20241126\03-Software\CH07\GPIO-ASM-CH573\Debug/srcs/startup_CH573.S:47
        j   UART0_IRQHandler           /* UART0 */
   1206c:	05c0006f          	j	120c8 <UART0_IRQHandler>
E:\16-24-BOOK\20-24-Machinery\22-24-CHB-20211026-20241126\06-User\AHL-CH573-EXP-V1.5-20241126\03-Software\CH07\GPIO-ASM-CH573\Debug/srcs/startup_CH573.S:48
        j   UART1_IRQHandler           /* UART1 */
   12070:	05c0006f          	j	120cc <UART1_IRQHandler>
E:\16-24-BOOK\20-24-Machinery\22-24-CHB-20211026-20241126\06-User\AHL-CH573-EXP-V1.5-20241126\03-Software\CH07\GPIO-ASM-CH573\Debug/srcs/startup_CH573.S:49
        j   RTC_IRQHandler             /* RTC */
   12074:	05c0006f          	j	120d0 <RTC_IRQHandler>
E:\16-24-BOOK\20-24-Machinery\22-24-CHB-20211026-20241126\06-User\AHL-CH573-EXP-V1.5-20241126\03-Software\CH07\GPIO-ASM-CH573\Debug/srcs/startup_CH573.S:50
        j   ADC_IRQHandler             /* ADC */
   12078:	05c0006f          	j	120d4 <ADC_IRQHandler>
   1207c:	0000                	unimp
   1207e:	0000                	unimp
E:\16-24-BOOK\20-24-Machinery\22-24-CHB-20211026-20241126\06-User\AHL-CH573-EXP-V1.5-20241126\03-Software\CH07\GPIO-ASM-CH573\Debug/srcs/startup_CH573.S:52
        .word   0
        j   PWMX_IRQHandler            /* PWMX */
   12080:	0580006f          	j	120d8 <PWMX_IRQHandler>
E:\16-24-BOOK\20-24-Machinery\22-24-CHB-20211026-20241126\06-User\AHL-CH573-EXP-V1.5-20241126\03-Software\CH07\GPIO-ASM-CH573\Debug/srcs/startup_CH573.S:53
        j   TMR3_IRQHandler            /* TMR3 */
   12084:	0580006f          	j	120dc <TMR3_IRQHandler>
E:\16-24-BOOK\20-24-Machinery\22-24-CHB-20211026-20241126\06-User\AHL-CH573-EXP-V1.5-20241126\03-Software\CH07\GPIO-ASM-CH573\Debug/srcs/startup_CH573.S:54
        j   UART2_IRQHandler           /* UART2 */
   12088:	0580006f          	j	120e0 <UART2_IRQHandler>
E:\16-24-BOOK\20-24-Machinery\22-24-CHB-20211026-20241126\06-User\AHL-CH573-EXP-V1.5-20241126\03-Software\CH07\GPIO-ASM-CH573\Debug/srcs/startup_CH573.S:55
        j   UART3_IRQHandler           /* UART3 */
   1208c:	0580006f          	j	120e4 <UART3_IRQHandler>
E:\16-24-BOOK\20-24-Machinery\22-24-CHB-20211026-20241126\06-User\AHL-CH573-EXP-V1.5-20241126\03-Software\CH07\GPIO-ASM-CH573\Debug/srcs/startup_CH573.S:56
        j   WDOG_BAT_IRQHandler        /* WDOG_BAT */
   12090:	0580006f          	j	120e8 <WDOG_BAT_IRQHandler>

00012094 <NMI_Handler>:
NMI_Handler():
E:\16-24-BOOK\20-24-Machinery\22-24-CHB-20211026-20241126\06-User\AHL-CH573-EXP-V1.5-20241126\03-Software\CH07\GPIO-ASM-CH573\Debug/srcs/startup_CH573.S:84
    .weak   TMR3_IRQHandler
    .weak   UART2_IRQHandler
    .weak   UART3_IRQHandler
    .weak   WDOG_BAT_IRQHandler

NMI_Handler:  1:  j 1b     /* 在被引用之时，数字标签通常需要带上一个字母“f”或者“b”的后缀，“f”表示下一行，“b”表示向上一行*/
   12094:	0000006f          	j	12094 <NMI_Handler>

00012098 <HardFault_Handler>:
HardFault_Handler():
E:\16-24-BOOK\20-24-Machinery\22-24-CHB-20211026-20241126\06-User\AHL-CH573-EXP-V1.5-20241126\03-Software\CH07\GPIO-ASM-CH573\Debug/srcs/startup_CH573.S:85
HardFault_Handler:  1:  j 1b
   12098:	0000006f          	j	12098 <HardFault_Handler>

0001209c <SysTick_Handler>:
SysTick_Handler():
E:\16-24-BOOK\20-24-Machinery\22-24-CHB-20211026-20241126\06-User\AHL-CH573-EXP-V1.5-20241126\03-Software\CH07\GPIO-ASM-CH573\Debug/srcs/startup_CH573.S:86
SysTick_Handler:  1:  j 1b
   1209c:	0000006f          	j	1209c <SysTick_Handler>

000120a0 <SW_Handler>:
SW_Handler():
E:\16-24-BOOK\20-24-Machinery\22-24-CHB-20211026-20241126\06-User\AHL-CH573-EXP-V1.5-20241126\03-Software\CH07\GPIO-ASM-CH573\Debug/srcs/startup_CH573.S:87
SW_Handler:  1:  j 1b
   120a0:	0000006f          	j	120a0 <SW_Handler>

000120a4 <TMR0_IRQHandler>:
TMR0_IRQHandler():
E:\16-24-BOOK\20-24-Machinery\22-24-CHB-20211026-20241126\06-User\AHL-CH573-EXP-V1.5-20241126\03-Software\CH07\GPIO-ASM-CH573\Debug/srcs/startup_CH573.S:88
TMR0_IRQHandler:  1:  j 1b
   120a4:	0000006f          	j	120a4 <TMR0_IRQHandler>

000120a8 <GPIOA_IRQHandler>:
GPIOA_IRQHandler():
E:\16-24-BOOK\20-24-Machinery\22-24-CHB-20211026-20241126\06-User\AHL-CH573-EXP-V1.5-20241126\03-Software\CH07\GPIO-ASM-CH573\Debug/srcs/startup_CH573.S:89
GPIOA_IRQHandler:  1:  j 1b
   120a8:	0000006f          	j	120a8 <GPIOA_IRQHandler>

000120ac <GPIOB_IRQHandler>:
GPIOB_IRQHandler():
E:\16-24-BOOK\20-24-Machinery\22-24-CHB-20211026-20241126\06-User\AHL-CH573-EXP-V1.5-20241126\03-Software\CH07\GPIO-ASM-CH573\Debug/srcs/startup_CH573.S:90
GPIOB_IRQHandler:  1:  j 1b
   120ac:	0000006f          	j	120ac <GPIOB_IRQHandler>

000120b0 <SPI0_IRQHandler>:
SPI0_IRQHandler():
E:\16-24-BOOK\20-24-Machinery\22-24-CHB-20211026-20241126\06-User\AHL-CH573-EXP-V1.5-20241126\03-Software\CH07\GPIO-ASM-CH573\Debug/srcs/startup_CH573.S:91
SPI0_IRQHandler:  1:  j 1b
   120b0:	0000006f          	j	120b0 <SPI0_IRQHandler>

000120b4 <BB_IRQHandler>:
BB_IRQHandler():
E:\16-24-BOOK\20-24-Machinery\22-24-CHB-20211026-20241126\06-User\AHL-CH573-EXP-V1.5-20241126\03-Software\CH07\GPIO-ASM-CH573\Debug/srcs/startup_CH573.S:92
BB_IRQHandler:  1:  j 1b
   120b4:	0000006f          	j	120b4 <BB_IRQHandler>

000120b8 <LLE_IRQHandler>:
LLE_IRQHandler():
E:\16-24-BOOK\20-24-Machinery\22-24-CHB-20211026-20241126\06-User\AHL-CH573-EXP-V1.5-20241126\03-Software\CH07\GPIO-ASM-CH573\Debug/srcs/startup_CH573.S:93
LLE_IRQHandler:  1:  j 1b
   120b8:	0000006f          	j	120b8 <LLE_IRQHandler>

000120bc <USB_IRQHandler>:
USB_IRQHandler():
E:\16-24-BOOK\20-24-Machinery\22-24-CHB-20211026-20241126\06-User\AHL-CH573-EXP-V1.5-20241126\03-Software\CH07\GPIO-ASM-CH573\Debug/srcs/startup_CH573.S:94
USB_IRQHandler:  1:  j 1b
   120bc:	0000006f          	j	120bc <USB_IRQHandler>

000120c0 <TMR1_IRQHandler>:
TMR1_IRQHandler():
E:\16-24-BOOK\20-24-Machinery\22-24-CHB-20211026-20241126\06-User\AHL-CH573-EXP-V1.5-20241126\03-Software\CH07\GPIO-ASM-CH573\Debug/srcs/startup_CH573.S:95
TMR1_IRQHandler:  1:  j 1b
   120c0:	0000006f          	j	120c0 <TMR1_IRQHandler>

000120c4 <TMR2_IRQHandler>:
TMR2_IRQHandler():
E:\16-24-BOOK\20-24-Machinery\22-24-CHB-20211026-20241126\06-User\AHL-CH573-EXP-V1.5-20241126\03-Software\CH07\GPIO-ASM-CH573\Debug/srcs/startup_CH573.S:96
TMR2_IRQHandler:  1:  j 1b
   120c4:	0000006f          	j	120c4 <TMR2_IRQHandler>

000120c8 <UART0_IRQHandler>:
UART0_IRQHandler():
E:\16-24-BOOK\20-24-Machinery\22-24-CHB-20211026-20241126\06-User\AHL-CH573-EXP-V1.5-20241126\03-Software\CH07\GPIO-ASM-CH573\Debug/srcs/startup_CH573.S:97
UART0_IRQHandler:  1:  j 1b
   120c8:	0000006f          	j	120c8 <UART0_IRQHandler>

000120cc <UART1_IRQHandler>:
UART1_IRQHandler():
E:\16-24-BOOK\20-24-Machinery\22-24-CHB-20211026-20241126\06-User\AHL-CH573-EXP-V1.5-20241126\03-Software\CH07\GPIO-ASM-CH573\Debug/srcs/startup_CH573.S:98
UART1_IRQHandler:  1:  j 1b
   120cc:	0000006f          	j	120cc <UART1_IRQHandler>

000120d0 <RTC_IRQHandler>:
RTC_IRQHandler():
E:\16-24-BOOK\20-24-Machinery\22-24-CHB-20211026-20241126\06-User\AHL-CH573-EXP-V1.5-20241126\03-Software\CH07\GPIO-ASM-CH573\Debug/srcs/startup_CH573.S:99
RTC_IRQHandler:  1:  j 1b
   120d0:	0000006f          	j	120d0 <RTC_IRQHandler>

000120d4 <ADC_IRQHandler>:
ADC_IRQHandler():
E:\16-24-BOOK\20-24-Machinery\22-24-CHB-20211026-20241126\06-User\AHL-CH573-EXP-V1.5-20241126\03-Software\CH07\GPIO-ASM-CH573\Debug/srcs/startup_CH573.S:100
ADC_IRQHandler:  1:  j 1b
   120d4:	0000006f          	j	120d4 <ADC_IRQHandler>

000120d8 <PWMX_IRQHandler>:
PWMX_IRQHandler():
E:\16-24-BOOK\20-24-Machinery\22-24-CHB-20211026-20241126\06-User\AHL-CH573-EXP-V1.5-20241126\03-Software\CH07\GPIO-ASM-CH573\Debug/srcs/startup_CH573.S:101
PWMX_IRQHandler:  1:  j 1b
   120d8:	0000006f          	j	120d8 <PWMX_IRQHandler>

000120dc <TMR3_IRQHandler>:
TMR3_IRQHandler():
E:\16-24-BOOK\20-24-Machinery\22-24-CHB-20211026-20241126\06-User\AHL-CH573-EXP-V1.5-20241126\03-Software\CH07\GPIO-ASM-CH573\Debug/srcs/startup_CH573.S:102
TMR3_IRQHandler:  1:  j 1b
   120dc:	0000006f          	j	120dc <TMR3_IRQHandler>

000120e0 <UART2_IRQHandler>:
UART2_IRQHandler():
E:\16-24-BOOK\20-24-Machinery\22-24-CHB-20211026-20241126\06-User\AHL-CH573-EXP-V1.5-20241126\03-Software\CH07\GPIO-ASM-CH573\Debug/srcs/startup_CH573.S:103
UART2_IRQHandler:  1:  j 1b
   120e0:	0000006f          	j	120e0 <UART2_IRQHandler>

000120e4 <UART3_IRQHandler>:
UART3_IRQHandler():
E:\16-24-BOOK\20-24-Machinery\22-24-CHB-20211026-20241126\06-User\AHL-CH573-EXP-V1.5-20241126\03-Software\CH07\GPIO-ASM-CH573\Debug/srcs/startup_CH573.S:104
UART3_IRQHandler:  1:  j 1b
   120e4:	0000006f          	j	120e4 <UART3_IRQHandler>

000120e8 <WDOG_BAT_IRQHandler>:
WDOG_BAT_IRQHandler():
E:\16-24-BOOK\20-24-Machinery\22-24-CHB-20211026-20241126\06-User\AHL-CH573-EXP-V1.5-20241126\03-Software\CH07\GPIO-ASM-CH573\Debug/srcs/startup_CH573.S:105
WDOG_BAT_IRQHandler:  1:  j 1b
   120e8:	0000006f          	j	120e8 <WDOG_BAT_IRQHandler>

Disassembly of section .highcode:

20005600 <FLASH_ROM_BEG>:
FLASH_ROM_BEG():
20005600:	80040323          	sb	zero,-2042(s0)
20005604:	4795                	li	a5,5
20005606:	80f40323          	sb	a5,-2042(s0)
2000560a:	80a40223          	sb	a0,-2044(s0)
2000560e:	8082                	ret

20005610 <FLASH_ROM_END>:
FLASH_ROM_END():
20005610:	80640783          	lb	a5,-2042(s0)
20005614:	fe07cee3          	bltz	a5,20005610 <FLASH_ROM_END>
20005618:	80040323          	sb	zero,-2042(s0)
2000561c:	8082                	ret

2000561e <FLASH_ROM_IN>:
FLASH_ROM_IN():
2000561e:	80640783          	lb	a5,-2042(s0)
20005622:	fe07cee3          	bltz	a5,2000561e <FLASH_ROM_IN>
20005626:	80444503          	lbu	a0,-2044(s0)
2000562a:	8082                	ret

2000562c <FLASH_ROM_OUT>:
FLASH_ROM_OUT():
2000562c:	80640783          	lb	a5,-2042(s0)
20005630:	fe07cee3          	bltz	a5,2000562c <FLASH_ROM_OUT>
20005634:	80a40223          	sb	a0,-2044(s0)
20005638:	8082                	ret

2000563a <FLASH_ROM_ADDR>:
FLASH_ROM_ADDR():
2000563a:	1141                	addi	sp,sp,-16
2000563c:	c426                	sw	s1,8(sp)
2000563e:	c24a                	sw	s2,4(sp)
20005640:	c04e                	sw	s3,0(sp)
20005642:	c606                	sw	ra,12(sp)
20005644:	0bf57713          	andi	a4,a0,191
20005648:	47ad                	li	a5,11
2000564a:	89aa                	mv	s3,a0
2000564c:	892e                	mv	s2,a1
2000564e:	4495                	li	s1,5
20005650:	00f70c63          	beq	a4,a5,20005668 <FLASH_ROM_ADDR+0x2e>
20005654:	4519                	li	a0,6
20005656:	00000097          	auipc	ra,0x0
2000565a:	faa080e7          	jalr	-86(ra) # 20005600 <FLASH_ROM_BEG>
2000565e:	00000097          	auipc	ra,0x0
20005662:	fb2080e7          	jalr	-78(ra) # 20005610 <FLASH_ROM_END>
20005666:	448d                	li	s1,3
20005668:	854e                	mv	a0,s3
2000566a:	00000097          	auipc	ra,0x0
2000566e:	f96080e7          	jalr	-106(ra) # 20005600 <FLASH_ROM_BEG>
20005672:	59fd                	li	s3,-1
20005674:	14fd                	addi	s1,s1,-1
20005676:	01349863          	bne	s1,s3,20005686 <FLASH_ROM_ADDR+0x4c>
2000567a:	40b2                	lw	ra,12(sp)
2000567c:	44a2                	lw	s1,8(sp)
2000567e:	4912                	lw	s2,4(sp)
20005680:	4982                	lw	s3,0(sp)
20005682:	0141                	addi	sp,sp,16
20005684:	8082                	ret
20005686:	01095513          	srli	a0,s2,0x10
2000568a:	0ff57513          	andi	a0,a0,255
2000568e:	00000097          	auipc	ra,0x0
20005692:	f9e080e7          	jalr	-98(ra) # 2000562c <FLASH_ROM_OUT>
20005696:	0922                	slli	s2,s2,0x8
20005698:	bff1                	j	20005674 <FLASH_ROM_ADDR+0x3a>

2000569a <FLASH_ROM_WAIT>:
FLASH_ROM_WAIT():
2000569a:	1101                	addi	sp,sp,-32
2000569c:	cc26                	sw	s1,24(sp)
2000569e:	ce06                	sw	ra,28(sp)
200056a0:	000804b7          	lui	s1,0x80
200056a4:	00000097          	auipc	ra,0x0
200056a8:	f6c080e7          	jalr	-148(ra) # 20005610 <FLASH_ROM_END>
200056ac:	4515                	li	a0,5
200056ae:	00000097          	auipc	ra,0x0
200056b2:	f52080e7          	jalr	-174(ra) # 20005600 <FLASH_ROM_BEG>
200056b6:	00000097          	auipc	ra,0x0
200056ba:	f68080e7          	jalr	-152(ra) # 2000561e <FLASH_ROM_IN>
200056be:	00000097          	auipc	ra,0x0
200056c2:	f60080e7          	jalr	-160(ra) # 2000561e <FLASH_ROM_IN>
200056c6:	c62a                	sw	a0,12(sp)
200056c8:	00000097          	auipc	ra,0x0
200056cc:	f48080e7          	jalr	-184(ra) # 20005610 <FLASH_ROM_END>
200056d0:	4532                	lw	a0,12(sp)
200056d2:	00157793          	andi	a5,a0,1
200056d6:	eb89                	bnez	a5,200056e8 <FLASH_ROM_WAIT+0x4e>
200056d8:	00156513          	ori	a0,a0,1
200056dc:	0ff57513          	andi	a0,a0,255
200056e0:	40f2                	lw	ra,28(sp)
200056e2:	44e2                	lw	s1,24(sp)
200056e4:	6105                	addi	sp,sp,32
200056e6:	8082                	ret
200056e8:	14fd                	addi	s1,s1,-1
200056ea:	f0e9                	bnez	s1,200056ac <FLASH_ROM_WAIT+0x12>
200056ec:	4501                	li	a0,0
200056ee:	bfcd                	j	200056e0 <FLASH_ROM_WAIT+0x46>

200056f0 <FLASH_EEPROM_CMD>:
FLASH_EEPROM_CMD():
200056f0:	7139                	addi	sp,sp,-64
200056f2:	dc26                	sw	s1,56(sp)
200056f4:	da4a                	sw	s2,52(sp)
200056f6:	d84e                	sw	s3,48(sp)
200056f8:	d652                	sw	s4,44(sp)
200056fa:	d456                	sw	s5,40(sp)
200056fc:	d25a                	sw	s6,36(sp)
200056fe:	d05e                	sw	s7,32(sp)
20005700:	de06                	sw	ra,60(sp)
20005702:	ce62                	sw	s8,28(sp)
20005704:	cc66                	sw	s9,24(sp)
20005706:	e000e7b7          	lui	a5,0xe000e
2000570a:	577d                	li	a4,-1
2000570c:	0007aa83          	lw	s5,0(a5) # e000e000 <R32_PB_PD_DRV+0xa000cf2c>
20005710:	c622                	sw	s0,12(sp)
20005712:	0047aa03          	lw	s4,4(a5)
20005716:	18e7a023          	sw	a4,384(a5)
2000571a:	18e7a223          	sw	a4,388(a5)
2000571e:	400017b7          	lui	a5,0x40001
20005722:	05700713          	li	a4,87
20005726:	04e78023          	sb	a4,64(a5) # 40001040 <R16_PIN_ANALOG_IE+0x26>
2000572a:	fa800713          	li	a4,-88
2000572e:	04e78023          	sb	a4,64(a5)
20005732:	0447c783          	lbu	a5,68(a5)
20005736:	ff750b93          	addi	s7,a0,-9
2000573a:	84b6                	mv	s1,a3
2000573c:	07e2                	slli	a5,a5,0x18
2000573e:	0ffbfb93          	andi	s7,s7,255
20005742:	4685                	li	a3,1
20005744:	89aa                	mv	s3,a0
20005746:	8b2e                	mv	s6,a1
20005748:	8932                	mv	s2,a2
2000574a:	40002437          	lui	s0,0x40002
2000574e:	87e1                	srai	a5,a5,0x18
20005750:	5701                	li	a4,-32
20005752:	0176fa63          	bgeu	a3,s7,20005766 <FLASH_EEPROM_CMD+0x76>
20005756:	00d50863          	beq	a0,a3,20005766 <FLASH_EEPROM_CMD+0x76>
2000575a:	4689                	li	a3,2
2000575c:	02000713          	li	a4,32
20005760:	00d51363          	bne	a0,a3,20005766 <FLASH_EEPROM_CMD+0x76>
20005764:	5701                	li	a4,-32
20005766:	8fd9                	or	a5,a5,a4
20005768:	0ff7f793          	andi	a5,a5,255
2000576c:	40001cb7          	lui	s9,0x40001
20005770:	04fc8223          	sb	a5,68(s9) # 40001044 <R16_PIN_ANALOG_IE+0x2a>
20005774:	4711                	li	a4,4
20005776:	80e40323          	sb	a4,-2042(s0) # 40001806 <R32_PB_PD_DRV+0x732>
2000577a:	0ff00513          	li	a0,255
2000577e:	00000097          	auipc	ra,0x0
20005782:	e82080e7          	jalr	-382(ra) # 20005600 <FLASH_ROM_BEG>
20005786:	4c09                	li	s8,2
20005788:	00000097          	auipc	ra,0x0
2000578c:	e88080e7          	jalr	-376(ra) # 20005610 <FLASH_ROM_END>
20005790:	157c6163          	bltu	s8,s7,200058d2 <FLASH_EEPROM_CMD+0x1e2>
20005794:	000707b7          	lui	a5,0x70
20005798:	9b3e                	add	s6,s6,a5
2000579a:	00078737          	lui	a4,0x78
2000579e:	5579                	li	a0,-2
200057a0:	04eb7a63          	bgeu	s6,a4,200057f4 <FLASH_EEPROM_CMD+0x104>
200057a4:	009b07b3          	add	a5,s6,s1
200057a8:	04f76663          	bltu	a4,a5,200057f4 <FLASH_EEPROM_CMD+0x104>
200057ac:	47a9                	li	a5,10
200057ae:	08f99563          	bne	s3,a5,20005838 <FLASH_EEPROM_CMD+0x148>
200057b2:	e881                	bnez	s1,200057c2 <FLASH_EEPROM_CMD+0xd2>
200057b4:	4481                	li	s1,0
200057b6:	00000097          	auipc	ra,0x0
200057ba:	e5a080e7          	jalr	-422(ra) # 20005610 <FLASH_ROM_END>
200057be:	8526                	mv	a0,s1
200057c0:	a815                	j	200057f4 <FLASH_EEPROM_CMD+0x104>
200057c2:	85da                	mv	a1,s6
200057c4:	4509                	li	a0,2
200057c6:	00000097          	auipc	ra,0x0
200057ca:	e74080e7          	jalr	-396(ra) # 2000563a <FLASH_ROM_ADDR>
200057ce:	0905                	addi	s2,s2,1
200057d0:	fff94503          	lbu	a0,-1(s2)
200057d4:	14fd                	addi	s1,s1,-1
200057d6:	0b05                	addi	s6,s6,1
200057d8:	00000097          	auipc	ra,0x0
200057dc:	e54080e7          	jalr	-428(ra) # 2000562c <FLASH_ROM_OUT>
200057e0:	c481                	beqz	s1,200057e8 <FLASH_EEPROM_CMD+0xf8>
200057e2:	0ffb7793          	andi	a5,s6,255
200057e6:	f7e5                	bnez	a5,200057ce <FLASH_EEPROM_CMD+0xde>
200057e8:	00000097          	auipc	ra,0x0
200057ec:	eb2080e7          	jalr	-334(ra) # 2000569a <FLASH_ROM_WAIT>
200057f0:	f169                	bnez	a0,200057b2 <FLASH_EEPROM_CMD+0xc2>
200057f2:	557d                	li	a0,-1
200057f4:	400017b7          	lui	a5,0x40001
200057f8:	05700713          	li	a4,87
200057fc:	04e78023          	sb	a4,64(a5) # 40001040 <R16_PIN_ANALOG_IE+0x26>
20005800:	fa800713          	li	a4,-88
20005804:	04e78023          	sb	a4,64(a5)
20005808:	0447c703          	lbu	a4,68(a5)
2000580c:	8b41                	andi	a4,a4,16
2000580e:	04e78223          	sb	a4,68(a5)
20005812:	50f2                	lw	ra,60(sp)
20005814:	e000e7b7          	lui	a5,0xe000e
20005818:	1157a023          	sw	s5,256(a5) # e000e100 <R32_PB_PD_DRV+0xa000d02c>
2000581c:	1147a223          	sw	s4,260(a5)
20005820:	54e2                	lw	s1,56(sp)
20005822:	4432                	lw	s0,12(sp)
20005824:	5952                	lw	s2,52(sp)
20005826:	59c2                	lw	s3,48(sp)
20005828:	5a32                	lw	s4,44(sp)
2000582a:	5aa2                	lw	s5,40(sp)
2000582c:	5b12                	lw	s6,36(sp)
2000582e:	5b82                	lw	s7,32(sp)
20005830:	4c72                	lw	s8,28(sp)
20005832:	4ce2                	lw	s9,24(sp)
20005834:	6121                	addi	sp,sp,64
20005836:	8082                	ret
20005838:	47a5                	li	a5,9
2000583a:	06f99b63          	bne	s3,a5,200058b0 <FLASH_EEPROM_CMD+0x1c0>
2000583e:	6985                	lui	s3,0x1
20005840:	0ff00913          	li	s2,255
20005844:	009906b3          	add	a3,s2,s1
20005848:	012b74b3          	and	s1,s6,s2
2000584c:	94b6                	add	s1,s1,a3
2000584e:	fff94913          	not	s2,s2
20005852:	009974b3          	and	s1,s2,s1
20005856:	6b85                	lui	s7,0x1
20005858:	01697933          	and	s2,s2,s6
2000585c:	6b41                	lui	s6,0x10
2000585e:	fff98793          	addi	a5,s3,-1 # fff <LIGHT_BLUE+0xef1>
20005862:	0127f7b3          	and	a5,a5,s2
20005866:	e399                	bnez	a5,2000586c <FLASH_EEPROM_CMD+0x17c>
20005868:	0134fc63          	bgeu	s1,s3,20005880 <FLASH_EEPROM_CMD+0x190>
2000586c:	0049d993          	srli	s3,s3,0x4
20005870:	47c1                	li	a5,16
20005872:	ff37e6e3          	bltu	a5,s3,2000585e <FLASH_EEPROM_CMD+0x16e>
20005876:	bf3d                	j	200057b4 <FLASH_EEPROM_CMD+0xc4>
20005878:	6905                	lui	s2,0x1
2000587a:	69c1                	lui	s3,0x10
2000587c:	197d                	addi	s2,s2,-1
2000587e:	b7d9                	j	20005844 <FLASH_EEPROM_CMD+0x154>
20005880:	0d800513          	li	a0,216
20005884:	01698863          	beq	s3,s6,20005894 <FLASH_EEPROM_CMD+0x1a4>
20005888:	02000513          	li	a0,32
2000588c:	01798463          	beq	s3,s7,20005894 <FLASH_EEPROM_CMD+0x1a4>
20005890:	08100513          	li	a0,129
20005894:	85ca                	mv	a1,s2
20005896:	00000097          	auipc	ra,0x0
2000589a:	da4080e7          	jalr	-604(ra) # 2000563a <FLASH_ROM_ADDR>
2000589e:	00000097          	auipc	ra,0x0
200058a2:	dfc080e7          	jalr	-516(ra) # 2000569a <FLASH_ROM_WAIT>
200058a6:	d531                	beqz	a0,200057f2 <FLASH_EEPROM_CMD+0x102>
200058a8:	994e                	add	s2,s2,s3
200058aa:	413484b3          	sub	s1,s1,s3
200058ae:	bf6d                	j	20005868 <FLASH_EEPROM_CMD+0x178>
200058b0:	85da                	mv	a1,s6
200058b2:	452d                	li	a0,11
200058b4:	00000097          	auipc	ra,0x0
200058b8:	d86080e7          	jalr	-634(ra) # 2000563a <FLASH_ROM_ADDR>
200058bc:	94ca                	add	s1,s1,s2
200058be:	ee990be3          	beq	s2,s1,200057b4 <FLASH_EEPROM_CMD+0xc4>
200058c2:	0905                	addi	s2,s2,1
200058c4:	00000097          	auipc	ra,0x0
200058c8:	d5a080e7          	jalr	-678(ra) # 2000561e <FLASH_ROM_IN>
200058cc:	fea90fa3          	sb	a0,-1(s2) # fff <LIGHT_BLUE+0xef1>
200058d0:	b7fd                	j	200058be <FLASH_EEPROM_CMD+0x1ce>
200058d2:	fff98793          	addi	a5,s3,-1 # ffff <MCU_SECTORSIZE+0xefff>
200058d6:	0ff7f793          	andi	a5,a5,255
200058da:	0afc6863          	bltu	s8,a5,2000598a <.loop400+0x66>
200058de:	045cc703          	lbu	a4,69(s9)
200058e2:	000807b7          	lui	a5,0x80
200058e6:	02077713          	andi	a4,a4,32
200058ea:	e319                	bnez	a4,200058f0 <FLASH_EEPROM_CMD+0x200>
200058ec:	000787b7          	lui	a5,0x78
200058f0:	5579                	li	a0,-2
200058f2:	f0fb71e3          	bgeu	s6,a5,200057f4 <FLASH_EEPROM_CMD+0x104>
200058f6:	009b0733          	add	a4,s6,s1
200058fa:	eee7ede3          	bltu	a5,a4,200057f4 <FLASH_EEPROM_CMD+0x104>
200058fe:	4789                	li	a5,2
20005900:	04f99663          	bne	s3,a5,2000594c <.loop400+0x28>
20005904:	8089                	srli	s1,s1,0x2
20005906:	49d5                	li	s3,21
20005908:	ea0486e3          	beqz	s1,200057b4 <FLASH_EEPROM_CMD+0xc4>
2000590c:	85da                	mv	a1,s6
2000590e:	4509                	li	a0,2
20005910:	00000097          	auipc	ra,0x0
20005914:	d2a080e7          	jalr	-726(ra) # 2000563a <FLASH_ROM_ADDR>
20005918:	0911                	addi	s2,s2,4
2000591a:	ffc92703          	lw	a4,-4(s2)
2000591e:	4791                	li	a5,4
20005920:	80e42023          	sw	a4,-2048(s0)

20005924 <.loop400>:
20005924:	80640703          	lb	a4,-2042(s0)
20005928:	fe074ee3          	bltz	a4,20005924 <.loop400>
2000592c:	81340323          	sb	s3,-2042(s0)
20005930:	17fd                	addi	a5,a5,-1
20005932:	fbed                	bnez	a5,20005924 <.loop400>
20005934:	14fd                	addi	s1,s1,-1
20005936:	0b11                	addi	s6,s6,4
20005938:	c481                	beqz	s1,20005940 <.loop400+0x1c>
2000593a:	0ffb7793          	andi	a5,s6,255
2000593e:	ffe9                	bnez	a5,20005918 <FLASH_EEPROM_CMD+0x228>
20005940:	00000097          	auipc	ra,0x0
20005944:	d5a080e7          	jalr	-678(ra) # 2000569a <FLASH_ROM_WAIT>
20005948:	f161                	bnez	a0,20005908 <FLASH_EEPROM_CMD+0x218>
2000594a:	b565                	j	200057f2 <FLASH_EEPROM_CMD+0x102>
2000594c:	4785                	li	a5,1
2000594e:	f2f985e3          	beq	s3,a5,20005878 <FLASH_EEPROM_CMD+0x188>
20005952:	85da                	mv	a1,s6
20005954:	452d                	li	a0,11
20005956:	00000097          	auipc	ra,0x0
2000595a:	ce4080e7          	jalr	-796(ra) # 2000563a <FLASH_ROM_ADDR>
2000595e:	fff48993          	addi	s3,s1,-1 # 7ffff <_data_lma+0x69fd7>
20005962:	e40489e3          	beqz	s1,200057b4 <FLASH_EEPROM_CMD+0xc4>
20005966:	00000097          	auipc	ra,0x0
2000596a:	cb8080e7          	jalr	-840(ra) # 2000561e <FLASH_ROM_IN>
2000596e:	0039f793          	andi	a5,s3,3
20005972:	eb91                	bnez	a5,20005986 <.loop400+0x62>
20005974:	80042683          	lw	a3,-2048(s0)
20005978:	00092703          	lw	a4,0(s2)
2000597c:	00490793          	addi	a5,s2,4
20005980:	e2e69be3          	bne	a3,a4,200057b6 <FLASH_EEPROM_CMD+0xc6>
20005984:	893e                	mv	s2,a5
20005986:	84ce                	mv	s1,s3
20005988:	bfd9                	j	2000595e <.loop400+0x3a>
2000598a:	47b5                	li	a5,13
2000598c:	00f99963          	bne	s3,a5,2000599e <.loop400+0x7a>
20005990:	0b900513          	li	a0,185
20005994:	00000097          	auipc	ra,0x0
20005998:	c6c080e7          	jalr	-916(ra) # 20005600 <FLASH_ROM_BEG>
2000599c:	bd21                	j	200057b4 <FLASH_EEPROM_CMD+0xc4>
2000599e:	47b1                	li	a5,12
200059a0:	0ab00513          	li	a0,171
200059a4:	fef988e3          	beq	s3,a5,20005994 <.loop400+0x70>
200059a8:	4799                	li	a5,6
200059aa:	04f99463          	bne	s3,a5,200059f2 <.loop400+0xce>
200059ae:	85da                	mv	a1,s6
200059b0:	452d                	li	a0,11
200059b2:	00000097          	auipc	ra,0x0
200059b6:	c88080e7          	jalr	-888(ra) # 2000563a <FLASH_ROM_ADDR>
200059ba:	4481                	li	s1,0
200059bc:	4b8d                	li	s7,3
200059be:	49a1                	li	s3,8
200059c0:	00000097          	auipc	ra,0x0
200059c4:	c5e080e7          	jalr	-930(ra) # 2000561e <FLASH_ROM_IN>
200059c8:	01749663          	bne	s1,s7,200059d4 <.loop400+0xb0>
200059cc:	80042783          	lw	a5,-2048(s0)
200059d0:	00f92023          	sw	a5,0(s2)
200059d4:	0485                	addi	s1,s1,1
200059d6:	ff3495e3          	bne	s1,s3,200059c0 <.loop400+0x9c>
200059da:	80042783          	lw	a5,-2048(s0)
200059de:	012b1713          	slli	a4,s6,0x12
200059e2:	00075563          	bgez	a4,200059ec <.loop400+0xc8>
200059e6:	00f91223          	sh	a5,4(s2)
200059ea:	b3e9                	j	200057b4 <FLASH_EEPROM_CMD+0xc4>
200059ec:	00f92223          	sw	a5,4(s2)
200059f0:	b3d1                	j	200057b4 <FLASH_EEPROM_CMD+0xc4>
200059f2:	479d                	li	a5,7
200059f4:	02f99763          	bne	s3,a5,20005a22 <.loop400+0xfe>
200059f8:	4581                	li	a1,0
200059fa:	04b00513          	li	a0,75
200059fe:	00000097          	auipc	ra,0x0
20005a02:	c3c080e7          	jalr	-964(ra) # 2000563a <FLASH_ROM_ADDR>
20005a06:	449d                	li	s1,7
20005a08:	59fd                	li	s3,-1
20005a0a:	00000097          	auipc	ra,0x0
20005a0e:	c14080e7          	jalr	-1004(ra) # 2000561e <FLASH_ROM_IN>
20005a12:	009907b3          	add	a5,s2,s1
20005a16:	00a78023          	sb	a0,0(a5) # 78000 <_data_lma+0x61fd8>
20005a1a:	14fd                	addi	s1,s1,-1
20005a1c:	ff3497e3          	bne	s1,s3,20005a0a <.loop400+0xe6>
20005a20:	bb51                	j	200057b4 <FLASH_EEPROM_CMD+0xc4>
20005a22:	47a1                	li	a5,8
20005a24:	06f99763          	bne	s3,a5,20005a92 <.loop400+0x16e>
20005a28:	00000097          	auipc	ra,0x0
20005a2c:	c72080e7          	jalr	-910(ra) # 2000569a <FLASH_ROM_WAIT>
20005a30:	4481                	li	s1,0
20005a32:	000b0d63          	beqz	s6,20005a4c <.loop400+0x128>
20005a36:	4785                	li	a5,1
20005a38:	04400493          	li	s1,68
20005a3c:	00fb0863          	beq	s6,a5,20005a4c <.loop400+0x128>
20005a40:	05000493          	li	s1,80
20005a44:	018b0463          	beq	s6,s8,20005a4c <.loop400+0x128>
20005a48:	03c00493          	li	s1,60
20005a4c:	07c57513          	andi	a0,a0,124
20005a50:	d69502e3          	beq	a0,s1,200057b4 <FLASH_EEPROM_CMD+0xc4>
20005a54:	4519                	li	a0,6
20005a56:	00000097          	auipc	ra,0x0
20005a5a:	baa080e7          	jalr	-1110(ra) # 20005600 <FLASH_ROM_BEG>
20005a5e:	00000097          	auipc	ra,0x0
20005a62:	bb2080e7          	jalr	-1102(ra) # 20005610 <FLASH_ROM_END>
20005a66:	4505                	li	a0,1
20005a68:	00000097          	auipc	ra,0x0
20005a6c:	b98080e7          	jalr	-1128(ra) # 20005600 <FLASH_ROM_BEG>
20005a70:	8526                	mv	a0,s1
20005a72:	00000097          	auipc	ra,0x0
20005a76:	bba080e7          	jalr	-1094(ra) # 2000562c <FLASH_ROM_OUT>
20005a7a:	4509                	li	a0,2
20005a7c:	00000097          	auipc	ra,0x0
20005a80:	bb0080e7          	jalr	-1104(ra) # 2000562c <FLASH_ROM_OUT>
20005a84:	00000097          	auipc	ra,0x0
20005a88:	c16080e7          	jalr	-1002(ra) # 2000569a <FLASH_ROM_WAIT>
20005a8c:	d20514e3          	bnez	a0,200057b4 <FLASH_EEPROM_CMD+0xc4>
20005a90:	b38d                	j	200057f2 <FLASH_EEPROM_CMD+0x102>
20005a92:	d20981e3          	beqz	s3,200057b4 <FLASH_EEPROM_CMD+0xc4>
20005a96:	54f1                	li	s1,-4
20005a98:	bb39                	j	200057b6 <FLASH_EEPROM_CMD+0xc6>
	...

Disassembly of section .text:

000134a0 <handle_reset>:
handle_reset():
E:\16-24-BOOK\20-24-Machinery\22-24-CHB-20211026-20241126\06-User\AHL-CH573-EXP-V1.5-20241126\03-Software\CH07\GPIO-ASM-CH573\Debug/srcs/startup_CH573.S:113
	.weak	handle_reset
	.align	1
handle_reset:
.option push 
.option	norelax 
	la gp, __global_pointer$
   134a0:	1fff3197          	auipc	gp,0x1fff3
   134a4:	03018193          	addi	gp,gp,48 # 200064d0 <__global_pointer$>
E:\16-24-BOOK\20-24-Machinery\22-24-CHB-20211026-20241126\06-User\AHL-CH573-EXP-V1.5-20241126\03-Software\CH07\GPIO-ASM-CH573\Debug/srcs/startup_CH573.S:116
.option	pop 
1:
	la sp, _eusrstack 
   134a8:	1fff5117          	auipc	sp,0x1fff5
   134ac:	b5810113          	addi	sp,sp,-1192 # 20008000 <_eusrstack>
E:\16-24-BOOK\20-24-Machinery\22-24-CHB-20211026-20241126\06-User\AHL-CH573-EXP-V1.5-20241126\03-Software\CH07\GPIO-ASM-CH573\Debug/srcs/startup_CH573.S:120

/* Load highcode code  section from flash to RAM */
2:
    la a0, _highcode_lma
   134b0:	00000517          	auipc	a0,0x0
   134b4:	b5050513          	addi	a0,a0,-1200 # 13000 <_highcode_lma>
E:\16-24-BOOK\20-24-Machinery\22-24-CHB-20211026-20241126\06-User\AHL-CH573-EXP-V1.5-20241126\03-Software\CH07\GPIO-ASM-CH573\Debug/srcs/startup_CH573.S:121
    la a1, _highcode_vma_start
   134b8:	1fff2597          	auipc	a1,0x1fff2
   134bc:	14858593          	addi	a1,a1,328 # 20005600 <GEC_USER_RAM_START>
E:\16-24-BOOK\20-24-Machinery\22-24-CHB-20211026-20241126\06-User\AHL-CH573-EXP-V1.5-20241126\03-Software\CH07\GPIO-ASM-CH573\Debug/srcs/startup_CH573.S:122
    la a2, _highcode_vma_end
   134c0:	1fff2617          	auipc	a2,0x1fff2
   134c4:	5dc60613          	addi	a2,a2,1500 # 20005a9c <_highcode_vma_end>
E:\16-24-BOOK\20-24-Machinery\22-24-CHB-20211026-20241126\06-User\AHL-CH573-EXP-V1.5-20241126\03-Software\CH07\GPIO-ASM-CH573\Debug/srcs/startup_CH573.S:123
    bgeu a1, a2, 2f
   134c8:	00c5fc63          	bgeu	a1,a2,134e0 <handle_reset+0x40>
E:\16-24-BOOK\20-24-Machinery\22-24-CHB-20211026-20241126\06-User\AHL-CH573-EXP-V1.5-20241126\03-Software\CH07\GPIO-ASM-CH573\Debug/srcs/startup_CH573.S:125
1:
    lw t0, (a0)
   134cc:	00052283          	lw	t0,0(a0)
E:\16-24-BOOK\20-24-Machinery\22-24-CHB-20211026-20241126\06-User\AHL-CH573-EXP-V1.5-20241126\03-Software\CH07\GPIO-ASM-CH573\Debug/srcs/startup_CH573.S:126
    sw t0, (a1)
   134d0:	0055a023          	sw	t0,0(a1)
E:\16-24-BOOK\20-24-Machinery\22-24-CHB-20211026-20241126\06-User\AHL-CH573-EXP-V1.5-20241126\03-Software\CH07\GPIO-ASM-CH573\Debug/srcs/startup_CH573.S:127
    addi a0, a0, 4
   134d4:	00450513          	addi	a0,a0,4
E:\16-24-BOOK\20-24-Machinery\22-24-CHB-20211026-20241126\06-User\AHL-CH573-EXP-V1.5-20241126\03-Software\CH07\GPIO-ASM-CH573\Debug/srcs/startup_CH573.S:128
    addi a1, a1, 4
   134d8:	00458593          	addi	a1,a1,4
E:\16-24-BOOK\20-24-Machinery\22-24-CHB-20211026-20241126\06-User\AHL-CH573-EXP-V1.5-20241126\03-Software\CH07\GPIO-ASM-CH573\Debug/srcs/startup_CH573.S:129
    bltu a1, a2, 1b
   134dc:	fec5e8e3          	bltu	a1,a2,134cc <handle_reset+0x2c>
E:\16-24-BOOK\20-24-Machinery\22-24-CHB-20211026-20241126\06-User\AHL-CH573-EXP-V1.5-20241126\03-Software\CH07\GPIO-ASM-CH573\Debug/srcs/startup_CH573.S:133

/* Load data section from flash to RAM */
2:
	la a0, _data_lma
   134e0:	00003517          	auipc	a0,0x3
   134e4:	b4850513          	addi	a0,a0,-1208 # 16028 <_data_lma>
E:\16-24-BOOK\20-24-Machinery\22-24-CHB-20211026-20241126\06-User\AHL-CH573-EXP-V1.5-20241126\03-Software\CH07\GPIO-ASM-CH573\Debug/srcs/startup_CH573.S:134
	la a1, _data_vma
   134e8:	1fff2597          	auipc	a1,0x1fff2
   134ec:	5b858593          	addi	a1,a1,1464 # 20005aa0 <_data_vma>
E:\16-24-BOOK\20-24-Machinery\22-24-CHB-20211026-20241126\06-User\AHL-CH573-EXP-V1.5-20241126\03-Software\CH07\GPIO-ASM-CH573\Debug/srcs/startup_CH573.S:135
	la a2, _edata
   134f0:	1fff2617          	auipc	a2,0x1fff2
   134f4:	7e060613          	addi	a2,a2,2016 # 20005cd0 <_edata>
E:\16-24-BOOK\20-24-Machinery\22-24-CHB-20211026-20241126\06-User\AHL-CH573-EXP-V1.5-20241126\03-Software\CH07\GPIO-ASM-CH573\Debug/srcs/startup_CH573.S:136
	bgeu a1, a2, 2f
   134f8:	00c5fc63          	bgeu	a1,a2,13510 <handle_reset+0x70>
E:\16-24-BOOK\20-24-Machinery\22-24-CHB-20211026-20241126\06-User\AHL-CH573-EXP-V1.5-20241126\03-Software\CH07\GPIO-ASM-CH573\Debug/srcs/startup_CH573.S:138
1:
	lw t0, (a0)
   134fc:	00052283          	lw	t0,0(a0)
E:\16-24-BOOK\20-24-Machinery\22-24-CHB-20211026-20241126\06-User\AHL-CH573-EXP-V1.5-20241126\03-Software\CH07\GPIO-ASM-CH573\Debug/srcs/startup_CH573.S:139
	sw t0, (a1)
   13500:	0055a023          	sw	t0,0(a1)
E:\16-24-BOOK\20-24-Machinery\22-24-CHB-20211026-20241126\06-User\AHL-CH573-EXP-V1.5-20241126\03-Software\CH07\GPIO-ASM-CH573\Debug/srcs/startup_CH573.S:140
	addi a0, a0, 4
   13504:	00450513          	addi	a0,a0,4
E:\16-24-BOOK\20-24-Machinery\22-24-CHB-20211026-20241126\06-User\AHL-CH573-EXP-V1.5-20241126\03-Software\CH07\GPIO-ASM-CH573\Debug/srcs/startup_CH573.S:141
	addi a1, a1, 4
   13508:	00458593          	addi	a1,a1,4
E:\16-24-BOOK\20-24-Machinery\22-24-CHB-20211026-20241126\06-User\AHL-CH573-EXP-V1.5-20241126\03-Software\CH07\GPIO-ASM-CH573\Debug/srcs/startup_CH573.S:142
	bltu a1, a2, 1b
   1350c:	fec5e8e3          	bltu	a1,a2,134fc <handle_reset+0x5c>
E:\16-24-BOOK\20-24-Machinery\22-24-CHB-20211026-20241126\06-User\AHL-CH573-EXP-V1.5-20241126\03-Software\CH07\GPIO-ASM-CH573\Debug/srcs/startup_CH573.S:145
2:
	/* clear bss section */
	la a0, _sbss
   13510:	1fff2517          	auipc	a0,0x1fff2
   13514:	7c050513          	addi	a0,a0,1984 # 20005cd0 <_edata>
E:\16-24-BOOK\20-24-Machinery\22-24-CHB-20211026-20241126\06-User\AHL-CH573-EXP-V1.5-20241126\03-Software\CH07\GPIO-ASM-CH573\Debug/srcs/startup_CH573.S:146
	la a1, _ebss
   13518:	1fff2597          	auipc	a1,0x1fff2
   1351c:	7bc58593          	addi	a1,a1,1980 # 20005cd4 <_ebss>
E:\16-24-BOOK\20-24-Machinery\22-24-CHB-20211026-20241126\06-User\AHL-CH573-EXP-V1.5-20241126\03-Software\CH07\GPIO-ASM-CH573\Debug/srcs/startup_CH573.S:147
	bgeu a0, a1, 2f
   13520:	00b57863          	bgeu	a0,a1,13530 <handle_reset+0x90>
E:\16-24-BOOK\20-24-Machinery\22-24-CHB-20211026-20241126\06-User\AHL-CH573-EXP-V1.5-20241126\03-Software\CH07\GPIO-ASM-CH573\Debug/srcs/startup_CH573.S:149
1:
	sw zero, (a0)
   13524:	00052023          	sw	zero,0(a0)
E:\16-24-BOOK\20-24-Machinery\22-24-CHB-20211026-20241126\06-User\AHL-CH573-EXP-V1.5-20241126\03-Software\CH07\GPIO-ASM-CH573\Debug/srcs/startup_CH573.S:150
	addi a0, a0, 4
   13528:	00450513          	addi	a0,a0,4
E:\16-24-BOOK\20-24-Machinery\22-24-CHB-20211026-20241126\06-User\AHL-CH573-EXP-V1.5-20241126\03-Software\CH07\GPIO-ASM-CH573\Debug/srcs/startup_CH573.S:151
	bltu a0, a1, 1b
   1352c:	feb56ce3          	bltu	a0,a1,13524 <handle_reset+0x84>
E:\16-24-BOOK\20-24-Machinery\22-24-CHB-20211026-20241126\06-User\AHL-CH573-EXP-V1.5-20241126\03-Software\CH07\GPIO-ASM-CH573\Debug/srcs/startup_CH573.S:153
2:
    li t0, 0x1880
   13530:	000022b7          	lui	t0,0x2
   13534:	88028293          	addi	t0,t0,-1920 # 1880 <MCU_SECTORSIZE+0x880>
E:\16-24-BOOK\20-24-Machinery\22-24-CHB-20211026-20241126\06-User\AHL-CH573-EXP-V1.5-20241126\03-Software\CH07\GPIO-ASM-CH573\Debug/srcs/startup_CH573.S:154
    csrs mstatus, t0
   13538:	3002a073          	csrs	mstatus,t0
E:\16-24-BOOK\20-24-Machinery\22-24-CHB-20211026-20241126\06-User\AHL-CH573-EXP-V1.5-20241126\03-Software\CH07\GPIO-ASM-CH573\Debug/srcs/startup_CH573.S:156

    jal Vectors_Init
   1353c:	00d000ef          	jal	ra,13d48 <Vectors_Init>
E:\16-24-BOOK\20-24-Machinery\22-24-CHB-20211026-20241126\06-User\AHL-CH573-EXP-V1.5-20241126\03-Software\CH07\GPIO-ASM-CH573\Debug/srcs/startup_CH573.S:157
	la t0, _vector_base
   13540:	fffff297          	auipc	t0,0xfffff
   13544:	ac428293          	addi	t0,t0,-1340 # 12004 <_einit>
E:\16-24-BOOK\20-24-Machinery\22-24-CHB-20211026-20241126\06-User\AHL-CH573-EXP-V1.5-20241126\03-Software\CH07\GPIO-ASM-CH573\Debug/srcs/startup_CH573.S:158
    ori t0, t0, 1
   13548:	0012e293          	ori	t0,t0,1
E:\16-24-BOOK\20-24-Machinery\22-24-CHB-20211026-20241126\06-User\AHL-CH573-EXP-V1.5-20241126\03-Software\CH07\GPIO-ASM-CH573\Debug/srcs/startup_CH573.S:159
	csrw mtvec, t0
   1354c:	30529073          	csrw	mtvec,t0
E:\16-24-BOOK\20-24-Machinery\22-24-CHB-20211026-20241126\06-User\AHL-CH573-EXP-V1.5-20241126\03-Software\CH07\GPIO-ASM-CH573\Debug/srcs/startup_CH573.S:160
	la t0, main
   13550:	00000297          	auipc	t0,0x0
   13554:	3a428293          	addi	t0,t0,932 # 138f4 <main>
E:\16-24-BOOK\20-24-Machinery\22-24-CHB-20211026-20241126\06-User\AHL-CH573-EXP-V1.5-20241126\03-Software\CH07\GPIO-ASM-CH573\Debug/srcs/startup_CH573.S:161
	csrw mepc, t0
   13558:	34129073          	csrw	mepc,t0
E:\16-24-BOOK\20-24-Machinery\22-24-CHB-20211026-20241126\06-User\AHL-CH573-EXP-V1.5-20241126\03-Software\CH07\GPIO-ASM-CH573\Debug/srcs/startup_CH573.S:168
	/* enable vector relocation
	li t0, 0xE000ED14
	li t1, 1
	sw t1, 0(t0)*/
	
	mret
   1355c:	30200073          	mret

00013560 <gpio_port_pin_resolution>:
gpio_port_pin_resolution():
E:\16-24-BOOK\20-24-Machinery\22-24-CHB-20211026-20241126\06-User\AHL-CH573-EXP-V1.5-20241126\03-Software\CH07\GPIO-ASM-CH573\Debug/srcs/gpio.s:15
.align 2                          /*指令和数据采用2字节对齐*/


gpio_port_pin_resolution:
	/* 进行入栈 */
	addi sp, sp, -64			/* 分配堆栈框架*/
   13560:	7139                	addi	sp,sp,-64
E:\16-24-BOOK\20-24-Machinery\22-24-CHB-20211026-20241126\06-User\AHL-CH573-EXP-V1.5-20241126\03-Software\CH07\GPIO-ASM-CH573\Debug/srcs/gpio.s:16
	sw ra, 60(sp)				/* 将寄存器地址写到堆栈上*/
   13562:	de06                	sw	ra,60(sp)
E:\16-24-BOOK\20-24-Machinery\22-24-CHB-20211026-20241126\06-User\AHL-CH573-EXP-V1.5-20241126\03-Software\CH07\GPIO-ASM-CH573\Debug/srcs/gpio.s:18
	/* 计算出GPIO端口号和引脚号 */
	srli t4,a0,0x8				/* t4=a0=端口号 srli是右移动指令*/
   13564:	00855e93          	srli	t4,a0,0x8
E:\16-24-BOOK\20-24-Machinery\22-24-CHB-20211026-20241126\06-User\AHL-CH573-EXP-V1.5-20241126\03-Software\CH07\GPIO-ASM-CH573\Debug/srcs/gpio.s:19
	andi t5,a0,255				/* t5=a0=引脚号 andi是按位与*/
   13568:	0ff57f13          	andi	t5,a0,255
E:\16-24-BOOK\20-24-Machinery\22-24-CHB-20211026-20241126\06-User\AHL-CH573-EXP-V1.5-20241126\03-Software\CH07\GPIO-ASM-CH573\Debug/srcs/gpio.s:20
	mv a0,t4
   1356c:	8576                	mv	a0,t4
E:\16-24-BOOK\20-24-Machinery\22-24-CHB-20211026-20241126\06-User\AHL-CH573-EXP-V1.5-20241126\03-Software\CH07\GPIO-ASM-CH573\Debug/srcs/gpio.s:21
	mv a1,t5
   1356e:	85fa                	mv	a1,t5
E:\16-24-BOOK\20-24-Machinery\22-24-CHB-20211026-20241126\06-User\AHL-CH573-EXP-V1.5-20241126\03-Software\CH07\GPIO-ASM-CH573\Debug/srcs/gpio.s:23
	/* 释放栈 */
	lw ra, 60(sp)               /* Restore the return address 恢复返回地址 LW 指令将一个 32 位数值从存储器读入寄存器 rd’中 */
   13570:	50f2                	lw	ra,60(sp)
E:\16-24-BOOK\20-24-Machinery\22-24-CHB-20211026-20241126\06-User\AHL-CH573-EXP-V1.5-20241126\03-Software\CH07\GPIO-ASM-CH573\Debug/srcs/gpio.s:24
    addi sp, sp, 64             /* Deallocating the stack frame 释放栈帧 addi相加指令*/
   13572:	6121                	addi	sp,sp,64
E:\16-24-BOOK\20-24-Machinery\22-24-CHB-20211026-20241126\06-User\AHL-CH573-EXP-V1.5-20241126\03-Software\CH07\GPIO-ASM-CH573\Debug/srcs/gpio.s:25
    mv  a0,	t4					/* load return value 0 读取返回值 */
   13574:	8576                	mv	a0,t4
E:\16-24-BOOK\20-24-Machinery\22-24-CHB-20211026-20241126\06-User\AHL-CH573-EXP-V1.5-20241126\03-Software\CH07\GPIO-ASM-CH573\Debug/srcs/gpio.s:26
    mv  a1, t5
   13576:	85fa                	mv	a1,t5
E:\16-24-BOOK\20-24-Machinery\22-24-CHB-20211026-20241126\06-User\AHL-CH573-EXP-V1.5-20241126\03-Software\CH07\GPIO-ASM-CH573\Debug/srcs/gpio.s:27
    ret							/* 返回 */
   13578:	8082                	ret

0001357a <gpio_init>:
gpio_init():
E:\16-24-BOOK\20-24-Machinery\22-24-CHB-20211026-20241126\06-User\AHL-CH573-EXP-V1.5-20241126\03-Software\CH07\GPIO-ASM-CH573\Debug/srcs/gpio.s:43
//           其中:x=0~4，对应A~E;n=0~31
//======================================================================  */
.type GPIO_init function          /*声明gpio_init为函数类型*/
.global gpio_init                 /*将gpio_init定义成全局函数，便于芯片初始化之后调用*/
gpio_init:
	addi sp, sp, -64			/* 分配堆栈框架*/
   1357a:	7139                	addi	sp,sp,-64
E:\16-24-BOOK\20-24-Machinery\22-24-CHB-20211026-20241126\06-User\AHL-CH573-EXP-V1.5-20241126\03-Software\CH07\GPIO-ASM-CH573\Debug/srcs/gpio.s:44
	sw ra, 60(sp)				/* 将寄存器地址写到堆栈上 SW指令将寄存器 rs2’中的 32 位值保存到存储器中*/
   1357c:	de06                	sw	ra,60(sp)
E:\16-24-BOOK\20-24-Machinery\22-24-CHB-20211026-20241126\06-User\AHL-CH573-EXP-V1.5-20241126\03-Software\CH07\GPIO-ASM-CH573\Debug/srcs/gpio.s:45
	mv a3,a2					/* 将函数第3个参数a2赋值给a3 */
   1357e:	86b2                	mv	a3,a2
E:\16-24-BOOK\20-24-Machinery\22-24-CHB-20211026-20241126\06-User\AHL-CH573-EXP-V1.5-20241126\03-Software\CH07\GPIO-ASM-CH573\Debug/srcs/gpio.s:46
	mv a2,a1					/* 将函数第2个参数a1赋值给a2*/
   13580:	862e                	mv	a2,a1
E:\16-24-BOOK\20-24-Machinery\22-24-CHB-20211026-20241126\06-User\AHL-CH573-EXP-V1.5-20241126\03-Software\CH07\GPIO-ASM-CH573\Debug/srcs/gpio.s:48
    /* 计算出GPIO端口号和引脚号 */
	srli t4,a0,0x8				/* t4=a0=端口号 */
   13582:	00855e93          	srli	t4,a0,0x8
E:\16-24-BOOK\20-24-Machinery\22-24-CHB-20211026-20241126\06-User\AHL-CH573-EXP-V1.5-20241126\03-Software\CH07\GPIO-ASM-CH573\Debug/srcs/gpio.s:49
	andi t5,a0,255				/* t5=a0=引脚号 */
   13586:	0ff57f13          	andi	t5,a0,255
E:\16-24-BOOK\20-24-Machinery\22-24-CHB-20211026-20241126\06-User\AHL-CH573-EXP-V1.5-20241126\03-Software\CH07\GPIO-ASM-CH573\Debug/srcs/gpio.s:50
	mv a0,t4					/* a0=端口号 */
   1358a:	8576                	mv	a0,t4
E:\16-24-BOOK\20-24-Machinery\22-24-CHB-20211026-20241126\06-User\AHL-CH573-EXP-V1.5-20241126\03-Software\CH07\GPIO-ASM-CH573\Debug/srcs/gpio.s:51
	mv a1,t5					/* a1=引脚号 */
   1358c:	85fa                	mv	a1,t5
E:\16-24-BOOK\20-24-Machinery\22-24-CHB-20211026-20241126\06-User\AHL-CH573-EXP-V1.5-20241126\03-Software\CH07\GPIO-ASM-CH573\Debug/srcs/gpio.s:54

    /* 判断端口号 */
    li a4, 0x00                 /* a4=0x00 */
   1358e:	4701                	li	a4,0
E:\16-24-BOOK\20-24-Machinery\22-24-CHB-20211026-20241126\06-User\AHL-CH573-EXP-V1.5-20241126\03-Software\CH07\GPIO-ASM-CH573\Debug/srcs/gpio.s:55
    beq a0, a4, GPIOA           /* 当（a0=端口号）=（a4=0x00）的时候跳转GPIOA */
   13590:	00e50363          	beq	a0,a4,13596 <GPIOA>
E:\16-24-BOOK\20-24-Machinery\22-24-CHB-20211026-20241126\06-User\AHL-CH573-EXP-V1.5-20241126\03-Software\CH07\GPIO-ASM-CH573\Debug/srcs/gpio.s:56
    j GPIOB                     /* 当（a0=端口号）!=（a4=0x00）的时候跳转GPIOA */
   13594:	a039                	j	135a2 <GPIOB>

00013596 <GPIOA>:
GPIOA():
E:\16-24-BOOK\20-24-Machinery\22-24-CHB-20211026-20241126\06-User\AHL-CH573-EXP-V1.5-20241126\03-Software\CH07\GPIO-ASM-CH573\Debug/srcs/gpio.s:61

/* 端口A GPIOA */
GPIOA:
    /* 判断GPIO输入输出模式 */
    beqz a2, GPIOA_input_H       /* 函数第2个参数a2=0，则跳转gpio_input_H */
   13596:	c63d                	beqz	a2,13604 <GPIOA_input_H>
E:\16-24-BOOK\20-24-Machinery\22-24-CHB-20211026-20241126\06-User\AHL-CH573-EXP-V1.5-20241126\03-Software\CH07\GPIO-ASM-CH573\Debug/srcs/gpio.s:62
    li t4,1						/* t4=1 */
   13598:	4e85                	li	t4,1
E:\16-24-BOOK\20-24-Machinery\22-24-CHB-20211026-20241126\06-User\AHL-CH573-EXP-V1.5-20241126\03-Software\CH07\GPIO-ASM-CH573\Debug/srcs/gpio.s:63
    beq a2,t4, GPIOA_output_H	/* 函数第2个参数a2=1，则跳转gpio_output_H */
   1359a:	01d60a63          	beq	a2,t4,135ae <GPIOA_output_H>
E:\16-24-BOOK\20-24-Machinery\22-24-CHB-20211026-20241126\06-User\AHL-CH573-EXP-V1.5-20241126\03-Software\CH07\GPIO-ASM-CH573\Debug/srcs/gpio.s:64
    li a2, ERROR
   1359e:	4605                	li	a2,1
E:\16-24-BOOK\20-24-Machinery\22-24-CHB-20211026-20241126\06-User\AHL-CH573-EXP-V1.5-20241126\03-Software\CH07\GPIO-ASM-CH573\Debug/srcs/gpio.s:65
    j exit
   135a0:	a8ed                	j	1369a <exit>

000135a2 <GPIOB>:
GPIOB():
E:\16-24-BOOK\20-24-Machinery\22-24-CHB-20211026-20241126\06-User\AHL-CH573-EXP-V1.5-20241126\03-Software\CH07\GPIO-ASM-CH573\Debug/srcs/gpio.s:70

/* 端口B GPIOB */
GPIOB:
    /* 判断GPIO输入输出模式 */
    beqz a2, GPIOB_input_H       /* 函数第2个参数a2=0，则跳转gpio_input_H */
   135a2:	ce61                	beqz	a2,1367a <GPIOB_input_H>
E:\16-24-BOOK\20-24-Machinery\22-24-CHB-20211026-20241126\06-User\AHL-CH573-EXP-V1.5-20241126\03-Software\CH07\GPIO-ASM-CH573\Debug/srcs/gpio.s:71
    li t4,1						/* t4=1 */
   135a4:	4e85                	li	t4,1
E:\16-24-BOOK\20-24-Machinery\22-24-CHB-20211026-20241126\06-User\AHL-CH573-EXP-V1.5-20241126\03-Software\CH07\GPIO-ASM-CH573\Debug/srcs/gpio.s:72
    beq a2,t4, GPIOB_output_H	/* 函数第2个参数a2=1，则跳转gpio_output_H */
   135a6:	07d60f63          	beq	a2,t4,13624 <GPIOB_output_H>
E:\16-24-BOOK\20-24-Machinery\22-24-CHB-20211026-20241126\06-User\AHL-CH573-EXP-V1.5-20241126\03-Software\CH07\GPIO-ASM-CH573\Debug/srcs/gpio.s:73
    li a2, ERROR
   135aa:	4605                	li	a2,1
E:\16-24-BOOK\20-24-Machinery\22-24-CHB-20211026-20241126\06-User\AHL-CH573-EXP-V1.5-20241126\03-Software\CH07\GPIO-ASM-CH573\Debug/srcs/gpio.s:74
    j exit
   135ac:	a0fd                	j	1369a <exit>

000135ae <GPIOA_output_H>:
GPIOA_output_H():
E:\16-24-BOOK\20-24-Machinery\22-24-CHB-20211026-20241126\06-User\AHL-CH573-EXP-V1.5-20241126\03-Software\CH07\GPIO-ASM-CH573\Debug/srcs/gpio.s:78

/* 配置GPIOA引脚为输出模式 */
GPIOA_output_H:
    li t0, R32_PA_DIR           /* 将PA方向寄存器赋值给t0 */
   135ae:	400012b7          	lui	t0,0x40001
   135b2:	0a028293          	addi	t0,t0,160 # 400010a0 <R32_PA_DIR>
E:\16-24-BOOK\20-24-Machinery\22-24-CHB-20211026-20241126\06-User\AHL-CH573-EXP-V1.5-20241126\03-Software\CH07\GPIO-ASM-CH573\Debug/srcs/gpio.s:79
    li t1, GPIO_OUTPUT          /* t1=GPIO_OUTPUT=0x01 */
   135b6:	4305                	li	t1,1
E:\16-24-BOOK\20-24-Machinery\22-24-CHB-20211026-20241126\06-User\AHL-CH573-EXP-V1.5-20241126\03-Software\CH07\GPIO-ASM-CH573\Debug/srcs/gpio.s:80
    sll t1, t1, a1              /* 将t1左移（a1=引脚号） */
   135b8:	00b31333          	sll	t1,t1,a1
E:\16-24-BOOK\20-24-Machinery\22-24-CHB-20211026-20241126\06-User\AHL-CH573-EXP-V1.5-20241126\03-Software\CH07\GPIO-ASM-CH573\Debug/srcs/gpio.s:81
    lw t2, 0(t0)                /* 读取R32_PA_DIR寄存器的值 */
   135bc:	0002a383          	lw	t2,0(t0)
E:\16-24-BOOK\20-24-Machinery\22-24-CHB-20211026-20241126\06-User\AHL-CH573-EXP-V1.5-20241126\03-Software\CH07\GPIO-ASM-CH573\Debug/srcs/gpio.s:82
    or t2, t2, t1               /* (t1=(GPIO_OUTPUT << pin ))与(t2=(R32_PA_DIR))值按位或，存入t2 */
   135c0:	0063e3b3          	or	t2,t2,t1
E:\16-24-BOOK\20-24-Machinery\22-24-CHB-20211026-20241126\06-User\AHL-CH573-EXP-V1.5-20241126\03-Software\CH07\GPIO-ASM-CH573\Debug/srcs/gpio.s:83
    sw t2, 0(t0)                /* 设置GPIOAx的方向 */
   135c4:	0072a023          	sw	t2,0(t0)
E:\16-24-BOOK\20-24-Machinery\22-24-CHB-20211026-20241126\06-User\AHL-CH573-EXP-V1.5-20241126\03-Software\CH07\GPIO-ASM-CH573\Debug/srcs/gpio.s:85

    beqz a3, OUT_PUT_LOW_A      /* 初始状态输出低电平 */
   135c8:	c291                	beqz	a3,135cc <OUT_PUT_LOW_A>
E:\16-24-BOOK\20-24-Machinery\22-24-CHB-20211026-20241126\06-User\AHL-CH573-EXP-V1.5-20241126\03-Software\CH07\GPIO-ASM-CH573\Debug/srcs/gpio.s:86
    j OUT_PUT_HIGH_A            /* 初始状态输出高电平 */
   135ca:	a839                	j	135e8 <OUT_PUT_HIGH_A>

000135cc <OUT_PUT_LOW_A>:
OUT_PUT_LOW_A():
E:\16-24-BOOK\20-24-Machinery\22-24-CHB-20211026-20241126\06-User\AHL-CH573-EXP-V1.5-20241126\03-Software\CH07\GPIO-ASM-CH573\Debug/srcs/gpio.s:90

/* 输出低电平 */
OUT_PUT_LOW_A:
    li t0, R32_PA_CLR           /* 将R32_PA_CLR寄存器赋值给t0 */
   135cc:	400012b7          	lui	t0,0x40001
   135d0:	0ac28293          	addi	t0,t0,172 # 400010ac <R32_PA_CLR>
E:\16-24-BOOK\20-24-Machinery\22-24-CHB-20211026-20241126\06-User\AHL-CH573-EXP-V1.5-20241126\03-Software\CH07\GPIO-ASM-CH573\Debug/srcs/gpio.s:91
    li t1, 1                    /* t1=1 */
   135d4:	4305                	li	t1,1
E:\16-24-BOOK\20-24-Machinery\22-24-CHB-20211026-20241126\06-User\AHL-CH573-EXP-V1.5-20241126\03-Software\CH07\GPIO-ASM-CH573\Debug/srcs/gpio.s:92
    sll t1, t1, a1              /* 将t1左移（a1=引脚号） */
   135d6:	00b31333          	sll	t1,t1,a1
E:\16-24-BOOK\20-24-Machinery\22-24-CHB-20211026-20241126\06-User\AHL-CH573-EXP-V1.5-20241126\03-Software\CH07\GPIO-ASM-CH573\Debug/srcs/gpio.s:93
    lw t2, 0(t0)                /* 读取R32_PA_CLR寄存器的值 */
   135da:	0002a383          	lw	t2,0(t0)
E:\16-24-BOOK\20-24-Machinery\22-24-CHB-20211026-20241126\06-User\AHL-CH573-EXP-V1.5-20241126\03-Software\CH07\GPIO-ASM-CH573\Debug/srcs/gpio.s:94
    or t2, t2, t1               /* (t1=(1 << pin ))与(t2=(R32_PA_CLR))值按位或，存入t2 */
   135de:	0063e3b3          	or	t2,t2,t1
E:\16-24-BOOK\20-24-Machinery\22-24-CHB-20211026-20241126\06-User\AHL-CH573-EXP-V1.5-20241126\03-Software\CH07\GPIO-ASM-CH573\Debug/srcs/gpio.s:95
    sw t2, 0(t0)                /* 设置GPIOAx的输出值 */
   135e2:	0072a023          	sw	t2,0(t0)
E:\16-24-BOOK\20-24-Machinery\22-24-CHB-20211026-20241126\06-User\AHL-CH573-EXP-V1.5-20241126\03-Software\CH07\GPIO-ASM-CH573\Debug/srcs/gpio.s:97

    j exit
   135e6:	a855                	j	1369a <exit>

000135e8 <OUT_PUT_HIGH_A>:
OUT_PUT_HIGH_A():
E:\16-24-BOOK\20-24-Machinery\22-24-CHB-20211026-20241126\06-User\AHL-CH573-EXP-V1.5-20241126\03-Software\CH07\GPIO-ASM-CH573\Debug/srcs/gpio.s:101

/* 输出高电平 */
OUT_PUT_HIGH_A:
    li t0, R32_PA_OUT           /* 将R32_PA_OUT寄存器赋值给t0 */
   135e8:	400012b7          	lui	t0,0x40001
   135ec:	0a828293          	addi	t0,t0,168 # 400010a8 <R32_PA_OUT>
E:\16-24-BOOK\20-24-Machinery\22-24-CHB-20211026-20241126\06-User\AHL-CH573-EXP-V1.5-20241126\03-Software\CH07\GPIO-ASM-CH573\Debug/srcs/gpio.s:102
    li t1, 1                    /* t1=1 */
   135f0:	4305                	li	t1,1
E:\16-24-BOOK\20-24-Machinery\22-24-CHB-20211026-20241126\06-User\AHL-CH573-EXP-V1.5-20241126\03-Software\CH07\GPIO-ASM-CH573\Debug/srcs/gpio.s:103
    sll t1, t1, a1              /* 将t1左移（a1=引脚号） */
   135f2:	00b31333          	sll	t1,t1,a1
E:\16-24-BOOK\20-24-Machinery\22-24-CHB-20211026-20241126\06-User\AHL-CH573-EXP-V1.5-20241126\03-Software\CH07\GPIO-ASM-CH573\Debug/srcs/gpio.s:104
    lw t2, 0(t0)                /* 读取R32_PA_OUT寄存器的值 */
   135f6:	0002a383          	lw	t2,0(t0)
E:\16-24-BOOK\20-24-Machinery\22-24-CHB-20211026-20241126\06-User\AHL-CH573-EXP-V1.5-20241126\03-Software\CH07\GPIO-ASM-CH573\Debug/srcs/gpio.s:105
    or t2, t2, t1               /* (t1=(1 << pin ))与(t2=(R32_PA_OUT))值按位或，存入t2 */
   135fa:	0063e3b3          	or	t2,t2,t1
E:\16-24-BOOK\20-24-Machinery\22-24-CHB-20211026-20241126\06-User\AHL-CH573-EXP-V1.5-20241126\03-Software\CH07\GPIO-ASM-CH573\Debug/srcs/gpio.s:106
    sw t2, 0(t0)                /* 设置GPIOAx的输出值 */
   135fe:	0072a023          	sw	t2,0(t0)
E:\16-24-BOOK\20-24-Machinery\22-24-CHB-20211026-20241126\06-User\AHL-CH573-EXP-V1.5-20241126\03-Software\CH07\GPIO-ASM-CH573\Debug/srcs/gpio.s:108

    j exit
   13602:	a861                	j	1369a <exit>

00013604 <GPIOA_input_H>:
GPIOA_input_H():
E:\16-24-BOOK\20-24-Machinery\22-24-CHB-20211026-20241126\06-User\AHL-CH573-EXP-V1.5-20241126\03-Software\CH07\GPIO-ASM-CH573\Debug/srcs/gpio.s:112

/* 配置GPIOA引脚为输入模式 */
GPIOA_input_H:
    li t0, R32_PA_DIR           /* 将R32_PA_DIR寄存器赋值给t0 */
   13604:	400012b7          	lui	t0,0x40001
   13608:	0a028293          	addi	t0,t0,160 # 400010a0 <R32_PA_DIR>
E:\16-24-BOOK\20-24-Machinery\22-24-CHB-20211026-20241126\06-User\AHL-CH573-EXP-V1.5-20241126\03-Software\CH07\GPIO-ASM-CH573\Debug/srcs/gpio.s:113
    li t1, GPIO_OUTPUT          /* t1=GPIO_OUTPUT=0x01 */
   1360c:	4305                	li	t1,1
E:\16-24-BOOK\20-24-Machinery\22-24-CHB-20211026-20241126\06-User\AHL-CH573-EXP-V1.5-20241126\03-Software\CH07\GPIO-ASM-CH573\Debug/srcs/gpio.s:114
    sll t1, t1, a1              /* 将t1左移（a1=引脚号） */
   1360e:	00b31333          	sll	t1,t1,a1
E:\16-24-BOOK\20-24-Machinery\22-24-CHB-20211026-20241126\06-User\AHL-CH573-EXP-V1.5-20241126\03-Software\CH07\GPIO-ASM-CH573\Debug/srcs/gpio.s:115
    not t1, t1                  /* t1取反存在t1，对应位为0 */
   13612:	fff34313          	not	t1,t1
E:\16-24-BOOK\20-24-Machinery\22-24-CHB-20211026-20241126\06-User\AHL-CH573-EXP-V1.5-20241126\03-Software\CH07\GPIO-ASM-CH573\Debug/srcs/gpio.s:116
    lw t2, 0(t0)                /* 读取R32_PA_DIR寄存器的值 */
   13616:	0002a383          	lw	t2,0(t0)
E:\16-24-BOOK\20-24-Machinery\22-24-CHB-20211026-20241126\06-User\AHL-CH573-EXP-V1.5-20241126\03-Software\CH07\GPIO-ASM-CH573\Debug/srcs/gpio.s:117
    and t2, t2, t1              /* (t1=~(GPIO_OUTPUT << pin ))与(t2=(R32_PA_DIR))值按位与，存入t2 */
   1361a:	0063f3b3          	and	t2,t2,t1
E:\16-24-BOOK\20-24-Machinery\22-24-CHB-20211026-20241126\06-User\AHL-CH573-EXP-V1.5-20241126\03-Software\CH07\GPIO-ASM-CH573\Debug/srcs/gpio.s:118
    sw t2, 0(t0)                /* 设置GPIOAx的方向 */
   1361e:	0072a023          	sw	t2,0(t0)
E:\16-24-BOOK\20-24-Machinery\22-24-CHB-20211026-20241126\06-User\AHL-CH573-EXP-V1.5-20241126\03-Software\CH07\GPIO-ASM-CH573\Debug/srcs/gpio.s:120

    j exit
   13622:	a8a5                	j	1369a <exit>

00013624 <GPIOB_output_H>:
GPIOB_output_H():
E:\16-24-BOOK\20-24-Machinery\22-24-CHB-20211026-20241126\06-User\AHL-CH573-EXP-V1.5-20241126\03-Software\CH07\GPIO-ASM-CH573\Debug/srcs/gpio.s:124

/* 配置GPIOB引脚为输出模式 */
GPIOB_output_H:
    li t0, R32_PB_DIR           /* 将PB方向寄存器赋值给t0 */
   13624:	400012b7          	lui	t0,0x40001
   13628:	0c028293          	addi	t0,t0,192 # 400010c0 <R32_PB_DIR>
E:\16-24-BOOK\20-24-Machinery\22-24-CHB-20211026-20241126\06-User\AHL-CH573-EXP-V1.5-20241126\03-Software\CH07\GPIO-ASM-CH573\Debug/srcs/gpio.s:125
    li t1, GPIO_OUTPUT          /* t1=GPIO_OUTPUT=0x01 */
   1362c:	4305                	li	t1,1
E:\16-24-BOOK\20-24-Machinery\22-24-CHB-20211026-20241126\06-User\AHL-CH573-EXP-V1.5-20241126\03-Software\CH07\GPIO-ASM-CH573\Debug/srcs/gpio.s:126
    sll t1, t1, a1              /* 将t1左移（a1=引脚号） */
   1362e:	00b31333          	sll	t1,t1,a1
E:\16-24-BOOK\20-24-Machinery\22-24-CHB-20211026-20241126\06-User\AHL-CH573-EXP-V1.5-20241126\03-Software\CH07\GPIO-ASM-CH573\Debug/srcs/gpio.s:127
    lw t2, 0(t0)                /* 读取R32_PB_DIR寄存器的值 */
   13632:	0002a383          	lw	t2,0(t0)
E:\16-24-BOOK\20-24-Machinery\22-24-CHB-20211026-20241126\06-User\AHL-CH573-EXP-V1.5-20241126\03-Software\CH07\GPIO-ASM-CH573\Debug/srcs/gpio.s:128
    or t2, t2, t1               /* (t1=(GPIO_OUTPUT << pin ))与(t2=(R32_PB_DIR))值按位或，存入t2 */
   13636:	0063e3b3          	or	t2,t2,t1
E:\16-24-BOOK\20-24-Machinery\22-24-CHB-20211026-20241126\06-User\AHL-CH573-EXP-V1.5-20241126\03-Software\CH07\GPIO-ASM-CH573\Debug/srcs/gpio.s:129
    sw t2, 0(t0)                /* 设置GPIOBx的方向 */
   1363a:	0072a023          	sw	t2,0(t0)
E:\16-24-BOOK\20-24-Machinery\22-24-CHB-20211026-20241126\06-User\AHL-CH573-EXP-V1.5-20241126\03-Software\CH07\GPIO-ASM-CH573\Debug/srcs/gpio.s:131

    beqz a3, OUT_PUT_LOW_B      /* 初始状态输出低电平 */
   1363e:	c291                	beqz	a3,13642 <OUT_PUT_LOW_B>
E:\16-24-BOOK\20-24-Machinery\22-24-CHB-20211026-20241126\06-User\AHL-CH573-EXP-V1.5-20241126\03-Software\CH07\GPIO-ASM-CH573\Debug/srcs/gpio.s:132
    j OUT_PUT_HIGH_B            /* 初始状态输出高电平 */
   13640:	a839                	j	1365e <OUT_PUT_HIGH_B>

00013642 <OUT_PUT_LOW_B>:
OUT_PUT_LOW_B():
E:\16-24-BOOK\20-24-Machinery\22-24-CHB-20211026-20241126\06-User\AHL-CH573-EXP-V1.5-20241126\03-Software\CH07\GPIO-ASM-CH573\Debug/srcs/gpio.s:136

/* 输出低电平 */
OUT_PUT_LOW_B:
    li t0, R32_PB_CLR           /* 将R32_PB_CLR寄存器赋值给t0 */
   13642:	400012b7          	lui	t0,0x40001
   13646:	0cc28293          	addi	t0,t0,204 # 400010cc <R32_PB_CLR>
E:\16-24-BOOK\20-24-Machinery\22-24-CHB-20211026-20241126\06-User\AHL-CH573-EXP-V1.5-20241126\03-Software\CH07\GPIO-ASM-CH573\Debug/srcs/gpio.s:137
    li t1, 1                    /* t1=1 */
   1364a:	4305                	li	t1,1
E:\16-24-BOOK\20-24-Machinery\22-24-CHB-20211026-20241126\06-User\AHL-CH573-EXP-V1.5-20241126\03-Software\CH07\GPIO-ASM-CH573\Debug/srcs/gpio.s:138
    sll t1, t1, a1              /* 将t1左移（a1=引脚号） */
   1364c:	00b31333          	sll	t1,t1,a1
E:\16-24-BOOK\20-24-Machinery\22-24-CHB-20211026-20241126\06-User\AHL-CH573-EXP-V1.5-20241126\03-Software\CH07\GPIO-ASM-CH573\Debug/srcs/gpio.s:139
    lw t2, 0(t0)                /* 读取R32_PB_CLR寄存器的值 */
   13650:	0002a383          	lw	t2,0(t0)
E:\16-24-BOOK\20-24-Machinery\22-24-CHB-20211026-20241126\06-User\AHL-CH573-EXP-V1.5-20241126\03-Software\CH07\GPIO-ASM-CH573\Debug/srcs/gpio.s:140
    or t2, t2, t1               /* (t1=(1 << pin ))与(t2=(R32_PB_CLR))值按位或，存入t2 */
   13654:	0063e3b3          	or	t2,t2,t1
E:\16-24-BOOK\20-24-Machinery\22-24-CHB-20211026-20241126\06-User\AHL-CH573-EXP-V1.5-20241126\03-Software\CH07\GPIO-ASM-CH573\Debug/srcs/gpio.s:141
    sw t2, 0(t0)                /* 设置GPIOBx的输出值 */
   13658:	0072a023          	sw	t2,0(t0)
E:\16-24-BOOK\20-24-Machinery\22-24-CHB-20211026-20241126\06-User\AHL-CH573-EXP-V1.5-20241126\03-Software\CH07\GPIO-ASM-CH573\Debug/srcs/gpio.s:143

    j exit
   1365c:	a83d                	j	1369a <exit>

0001365e <OUT_PUT_HIGH_B>:
OUT_PUT_HIGH_B():
E:\16-24-BOOK\20-24-Machinery\22-24-CHB-20211026-20241126\06-User\AHL-CH573-EXP-V1.5-20241126\03-Software\CH07\GPIO-ASM-CH573\Debug/srcs/gpio.s:147

/* 输出高电平 */
OUT_PUT_HIGH_B:
    li t0, R32_PB_OUT           /* 将R32_PB_OUT寄存器赋值给t0 */
   1365e:	400012b7          	lui	t0,0x40001
   13662:	0c828293          	addi	t0,t0,200 # 400010c8 <R32_PB_OUT>
E:\16-24-BOOK\20-24-Machinery\22-24-CHB-20211026-20241126\06-User\AHL-CH573-EXP-V1.5-20241126\03-Software\CH07\GPIO-ASM-CH573\Debug/srcs/gpio.s:148
    li t1, 1                    /* t1=1 */
   13666:	4305                	li	t1,1
E:\16-24-BOOK\20-24-Machinery\22-24-CHB-20211026-20241126\06-User\AHL-CH573-EXP-V1.5-20241126\03-Software\CH07\GPIO-ASM-CH573\Debug/srcs/gpio.s:149
    sll t1, t1, a1              /* 将t1左移（a1=引脚号） */
   13668:	00b31333          	sll	t1,t1,a1
E:\16-24-BOOK\20-24-Machinery\22-24-CHB-20211026-20241126\06-User\AHL-CH573-EXP-V1.5-20241126\03-Software\CH07\GPIO-ASM-CH573\Debug/srcs/gpio.s:150
    lw t2, 0(t0)                /* 读取R32_PB_OUT寄存器的值 */
   1366c:	0002a383          	lw	t2,0(t0)
E:\16-24-BOOK\20-24-Machinery\22-24-CHB-20211026-20241126\06-User\AHL-CH573-EXP-V1.5-20241126\03-Software\CH07\GPIO-ASM-CH573\Debug/srcs/gpio.s:151
    or t2, t2, t1               /* (t1=(1 << pin ))与(t2=(R32_PB_OUT))值按位或，存入t2 */
   13670:	0063e3b3          	or	t2,t2,t1
E:\16-24-BOOK\20-24-Machinery\22-24-CHB-20211026-20241126\06-User\AHL-CH573-EXP-V1.5-20241126\03-Software\CH07\GPIO-ASM-CH573\Debug/srcs/gpio.s:152
    sw t2, 0(t0)                /* 设置GPIOBx的输出值 */
   13674:	0072a023          	sw	t2,0(t0)
E:\16-24-BOOK\20-24-Machinery\22-24-CHB-20211026-20241126\06-User\AHL-CH573-EXP-V1.5-20241126\03-Software\CH07\GPIO-ASM-CH573\Debug/srcs/gpio.s:154

    j exit
   13678:	a00d                	j	1369a <exit>

0001367a <GPIOB_input_H>:
GPIOB_input_H():
E:\16-24-BOOK\20-24-Machinery\22-24-CHB-20211026-20241126\06-User\AHL-CH573-EXP-V1.5-20241126\03-Software\CH07\GPIO-ASM-CH573\Debug/srcs/gpio.s:158

/* 配置GPIOB引脚为输入模式 */
GPIOB_input_H:
    li t0, R32_PB_DIR           /* 将R32_PB_DIR寄存器赋值给t0 */
   1367a:	400012b7          	lui	t0,0x40001
   1367e:	0c028293          	addi	t0,t0,192 # 400010c0 <R32_PB_DIR>
E:\16-24-BOOK\20-24-Machinery\22-24-CHB-20211026-20241126\06-User\AHL-CH573-EXP-V1.5-20241126\03-Software\CH07\GPIO-ASM-CH573\Debug/srcs/gpio.s:159
    li t1, GPIO_OUTPUT          /* t1=GPIO_OUTPUT=0x01 */
   13682:	4305                	li	t1,1
E:\16-24-BOOK\20-24-Machinery\22-24-CHB-20211026-20241126\06-User\AHL-CH573-EXP-V1.5-20241126\03-Software\CH07\GPIO-ASM-CH573\Debug/srcs/gpio.s:160
    sll t1, t1, a1              /* 将t1左移（a1=引脚号） */
   13684:	00b31333          	sll	t1,t1,a1
E:\16-24-BOOK\20-24-Machinery\22-24-CHB-20211026-20241126\06-User\AHL-CH573-EXP-V1.5-20241126\03-Software\CH07\GPIO-ASM-CH573\Debug/srcs/gpio.s:161
    not t1, t1                  /* t1取反存在t1，对应位为0 */
   13688:	fff34313          	not	t1,t1
E:\16-24-BOOK\20-24-Machinery\22-24-CHB-20211026-20241126\06-User\AHL-CH573-EXP-V1.5-20241126\03-Software\CH07\GPIO-ASM-CH573\Debug/srcs/gpio.s:162
    lw t2, 0(t0)                /* 读取R32_PB_DIR寄存器的值 */
   1368c:	0002a383          	lw	t2,0(t0)
E:\16-24-BOOK\20-24-Machinery\22-24-CHB-20211026-20241126\06-User\AHL-CH573-EXP-V1.5-20241126\03-Software\CH07\GPIO-ASM-CH573\Debug/srcs/gpio.s:163
    and t2, t2, t1              /* (t1=~(GPIO_OUTPUT << pin ))与(t2=(R32_PB_DIR))值按位与，存入t2 */
   13690:	0063f3b3          	and	t2,t2,t1
E:\16-24-BOOK\20-24-Machinery\22-24-CHB-20211026-20241126\06-User\AHL-CH573-EXP-V1.5-20241126\03-Software\CH07\GPIO-ASM-CH573\Debug/srcs/gpio.s:164
    sw t2, 0(t0)                /* 设置GPIOBx的方向 */
   13694:	0072a023          	sw	t2,0(t0)
E:\16-24-BOOK\20-24-Machinery\22-24-CHB-20211026-20241126\06-User\AHL-CH573-EXP-V1.5-20241126\03-Software\CH07\GPIO-ASM-CH573\Debug/srcs/gpio.s:165
    j exit
   13698:	a009                	j	1369a <exit>

0001369a <exit>:
exit():
E:\16-24-BOOK\20-24-Machinery\22-24-CHB-20211026-20241126\06-User\AHL-CH573-EXP-V1.5-20241126\03-Software\CH07\GPIO-ASM-CH573\Debug/srcs/gpio.s:169

/* 退出栈 */
exit:
	lw ra, 60(sp)               /* Restore the return address 恢复返回地址 */
   1369a:	50f2                	lw	ra,60(sp)
E:\16-24-BOOK\20-24-Machinery\22-24-CHB-20211026-20241126\06-User\AHL-CH573-EXP-V1.5-20241126\03-Software\CH07\GPIO-ASM-CH573\Debug/srcs/gpio.s:170
    addi sp, sp, 64             /* Deallocating the stack frame 释放栈帧 */
   1369c:	6121                	addi	sp,sp,64
E:\16-24-BOOK\20-24-Machinery\22-24-CHB-20211026-20241126\06-User\AHL-CH573-EXP-V1.5-20241126\03-Software\CH07\GPIO-ASM-CH573\Debug/srcs/gpio.s:171
    li  a0,0					/* load return value 0 读取返回值 */
   1369e:	4501                	li	a0,0
E:\16-24-BOOK\20-24-Machinery\22-24-CHB-20211026-20241126\06-User\AHL-CH573-EXP-V1.5-20241126\03-Software\CH07\GPIO-ASM-CH573\Debug/srcs/gpio.s:172
	ret
   136a0:	8082                	ret

000136a2 <gpio_set>:
gpio_set():
E:\16-24-BOOK\20-24-Machinery\22-24-CHB-20211026-20241126\06-User\AHL-CH573-EXP-V1.5-20241126\03-Software\CH07\GPIO-ASM-CH573\Debug/srcs/gpio.s:189
.global gpio_set                /*将gpio_set定义成全局函数，便于芯片初始化之后调用*/
gpio_set:
/* 通过调整栈指针分配出出栈空间用于存放局部变量和存放调用函数返回地址，
      主函数中栈空间分出16字节，   ra为返回地址寄存器，占用4个字节，将ra
      中的返回地址放入sp指针地址偏移16个字节的位置*/
	addi sp, sp, -64			/* 分配栈空间*/
   136a2:	7139                	addi	sp,sp,-64
E:\16-24-BOOK\20-24-Machinery\22-24-CHB-20211026-20241126\06-User\AHL-CH573-EXP-V1.5-20241126\03-Software\CH07\GPIO-ASM-CH573\Debug/srcs/gpio.s:190
	sw ra, 60(sp)				/* 存储返回地址 */
   136a4:	de06                	sw	ra,60(sp)
E:\16-24-BOOK\20-24-Machinery\22-24-CHB-20211026-20241126\06-User\AHL-CH573-EXP-V1.5-20241126\03-Software\CH07\GPIO-ASM-CH573\Debug/srcs/gpio.s:192

	mv a2,a1					/* 将函数第二个参数赋值给a2 */
   136a6:	862e                	mv	a2,a1
E:\16-24-BOOK\20-24-Machinery\22-24-CHB-20211026-20241126\06-User\AHL-CH573-EXP-V1.5-20241126\03-Software\CH07\GPIO-ASM-CH573\Debug/srcs/gpio.s:194
	/* 计算出GPIO端口号和引脚号 */
	srli t4,a0,0x8				/* t4=a0=端口号 */
   136a8:	00855e93          	srli	t4,a0,0x8
E:\16-24-BOOK\20-24-Machinery\22-24-CHB-20211026-20241126\06-User\AHL-CH573-EXP-V1.5-20241126\03-Software\CH07\GPIO-ASM-CH573\Debug/srcs/gpio.s:195
	andi t5,a0,255				/* a2=a0=引脚号 */
   136ac:	0ff57f13          	andi	t5,a0,255
E:\16-24-BOOK\20-24-Machinery\22-24-CHB-20211026-20241126\06-User\AHL-CH573-EXP-V1.5-20241126\03-Software\CH07\GPIO-ASM-CH573\Debug/srcs/gpio.s:196
	mv a0,t4					/* a0=端口号 */
   136b0:	8576                	mv	a0,t4
E:\16-24-BOOK\20-24-Machinery\22-24-CHB-20211026-20241126\06-User\AHL-CH573-EXP-V1.5-20241126\03-Software\CH07\GPIO-ASM-CH573\Debug/srcs/gpio.s:197
	mv a1,t5					/* a1=引脚号 */
   136b2:	85fa                	mv	a1,t5
E:\16-24-BOOK\20-24-Machinery\22-24-CHB-20211026-20241126\06-User\AHL-CH573-EXP-V1.5-20241126\03-Software\CH07\GPIO-ASM-CH573\Debug/srcs/gpio.s:200

    /* 判断端口号 */
    li a4, 0x00                 /* a4=0x00 */
   136b4:	4701                	li	a4,0
E:\16-24-BOOK\20-24-Machinery\22-24-CHB-20211026-20241126\06-User\AHL-CH573-EXP-V1.5-20241126\03-Software\CH07\GPIO-ASM-CH573\Debug/srcs/gpio.s:201
    beq a0, a4, GPIOA_SET       /* 当（a0=端口号）=（a4=0x00）的时候跳转GPIOA_SET */
   136b6:	00e50363          	beq	a0,a4,136bc <GPIOA_SET>
E:\16-24-BOOK\20-24-Machinery\22-24-CHB-20211026-20241126\06-User\AHL-CH573-EXP-V1.5-20241126\03-Software\CH07\GPIO-ASM-CH573\Debug/srcs/gpio.s:202
    j GPIOB_SET                 /* 当（a0=端口号）!=（a4=0x00）的时候跳转GPIOB_SET */
   136ba:	a83d                	j	136f8 <GPIOB_SET>

000136bc <GPIOA_SET>:
GPIOA_SET():
E:\16-24-BOOK\20-24-Machinery\22-24-CHB-20211026-20241126\06-User\AHL-CH573-EXP-V1.5-20241126\03-Software\CH07\GPIO-ASM-CH573\Debug/srcs/gpio.s:205

GPIOA_SET:
    beqz a2, GPIOA_SET_LOW      /* 设置输出低电平 */
   136bc:	c211                	beqz	a2,136c0 <GPIOA_SET_LOW>
E:\16-24-BOOK\20-24-Machinery\22-24-CHB-20211026-20241126\06-User\AHL-CH573-EXP-V1.5-20241126\03-Software\CH07\GPIO-ASM-CH573\Debug/srcs/gpio.s:206
    j GPIOA_SET_HIGH            /* 设置输出高电平 */
   136be:	a839                	j	136dc <GPIOA_SET_HIGH>

000136c0 <GPIOA_SET_LOW>:
GPIOA_SET_LOW():
E:\16-24-BOOK\20-24-Machinery\22-24-CHB-20211026-20241126\06-User\AHL-CH573-EXP-V1.5-20241126\03-Software\CH07\GPIO-ASM-CH573\Debug/srcs/gpio.s:210

/* 输出低电平 */
GPIOA_SET_LOW:
    li t0, R32_PA_CLR           /* 将R32_PA_CLR寄存器赋值给t0 */
   136c0:	400012b7          	lui	t0,0x40001
   136c4:	0ac28293          	addi	t0,t0,172 # 400010ac <R32_PA_CLR>
E:\16-24-BOOK\20-24-Machinery\22-24-CHB-20211026-20241126\06-User\AHL-CH573-EXP-V1.5-20241126\03-Software\CH07\GPIO-ASM-CH573\Debug/srcs/gpio.s:211
    li t1, 1                    /* t1=1 */
   136c8:	4305                	li	t1,1
E:\16-24-BOOK\20-24-Machinery\22-24-CHB-20211026-20241126\06-User\AHL-CH573-EXP-V1.5-20241126\03-Software\CH07\GPIO-ASM-CH573\Debug/srcs/gpio.s:212
    sll t1, t1, a1              /* 将t1左移（a1=引脚号） */
   136ca:	00b31333          	sll	t1,t1,a1
E:\16-24-BOOK\20-24-Machinery\22-24-CHB-20211026-20241126\06-User\AHL-CH573-EXP-V1.5-20241126\03-Software\CH07\GPIO-ASM-CH573\Debug/srcs/gpio.s:213
    lw t2, 0(t0)                /* 读取R32_PA_CLR寄存器的值 */
   136ce:	0002a383          	lw	t2,0(t0)
E:\16-24-BOOK\20-24-Machinery\22-24-CHB-20211026-20241126\06-User\AHL-CH573-EXP-V1.5-20241126\03-Software\CH07\GPIO-ASM-CH573\Debug/srcs/gpio.s:214
    or t2, t2, t1               /* (t1=(1 << pin ))与(t2=(R32_PA_CLR))值按位或，存入t2 */
   136d2:	0063e3b3          	or	t2,t2,t1
E:\16-24-BOOK\20-24-Machinery\22-24-CHB-20211026-20241126\06-User\AHL-CH573-EXP-V1.5-20241126\03-Software\CH07\GPIO-ASM-CH573\Debug/srcs/gpio.s:215
    sw t2, 0(t0)                /* 设置GPIOAx的输出值 */
   136d6:	0072a023          	sw	t2,0(t0)
E:\16-24-BOOK\20-24-Machinery\22-24-CHB-20211026-20241126\06-User\AHL-CH573-EXP-V1.5-20241126\03-Software\CH07\GPIO-ASM-CH573\Debug/srcs/gpio.s:217

    j SET_exit
   136da:	a8a9                	j	13734 <SET_exit>

000136dc <GPIOA_SET_HIGH>:
GPIOA_SET_HIGH():
E:\16-24-BOOK\20-24-Machinery\22-24-CHB-20211026-20241126\06-User\AHL-CH573-EXP-V1.5-20241126\03-Software\CH07\GPIO-ASM-CH573\Debug/srcs/gpio.s:221

/* 输出高电平 */
GPIOA_SET_HIGH:
    li t0, R32_PA_OUT           /* 将R32_PA_OUT寄存器赋值给t0 */
   136dc:	400012b7          	lui	t0,0x40001
   136e0:	0a828293          	addi	t0,t0,168 # 400010a8 <R32_PA_OUT>
E:\16-24-BOOK\20-24-Machinery\22-24-CHB-20211026-20241126\06-User\AHL-CH573-EXP-V1.5-20241126\03-Software\CH07\GPIO-ASM-CH573\Debug/srcs/gpio.s:222
    li t1, 1                    /* t1=1 */
   136e4:	4305                	li	t1,1
E:\16-24-BOOK\20-24-Machinery\22-24-CHB-20211026-20241126\06-User\AHL-CH573-EXP-V1.5-20241126\03-Software\CH07\GPIO-ASM-CH573\Debug/srcs/gpio.s:223
    sll t1, t1, a1              /* 将t1左移（a1=引脚号） */
   136e6:	00b31333          	sll	t1,t1,a1
E:\16-24-BOOK\20-24-Machinery\22-24-CHB-20211026-20241126\06-User\AHL-CH573-EXP-V1.5-20241126\03-Software\CH07\GPIO-ASM-CH573\Debug/srcs/gpio.s:224
    lw t2, 0(t0)                /* 读取R32_PA_OUT寄存器的值 */
   136ea:	0002a383          	lw	t2,0(t0)
E:\16-24-BOOK\20-24-Machinery\22-24-CHB-20211026-20241126\06-User\AHL-CH573-EXP-V1.5-20241126\03-Software\CH07\GPIO-ASM-CH573\Debug/srcs/gpio.s:225
    or t2, t2, t1               /* (t1=(1 << pin ))与(t2=(R32_PA_OUT))值按位或，存入t2 */
   136ee:	0063e3b3          	or	t2,t2,t1
E:\16-24-BOOK\20-24-Machinery\22-24-CHB-20211026-20241126\06-User\AHL-CH573-EXP-V1.5-20241126\03-Software\CH07\GPIO-ASM-CH573\Debug/srcs/gpio.s:226
    sw t2, 0(t0)                /* 设置GPIOAx的输出值 */
   136f2:	0072a023          	sw	t2,0(t0)
E:\16-24-BOOK\20-24-Machinery\22-24-CHB-20211026-20241126\06-User\AHL-CH573-EXP-V1.5-20241126\03-Software\CH07\GPIO-ASM-CH573\Debug/srcs/gpio.s:228

    j SET_exit
   136f6:	a83d                	j	13734 <SET_exit>

000136f8 <GPIOB_SET>:
GPIOB_SET():
E:\16-24-BOOK\20-24-Machinery\22-24-CHB-20211026-20241126\06-User\AHL-CH573-EXP-V1.5-20241126\03-Software\CH07\GPIO-ASM-CH573\Debug/srcs/gpio.s:231

GPIOB_SET:
    beqz a2, GPIOB_SET_LOW      /* 设置输出低电平 */
   136f8:	c211                	beqz	a2,136fc <GPIOB_SET_LOW>
E:\16-24-BOOK\20-24-Machinery\22-24-CHB-20211026-20241126\06-User\AHL-CH573-EXP-V1.5-20241126\03-Software\CH07\GPIO-ASM-CH573\Debug/srcs/gpio.s:232
    j GPIOB_SET_HIGH            /* 设置输出高电平 */
   136fa:	a839                	j	13718 <GPIOB_SET_HIGH>

000136fc <GPIOB_SET_LOW>:
GPIOB_SET_LOW():
E:\16-24-BOOK\20-24-Machinery\22-24-CHB-20211026-20241126\06-User\AHL-CH573-EXP-V1.5-20241126\03-Software\CH07\GPIO-ASM-CH573\Debug/srcs/gpio.s:236

/* 输出低电平 */
GPIOB_SET_LOW:
    li t0, R32_PB_CLR           /* 将R32_PB_CLR寄存器赋值给t0 */
   136fc:	400012b7          	lui	t0,0x40001
   13700:	0cc28293          	addi	t0,t0,204 # 400010cc <R32_PB_CLR>
E:\16-24-BOOK\20-24-Machinery\22-24-CHB-20211026-20241126\06-User\AHL-CH573-EXP-V1.5-20241126\03-Software\CH07\GPIO-ASM-CH573\Debug/srcs/gpio.s:237
    li t1, 1                    /* t1=1 */
   13704:	4305                	li	t1,1
E:\16-24-BOOK\20-24-Machinery\22-24-CHB-20211026-20241126\06-User\AHL-CH573-EXP-V1.5-20241126\03-Software\CH07\GPIO-ASM-CH573\Debug/srcs/gpio.s:238
    sll t1, t1, a1              /* 将t1左移（a1=引脚号） */
   13706:	00b31333          	sll	t1,t1,a1
E:\16-24-BOOK\20-24-Machinery\22-24-CHB-20211026-20241126\06-User\AHL-CH573-EXP-V1.5-20241126\03-Software\CH07\GPIO-ASM-CH573\Debug/srcs/gpio.s:239
    lw t2, 0(t0)                /* 读取R32_PB_CLR寄存器的值 */
   1370a:	0002a383          	lw	t2,0(t0)
E:\16-24-BOOK\20-24-Machinery\22-24-CHB-20211026-20241126\06-User\AHL-CH573-EXP-V1.5-20241126\03-Software\CH07\GPIO-ASM-CH573\Debug/srcs/gpio.s:240
    or t2, t2, t1               /* (t1=(1 << pin ))与(t2=(R32_PB_CLR))值按位或，存入t2 */
   1370e:	0063e3b3          	or	t2,t2,t1
E:\16-24-BOOK\20-24-Machinery\22-24-CHB-20211026-20241126\06-User\AHL-CH573-EXP-V1.5-20241126\03-Software\CH07\GPIO-ASM-CH573\Debug/srcs/gpio.s:241
    sw t2, 0(t0)                /* 设置GPIOBx的输出值 */
   13712:	0072a023          	sw	t2,0(t0)
E:\16-24-BOOK\20-24-Machinery\22-24-CHB-20211026-20241126\06-User\AHL-CH573-EXP-V1.5-20241126\03-Software\CH07\GPIO-ASM-CH573\Debug/srcs/gpio.s:243

    j SET_exit
   13716:	a839                	j	13734 <SET_exit>

00013718 <GPIOB_SET_HIGH>:
GPIOB_SET_HIGH():
E:\16-24-BOOK\20-24-Machinery\22-24-CHB-20211026-20241126\06-User\AHL-CH573-EXP-V1.5-20241126\03-Software\CH07\GPIO-ASM-CH573\Debug/srcs/gpio.s:247

/* 输出高电平 */
GPIOB_SET_HIGH:
    li t0, R32_PB_OUT           /* 将R32_PB_OUT寄存器赋值给t0 */
   13718:	400012b7          	lui	t0,0x40001
   1371c:	0c828293          	addi	t0,t0,200 # 400010c8 <R32_PB_OUT>
E:\16-24-BOOK\20-24-Machinery\22-24-CHB-20211026-20241126\06-User\AHL-CH573-EXP-V1.5-20241126\03-Software\CH07\GPIO-ASM-CH573\Debug/srcs/gpio.s:248
    li t1, 1                    /* t1=1 */
   13720:	4305                	li	t1,1
E:\16-24-BOOK\20-24-Machinery\22-24-CHB-20211026-20241126\06-User\AHL-CH573-EXP-V1.5-20241126\03-Software\CH07\GPIO-ASM-CH573\Debug/srcs/gpio.s:249
    sll t1, t1, a1              /* 将t1左移（a1=引脚号） */
   13722:	00b31333          	sll	t1,t1,a1
E:\16-24-BOOK\20-24-Machinery\22-24-CHB-20211026-20241126\06-User\AHL-CH573-EXP-V1.5-20241126\03-Software\CH07\GPIO-ASM-CH573\Debug/srcs/gpio.s:250
    lw t2, 0(t0)                /* 读取R32_PB_OUT寄存器的值 */
   13726:	0002a383          	lw	t2,0(t0)
E:\16-24-BOOK\20-24-Machinery\22-24-CHB-20211026-20241126\06-User\AHL-CH573-EXP-V1.5-20241126\03-Software\CH07\GPIO-ASM-CH573\Debug/srcs/gpio.s:251
    or t2, t2, t1               /* (t1=(1 << pin ))与(t2=(R32_PB_OUT))值按位或，存入t2 */
   1372a:	0063e3b3          	or	t2,t2,t1
E:\16-24-BOOK\20-24-Machinery\22-24-CHB-20211026-20241126\06-User\AHL-CH573-EXP-V1.5-20241126\03-Software\CH07\GPIO-ASM-CH573\Debug/srcs/gpio.s:252
    sw t2, 0(t0)                /* 设置GPIOBx的输出值 */
   1372e:	0072a023          	sw	t2,0(t0)
E:\16-24-BOOK\20-24-Machinery\22-24-CHB-20211026-20241126\06-User\AHL-CH573-EXP-V1.5-20241126\03-Software\CH07\GPIO-ASM-CH573\Debug/srcs/gpio.s:254

    j SET_exit
   13732:	a009                	j	13734 <SET_exit>

00013734 <SET_exit>:
SET_exit():
E:\16-24-BOOK\20-24-Machinery\22-24-CHB-20211026-20241126\06-User\AHL-CH573-EXP-V1.5-20241126\03-Software\CH07\GPIO-ASM-CH573\Debug/srcs/gpio.s:258

/* 退出并释放栈空间 */
SET_exit:
	lw ra, 60(sp)               /* 恢复返回地址 */
   13734:	50f2                	lw	ra,60(sp)
E:\16-24-BOOK\20-24-Machinery\22-24-CHB-20211026-20241126\06-User\AHL-CH573-EXP-V1.5-20241126\03-Software\CH07\GPIO-ASM-CH573\Debug/srcs/gpio.s:259
    addi sp, sp, 64             /* 释放栈空间 */
   13736:	6121                	addi	sp,sp,64
E:\16-24-BOOK\20-24-Machinery\22-24-CHB-20211026-20241126\06-User\AHL-CH573-EXP-V1.5-20241126\03-Software\CH07\GPIO-ASM-CH573\Debug/srcs/gpio.s:260
    ret							/* 返回 */
   13738:	8082                	ret

0001373a <gpio_reverse>:
gpio_reverse():
E:\16-24-BOOK\20-24-Machinery\22-24-CHB-20211026-20241126\06-User\AHL-CH573-EXP-V1.5-20241126\03-Software\CH07\GPIO-ASM-CH573\Debug/srcs/gpio.s:274
.global gpio_reverse            /*将gpio_reverse定义成全局函数，便于芯片初始化之后调用 */
gpio_reverse:
/* 通过调整栈指针分配出出栈空间用于存放局部变量和存放调用函数返回地址，
      主函数中栈空间分出16字节，   ra为返回地址寄存器，占用4个字节，将ra
      中的返回地址放入sp指针地址偏移16个字节的位置*/
	addi sp, sp, -64			/* 分配堆栈框架*/
   1373a:	7139                	addi	sp,sp,-64
E:\16-24-BOOK\20-24-Machinery\22-24-CHB-20211026-20241126\06-User\AHL-CH573-EXP-V1.5-20241126\03-Software\CH07\GPIO-ASM-CH573\Debug/srcs/gpio.s:275
	sw ra, 60(sp)				/* 将寄存器地址写到堆栈上*/
   1373c:	de06                	sw	ra,60(sp)
E:\16-24-BOOK\20-24-Machinery\22-24-CHB-20211026-20241126\06-User\AHL-CH573-EXP-V1.5-20241126\03-Software\CH07\GPIO-ASM-CH573\Debug/srcs/gpio.s:278

	/* 计算出GPIO端口号和引脚号 */
	srli t4,a0,0x8				/* t4=a0=端口号 */
   1373e:	00855e93          	srli	t4,a0,0x8
E:\16-24-BOOK\20-24-Machinery\22-24-CHB-20211026-20241126\06-User\AHL-CH573-EXP-V1.5-20241126\03-Software\CH07\GPIO-ASM-CH573\Debug/srcs/gpio.s:279
	andi t5,a0,255				/* a2=a0=引脚号 */
   13742:	0ff57f13          	andi	t5,a0,255
E:\16-24-BOOK\20-24-Machinery\22-24-CHB-20211026-20241126\06-User\AHL-CH573-EXP-V1.5-20241126\03-Software\CH07\GPIO-ASM-CH573\Debug/srcs/gpio.s:280
	mv a0,t4					/* a0=端口号 */
   13746:	8576                	mv	a0,t4
E:\16-24-BOOK\20-24-Machinery\22-24-CHB-20211026-20241126\06-User\AHL-CH573-EXP-V1.5-20241126\03-Software\CH07\GPIO-ASM-CH573\Debug/srcs/gpio.s:281
	mv a1,t5					/* a1=引脚号 */
   13748:	85fa                	mv	a1,t5
E:\16-24-BOOK\20-24-Machinery\22-24-CHB-20211026-20241126\06-User\AHL-CH573-EXP-V1.5-20241126\03-Software\CH07\GPIO-ASM-CH573\Debug/srcs/gpio.s:284

    /* 判断端口号 */
    li a4, 0x00                 /* a4=0x00 */
   1374a:	4701                	li	a4,0
E:\16-24-BOOK\20-24-Machinery\22-24-CHB-20211026-20241126\06-User\AHL-CH573-EXP-V1.5-20241126\03-Software\CH07\GPIO-ASM-CH573\Debug/srcs/gpio.s:285
    beq a0, a4, GPIOA_REVERSE   /* 当（a0=端口号）=（a4=0x00）的时候跳转GPIOA_REVERSE */
   1374c:	00e50363          	beq	a0,a4,13752 <GPIOA_REVERSE>
E:\16-24-BOOK\20-24-Machinery\22-24-CHB-20211026-20241126\06-User\AHL-CH573-EXP-V1.5-20241126\03-Software\CH07\GPIO-ASM-CH573\Debug/srcs/gpio.s:286
    j GPIOB_REVERSE             /* 当（a0=端口号）!=（a4=0x00）的时候跳转GPIOB_REVERSE */
   13750:	a8a9                	j	137aa <GPIOB_REVERSE>

00013752 <GPIOA_REVERSE>:
GPIOA_REVERSE():
E:\16-24-BOOK\20-24-Machinery\22-24-CHB-20211026-20241126\06-User\AHL-CH573-EXP-V1.5-20241126\03-Software\CH07\GPIO-ASM-CH573\Debug/srcs/gpio.s:289

GPIOA_REVERSE:
    li t0, R32_PA_OUT           /* t0=R32_PA_OUT */
   13752:	400012b7          	lui	t0,0x40001
   13756:	0a828293          	addi	t0,t0,168 # 400010a8 <R32_PA_OUT>
E:\16-24-BOOK\20-24-Machinery\22-24-CHB-20211026-20241126\06-User\AHL-CH573-EXP-V1.5-20241126\03-Software\CH07\GPIO-ASM-CH573\Debug/srcs/gpio.s:290
    lw t2, 0(t0)
   1375a:	0002a383          	lw	t2,0(t0)
E:\16-24-BOOK\20-24-Machinery\22-24-CHB-20211026-20241126\06-User\AHL-CH573-EXP-V1.5-20241126\03-Software\CH07\GPIO-ASM-CH573\Debug/srcs/gpio.s:291
    li t1, 1                    /* t1=1 */
   1375e:	4305                	li	t1,1
E:\16-24-BOOK\20-24-Machinery\22-24-CHB-20211026-20241126\06-User\AHL-CH573-EXP-V1.5-20241126\03-Software\CH07\GPIO-ASM-CH573\Debug/srcs/gpio.s:292
    sll t1, t1, a1              /* 将t1左移（a1=引脚号） */
   13760:	00b31333          	sll	t1,t1,a1
E:\16-24-BOOK\20-24-Machinery\22-24-CHB-20211026-20241126\06-User\AHL-CH573-EXP-V1.5-20241126\03-Software\CH07\GPIO-ASM-CH573\Debug/srcs/gpio.s:293
    and t1, t1, t2              /* t1=t1&t2 */
   13764:	00737333          	and	t1,t1,t2
E:\16-24-BOOK\20-24-Machinery\22-24-CHB-20211026-20241126\06-User\AHL-CH573-EXP-V1.5-20241126\03-Software\CH07\GPIO-ASM-CH573\Debug/srcs/gpio.s:294
    srl t1, t1, a1              /* 将t1右移（a1=引脚号） */
   13768:	00b35333          	srl	t1,t1,a1
E:\16-24-BOOK\20-24-Machinery\22-24-CHB-20211026-20241126\06-User\AHL-CH573-EXP-V1.5-20241126\03-Software\CH07\GPIO-ASM-CH573\Debug/srcs/gpio.s:296

    beqz t1, GPIOA_REV_H        /* 当前为低电平，反转成高电平 */
   1376c:	02030163          	beqz	t1,1378e <GPIOA_REV_H>
E:\16-24-BOOK\20-24-Machinery\22-24-CHB-20211026-20241126\06-User\AHL-CH573-EXP-V1.5-20241126\03-Software\CH07\GPIO-ASM-CH573\Debug/srcs/gpio.s:297
    j GPIOA_REV_L               /* 当前为高电平，反转成地电平 */
   13770:	a009                	j	13772 <GPIOA_REV_L>

00013772 <GPIOA_REV_L>:
GPIOA_REV_L():
E:\16-24-BOOK\20-24-Machinery\22-24-CHB-20211026-20241126\06-User\AHL-CH573-EXP-V1.5-20241126\03-Software\CH07\GPIO-ASM-CH573\Debug/srcs/gpio.s:300

GPIOA_REV_L:
    li t0, R32_PA_CLR           /* 将R32_PA_CLR寄存器赋值给t0 */
   13772:	400012b7          	lui	t0,0x40001
   13776:	0ac28293          	addi	t0,t0,172 # 400010ac <R32_PA_CLR>
E:\16-24-BOOK\20-24-Machinery\22-24-CHB-20211026-20241126\06-User\AHL-CH573-EXP-V1.5-20241126\03-Software\CH07\GPIO-ASM-CH573\Debug/srcs/gpio.s:301
    li t1, 1                    /* t1=1 */
   1377a:	4305                	li	t1,1
E:\16-24-BOOK\20-24-Machinery\22-24-CHB-20211026-20241126\06-User\AHL-CH573-EXP-V1.5-20241126\03-Software\CH07\GPIO-ASM-CH573\Debug/srcs/gpio.s:302
    sll t1, t1, a1              /* 将t1左移（a1=引脚号） */
   1377c:	00b31333          	sll	t1,t1,a1
E:\16-24-BOOK\20-24-Machinery\22-24-CHB-20211026-20241126\06-User\AHL-CH573-EXP-V1.5-20241126\03-Software\CH07\GPIO-ASM-CH573\Debug/srcs/gpio.s:303
    lw t2, 0(t0)                /* 读取R32_PA_CLR寄存器的值 */
   13780:	0002a383          	lw	t2,0(t0)
E:\16-24-BOOK\20-24-Machinery\22-24-CHB-20211026-20241126\06-User\AHL-CH573-EXP-V1.5-20241126\03-Software\CH07\GPIO-ASM-CH573\Debug/srcs/gpio.s:304
    or t2, t2, t1               /* (t1=(1 << pin ))与(t2=(R32_PA_CLR))值按位或，存入t2 */
   13784:	0063e3b3          	or	t2,t2,t1
E:\16-24-BOOK\20-24-Machinery\22-24-CHB-20211026-20241126\06-User\AHL-CH573-EXP-V1.5-20241126\03-Software\CH07\GPIO-ASM-CH573\Debug/srcs/gpio.s:305
    sw t2, 0(t0)                /* 设置GPIOAx的输出值 */
   13788:	0072a023          	sw	t2,0(t0)
E:\16-24-BOOK\20-24-Machinery\22-24-CHB-20211026-20241126\06-User\AHL-CH573-EXP-V1.5-20241126\03-Software\CH07\GPIO-ASM-CH573\Debug/srcs/gpio.s:307

    j gpio_reverse_exit
   1378c:	a89d                	j	13802 <gpio_reverse_exit>

0001378e <GPIOA_REV_H>:
GPIOA_REV_H():
E:\16-24-BOOK\20-24-Machinery\22-24-CHB-20211026-20241126\06-User\AHL-CH573-EXP-V1.5-20241126\03-Software\CH07\GPIO-ASM-CH573\Debug/srcs/gpio.s:310

GPIOA_REV_H:
    li t0, R32_PA_OUT           /* 将R32_PA_OUT寄存器赋值给t0 */
   1378e:	400012b7          	lui	t0,0x40001
   13792:	0a828293          	addi	t0,t0,168 # 400010a8 <R32_PA_OUT>
E:\16-24-BOOK\20-24-Machinery\22-24-CHB-20211026-20241126\06-User\AHL-CH573-EXP-V1.5-20241126\03-Software\CH07\GPIO-ASM-CH573\Debug/srcs/gpio.s:311
    li t1, 1                    /* t1=1 */
   13796:	4305                	li	t1,1
E:\16-24-BOOK\20-24-Machinery\22-24-CHB-20211026-20241126\06-User\AHL-CH573-EXP-V1.5-20241126\03-Software\CH07\GPIO-ASM-CH573\Debug/srcs/gpio.s:312
    sll t1, t1, a1              /* 将t1左移（a1=引脚号） */
   13798:	00b31333          	sll	t1,t1,a1
E:\16-24-BOOK\20-24-Machinery\22-24-CHB-20211026-20241126\06-User\AHL-CH573-EXP-V1.5-20241126\03-Software\CH07\GPIO-ASM-CH573\Debug/srcs/gpio.s:313
    lw t2, 0(t0)                /* 读取R32_PA_OUT寄存器的值 */
   1379c:	0002a383          	lw	t2,0(t0)
E:\16-24-BOOK\20-24-Machinery\22-24-CHB-20211026-20241126\06-User\AHL-CH573-EXP-V1.5-20241126\03-Software\CH07\GPIO-ASM-CH573\Debug/srcs/gpio.s:314
    or t2, t2, t1               /* (t1=(1 << pin ))与(t2=(R32_PA_OUT))值按位或，存入t2 */
   137a0:	0063e3b3          	or	t2,t2,t1
E:\16-24-BOOK\20-24-Machinery\22-24-CHB-20211026-20241126\06-User\AHL-CH573-EXP-V1.5-20241126\03-Software\CH07\GPIO-ASM-CH573\Debug/srcs/gpio.s:315
    sw t2, 0(t0)                /* 设置GPIOAx的输出值 */
   137a4:	0072a023          	sw	t2,0(t0)
E:\16-24-BOOK\20-24-Machinery\22-24-CHB-20211026-20241126\06-User\AHL-CH573-EXP-V1.5-20241126\03-Software\CH07\GPIO-ASM-CH573\Debug/srcs/gpio.s:317

    j SET_exit
   137a8:	b771                	j	13734 <SET_exit>

000137aa <GPIOB_REVERSE>:
GPIOB_REVERSE():
E:\16-24-BOOK\20-24-Machinery\22-24-CHB-20211026-20241126\06-User\AHL-CH573-EXP-V1.5-20241126\03-Software\CH07\GPIO-ASM-CH573\Debug/srcs/gpio.s:320

GPIOB_REVERSE:
    li t0, R32_PB_OUT           /* t0=R32_PB_OUT */
   137aa:	400012b7          	lui	t0,0x40001
   137ae:	0c828293          	addi	t0,t0,200 # 400010c8 <R32_PB_OUT>
E:\16-24-BOOK\20-24-Machinery\22-24-CHB-20211026-20241126\06-User\AHL-CH573-EXP-V1.5-20241126\03-Software\CH07\GPIO-ASM-CH573\Debug/srcs/gpio.s:321
    lw t2, 0(t0)
   137b2:	0002a383          	lw	t2,0(t0)
E:\16-24-BOOK\20-24-Machinery\22-24-CHB-20211026-20241126\06-User\AHL-CH573-EXP-V1.5-20241126\03-Software\CH07\GPIO-ASM-CH573\Debug/srcs/gpio.s:322
    li t1, 1                    /* t1=1 */
   137b6:	4305                	li	t1,1
E:\16-24-BOOK\20-24-Machinery\22-24-CHB-20211026-20241126\06-User\AHL-CH573-EXP-V1.5-20241126\03-Software\CH07\GPIO-ASM-CH573\Debug/srcs/gpio.s:323
    sll t1, t1, a1              /* 将t1左移（a1=引脚号） */
   137b8:	00b31333          	sll	t1,t1,a1
E:\16-24-BOOK\20-24-Machinery\22-24-CHB-20211026-20241126\06-User\AHL-CH573-EXP-V1.5-20241126\03-Software\CH07\GPIO-ASM-CH573\Debug/srcs/gpio.s:324
    and t1, t1, t2              /* t1=t1&t2 */
   137bc:	00737333          	and	t1,t1,t2
E:\16-24-BOOK\20-24-Machinery\22-24-CHB-20211026-20241126\06-User\AHL-CH573-EXP-V1.5-20241126\03-Software\CH07\GPIO-ASM-CH573\Debug/srcs/gpio.s:325
    srl t1, t1, a1              /* 将t1右移（a1=引脚号） */
   137c0:	00b35333          	srl	t1,t1,a1
E:\16-24-BOOK\20-24-Machinery\22-24-CHB-20211026-20241126\06-User\AHL-CH573-EXP-V1.5-20241126\03-Software\CH07\GPIO-ASM-CH573\Debug/srcs/gpio.s:327

    beqz t1, GPIOB_REV_H        /* 当前为低电平，反转成高电平 */
   137c4:	02030163          	beqz	t1,137e6 <GPIOB_REV_H>
E:\16-24-BOOK\20-24-Machinery\22-24-CHB-20211026-20241126\06-User\AHL-CH573-EXP-V1.5-20241126\03-Software\CH07\GPIO-ASM-CH573\Debug/srcs/gpio.s:328
    j GPIOB_REV_L               /* 当前为高电平，反转成地电平 */
   137c8:	a009                	j	137ca <GPIOB_REV_L>

000137ca <GPIOB_REV_L>:
GPIOB_REV_L():
E:\16-24-BOOK\20-24-Machinery\22-24-CHB-20211026-20241126\06-User\AHL-CH573-EXP-V1.5-20241126\03-Software\CH07\GPIO-ASM-CH573\Debug/srcs/gpio.s:331

GPIOB_REV_L:
    li t0, R32_PB_CLR           /* 将R32_PB_CLR寄存器赋值给t0 */
   137ca:	400012b7          	lui	t0,0x40001
   137ce:	0cc28293          	addi	t0,t0,204 # 400010cc <R32_PB_CLR>
E:\16-24-BOOK\20-24-Machinery\22-24-CHB-20211026-20241126\06-User\AHL-CH573-EXP-V1.5-20241126\03-Software\CH07\GPIO-ASM-CH573\Debug/srcs/gpio.s:332
    li t1, 1                    /* t1=1 */
   137d2:	4305                	li	t1,1
E:\16-24-BOOK\20-24-Machinery\22-24-CHB-20211026-20241126\06-User\AHL-CH573-EXP-V1.5-20241126\03-Software\CH07\GPIO-ASM-CH573\Debug/srcs/gpio.s:333
    sll t1, t1, a1              /* 将t1左移（a1=引脚号） */
   137d4:	00b31333          	sll	t1,t1,a1
E:\16-24-BOOK\20-24-Machinery\22-24-CHB-20211026-20241126\06-User\AHL-CH573-EXP-V1.5-20241126\03-Software\CH07\GPIO-ASM-CH573\Debug/srcs/gpio.s:334
    lw t2, 0(t0)                /* 读取R32_PB_CLR寄存器的值 */
   137d8:	0002a383          	lw	t2,0(t0)
E:\16-24-BOOK\20-24-Machinery\22-24-CHB-20211026-20241126\06-User\AHL-CH573-EXP-V1.5-20241126\03-Software\CH07\GPIO-ASM-CH573\Debug/srcs/gpio.s:335
    or t2, t2, t1               /* (t1=(1 << pin ))与(t2=(R32_PB_CLR))值按位或，存入t2 */
   137dc:	0063e3b3          	or	t2,t2,t1
E:\16-24-BOOK\20-24-Machinery\22-24-CHB-20211026-20241126\06-User\AHL-CH573-EXP-V1.5-20241126\03-Software\CH07\GPIO-ASM-CH573\Debug/srcs/gpio.s:336
    sw t2, 0(t0)                /* 设置GPIOBx的输出值 */
   137e0:	0072a023          	sw	t2,0(t0)
E:\16-24-BOOK\20-24-Machinery\22-24-CHB-20211026-20241126\06-User\AHL-CH573-EXP-V1.5-20241126\03-Software\CH07\GPIO-ASM-CH573\Debug/srcs/gpio.s:338

    j gpio_reverse_exit
   137e4:	a839                	j	13802 <gpio_reverse_exit>

000137e6 <GPIOB_REV_H>:
GPIOB_REV_H():
E:\16-24-BOOK\20-24-Machinery\22-24-CHB-20211026-20241126\06-User\AHL-CH573-EXP-V1.5-20241126\03-Software\CH07\GPIO-ASM-CH573\Debug/srcs/gpio.s:341

GPIOB_REV_H:
    li t0, R32_PB_OUT           /* 将R32_PB_OUT寄存器赋值给t0 */
   137e6:	400012b7          	lui	t0,0x40001
   137ea:	0c828293          	addi	t0,t0,200 # 400010c8 <R32_PB_OUT>
E:\16-24-BOOK\20-24-Machinery\22-24-CHB-20211026-20241126\06-User\AHL-CH573-EXP-V1.5-20241126\03-Software\CH07\GPIO-ASM-CH573\Debug/srcs/gpio.s:342
    li t1, 1                    /* t1=1 */
   137ee:	4305                	li	t1,1
E:\16-24-BOOK\20-24-Machinery\22-24-CHB-20211026-20241126\06-User\AHL-CH573-EXP-V1.5-20241126\03-Software\CH07\GPIO-ASM-CH573\Debug/srcs/gpio.s:343
    sll t1, t1, a1              /* 将t1左移（a1=引脚号） */
   137f0:	00b31333          	sll	t1,t1,a1
E:\16-24-BOOK\20-24-Machinery\22-24-CHB-20211026-20241126\06-User\AHL-CH573-EXP-V1.5-20241126\03-Software\CH07\GPIO-ASM-CH573\Debug/srcs/gpio.s:344
    lw t2, 0(t0)                /* 读取R32_PB_OUT寄存器的值 */
   137f4:	0002a383          	lw	t2,0(t0)
E:\16-24-BOOK\20-24-Machinery\22-24-CHB-20211026-20241126\06-User\AHL-CH573-EXP-V1.5-20241126\03-Software\CH07\GPIO-ASM-CH573\Debug/srcs/gpio.s:345
    or t2, t2, t1               /* (t1=(1 << pin ))与(t2=(R32_PB_OUT))值按位或，存入t2 */
   137f8:	0063e3b3          	or	t2,t2,t1
E:\16-24-BOOK\20-24-Machinery\22-24-CHB-20211026-20241126\06-User\AHL-CH573-EXP-V1.5-20241126\03-Software\CH07\GPIO-ASM-CH573\Debug/srcs/gpio.s:346
    sw t2, 0(t0)                /* 设置GPIOBx的输出值 */
   137fc:	0072a023          	sw	t2,0(t0)
E:\16-24-BOOK\20-24-Machinery\22-24-CHB-20211026-20241126\06-User\AHL-CH573-EXP-V1.5-20241126\03-Software\CH07\GPIO-ASM-CH573\Debug/srcs/gpio.s:348

    j gpio_reverse_exit
   13800:	a009                	j	13802 <gpio_reverse_exit>

00013802 <gpio_reverse_exit>:
gpio_reverse_exit():
E:\16-24-BOOK\20-24-Machinery\22-24-CHB-20211026-20241126\06-User\AHL-CH573-EXP-V1.5-20241126\03-Software\CH07\GPIO-ASM-CH573\Debug/srcs/gpio.s:351

gpio_reverse_exit:
	lw ra, 60(sp)               /* 恢复返回地址 */
   13802:	50f2                	lw	ra,60(sp)
E:\16-24-BOOK\20-24-Machinery\22-24-CHB-20211026-20241126\06-User\AHL-CH573-EXP-V1.5-20241126\03-Software\CH07\GPIO-ASM-CH573\Debug/srcs/gpio.s:352
    addi sp, sp, 64             /* 释放栈空间 */
   13804:	6121                	addi	sp,sp,64
E:\16-24-BOOK\20-24-Machinery\22-24-CHB-20211026-20241126\06-User\AHL-CH573-EXP-V1.5-20241126\03-Software\CH07\GPIO-ASM-CH573\Debug/srcs/gpio.s:353
    ret		
   13806:	8082                	ret

00013808 <gpio_get>:
gpio_get():
E:\16-24-BOOK\20-24-Machinery\22-24-CHB-20211026-20241126\06-User\AHL-CH573-EXP-V1.5-20241126\03-Software\CH07\GPIO-ASM-CH573\Debug/srcs/gpio.s:367
.global gpio_get                /*将gpio_get定义成全局函数，便于芯片初始化之后调用*/
gpio_get:
/* 通过调整栈指针分配出出栈空间用于存放局部变量和存放调用函数返回地址，
      主函数中栈空间分出16字节，   ra为返回地址寄存器，占用4个字节，将ra
      中的返回地址放入sp指针地址偏移16个字节的位置*/
	addi sp, sp, -64			/* 分配堆栈框架*/
   13808:	7139                	addi	sp,sp,-64
E:\16-24-BOOK\20-24-Machinery\22-24-CHB-20211026-20241126\06-User\AHL-CH573-EXP-V1.5-20241126\03-Software\CH07\GPIO-ASM-CH573\Debug/srcs/gpio.s:368
	sw ra, 60(sp)				/* 将寄存器地址写到堆栈上*/
   1380a:	de06                	sw	ra,60(sp)
E:\16-24-BOOK\20-24-Machinery\22-24-CHB-20211026-20241126\06-User\AHL-CH573-EXP-V1.5-20241126\03-Software\CH07\GPIO-ASM-CH573\Debug/srcs/gpio.s:371

	/* 计算出GPIO端口号和引脚号 */
	srli t4,a0,0x8				/* t4=a0=端口号 */
   1380c:	00855e93          	srli	t4,a0,0x8
E:\16-24-BOOK\20-24-Machinery\22-24-CHB-20211026-20241126\06-User\AHL-CH573-EXP-V1.5-20241126\03-Software\CH07\GPIO-ASM-CH573\Debug/srcs/gpio.s:372
	andi t5,a0,255				/* t5=a0=引脚号 */
   13810:	0ff57f13          	andi	t5,a0,255
E:\16-24-BOOK\20-24-Machinery\22-24-CHB-20211026-20241126\06-User\AHL-CH573-EXP-V1.5-20241126\03-Software\CH07\GPIO-ASM-CH573\Debug/srcs/gpio.s:373
	mv a2,t4					/* a2=端口号 */
   13814:	8676                	mv	a2,t4
E:\16-24-BOOK\20-24-Machinery\22-24-CHB-20211026-20241126\06-User\AHL-CH573-EXP-V1.5-20241126\03-Software\CH07\GPIO-ASM-CH573\Debug/srcs/gpio.s:374
	mv a3,t5					/* a3=引脚号 */
   13816:	86fa                	mv	a3,t5
E:\16-24-BOOK\20-24-Machinery\22-24-CHB-20211026-20241126\06-User\AHL-CH573-EXP-V1.5-20241126\03-Software\CH07\GPIO-ASM-CH573\Debug/srcs/gpio.s:377

    /* 判断端口号 */
    li a4, 0x00                 /* a4=0x00 */
   13818:	4701                	li	a4,0
E:\16-24-BOOK\20-24-Machinery\22-24-CHB-20211026-20241126\06-User\AHL-CH573-EXP-V1.5-20241126\03-Software\CH07\GPIO-ASM-CH573\Debug/srcs/gpio.s:378
    beq a0, a4, GPIOA_GET       /* 当（a0=端口号）=（a4=0x00）的时候跳转GPIOA_GET */
   1381a:	00e50363          	beq	a0,a4,13820 <GPIOA_GET>
E:\16-24-BOOK\20-24-Machinery\22-24-CHB-20211026-20241126\06-User\AHL-CH573-EXP-V1.5-20241126\03-Software\CH07\GPIO-ASM-CH573\Debug/srcs/gpio.s:379
    j GPIOB_GET                 /* 当（a0=端口号）!=（a4=0x00）的时候跳转GPIOB_GET */
   1381e:	a08d                	j	13880 <GPIOB_GET>

00013820 <GPIOA_GET>:
GPIOA_GET():
E:\16-24-BOOK\20-24-Machinery\22-24-CHB-20211026-20241126\06-User\AHL-CH573-EXP-V1.5-20241126\03-Software\CH07\GPIO-ASM-CH573\Debug/srcs/gpio.s:382

GPIOA_GET:
    li t0, R32_PA_DIR           /* t0=R32_PA_DIR */
   13820:	400012b7          	lui	t0,0x40001
   13824:	0a028293          	addi	t0,t0,160 # 400010a0 <R32_PA_DIR>
E:\16-24-BOOK\20-24-Machinery\22-24-CHB-20211026-20241126\06-User\AHL-CH573-EXP-V1.5-20241126\03-Software\CH07\GPIO-ASM-CH573\Debug/srcs/gpio.s:383
    lw t2, 0(t0)
   13828:	0002a383          	lw	t2,0(t0)
E:\16-24-BOOK\20-24-Machinery\22-24-CHB-20211026-20241126\06-User\AHL-CH573-EXP-V1.5-20241126\03-Software\CH07\GPIO-ASM-CH573\Debug/srcs/gpio.s:384
    li t1, 1                    /* t1=1 */
   1382c:	4305                	li	t1,1
E:\16-24-BOOK\20-24-Machinery\22-24-CHB-20211026-20241126\06-User\AHL-CH573-EXP-V1.5-20241126\03-Software\CH07\GPIO-ASM-CH573\Debug/srcs/gpio.s:385
    sll t1, t1, a3              /* 将t1左移（a3=引脚号） */
   1382e:	00d31333          	sll	t1,t1,a3
E:\16-24-BOOK\20-24-Machinery\22-24-CHB-20211026-20241126\06-User\AHL-CH573-EXP-V1.5-20241126\03-Software\CH07\GPIO-ASM-CH573\Debug/srcs/gpio.s:386
    and t1, t1, t2              /* t1=t1&t2 */
   13832:	00737333          	and	t1,t1,t2
E:\16-24-BOOK\20-24-Machinery\22-24-CHB-20211026-20241126\06-User\AHL-CH573-EXP-V1.5-20241126\03-Software\CH07\GPIO-ASM-CH573\Debug/srcs/gpio.s:387
    srl t1, t1, a3              /* 将t1右移（a3=引脚号） */
   13836:	00d35333          	srl	t1,t1,a3
E:\16-24-BOOK\20-24-Machinery\22-24-CHB-20211026-20241126\06-User\AHL-CH573-EXP-V1.5-20241126\03-Software\CH07\GPIO-ASM-CH573\Debug/srcs/gpio.s:389

    beqz t1, GPIOA_GET_IN       /* GPIOAx输入 */
   1383a:	00030363          	beqz	t1,13840 <GPIOA_GET_IN>
E:\16-24-BOOK\20-24-Machinery\22-24-CHB-20211026-20241126\06-User\AHL-CH573-EXP-V1.5-20241126\03-Software\CH07\GPIO-ASM-CH573\Debug/srcs/gpio.s:390
    j GPIOA_GET_OUT             /* GPIOAx输出 */
   1383e:	a00d                	j	13860 <GPIOA_GET_OUT>

00013840 <GPIOA_GET_IN>:
GPIOA_GET_IN():
E:\16-24-BOOK\20-24-Machinery\22-24-CHB-20211026-20241126\06-User\AHL-CH573-EXP-V1.5-20241126\03-Software\CH07\GPIO-ASM-CH573\Debug/srcs/gpio.s:393

GPIOA_GET_IN:
    li t0, R32_PA_PIN           /* t0=R32_PA_PIN */
   13840:	400012b7          	lui	t0,0x40001
   13844:	0a428293          	addi	t0,t0,164 # 400010a4 <R32_PA_PIN>
E:\16-24-BOOK\20-24-Machinery\22-24-CHB-20211026-20241126\06-User\AHL-CH573-EXP-V1.5-20241126\03-Software\CH07\GPIO-ASM-CH573\Debug/srcs/gpio.s:394
    lw t2, 0(t0)
   13848:	0002a383          	lw	t2,0(t0)
E:\16-24-BOOK\20-24-Machinery\22-24-CHB-20211026-20241126\06-User\AHL-CH573-EXP-V1.5-20241126\03-Software\CH07\GPIO-ASM-CH573\Debug/srcs/gpio.s:395
    li t1, 1                    /* t1=1 */
   1384c:	4305                	li	t1,1
E:\16-24-BOOK\20-24-Machinery\22-24-CHB-20211026-20241126\06-User\AHL-CH573-EXP-V1.5-20241126\03-Software\CH07\GPIO-ASM-CH573\Debug/srcs/gpio.s:396
    sll t1, t1, a3              /* 将t1左移（a3=引脚号） */
   1384e:	00d31333          	sll	t1,t1,a3
E:\16-24-BOOK\20-24-Machinery\22-24-CHB-20211026-20241126\06-User\AHL-CH573-EXP-V1.5-20241126\03-Software\CH07\GPIO-ASM-CH573\Debug/srcs/gpio.s:397
    and t1, t1, t2              /* t1=t1&t2 */
   13852:	00737333          	and	t1,t1,t2
E:\16-24-BOOK\20-24-Machinery\22-24-CHB-20211026-20241126\06-User\AHL-CH573-EXP-V1.5-20241126\03-Software\CH07\GPIO-ASM-CH573\Debug/srcs/gpio.s:398
    srl t1, t1, a3              /* 将t1右移（a3=引脚号） */
   13856:	00d35333          	srl	t1,t1,a3
E:\16-24-BOOK\20-24-Machinery\22-24-CHB-20211026-20241126\06-User\AHL-CH573-EXP-V1.5-20241126\03-Software\CH07\GPIO-ASM-CH573\Debug/srcs/gpio.s:400

    beqz t1, RETURN_0           /* GPIOAx输入，状态为低电平 */
   1385a:	08030363          	beqz	t1,138e0 <RETURN_0>
E:\16-24-BOOK\20-24-Machinery\22-24-CHB-20211026-20241126\06-User\AHL-CH573-EXP-V1.5-20241126\03-Software\CH07\GPIO-ASM-CH573\Debug/srcs/gpio.s:401
    j RETURN_1                  /* GPIOAx输入，状态为高电平 */
   1385e:	a069                	j	138e8 <RETURN_1>

00013860 <GPIOA_GET_OUT>:
GPIOA_GET_OUT():
E:\16-24-BOOK\20-24-Machinery\22-24-CHB-20211026-20241126\06-User\AHL-CH573-EXP-V1.5-20241126\03-Software\CH07\GPIO-ASM-CH573\Debug/srcs/gpio.s:404

GPIOA_GET_OUT:
    li t0, R32_PA_OUT           /* t0=R32_PA_OUT */
   13860:	400012b7          	lui	t0,0x40001
   13864:	0a828293          	addi	t0,t0,168 # 400010a8 <R32_PA_OUT>
E:\16-24-BOOK\20-24-Machinery\22-24-CHB-20211026-20241126\06-User\AHL-CH573-EXP-V1.5-20241126\03-Software\CH07\GPIO-ASM-CH573\Debug/srcs/gpio.s:405
    lw t2, 0(t0)
   13868:	0002a383          	lw	t2,0(t0)
E:\16-24-BOOK\20-24-Machinery\22-24-CHB-20211026-20241126\06-User\AHL-CH573-EXP-V1.5-20241126\03-Software\CH07\GPIO-ASM-CH573\Debug/srcs/gpio.s:406
    li t1, 1                    /* t1=1 */
   1386c:	4305                	li	t1,1
E:\16-24-BOOK\20-24-Machinery\22-24-CHB-20211026-20241126\06-User\AHL-CH573-EXP-V1.5-20241126\03-Software\CH07\GPIO-ASM-CH573\Debug/srcs/gpio.s:407
    sll t1, t1, a3              /* 将t1左移（a3=引脚号） */
   1386e:	00d31333          	sll	t1,t1,a3
E:\16-24-BOOK\20-24-Machinery\22-24-CHB-20211026-20241126\06-User\AHL-CH573-EXP-V1.5-20241126\03-Software\CH07\GPIO-ASM-CH573\Debug/srcs/gpio.s:408
    and t1, t1, t2              /* t1=t1&t2 */
   13872:	00737333          	and	t1,t1,t2
E:\16-24-BOOK\20-24-Machinery\22-24-CHB-20211026-20241126\06-User\AHL-CH573-EXP-V1.5-20241126\03-Software\CH07\GPIO-ASM-CH573\Debug/srcs/gpio.s:409
    srl t1, t1, a3              /* 将t1右移（a3=引脚号） */
   13876:	00d35333          	srl	t1,t1,a3
E:\16-24-BOOK\20-24-Machinery\22-24-CHB-20211026-20241126\06-User\AHL-CH573-EXP-V1.5-20241126\03-Software\CH07\GPIO-ASM-CH573\Debug/srcs/gpio.s:411

    beqz t1, RETURN_0           /* GPIOAx输入，状态为低电平 */
   1387a:	06030363          	beqz	t1,138e0 <RETURN_0>
E:\16-24-BOOK\20-24-Machinery\22-24-CHB-20211026-20241126\06-User\AHL-CH573-EXP-V1.5-20241126\03-Software\CH07\GPIO-ASM-CH573\Debug/srcs/gpio.s:412
    j RETURN_1                  /* GPIOAx输入，状态为高电平 */
   1387e:	a0ad                	j	138e8 <RETURN_1>

00013880 <GPIOB_GET>:
GPIOB_GET():
E:\16-24-BOOK\20-24-Machinery\22-24-CHB-20211026-20241126\06-User\AHL-CH573-EXP-V1.5-20241126\03-Software\CH07\GPIO-ASM-CH573\Debug/srcs/gpio.s:415

GPIOB_GET:
    li t0, R32_PB_DIR           /* t0=R32_PB_DIR */
   13880:	400012b7          	lui	t0,0x40001
   13884:	0c028293          	addi	t0,t0,192 # 400010c0 <R32_PB_DIR>
E:\16-24-BOOK\20-24-Machinery\22-24-CHB-20211026-20241126\06-User\AHL-CH573-EXP-V1.5-20241126\03-Software\CH07\GPIO-ASM-CH573\Debug/srcs/gpio.s:416
    lw t2, 0(t0)
   13888:	0002a383          	lw	t2,0(t0)
E:\16-24-BOOK\20-24-Machinery\22-24-CHB-20211026-20241126\06-User\AHL-CH573-EXP-V1.5-20241126\03-Software\CH07\GPIO-ASM-CH573\Debug/srcs/gpio.s:417
    li t1, 1                    /* t1=1 */
   1388c:	4305                	li	t1,1
E:\16-24-BOOK\20-24-Machinery\22-24-CHB-20211026-20241126\06-User\AHL-CH573-EXP-V1.5-20241126\03-Software\CH07\GPIO-ASM-CH573\Debug/srcs/gpio.s:418
    sll t1, t1, a3              /* 将t1左移（a3=引脚号） */
   1388e:	00d31333          	sll	t1,t1,a3
E:\16-24-BOOK\20-24-Machinery\22-24-CHB-20211026-20241126\06-User\AHL-CH573-EXP-V1.5-20241126\03-Software\CH07\GPIO-ASM-CH573\Debug/srcs/gpio.s:419
    and t1, t1, t2              /* t1=t1&t2 */
   13892:	00737333          	and	t1,t1,t2
E:\16-24-BOOK\20-24-Machinery\22-24-CHB-20211026-20241126\06-User\AHL-CH573-EXP-V1.5-20241126\03-Software\CH07\GPIO-ASM-CH573\Debug/srcs/gpio.s:420
    srl t1, t1, a3              /* 将t1右移（a3=引脚号） */
   13896:	00d35333          	srl	t1,t1,a3
E:\16-24-BOOK\20-24-Machinery\22-24-CHB-20211026-20241126\06-User\AHL-CH573-EXP-V1.5-20241126\03-Software\CH07\GPIO-ASM-CH573\Debug/srcs/gpio.s:422

    beqz t1, GPIOB_GET_IN       /* GPIOBx输入 */
   1389a:	00030363          	beqz	t1,138a0 <GPIOB_GET_IN>
E:\16-24-BOOK\20-24-Machinery\22-24-CHB-20211026-20241126\06-User\AHL-CH573-EXP-V1.5-20241126\03-Software\CH07\GPIO-ASM-CH573\Debug/srcs/gpio.s:423
    j GPIOB_GET_OUT             /* GPIOBx输出 */
   1389e:	a00d                	j	138c0 <GPIOB_GET_OUT>

000138a0 <GPIOB_GET_IN>:
GPIOB_GET_IN():
E:\16-24-BOOK\20-24-Machinery\22-24-CHB-20211026-20241126\06-User\AHL-CH573-EXP-V1.5-20241126\03-Software\CH07\GPIO-ASM-CH573\Debug/srcs/gpio.s:426

GPIOB_GET_IN:
    li t0, R32_PB_PIN           /* t0=R32_PB_PIN */
   138a0:	400012b7          	lui	t0,0x40001
   138a4:	0c428293          	addi	t0,t0,196 # 400010c4 <R32_PB_PIN>
E:\16-24-BOOK\20-24-Machinery\22-24-CHB-20211026-20241126\06-User\AHL-CH573-EXP-V1.5-20241126\03-Software\CH07\GPIO-ASM-CH573\Debug/srcs/gpio.s:427
    lw t2, 0(t0)
   138a8:	0002a383          	lw	t2,0(t0)
E:\16-24-BOOK\20-24-Machinery\22-24-CHB-20211026-20241126\06-User\AHL-CH573-EXP-V1.5-20241126\03-Software\CH07\GPIO-ASM-CH573\Debug/srcs/gpio.s:428
    li t1, 1                    /* t1=1 */
   138ac:	4305                	li	t1,1
E:\16-24-BOOK\20-24-Machinery\22-24-CHB-20211026-20241126\06-User\AHL-CH573-EXP-V1.5-20241126\03-Software\CH07\GPIO-ASM-CH573\Debug/srcs/gpio.s:429
    sll t1, t1, a3              /* 将t1左移（a3=引脚号） */
   138ae:	00d31333          	sll	t1,t1,a3
E:\16-24-BOOK\20-24-Machinery\22-24-CHB-20211026-20241126\06-User\AHL-CH573-EXP-V1.5-20241126\03-Software\CH07\GPIO-ASM-CH573\Debug/srcs/gpio.s:430
    and t1, t1, t2              /* t1=t1&t2 */
   138b2:	00737333          	and	t1,t1,t2
E:\16-24-BOOK\20-24-Machinery\22-24-CHB-20211026-20241126\06-User\AHL-CH573-EXP-V1.5-20241126\03-Software\CH07\GPIO-ASM-CH573\Debug/srcs/gpio.s:431
    srl t1, t1, a3              /* 将t1右移（a3=引脚号） */
   138b6:	00d35333          	srl	t1,t1,a3
E:\16-24-BOOK\20-24-Machinery\22-24-CHB-20211026-20241126\06-User\AHL-CH573-EXP-V1.5-20241126\03-Software\CH07\GPIO-ASM-CH573\Debug/srcs/gpio.s:433

    beqz t1, RETURN_0           /* GPIOAx输入，状态为低电平 */
   138ba:	02030363          	beqz	t1,138e0 <RETURN_0>
E:\16-24-BOOK\20-24-Machinery\22-24-CHB-20211026-20241126\06-User\AHL-CH573-EXP-V1.5-20241126\03-Software\CH07\GPIO-ASM-CH573\Debug/srcs/gpio.s:434
    j RETURN_1                  /* GPIOAx输入，状态为高电平 */
   138be:	a02d                	j	138e8 <RETURN_1>

000138c0 <GPIOB_GET_OUT>:
GPIOB_GET_OUT():
E:\16-24-BOOK\20-24-Machinery\22-24-CHB-20211026-20241126\06-User\AHL-CH573-EXP-V1.5-20241126\03-Software\CH07\GPIO-ASM-CH573\Debug/srcs/gpio.s:437

GPIOB_GET_OUT:
    li t0, R32_PB_OUT           /* t0=R32_PB_OUT */
   138c0:	400012b7          	lui	t0,0x40001
   138c4:	0c828293          	addi	t0,t0,200 # 400010c8 <R32_PB_OUT>
E:\16-24-BOOK\20-24-Machinery\22-24-CHB-20211026-20241126\06-User\AHL-CH573-EXP-V1.5-20241126\03-Software\CH07\GPIO-ASM-CH573\Debug/srcs/gpio.s:438
    lw t2, 0(t0)
   138c8:	0002a383          	lw	t2,0(t0)
E:\16-24-BOOK\20-24-Machinery\22-24-CHB-20211026-20241126\06-User\AHL-CH573-EXP-V1.5-20241126\03-Software\CH07\GPIO-ASM-CH573\Debug/srcs/gpio.s:439
    li t1, 1                    /* t1=1 */
   138cc:	4305                	li	t1,1
E:\16-24-BOOK\20-24-Machinery\22-24-CHB-20211026-20241126\06-User\AHL-CH573-EXP-V1.5-20241126\03-Software\CH07\GPIO-ASM-CH573\Debug/srcs/gpio.s:440
    sll t1, t1, a3              /* 将t1左移（a3=引脚号） */
   138ce:	00d31333          	sll	t1,t1,a3
E:\16-24-BOOK\20-24-Machinery\22-24-CHB-20211026-20241126\06-User\AHL-CH573-EXP-V1.5-20241126\03-Software\CH07\GPIO-ASM-CH573\Debug/srcs/gpio.s:441
    and t1, t1, t2              /* t1=t1&t2 */
   138d2:	00737333          	and	t1,t1,t2
E:\16-24-BOOK\20-24-Machinery\22-24-CHB-20211026-20241126\06-User\AHL-CH573-EXP-V1.5-20241126\03-Software\CH07\GPIO-ASM-CH573\Debug/srcs/gpio.s:442
    srl t1, t1, a3              /* 将t1右移（a3=引脚号） */
   138d6:	00d35333          	srl	t1,t1,a3
E:\16-24-BOOK\20-24-Machinery\22-24-CHB-20211026-20241126\06-User\AHL-CH573-EXP-V1.5-20241126\03-Software\CH07\GPIO-ASM-CH573\Debug/srcs/gpio.s:444

    beqz t1, RETURN_0           /* GPIOAx输入，状态为低电平 */
   138da:	00030363          	beqz	t1,138e0 <RETURN_0>
E:\16-24-BOOK\20-24-Machinery\22-24-CHB-20211026-20241126\06-User\AHL-CH573-EXP-V1.5-20241126\03-Software\CH07\GPIO-ASM-CH573\Debug/srcs/gpio.s:445
    j RETURN_1                  /* GPIOAx输入，状态为高电平 */
   138de:	a029                	j	138e8 <RETURN_1>

000138e0 <RETURN_0>:
RETURN_0():
E:\16-24-BOOK\20-24-Machinery\22-24-CHB-20211026-20241126\06-User\AHL-CH573-EXP-V1.5-20241126\03-Software\CH07\GPIO-ASM-CH573\Debug/srcs/gpio.s:449


RETURN_0:
    lw ra, 64(sp)               /* 恢复返回地址 */
   138e0:	4086                	lw	ra,64(sp)
E:\16-24-BOOK\20-24-Machinery\22-24-CHB-20211026-20241126\06-User\AHL-CH573-EXP-V1.5-20241126\03-Software\CH07\GPIO-ASM-CH573\Debug/srcs/gpio.s:450
    addi sp, sp, 64             /* 释放栈空间*/
   138e2:	6121                	addi	sp,sp,64
E:\16-24-BOOK\20-24-Machinery\22-24-CHB-20211026-20241126\06-User\AHL-CH573-EXP-V1.5-20241126\03-Software\CH07\GPIO-ASM-CH573\Debug/srcs/gpio.s:451
    li  a0,0					/* 返回值0 */
   138e4:	4501                	li	a0,0
E:\16-24-BOOK\20-24-Machinery\22-24-CHB-20211026-20241126\06-User\AHL-CH573-EXP-V1.5-20241126\03-Software\CH07\GPIO-ASM-CH573\Debug/srcs/gpio.s:452
    ret							/* 返回 */
   138e6:	8082                	ret

000138e8 <RETURN_1>:
RETURN_1():
E:\16-24-BOOK\20-24-Machinery\22-24-CHB-20211026-20241126\06-User\AHL-CH573-EXP-V1.5-20241126\03-Software\CH07\GPIO-ASM-CH573\Debug/srcs/gpio.s:455

RETURN_1:
	lw ra, 60(sp)               /* 恢复返回地址 */
   138e8:	50f2                	lw	ra,60(sp)
E:\16-24-BOOK\20-24-Machinery\22-24-CHB-20211026-20241126\06-User\AHL-CH573-EXP-V1.5-20241126\03-Software\CH07\GPIO-ASM-CH573\Debug/srcs/gpio.s:456
    addi sp, sp, 64             /* 释放栈空间 */
   138ea:	6121                	addi	sp,sp,64
E:\16-24-BOOK\20-24-Machinery\22-24-CHB-20211026-20241126\06-User\AHL-CH573-EXP-V1.5-20241126\03-Software\CH07\GPIO-ASM-CH573\Debug/srcs/gpio.s:457
    li  a0,1					/* 返回值1 */
   138ec:	4505                	li	a0,1
E:\16-24-BOOK\20-24-Machinery\22-24-CHB-20211026-20241126\06-User\AHL-CH573-EXP-V1.5-20241126\03-Software\CH07\GPIO-ASM-CH573\Debug/srcs/gpio.s:458
    ret	
   138ee:	8082                	ret
   138f0:	0000                	unimp
	...

000138f4 <main>:
main():
E:\16-24-BOOK\20-24-Machinery\22-24-CHB-20211026-20241126\06-User\AHL-CH573-EXP-V1.5-20241126\03-Software\CH07\GPIO-ASM-CH573\Debug/srcs/main.s:47

/*主函数，一般情况下可以认为程序从此开始运行（实际上有启动过程）------ */
main:
    /*【1】启动部分（开头）========================================== */
    /*（1.1）申请栈空间 */
    addi sp,sp,-48           /* 申请栈空间 */
   138f4:	7179                	addi	sp,sp,-48
E:\16-24-BOOK\20-24-Machinery\22-24-CHB-20211026-20241126\06-User\AHL-CH573-EXP-V1.5-20241126\03-Software\CH07\GPIO-ASM-CH573\Debug/srcs/main.s:49
    /*（1.2）【不变】关总中断 */
	LI t0, 0x8
   138f6:	42a1                	li	t0,8
E:\16-24-BOOK\20-24-Machinery\22-24-CHB-20211026-20241126\06-User\AHL-CH573-EXP-V1.5-20241126\03-Software\CH07\GPIO-ASM-CH573\Debug/srcs/main.s:50
	CSRC mstatus, t0
   138f8:	3002b073          	csrc	mstatus,t0
E:\16-24-BOOK\20-24-Machinery\22-24-CHB-20211026-20241126\06-User\AHL-CH573-EXP-V1.5-20241126\03-Software\CH07\GPIO-ASM-CH573\Debug/srcs/main.s:52
	
    la a0,hello_information  /* 通过调试串口输出提示 */
   138fc:	1fff2517          	auipc	a0,0x1fff2
   13900:	1a450513          	addi	a0,a0,420 # 20005aa0 <_data_vma>
E:\16-24-BOOK\20-24-Machinery\22-24-CHB-20211026-20241126\06-User\AHL-CH573-EXP-V1.5-20241126\03-Software\CH07\GPIO-ASM-CH573\Debug/srcs/main.s:53
    call printf
   13904:	00001097          	auipc	ra,0x1
   13908:	dd6080e7          	jalr	-554(ra) # 146da <myprintf>
E:\16-24-BOOK\20-24-Machinery\22-24-CHB-20211026-20241126\06-User\AHL-CH573-EXP-V1.5-20241126\03-Software\CH07\GPIO-ASM-CH573\Debug/srcs/main.s:56
    /*（1.3）用户外设模块初始化 */
    /* 初始化GPIO（蓝灯），三个参数 */
    li a0,LIGHT_BLUE             /* 灯的引脚 */ 
   1390c:	10e00513          	li	a0,270
E:\16-24-BOOK\20-24-Machinery\22-24-CHB-20211026-20241126\06-User\AHL-CH573-EXP-V1.5-20241126\03-Software\CH07\GPIO-ASM-CH573\Debug/srcs/main.s:57
    li a1,GPIO_OUTPUT            /* 输出 */
   13910:	4585                	li	a1,1
E:\16-24-BOOK\20-24-Machinery\22-24-CHB-20211026-20241126\06-User\AHL-CH573-EXP-V1.5-20241126\03-Software\CH07\GPIO-ASM-CH573\Debug/srcs/main.s:58
    li a2,LIGHT_OFF              /* 初始状态 */
   13912:	4605                	li	a2,1
E:\16-24-BOOK\20-24-Machinery\22-24-CHB-20211026-20241126\06-User\AHL-CH573-EXP-V1.5-20241126\03-Software\CH07\GPIO-ASM-CH573\Debug/srcs/main.s:59
    call gpio_init               /* 调用函数 */
   13914:	00000097          	auipc	ra,0x0
   13918:	c66080e7          	jalr	-922(ra) # 1357a <gpio_init>
E:\16-24-BOOK\20-24-Machinery\22-24-CHB-20211026-20241126\06-User\AHL-CH573-EXP-V1.5-20241126\03-Software\CH07\GPIO-ASM-CH573\Debug/srcs/main.s:61
    /*（1.4）开总中断 */
	LI t0, 0x8
   1391c:	42a1                	li	t0,8
E:\16-24-BOOK\20-24-Machinery\22-24-CHB-20211026-20241126\06-User\AHL-CH573-EXP-V1.5-20241126\03-Software\CH07\GPIO-ASM-CH573\Debug/srcs/main.s:62
	CSRS mstatus, t0
   1391e:	3002a073          	csrs	mstatus,t0

00013922 <main_loop>:
main_loop():
E:\16-24-BOOK\20-24-Machinery\22-24-CHB-20211026-20241126\06-User\AHL-CH573-EXP-V1.5-20241126\03-Software\CH07\GPIO-ASM-CH573\Debug/srcs/main.s:69
	
/*【2】主循环部分（开头）=========================================== */
main_loop: 
    /*（2.1）主循环次数变量mMainLoopCount+1，判断是否到设定值 */
       /* mMainLoopCount+1 */
       la a5,mMainLoopCount    /* a5←变量mMainLoopCount的地址 */
   13922:	1fff2797          	auipc	a5,0x1fff2
   13926:	39e78793          	addi	a5,a5,926 # 20005cc0 <mMainLoopCount>
E:\16-24-BOOK\20-24-Machinery\22-24-CHB-20211026-20241126\06-User\AHL-CH573-EXP-V1.5-20241126\03-Software\CH07\GPIO-ASM-CH573\Debug/srcs/main.s:70
       lw t1,0(a5)             /* t1←变量mMainLoopCount的值 */
   1392a:	0007a303          	lw	t1,0(a5)
E:\16-24-BOOK\20-24-Machinery\22-24-CHB-20211026-20241126\06-User\AHL-CH573-EXP-V1.5-20241126\03-Software\CH07\GPIO-ASM-CH573\Debug/srcs/main.s:71
       addi t1,t1,1            /* t1←t1+1 */
   1392e:	0305                	addi	t1,t1,1
E:\16-24-BOOK\20-24-Machinery\22-24-CHB-20211026-20241126\06-User\AHL-CH573-EXP-V1.5-20241126\03-Software\CH07\GPIO-ASM-CH573\Debug/srcs/main.s:72
       sw t1,0(a5)             /* 放回RAM中 */
   13930:	0067a023          	sw	t1,0(a5)
E:\16-24-BOOK\20-24-Machinery\22-24-CHB-20211026-20241126\06-User\AHL-CH573-EXP-V1.5-20241126\03-Software\CH07\GPIO-ASM-CH573\Debug/srcs/main.s:74
       /* 判断是否到设定值 */
       li t2,MAINLOOP_COUNT    /* 常数在user.inc中宏定义 */
   13934:	000923b7          	lui	t2,0x92
   13938:	7c038393          	addi	t2,t2,1984 # 927c0 <MAINLOOP_COUNT>
E:\16-24-BOOK\20-24-Machinery\22-24-CHB-20211026-20241126\06-User\AHL-CH573-EXP-V1.5-20241126\03-Software\CH07\GPIO-ASM-CH573\Debug/srcs/main.s:75
       bltu t1,t2,main_loop    /* 小于转,即t1<t2转 */
   1393c:	fe7363e3          	bltu	t1,t2,13922 <main_loop>
E:\16-24-BOOK\20-24-Machinery\22-24-CHB-20211026-20241126\06-User\AHL-CH573-EXP-V1.5-20241126\03-Software\CH07\GPIO-ASM-CH573\Debug/srcs/main.s:78
    /*（2.2）达到主循环次数设定值，执行下列语句，进行灯的亮暗处理 */
       /* 清除主循环次数变量 */
       la a5, mMainLoopCount    
   13940:	1fff2797          	auipc	a5,0x1fff2
   13944:	38078793          	addi	a5,a5,896 # 20005cc0 <mMainLoopCount>
E:\16-24-BOOK\20-24-Machinery\22-24-CHB-20211026-20241126\06-User\AHL-CH573-EXP-V1.5-20241126\03-Software\CH07\GPIO-ASM-CH573\Debug/srcs/main.s:79
       li t1,0
   13948:	4301                	li	t1,0
E:\16-24-BOOK\20-24-Machinery\22-24-CHB-20211026-20241126\06-User\AHL-CH573-EXP-V1.5-20241126\03-Software\CH07\GPIO-ASM-CH573\Debug/srcs/main.s:80
       sw t1,0(a5)
   1394a:	0067a023          	sw	t1,0(a5)
E:\16-24-BOOK\20-24-Machinery\22-24-CHB-20211026-20241126\06-User\AHL-CH573-EXP-V1.5-20241126\03-Software\CH07\GPIO-ASM-CH573\Debug/srcs/main.s:82
       /* 判定灯状态标志mFlag是否为'L' */
       la a5, mFlag
   1394e:	1fff2797          	auipc	a5,0x1fff2
   13952:	37a78793          	addi	a5,a5,890 # 20005cc8 <mFlag>
E:\16-24-BOOK\20-24-Machinery\22-24-CHB-20211026-20241126\06-User\AHL-CH573-EXP-V1.5-20241126\03-Software\CH07\GPIO-ASM-CH573\Debug/srcs/main.s:83
       lb t1,0(a5)
   13956:	00078303          	lb	t1,0(a5)
E:\16-24-BOOK\20-24-Machinery\22-24-CHB-20211026-20241126\06-User\AHL-CH573-EXP-V1.5-20241126\03-Software\CH07\GPIO-ASM-CH573\Debug/srcs/main.s:84
       li t2,'L'
   1395a:	04c00393          	li	t2,76
E:\16-24-BOOK\20-24-Machinery\22-24-CHB-20211026-20241126\06-User\AHL-CH573-EXP-V1.5-20241126\03-Software\CH07\GPIO-ASM-CH573\Debug/srcs/main.s:85
       bne t1,t2,main_Light_OFF       /* t1≠t2转 */
   1395e:	06731863          	bne	t1,t2,139ce <main_Light_OFF>
E:\16-24-BOOK\20-24-Machinery\22-24-CHB-20211026-20241126\06-User\AHL-CH573-EXP-V1.5-20241126\03-Software\CH07\GPIO-ASM-CH573\Debug/srcs/main.s:87
       /* 灯状态标志mFlag为'L' */
       la a5,mLigtCount               /* 灯闪烁次数+1 */     
   13962:	1fff2797          	auipc	a5,0x1fff2
   13966:	36278793          	addi	a5,a5,866 # 20005cc4 <mLigtCount>
E:\16-24-BOOK\20-24-Machinery\22-24-CHB-20211026-20241126\06-User\AHL-CH573-EXP-V1.5-20241126\03-Software\CH07\GPIO-ASM-CH573\Debug/srcs/main.s:88
       lw t1,0(a5)                
   1396a:	0007a303          	lw	t1,0(a5)
E:\16-24-BOOK\20-24-Machinery\22-24-CHB-20211026-20241126\06-User\AHL-CH573-EXP-V1.5-20241126\03-Software\CH07\GPIO-ASM-CH573\Debug/srcs/main.s:89
       addi t1,t1,1                
   1396e:	0305                	addi	t1,t1,1
E:\16-24-BOOK\20-24-Machinery\22-24-CHB-20211026-20241126\06-User\AHL-CH573-EXP-V1.5-20241126\03-Software\CH07\GPIO-ASM-CH573\Debug/srcs/main.s:90
       sw t1,0(a5)   
   13970:	0067a023          	sw	t1,0(a5)
E:\16-24-BOOK\20-24-Machinery\22-24-CHB-20211026-20241126\06-User\AHL-CH573-EXP-V1.5-20241126\03-Software\CH07\GPIO-ASM-CH573\Debug/srcs/main.s:91
       la a0,printf_format1           /* 输出提示 闪烁次数mLightCount= */
   13974:	1fff2517          	auipc	a0,0x1fff2
   13978:	2ff50513          	addi	a0,a0,767 # 20005c73 <printf_format1>
E:\16-24-BOOK\20-24-Machinery\22-24-CHB-20211026-20241126\06-User\AHL-CH573-EXP-V1.5-20241126\03-Software\CH07\GPIO-ASM-CH573\Debug/srcs/main.s:92
       call printf 
   1397c:	00001097          	auipc	ra,0x1
   13980:	d5e080e7          	jalr	-674(ra) # 146da <myprintf>
E:\16-24-BOOK\20-24-Machinery\22-24-CHB-20211026-20241126\06-User\AHL-CH573-EXP-V1.5-20241126\03-Software\CH07\GPIO-ASM-CH573\Debug/srcs/main.s:94
       /* 通过调试串口输出显示 闪烁次数次数值，a0,a1为入口参数 */ 
       la a0,printf_format2           /* a0←data_format的地址 */
   13984:	1fff2517          	auipc	a0,0x1fff2
   13988:	30550513          	addi	a0,a0,773 # 20005c89 <printf_format2>
E:\16-24-BOOK\20-24-Machinery\22-24-CHB-20211026-20241126\06-User\AHL-CH573-EXP-V1.5-20241126\03-Software\CH07\GPIO-ASM-CH573\Debug/srcs/main.s:95
       la a5,mLigtCount               /* a5←变量mLigtCount的地址 */
   1398c:	1fff2797          	auipc	a5,0x1fff2
   13990:	33878793          	addi	a5,a5,824 # 20005cc4 <mLigtCount>
E:\16-24-BOOK\20-24-Machinery\22-24-CHB-20211026-20241126\06-User\AHL-CH573-EXP-V1.5-20241126\03-Software\CH07\GPIO-ASM-CH573\Debug/srcs/main.s:96
       lw a1,0(a5)                    /* a1←变量mLigtCount的值 */
   13994:	438c                	lw	a1,0(a5)
E:\16-24-BOOK\20-24-Machinery\22-24-CHB-20211026-20241126\06-User\AHL-CH573-EXP-V1.5-20241126\03-Software\CH07\GPIO-ASM-CH573\Debug/srcs/main.s:97
       call printf                    /* 调用函数 */
   13996:	00001097          	auipc	ra,0x1
   1399a:	d44080e7          	jalr	-700(ra) # 146da <myprintf>
E:\16-24-BOOK\20-24-Machinery\22-24-CHB-20211026-20241126\06-User\AHL-CH573-EXP-V1.5-20241126\03-Software\CH07\GPIO-ASM-CH573\Debug/srcs/main.s:99
       /* 蓝灯亮 */
       li a0,LIGHT_BLUE               /* 第1参数a0 ← LIGHT_BLUE */
   1399e:	10e00513          	li	a0,270
E:\16-24-BOOK\20-24-Machinery\22-24-CHB-20211026-20241126\06-User\AHL-CH573-EXP-V1.5-20241126\03-Software\CH07\GPIO-ASM-CH573\Debug/srcs/main.s:100
       li a1,LIGHT_ON                 /* 第2参数a1 ← LIGHT_ON */
   139a2:	4581                	li	a1,0
E:\16-24-BOOK\20-24-Machinery\22-24-CHB-20211026-20241126\06-User\AHL-CH573-EXP-V1.5-20241126\03-Software\CH07\GPIO-ASM-CH573\Debug/srcs/main.s:101
       call gpio_set                  /* 调用函数 */ 
   139a4:	00000097          	auipc	ra,0x0
   139a8:	cfe080e7          	jalr	-770(ra) # 136a2 <gpio_set>
E:\16-24-BOOK\20-24-Machinery\22-24-CHB-20211026-20241126\06-User\AHL-CH573-EXP-V1.5-20241126\03-Software\CH07\GPIO-ASM-CH573\Debug/srcs/main.s:102
       la a0,printf_format3           /* 输出灯的状态 */
   139ac:	1fff2517          	auipc	a0,0x1fff2
   139b0:	2e150513          	addi	a0,a0,737 # 20005c8d <printf_format3>
E:\16-24-BOOK\20-24-Machinery\22-24-CHB-20211026-20241126\06-User\AHL-CH573-EXP-V1.5-20241126\03-Software\CH07\GPIO-ASM-CH573\Debug/srcs/main.s:103
       call printf
   139b4:	00001097          	auipc	ra,0x1
   139b8:	d26080e7          	jalr	-730(ra) # 146da <myprintf>
E:\16-24-BOOK\20-24-Machinery\22-24-CHB-20211026-20241126\06-User\AHL-CH573-EXP-V1.5-20241126\03-Software\CH07\GPIO-ASM-CH573\Debug/srcs/main.s:104
       la a1,mFlag                    /* 灯的状态标志改为'A'（暗） */
   139bc:	1fff2597          	auipc	a1,0x1fff2
   139c0:	30c58593          	addi	a1,a1,780 # 20005cc8 <mFlag>
E:\16-24-BOOK\20-24-Machinery\22-24-CHB-20211026-20241126\06-User\AHL-CH573-EXP-V1.5-20241126\03-Software\CH07\GPIO-ASM-CH573\Debug/srcs/main.s:105
       li t1,'A'
   139c4:	04100313          	li	t1,65
E:\16-24-BOOK\20-24-Machinery\22-24-CHB-20211026-20241126\06-User\AHL-CH573-EXP-V1.5-20241126\03-Software\CH07\GPIO-ASM-CH573\Debug/srcs/main.s:106
       sw t1,0(a1)
   139c8:	0065a023          	sw	t1,0(a1)
E:\16-24-BOOK\20-24-Machinery\22-24-CHB-20211026-20241126\06-User\AHL-CH573-EXP-V1.5-20241126\03-Software\CH07\GPIO-ASM-CH573\Debug/srcs/main.s:107
       j main_exit
   139cc:	a805                	j	139fc <main_exit>

000139ce <main_Light_OFF>:
main_Light_OFF():
E:\16-24-BOOK\20-24-Machinery\22-24-CHB-20211026-20241126\06-User\AHL-CH573-EXP-V1.5-20241126\03-Software\CH07\GPIO-ASM-CH573\Debug/srcs/main.s:110
main_Light_OFF:   /* 灯状态标志mFlag不为'L'，即为'A' */
       /* 蓝灯暗*/
       li a0,LIGHT_BLUE               /* 第1参数a0 ← LIGHT_BLUE */
   139ce:	10e00513          	li	a0,270
E:\16-24-BOOK\20-24-Machinery\22-24-CHB-20211026-20241126\06-User\AHL-CH573-EXP-V1.5-20241126\03-Software\CH07\GPIO-ASM-CH573\Debug/srcs/main.s:111
       li a1,LIGHT_OFF                /* 第2参数a1 ← LIGHT_OFF */
   139d2:	4585                	li	a1,1
E:\16-24-BOOK\20-24-Machinery\22-24-CHB-20211026-20241126\06-User\AHL-CH573-EXP-V1.5-20241126\03-Software\CH07\GPIO-ASM-CH573\Debug/srcs/main.s:112
       call gpio_set                  /* 调用函数 */ 
   139d4:	00000097          	auipc	ra,0x0
   139d8:	cce080e7          	jalr	-818(ra) # 136a2 <gpio_set>
E:\16-24-BOOK\20-24-Machinery\22-24-CHB-20211026-20241126\06-User\AHL-CH573-EXP-V1.5-20241126\03-Software\CH07\GPIO-ASM-CH573\Debug/srcs/main.s:113
       la a0,printf_format4           /* 输出灯的状态 */
   139dc:	1fff2517          	auipc	a0,0x1fff2
   139e0:	2c250513          	addi	a0,a0,706 # 20005c9e <printf_format4>
E:\16-24-BOOK\20-24-Machinery\22-24-CHB-20211026-20241126\06-User\AHL-CH573-EXP-V1.5-20241126\03-Software\CH07\GPIO-ASM-CH573\Debug/srcs/main.s:114
       call printf 
   139e4:	00001097          	auipc	ra,0x1
   139e8:	cf6080e7          	jalr	-778(ra) # 146da <myprintf>
E:\16-24-BOOK\20-24-Machinery\22-24-CHB-20211026-20241126\06-User\AHL-CH573-EXP-V1.5-20241126\03-Software\CH07\GPIO-ASM-CH573\Debug/srcs/main.s:115
       la a1,mFlag                    /* 灯的状态标志改为'L'（亮） */
   139ec:	1fff2597          	auipc	a1,0x1fff2
   139f0:	2dc58593          	addi	a1,a1,732 # 20005cc8 <mFlag>
E:\16-24-BOOK\20-24-Machinery\22-24-CHB-20211026-20241126\06-User\AHL-CH573-EXP-V1.5-20241126\03-Software\CH07\GPIO-ASM-CH573\Debug/srcs/main.s:116
       li t1,'L'
   139f4:	04c00313          	li	t1,76
E:\16-24-BOOK\20-24-Machinery\22-24-CHB-20211026-20241126\06-User\AHL-CH573-EXP-V1.5-20241126\03-Software\CH07\GPIO-ASM-CH573\Debug/srcs/main.s:117
       sw t1,0(a1)
   139f8:	0065a023          	sw	t1,0(a1)

000139fc <main_exit>:
main_exit():
E:\16-24-BOOK\20-24-Machinery\22-24-CHB-20211026-20241126\06-User\AHL-CH573-EXP-V1.5-20241126\03-Software\CH07\GPIO-ASM-CH573\Debug/srcs/main.s:119
main_exit:
    j main_loop                       /* 继续循环 */
   139fc:	b71d                	j	13922 <main_loop>
E:\16-24-BOOK\20-24-Machinery\22-24-CHB-20211026-20241126\06-User\AHL-CH573-EXP-V1.5-20241126\03-Software\CH07\GPIO-ASM-CH573\Debug/srcs/main.s:122
/*【2】主循环部分（结尾）=========================================== */
    /* 从栈恢复现场（即使运行不到这里，每一个函数将栈恢复） */
    addi sp, sp, 48             /* 释放栈帧 */
   139fe:	6145                	addi	sp,sp,48
E:\16-24-BOOK\20-24-Machinery\22-24-CHB-20211026-20241126\06-User\AHL-CH573-EXP-V1.5-20241126\03-Software\CH07\GPIO-ASM-CH573\Debug/srcs/main.s:123
    ret                         /* 返回 */
   13a00:	8082                	ret

00013a02 <memset>:
memset():
   13a02:	433d                	li	t1,15
   13a04:	872a                	mv	a4,a0
   13a06:	02c37363          	bgeu	t1,a2,13a2c <memset+0x2a>
   13a0a:	00f77793          	andi	a5,a4,15
   13a0e:	efbd                	bnez	a5,13a8c <memset+0x8a>
   13a10:	e5ad                	bnez	a1,13a7a <memset+0x78>
   13a12:	ff067693          	andi	a3,a2,-16
   13a16:	8a3d                	andi	a2,a2,15
   13a18:	96ba                	add	a3,a3,a4
   13a1a:	c30c                	sw	a1,0(a4)
   13a1c:	c34c                	sw	a1,4(a4)
   13a1e:	c70c                	sw	a1,8(a4)
   13a20:	c74c                	sw	a1,12(a4)
   13a22:	0741                	addi	a4,a4,16
   13a24:	fed76be3          	bltu	a4,a3,13a1a <memset+0x18>
   13a28:	e211                	bnez	a2,13a2c <memset+0x2a>
   13a2a:	8082                	ret
   13a2c:	40c306b3          	sub	a3,t1,a2
   13a30:	068a                	slli	a3,a3,0x2
   13a32:	00000297          	auipc	t0,0x0
   13a36:	9696                	add	a3,a3,t0
   13a38:	00a68067          	jr	10(a3)
   13a3c:	00b70723          	sb	a1,14(a4) # 7800e <_data_lma+0x61fe6>
   13a40:	00b706a3          	sb	a1,13(a4)
   13a44:	00b70623          	sb	a1,12(a4)
   13a48:	00b705a3          	sb	a1,11(a4)
   13a4c:	00b70523          	sb	a1,10(a4)
   13a50:	00b704a3          	sb	a1,9(a4)
   13a54:	00b70423          	sb	a1,8(a4)
   13a58:	00b703a3          	sb	a1,7(a4)
   13a5c:	00b70323          	sb	a1,6(a4)
   13a60:	00b702a3          	sb	a1,5(a4)
   13a64:	00b70223          	sb	a1,4(a4)
   13a68:	00b701a3          	sb	a1,3(a4)
   13a6c:	00b70123          	sb	a1,2(a4)
   13a70:	00b700a3          	sb	a1,1(a4)
   13a74:	00b70023          	sb	a1,0(a4)
   13a78:	8082                	ret
   13a7a:	0ff5f593          	andi	a1,a1,255
   13a7e:	00859693          	slli	a3,a1,0x8
   13a82:	8dd5                	or	a1,a1,a3
   13a84:	01059693          	slli	a3,a1,0x10
   13a88:	8dd5                	or	a1,a1,a3
   13a8a:	b761                	j	13a12 <memset+0x10>
   13a8c:	00279693          	slli	a3,a5,0x2
   13a90:	00000297          	auipc	t0,0x0
   13a94:	9696                	add	a3,a3,t0
   13a96:	8286                	mv	t0,ra
   13a98:	fa8680e7          	jalr	-88(a3)
   13a9c:	8096                	mv	ra,t0
   13a9e:	17c1                	addi	a5,a5,-16
   13aa0:	8f1d                	sub	a4,a4,a5
   13aa2:	963e                	add	a2,a2,a5
   13aa4:	f8c374e3          	bgeu	t1,a2,13a2c <memset+0x2a>
   13aa8:	b7a5                	j	13a10 <memset+0xe>
	...

00013aac <flash_erase>:
flash_erase():
E:\16-24-BOOK\20-24-Machinery\22-24-CHB-20211026-20241126\06-User\AHL-CH573-EXP-V1.5-20241126\03-Software\CH07\GPIO-ASM-CH573\Debug/srcc/flash.c:68
//函数返回：函数执行执行状态：0=正常；1=异常。
//参数说明：sect：目标扇区号（范围取决于实际芯片
//功能概要：擦除flash存储器的sect扇区
//======================================================================
uint8_t flash_erase(uint16_t sect)
{
   13aac:	1141                	addi	sp,sp,-16
E:\16-24-BOOK\20-24-Machinery\22-24-CHB-20211026-20241126\06-User\AHL-CH573-EXP-V1.5-20241126\03-Software\CH07\GPIO-ASM-CH573\Debug/srcc/flash.c:73
    uint32_t StartAddr;
    uint8_t flag;

    StartAddr = (uint32_t)(sect * Flash_Sect_size + Flash_Address);
    flag = FLASH_ROM_ERASE(StartAddr,4096);
   13aae:	00c51593          	slli	a1,a0,0xc
   13ab2:	6685                	lui	a3,0x1
   13ab4:	4601                	li	a2,0
   13ab6:	4505                	li	a0,1
E:\16-24-BOOK\20-24-Machinery\22-24-CHB-20211026-20241126\06-User\AHL-CH573-EXP-V1.5-20241126\03-Software\CH07\GPIO-ASM-CH573\Debug/srcc/flash.c:68
{
   13ab8:	c606                	sw	ra,12(sp)
E:\16-24-BOOK\20-24-Machinery\22-24-CHB-20211026-20241126\06-User\AHL-CH573-EXP-V1.5-20241126\03-Software\CH07\GPIO-ASM-CH573\Debug/srcc/flash.c:73
    flag = FLASH_ROM_ERASE(StartAddr,4096);
   13aba:	1fff2097          	auipc	ra,0x1fff2
   13abe:	c36080e7          	jalr	-970(ra) # 200056f0 <FLASH_EEPROM_CMD>
E:\16-24-BOOK\20-24-Machinery\22-24-CHB-20211026-20241126\06-User\AHL-CH573-EXP-V1.5-20241126\03-Software\CH07\GPIO-ASM-CH573\Debug/srcc/flash.c:77
//    uart_send1(UART_3, 'J');
    return flag;

}
   13ac2:	40b2                	lw	ra,12(sp)
   13ac4:	0ff57513          	andi	a0,a0,255
   13ac8:	0141                	addi	sp,sp,16
   13aca:	8082                	ret

00013acc <flash_write_sect>:
flash_write_sect():
E:\16-24-BOOK\20-24-Machinery\22-24-CHB-20211026-20241126\06-User\AHL-CH573-EXP-V1.5-20241126\03-Software\CH07\GPIO-ASM-CH573\Debug/srcc/flash.c:89
//        buf：源数据缓冲区首地址
//功能概要：将buf开始的N字节写入到flash存储器的sect扇区的 offset处
//编程参考：暂无
//=======================================================================
uint8_t flash_write_sect(uint16_t sect,uint16_t offset,uint32_t N,uint8_t *buf)
{
   13acc:	87b6                	mv	a5,a3
E:\16-24-BOOK\20-24-Machinery\22-24-CHB-20211026-20241126\06-User\AHL-CH573-EXP-V1.5-20241126\03-Software\CH07\GPIO-ASM-CH573\Debug/srcc/flash.c:93
    uint32_t StartAddr;
    uint8_t flag;

    StartAddr = (uint32_t)(sect * Flash_Sect_size + offset + Flash_Address);
   13ace:	0532                	slli	a0,a0,0xc
E:\16-24-BOOK\20-24-Machinery\22-24-CHB-20211026-20241126\06-User\AHL-CH573-EXP-V1.5-20241126\03-Software\CH07\GPIO-ASM-CH573\Debug/srcc/flash.c:89
{
   13ad0:	1141                	addi	sp,sp,-16
E:\16-24-BOOK\20-24-Machinery\22-24-CHB-20211026-20241126\06-User\AHL-CH573-EXP-V1.5-20241126\03-Software\CH07\GPIO-ASM-CH573\Debug/srcc/flash.c:94
    flag = FLASH_ROM_WRITE(StartAddr,buf,N);
   13ad2:	86b2                	mv	a3,a2
   13ad4:	95aa                	add	a1,a1,a0
   13ad6:	863e                	mv	a2,a5
   13ad8:	4509                	li	a0,2
E:\16-24-BOOK\20-24-Machinery\22-24-CHB-20211026-20241126\06-User\AHL-CH573-EXP-V1.5-20241126\03-Software\CH07\GPIO-ASM-CH573\Debug/srcc/flash.c:89
{
   13ada:	c606                	sw	ra,12(sp)
E:\16-24-BOOK\20-24-Machinery\22-24-CHB-20211026-20241126\06-User\AHL-CH573-EXP-V1.5-20241126\03-Software\CH07\GPIO-ASM-CH573\Debug/srcc/flash.c:94
    flag = FLASH_ROM_WRITE(StartAddr,buf,N);
   13adc:	1fff2097          	auipc	ra,0x1fff2
   13ae0:	c14080e7          	jalr	-1004(ra) # 200056f0 <FLASH_EEPROM_CMD>
E:\16-24-BOOK\20-24-Machinery\22-24-CHB-20211026-20241126\06-User\AHL-CH573-EXP-V1.5-20241126\03-Software\CH07\GPIO-ASM-CH573\Debug/srcc/flash.c:97

    return flag;
}
   13ae4:	40b2                	lw	ra,12(sp)
   13ae6:	0ff57513          	andi	a0,a0,255
   13aea:	0141                	addi	sp,sp,16
   13aec:	8082                	ret

00013aee <flash_read_logic>:
flash_read_logic():
E:\16-24-BOOK\20-24-Machinery\22-24-CHB-20211026-20241126\06-User\AHL-CH573-EXP-V1.5-20241126\03-Software\CH07\GPIO-ASM-CH573\Debug/srcc/flash.c:226
//=======================================================================
void flash_read_logic(uint8_t* Buffer,uint16_t sect,uint16_t offset,uint32_t N)
{

    uint32_t i, Length = ( N + 3 ) >> 2;
    uint32_t* pCode = ( uint32_t* ) (sect * Flash_Sect_size + offset + Flash_Address);
   13aee:	05b2                	slli	a1,a1,0xc
E:\16-24-BOOK\20-24-Machinery\22-24-CHB-20211026-20241126\06-User\AHL-CH573-EXP-V1.5-20241126\03-Software\CH07\GPIO-ASM-CH573\Debug/srcc/flash.c:225
    uint32_t i, Length = ( N + 3 ) >> 2;
   13af0:	068d                	addi	a3,a3,3
E:\16-24-BOOK\20-24-Machinery\22-24-CHB-20211026-20241126\06-User\AHL-CH573-EXP-V1.5-20241126\03-Software\CH07\GPIO-ASM-CH573\Debug/srcc/flash.c:226
    uint32_t* pCode = ( uint32_t* ) (sect * Flash_Sect_size + offset + Flash_Address);
   13af2:	962e                	add	a2,a2,a1
E:\16-24-BOOK\20-24-Machinery\22-24-CHB-20211026-20241126\06-User\AHL-CH573-EXP-V1.5-20241126\03-Software\CH07\GPIO-ASM-CH573\Debug/srcc/flash.c:229
    uint32_t* pBuf = ( uint32_t* ) Buffer;

    for ( i = 0; i < Length; i++ )
   13af4:	9af1                	andi	a3,a3,-4
   13af6:	4781                	li	a5,0
   13af8:	00f60733          	add	a4,a2,a5
E:\16-24-BOOK\20-24-Machinery\22-24-CHB-20211026-20241126\06-User\AHL-CH573-EXP-V1.5-20241126\03-Software\CH07\GPIO-ASM-CH573\Debug/srcc/flash.c:229 (discriminator 1)
   13afc:	00d79363          	bne	a5,a3,13b02 <flash_read_logic+0x14>
E:\16-24-BOOK\20-24-Machinery\22-24-CHB-20211026-20241126\06-User\AHL-CH573-EXP-V1.5-20241126\03-Software\CH07\GPIO-ASM-CH573\Debug/srcc/flash.c:234
    {
      *pBuf++ = *pCode++;
    }

}
   13b00:	8082                	ret
E:\16-24-BOOK\20-24-Machinery\22-24-CHB-20211026-20241126\06-User\AHL-CH573-EXP-V1.5-20241126\03-Software\CH07\GPIO-ASM-CH573\Debug/srcc/flash.c:231 (discriminator 3)
      *pBuf++ = *pCode++;
   13b02:	430c                	lw	a1,0(a4)
   13b04:	00f50733          	add	a4,a0,a5
   13b08:	0791                	addi	a5,a5,4
   13b0a:	c30c                	sw	a1,0(a4)
   13b0c:	b7f5                	j	13af8 <flash_read_logic+0xa>

00013b0e <flash_write_DoubleWord>:
flash_write_DoubleWord():
E:\16-24-BOOK\20-24-Machinery\22-24-CHB-20211026-20241126\06-User\AHL-CH573-EXP-V1.5-20241126\03-Software\CH07\GPIO-ASM-CH573\Debug/srcc/flash.c:287
//       data：写入的双字
//功能概要：Flash双字写入操作（STM32L433每次只能实现双字写入，先写低位字，再写高位字）
//编程参考：暂无
//======================================================================
uint8_t flash_write_DoubleWord(uint32_t addr,uint32_t *data_l,uint32_t *data_h)
{
   13b0e:	1141                	addi	sp,sp,-16
   13b10:	c422                	sw	s0,8(sp)
   13b12:	c226                	sw	s1,4(sp)
   13b14:	842a                	mv	s0,a0
   13b16:	84b2                	mv	s1,a2
E:\16-24-BOOK\20-24-Machinery\22-24-CHB-20211026-20241126\06-User\AHL-CH573-EXP-V1.5-20241126\03-Software\CH07\GPIO-ASM-CH573\Debug/srcc/flash.c:291
    uint8_t flag1;
    uint8_t flag2;

    flag1 = FLASH_ROM_WRITE(addr,data_l,4);
   13b18:	4691                	li	a3,4
   13b1a:	862e                	mv	a2,a1
   13b1c:	85aa                	mv	a1,a0
   13b1e:	4509                	li	a0,2
E:\16-24-BOOK\20-24-Machinery\22-24-CHB-20211026-20241126\06-User\AHL-CH573-EXP-V1.5-20241126\03-Software\CH07\GPIO-ASM-CH573\Debug/srcc/flash.c:287
{
   13b20:	c606                	sw	ra,12(sp)
E:\16-24-BOOK\20-24-Machinery\22-24-CHB-20211026-20241126\06-User\AHL-CH573-EXP-V1.5-20241126\03-Software\CH07\GPIO-ASM-CH573\Debug/srcc/flash.c:291
    flag1 = FLASH_ROM_WRITE(addr,data_l,4);
   13b22:	1fff2097          	auipc	ra,0x1fff2
   13b26:	bce080e7          	jalr	-1074(ra) # 200056f0 <FLASH_EEPROM_CMD>
E:\16-24-BOOK\20-24-Machinery\22-24-CHB-20211026-20241126\06-User\AHL-CH573-EXP-V1.5-20241126\03-Software\CH07\GPIO-ASM-CH573\Debug/srcc/flash.c:292
    flag2 = FLASH_ROM_WRITE((uint32_t)(addr+4),data_h,4);
   13b2a:	8626                	mv	a2,s1
   13b2c:	00440593          	addi	a1,s0,4
   13b30:	4691                	li	a3,4
   13b32:	4509                	li	a0,2
   13b34:	1fff2097          	auipc	ra,0x1fff2
   13b38:	bbc080e7          	jalr	-1092(ra) # 200056f0 <FLASH_EEPROM_CMD>
E:\16-24-BOOK\20-24-Machinery\22-24-CHB-20211026-20241126\06-User\AHL-CH573-EXP-V1.5-20241126\03-Software\CH07\GPIO-ASM-CH573\Debug/srcc/flash.c:296

    return 0;

}
   13b3c:	40b2                	lw	ra,12(sp)
   13b3e:	4422                	lw	s0,8(sp)
   13b40:	4492                	lw	s1,4(sp)
   13b42:	4501                	li	a0,0
   13b44:	0141                	addi	sp,sp,16
   13b46:	8082                	ret

00013b48 <flash_Best>:
flash_Best():
E:\16-24-BOOK\20-24-Machinery\22-24-CHB-20211026-20241126\06-User\AHL-CH573-EXP-V1.5-20241126\03-Software\CH07\GPIO-ASM-CH573\Debug/srcc/flash.c:187
{
   13b48:	7179                	addi	sp,sp,-48
E:\16-24-BOOK\20-24-Machinery\22-24-CHB-20211026-20241126\06-User\AHL-CH573-EXP-V1.5-20241126\03-Software\CH07\GPIO-ASM-CH573\Debug/srcc/flash.c:194
    addr = (uint32_t)(Flash_Address+sect*Flash_Sect_size+offset);
   13b4a:	0532                	slli	a0,a0,0xc
E:\16-24-BOOK\20-24-Machinery\22-24-CHB-20211026-20241126\06-User\AHL-CH573-EXP-V1.5-20241126\03-Software\CH07\GPIO-ASM-CH573\Debug/srcc/flash.c:187
{
   13b4c:	d422                	sw	s0,40(sp)
   13b4e:	d226                	sw	s1,36(sp)
   13b50:	d04a                	sw	s2,32(sp)
   13b52:	d606                	sw	ra,44(sp)
   13b54:	8932                	mv	s2,a2
E:\16-24-BOOK\20-24-Machinery\22-24-CHB-20211026-20241126\06-User\AHL-CH573-EXP-V1.5-20241126\03-Software\CH07\GPIO-ASM-CH573\Debug/srcc/flash.c:194
    addr = (uint32_t)(Flash_Address+sect*Flash_Sect_size+offset);
   13b56:	00b504b3          	add	s1,a0,a1
E:\16-24-BOOK\20-24-Machinery\22-24-CHB-20211026-20241126\06-User\AHL-CH573-EXP-V1.5-20241126\03-Software\CH07\GPIO-ASM-CH573\Debug/srcc/flash.c:196
    for(i = 0; i < N; i+=8)
   13b5a:	4401                	li	s0,0
E:\16-24-BOOK\20-24-Machinery\22-24-CHB-20211026-20241126\06-User\AHL-CH573-EXP-V1.5-20241126\03-Software\CH07\GPIO-ASM-CH573\Debug/srcc/flash.c:196 (discriminator 1)
   13b5c:	01246963          	bltu	s0,s2,13b6e <flash_Best+0x26>
E:\16-24-BOOK\20-24-Machinery\22-24-CHB-20211026-20241126\06-User\AHL-CH573-EXP-V1.5-20241126\03-Software\CH07\GPIO-ASM-CH573\Debug/srcc/flash.c:208
}
   13b60:	50b2                	lw	ra,44(sp)
   13b62:	5422                	lw	s0,40(sp)
   13b64:	5492                	lw	s1,36(sp)
   13b66:	5902                	lw	s2,32(sp)
   13b68:	4501                	li	a0,0
   13b6a:	6145                	addi	sp,sp,48
   13b6c:	8082                	ret
E:\16-24-BOOK\20-24-Machinery\22-24-CHB-20211026-20241126\06-User\AHL-CH573-EXP-V1.5-20241126\03-Software\CH07\GPIO-ASM-CH573\Debug/srcc/flash.c:199 (discriminator 3)
        temp_l = (uint32_t)((buf[i])|(buf[i+1]<<8)|(buf[i+2]<<16)|(buf[i+3]<<24));
   13b6e:	00868733          	add	a4,a3,s0
   13b72:	00174783          	lbu	a5,1(a4)
   13b76:	00274603          	lbu	a2,2(a4)
E:\16-24-BOOK\20-24-Machinery\22-24-CHB-20211026-20241126\06-User\AHL-CH573-EXP-V1.5-20241126\03-Software\CH07\GPIO-ASM-CH573\Debug/srcc/flash.c:205 (discriminator 3)
        flash_write_DoubleWord((addr+i),addr2,addr1);
   13b7a:	00940533          	add	a0,s0,s1
E:\16-24-BOOK\20-24-Machinery\22-24-CHB-20211026-20241126\06-User\AHL-CH573-EXP-V1.5-20241126\03-Software\CH07\GPIO-ASM-CH573\Debug/srcc/flash.c:199 (discriminator 3)
        temp_l = (uint32_t)((buf[i])|(buf[i+1]<<8)|(buf[i+2]<<16)|(buf[i+3]<<24));
   13b7e:	07a2                	slli	a5,a5,0x8
   13b80:	0642                	slli	a2,a2,0x10
   13b82:	8fd1                	or	a5,a5,a2
   13b84:	00074603          	lbu	a2,0(a4)
E:\16-24-BOOK\20-24-Machinery\22-24-CHB-20211026-20241126\06-User\AHL-CH573-EXP-V1.5-20241126\03-Software\CH07\GPIO-ASM-CH573\Debug/srcc/flash.c:205 (discriminator 3)
        flash_write_DoubleWord((addr+i),addr2,addr1);
   13b88:	082c                	addi	a1,sp,24
E:\16-24-BOOK\20-24-Machinery\22-24-CHB-20211026-20241126\06-User\AHL-CH573-EXP-V1.5-20241126\03-Software\CH07\GPIO-ASM-CH573\Debug/srcc/flash.c:196 (discriminator 3)
    for(i = 0; i < N; i+=8)
   13b8a:	0421                	addi	s0,s0,8
E:\16-24-BOOK\20-24-Machinery\22-24-CHB-20211026-20241126\06-User\AHL-CH573-EXP-V1.5-20241126\03-Software\CH07\GPIO-ASM-CH573\Debug/srcc/flash.c:199 (discriminator 3)
        temp_l = (uint32_t)((buf[i])|(buf[i+1]<<8)|(buf[i+2]<<16)|(buf[i+3]<<24));
   13b8c:	8fd1                	or	a5,a5,a2
   13b8e:	00374603          	lbu	a2,3(a4)
   13b92:	c636                	sw	a3,12(sp)
E:\16-24-BOOK\20-24-Machinery\22-24-CHB-20211026-20241126\06-User\AHL-CH573-EXP-V1.5-20241126\03-Software\CH07\GPIO-ASM-CH573\Debug/srcc/flash.c:196 (discriminator 3)
    for(i = 0; i < N; i+=8)
   13b94:	0442                	slli	s0,s0,0x10
E:\16-24-BOOK\20-24-Machinery\22-24-CHB-20211026-20241126\06-User\AHL-CH573-EXP-V1.5-20241126\03-Software\CH07\GPIO-ASM-CH573\Debug/srcc/flash.c:199 (discriminator 3)
        temp_l = (uint32_t)((buf[i])|(buf[i+1]<<8)|(buf[i+2]<<16)|(buf[i+3]<<24));
   13b96:	0662                	slli	a2,a2,0x18
   13b98:	8fd1                	or	a5,a5,a2
   13b9a:	cc3e                	sw	a5,24(sp)
E:\16-24-BOOK\20-24-Machinery\22-24-CHB-20211026-20241126\06-User\AHL-CH573-EXP-V1.5-20241126\03-Software\CH07\GPIO-ASM-CH573\Debug/srcc/flash.c:201 (discriminator 3)
        temp_h = (uint32_t)((buf[i+4])|(buf[i+5]<<8)|(buf[i+6]<<16)|(buf[i+7]<<24));
   13b9c:	00674603          	lbu	a2,6(a4)
   13ba0:	00574783          	lbu	a5,5(a4)
E:\16-24-BOOK\20-24-Machinery\22-24-CHB-20211026-20241126\06-User\AHL-CH573-EXP-V1.5-20241126\03-Software\CH07\GPIO-ASM-CH573\Debug/srcc/flash.c:196 (discriminator 3)
    for(i = 0; i < N; i+=8)
   13ba4:	8041                	srli	s0,s0,0x10
E:\16-24-BOOK\20-24-Machinery\22-24-CHB-20211026-20241126\06-User\AHL-CH573-EXP-V1.5-20241126\03-Software\CH07\GPIO-ASM-CH573\Debug/srcc/flash.c:201 (discriminator 3)
        temp_h = (uint32_t)((buf[i+4])|(buf[i+5]<<8)|(buf[i+6]<<16)|(buf[i+7]<<24));
   13ba6:	0642                	slli	a2,a2,0x10
   13ba8:	07a2                	slli	a5,a5,0x8
   13baa:	8fd1                	or	a5,a5,a2
   13bac:	00474603          	lbu	a2,4(a4)
   13bb0:	00774703          	lbu	a4,7(a4)
   13bb4:	8fd1                	or	a5,a5,a2
   13bb6:	0762                	slli	a4,a4,0x18
   13bb8:	8fd9                	or	a5,a5,a4
E:\16-24-BOOK\20-24-Machinery\22-24-CHB-20211026-20241126\06-User\AHL-CH573-EXP-V1.5-20241126\03-Software\CH07\GPIO-ASM-CH573\Debug/srcc/flash.c:205 (discriminator 3)
        flash_write_DoubleWord((addr+i),addr2,addr1);
   13bba:	0870                	addi	a2,sp,28
E:\16-24-BOOK\20-24-Machinery\22-24-CHB-20211026-20241126\06-User\AHL-CH573-EXP-V1.5-20241126\03-Software\CH07\GPIO-ASM-CH573\Debug/srcc/flash.c:201 (discriminator 3)
        temp_h = (uint32_t)((buf[i+4])|(buf[i+5]<<8)|(buf[i+6]<<16)|(buf[i+7]<<24));
   13bbc:	ce3e                	sw	a5,28(sp)
E:\16-24-BOOK\20-24-Machinery\22-24-CHB-20211026-20241126\06-User\AHL-CH573-EXP-V1.5-20241126\03-Software\CH07\GPIO-ASM-CH573\Debug/srcc/flash.c:205 (discriminator 3)
        flash_write_DoubleWord((addr+i),addr2,addr1);
   13bbe:	00000097          	auipc	ra,0x0
   13bc2:	f50080e7          	jalr	-176(ra) # 13b0e <flash_write_DoubleWord>
E:\16-24-BOOK\20-24-Machinery\22-24-CHB-20211026-20241126\06-User\AHL-CH573-EXP-V1.5-20241126\03-Software\CH07\GPIO-ASM-CH573\Debug/srcc/flash.c:196 (discriminator 3)
    for(i = 0; i < N; i+=8)
   13bc6:	46b2                	lw	a3,12(sp)
   13bc8:	bf51                	j	13b5c <flash_Best+0x14>

00013bca <flash_write>:
flash_write():
E:\16-24-BOOK\20-24-Machinery\22-24-CHB-20211026-20241126\06-User\AHL-CH573-EXP-V1.5-20241126\03-Software\CH07\GPIO-ASM-CH573\Debug/srcc/flash.c:111
{
   13bca:	7179                	addi	sp,sp,-48
   13bcc:	737d                	lui	t1,0xfffff
   13bce:	d422                	sw	s0,40(sp)
   13bd0:	d226                	sw	s1,36(sp)
   13bd2:	d04a                	sw	s2,32(sp)
   13bd4:	ce4e                	sw	s3,28(sp)
   13bd6:	cc52                	sw	s4,24(sp)
   13bd8:	d606                	sw	ra,44(sp)
   13bda:	0341                	addi	t1,t1,16
E:\16-24-BOOK\20-24-Machinery\22-24-CHB-20211026-20241126\06-User\AHL-CH573-EXP-V1.5-20241126\03-Software\CH07\GPIO-ASM-CH573\Debug/srcc/flash.c:116
    if(offset+N>Flash_Sect_size)
   13bdc:	00c587b3          	add	a5,a1,a2
   13be0:	6405                	lui	s0,0x1
E:\16-24-BOOK\20-24-Machinery\22-24-CHB-20211026-20241126\06-User\AHL-CH573-EXP-V1.5-20241126\03-Software\CH07\GPIO-ASM-CH573\Debug/srcc/flash.c:111
{
   13be2:	911a                	add	sp,sp,t1
   13be4:	84aa                	mv	s1,a0
   13be6:	89ae                	mv	s3,a1
   13be8:	8932                	mv	s2,a2
   13bea:	8a36                	mv	s4,a3
E:\16-24-BOOK\20-24-Machinery\22-24-CHB-20211026-20241126\06-User\AHL-CH573-EXP-V1.5-20241126\03-Software\CH07\GPIO-ASM-CH573\Debug/srcc/flash.c:116
    if(offset+N>Flash_Sect_size)
   13bec:	04f45163          	bge	s0,a5,13c2e <flash_write+0x64>
E:\16-24-BOOK\20-24-Machinery\22-24-CHB-20211026-20241126\06-User\AHL-CH573-EXP-V1.5-20241126\03-Software\CH07\GPIO-ASM-CH573\Debug/srcc/flash.c:119
        flash_write_sect(sect,offset,Flash_Sect_size-offset,buf);
   13bf0:	8c0d                	sub	s0,s0,a1
   13bf2:	8622                	mv	a2,s0
   13bf4:	00000097          	auipc	ra,0x0
   13bf8:	ed8080e7          	jalr	-296(ra) # 13acc <flash_write_sect>
E:\16-24-BOOK\20-24-Machinery\22-24-CHB-20211026-20241126\06-User\AHL-CH573-EXP-V1.5-20241126\03-Software\CH07\GPIO-ASM-CH573\Debug/srcc/flash.c:121
        flash_write_sect(sect+1,0,N-(Flash_Sect_size-offset),buf+(Flash_Sect_size-offset));
   13bfc:	00148513          	addi	a0,s1,1
   13c00:	0542                	slli	a0,a0,0x10
   13c02:	008a06b3          	add	a3,s4,s0
   13c06:	40890633          	sub	a2,s2,s0
   13c0a:	4581                	li	a1,0
   13c0c:	8141                	srli	a0,a0,0x10
   13c0e:	00000097          	auipc	ra,0x0
   13c12:	ebe080e7          	jalr	-322(ra) # 13acc <flash_write_sect>
E:\16-24-BOOK\20-24-Machinery\22-24-CHB-20211026-20241126\06-User\AHL-CH573-EXP-V1.5-20241126\03-Software\CH07\GPIO-ASM-CH573\Debug/srcc/flash.c:141
}
   13c16:	6305                	lui	t1,0x1
   13c18:	1341                	addi	t1,t1,-16
   13c1a:	911a                	add	sp,sp,t1
   13c1c:	50b2                	lw	ra,44(sp)
   13c1e:	4501                	li	a0,0
   13c20:	5422                	lw	s0,40(sp)
   13c22:	5492                	lw	s1,36(sp)
   13c24:	5902                	lw	s2,32(sp)
   13c26:	49f2                	lw	s3,28(sp)
   13c28:	4a62                	lw	s4,24(sp)
   13c2a:	6145                	addi	sp,sp,48
   13c2c:	8082                	ret
E:\16-24-BOOK\20-24-Machinery\22-24-CHB-20211026-20241126\06-User\AHL-CH573-EXP-V1.5-20241126\03-Software\CH07\GPIO-ASM-CH573\Debug/srcc/flash.c:127
         flash_read_logic(data,sect,0,Flash_Sect_size); //将当前扇区的全部值读入数组中
   13c2e:	6785                	lui	a5,0x1
   13c30:	978a                	add	a5,a5,sp
   13c32:	85aa                	mv	a1,a0
   13c34:	6685                	lui	a3,0x1
   13c36:	40878533          	sub	a0,a5,s0
   13c3a:	4601                	li	a2,0
   13c3c:	00000097          	auipc	ra,0x0
   13c40:	eb2080e7          	jalr	-334(ra) # 13aee <flash_read_logic>
E:\16-24-BOOK\20-24-Machinery\22-24-CHB-20211026-20241126\06-User\AHL-CH573-EXP-V1.5-20241126\03-Software\CH07\GPIO-ASM-CH573\Debug/srcc/flash.c:131
             data[offset+i] = buf[i];
   13c44:	6705                	lui	a4,0x1
   13c46:	970a                	add	a4,a4,sp
E:\16-24-BOOK\20-24-Machinery\22-24-CHB-20211026-20241126\06-User\AHL-CH573-EXP-V1.5-20241126\03-Software\CH07\GPIO-ASM-CH573\Debug/srcc/flash.c:129
         for(i = 0;i<N;i++)
   13c48:	4781                	li	a5,0
E:\16-24-BOOK\20-24-Machinery\22-24-CHB-20211026-20241126\06-User\AHL-CH573-EXP-V1.5-20241126\03-Software\CH07\GPIO-ASM-CH573\Debug/srcc/flash.c:131
             data[offset+i] = buf[i];
   13c4a:	40870433          	sub	s0,a4,s0
E:\16-24-BOOK\20-24-Machinery\22-24-CHB-20211026-20241126\06-User\AHL-CH573-EXP-V1.5-20241126\03-Software\CH07\GPIO-ASM-CH573\Debug/srcc/flash.c:129 (discriminator 1)
         for(i = 0;i<N;i++)
   13c4e:	01079713          	slli	a4,a5,0x10
   13c52:	8341                	srli	a4,a4,0x10
   13c54:	03276363          	bltu	a4,s2,13c7a <flash_write+0xb0>
E:\16-24-BOOK\20-24-Machinery\22-24-CHB-20211026-20241126\06-User\AHL-CH573-EXP-V1.5-20241126\03-Software\CH07\GPIO-ASM-CH573\Debug/srcc/flash.c:134
         flash_erase(sect);
   13c58:	8526                	mv	a0,s1
   13c5a:	00000097          	auipc	ra,0x0
   13c5e:	e52080e7          	jalr	-430(ra) # 13aac <flash_erase>
E:\16-24-BOOK\20-24-Machinery\22-24-CHB-20211026-20241126\06-User\AHL-CH573-EXP-V1.5-20241126\03-Software\CH07\GPIO-ASM-CH573\Debug/srcc/flash.c:136
         flash_Best(sect,0,Flash_Sect_size,data);
   13c62:	6785                	lui	a5,0x1
   13c64:	978a                	add	a5,a5,sp
   13c66:	76fd                	lui	a3,0xfffff
   13c68:	96be                	add	a3,a3,a5
   13c6a:	6605                	lui	a2,0x1
   13c6c:	4581                	li	a1,0
   13c6e:	8526                	mv	a0,s1
   13c70:	00000097          	auipc	ra,0x0
   13c74:	ed8080e7          	jalr	-296(ra) # 13b48 <flash_Best>
   13c78:	bf79                	j	13c16 <flash_write+0x4c>
E:\16-24-BOOK\20-24-Machinery\22-24-CHB-20211026-20241126\06-User\AHL-CH573-EXP-V1.5-20241126\03-Software\CH07\GPIO-ASM-CH573\Debug/srcc/flash.c:131 (discriminator 3)
             data[offset+i] = buf[i];
   13c7a:	00fa06b3          	add	a3,s4,a5
   13c7e:	0006c683          	lbu	a3,0(a3) # fffff000 <R32_PB_PD_DRV+0xbfffdf2c>
   13c82:	00f98733          	add	a4,s3,a5
   13c86:	9722                	add	a4,a4,s0
   13c88:	00d70023          	sb	a3,0(a4) # 1000 <MCU_SECTORSIZE>
   13c8c:	0785                	addi	a5,a5,1
   13c8e:	b7c1                	j	13c4e <flash_write+0x84>

00013c90 <IRQ_OPC_CHANGE>:
IRQ_OPC_CHANGE():
E:\16-24-BOOK\20-24-Machinery\22-24-CHB-20211026-20241126\06-User\AHL-CH573-EXP-V1.5-20241126\03-Software\CH07\GPIO-ASM-CH573\Debug/srcc/gec.c:25
    static uint32_t opcode = 0;
    uint32_t bios_addr=0, user_addr=0;  //函数入口地址
    uint32_t user_opc=0;
    uint32_t imm1=0,imm2=0;
    uint32_t user_pc=0;
    if(IRQ_NUM == SysTick_IRQn)     //对SysTick_Handler中断进行重定向
   13c90:	47b1                	li	a5,12
   13c92:	02f51563          	bne	a0,a5,13cbc <IRQ_OPC_CHANGE+0x2c>
E:\16-24-BOOK\20-24-Machinery\22-24-CHB-20211026-20241126\06-User\AHL-CH573-EXP-V1.5-20241126\03-Software\CH07\GPIO-ASM-CH573\Debug/srcc/gec.c:28
    {
        user_addr = (uint32_t)SysTick_Handler;
        bios_addr = (uint32_t)component_fun[28];
   13c96:	1fff2797          	auipc	a5,0x1fff2
   13c9a:	03a78793          	addi	a5,a5,58 # 20005cd0 <_edata>
   13c9e:	439c                	lw	a5,0(a5)
E:\16-24-BOOK\20-24-Machinery\22-24-CHB-20211026-20241126\06-User\AHL-CH573-EXP-V1.5-20241126\03-Software\CH07\GPIO-ASM-CH573\Debug/srcc/gec.c:29
        user_opc = ((uint32_t *)user)[SysTick_IRQn+1];
   13ca0:	59d8                	lw	a4,52(a1)
E:\16-24-BOOK\20-24-Machinery\22-24-CHB-20211026-20241126\06-User\AHL-CH573-EXP-V1.5-20241126\03-Software\CH07\GPIO-ASM-CH573\Debug/srcc/gec.c:27
        user_addr = (uint32_t)SysTick_Handler;
   13ca2:	ffffe817          	auipc	a6,0xffffe
   13ca6:	3fa80813          	addi	a6,a6,1018 # 1209c <SysTick_Handler>
E:\16-24-BOOK\20-24-Machinery\22-24-CHB-20211026-20241126\06-User\AHL-CH573-EXP-V1.5-20241126\03-Software\CH07\GPIO-ASM-CH573\Debug/srcc/gec.c:28
        bios_addr = (uint32_t)component_fun[28];
   13caa:	5bb4                	lw	a3,112(a5)
E:\16-24-BOOK\20-24-Machinery\22-24-CHB-20211026-20241126\06-User\AHL-CH573-EXP-V1.5-20241126\03-Software\CH07\GPIO-ASM-CH573\Debug/srcc/gec.c:50
    // printf("addr1:%lx\r\n", user_addr);
    // printf("addr2:%lx\r\n", bios_addr);
    // printf("opc:%lx\r\n", user_opc);

    //判断该指令是否为向前跳转，如果是向前跳转说明已经修改过了中断向量表，无需再次修改
    if((user_opc&0x80000000)) return ((uint32_t *)user)[IRQ_NUM+1];         
   13cac:	04075763          	bgez	a4,13cfa <IRQ_OPC_CHANGE+0x6a>
E:\16-24-BOOK\20-24-Machinery\22-24-CHB-20211026-20241126\06-User\AHL-CH573-EXP-V1.5-20241126\03-Software\CH07\GPIO-ASM-CH573\Debug/srcc/gec.c:50 (discriminator 1)
   13cb0:	0505                	addi	a0,a0,1
   13cb2:	050a                	slli	a0,a0,0x2
   13cb4:	952e                	add	a0,a0,a1
   13cb6:	411c                	lw	a5,0(a0)
E:\16-24-BOOK\20-24-Machinery\22-24-CHB-20211026-20241126\06-User\AHL-CH573-EXP-V1.5-20241126\03-Software\CH07\GPIO-ASM-CH573\Debug/srcc/gec.c:63
    imm2 = bios_addr - user_pc;
    // printf("imm2:%lx\r\n", imm2);
    opcode = (((imm2&0x100000)<<11) | ((imm2&0x7FE)<<20) | ((imm2&0x800)<<9) | (imm2&0xFF000)) | (0x0) | (0x6f);
    // printf("opcode:%lx\r\n", opcode);
    return opcode;
}
   13cb8:	853e                	mv	a0,a5
   13cba:	8082                	ret
E:\16-24-BOOK\20-24-Machinery\22-24-CHB-20211026-20241126\06-User\AHL-CH573-EXP-V1.5-20241126\03-Software\CH07\GPIO-ASM-CH573\Debug/srcc/gec.c:31
    else if(IRQ_NUM == SWI_IRQn)    //对SysTick_Handler中断进行重定向
   13cbc:	47b9                	li	a5,14
   13cbe:	00f51e63          	bne	a0,a5,13cda <IRQ_OPC_CHANGE+0x4a>
E:\16-24-BOOK\20-24-Machinery\22-24-CHB-20211026-20241126\06-User\AHL-CH573-EXP-V1.5-20241126\03-Software\CH07\GPIO-ASM-CH573\Debug/srcc/gec.c:34
        bios_addr = (uint32_t)component_fun[29];
   13cc2:	1fff2797          	auipc	a5,0x1fff2
   13cc6:	00e78793          	addi	a5,a5,14 # 20005cd0 <_edata>
   13cca:	439c                	lw	a5,0(a5)
E:\16-24-BOOK\20-24-Machinery\22-24-CHB-20211026-20241126\06-User\AHL-CH573-EXP-V1.5-20241126\03-Software\CH07\GPIO-ASM-CH573\Debug/srcc/gec.c:33
        user_addr = (uint32_t)SW_Handler;
   13ccc:	ffffe817          	auipc	a6,0xffffe
   13cd0:	3d480813          	addi	a6,a6,980 # 120a0 <SW_Handler>
E:\16-24-BOOK\20-24-Machinery\22-24-CHB-20211026-20241126\06-User\AHL-CH573-EXP-V1.5-20241126\03-Software\CH07\GPIO-ASM-CH573\Debug/srcc/gec.c:35
        user_opc = ((uint32_t *)user)[SWI_IRQn+1];
   13cd4:	5dd8                	lw	a4,60(a1)
E:\16-24-BOOK\20-24-Machinery\22-24-CHB-20211026-20241126\06-User\AHL-CH573-EXP-V1.5-20241126\03-Software\CH07\GPIO-ASM-CH573\Debug/srcc/gec.c:34
        bios_addr = (uint32_t)component_fun[29];
   13cd6:	5bf4                	lw	a3,116(a5)
E:\16-24-BOOK\20-24-Machinery\22-24-CHB-20211026-20241126\06-User\AHL-CH573-EXP-V1.5-20241126\03-Software\CH07\GPIO-ASM-CH573\Debug/srcc/gec.c:35
        user_opc = ((uint32_t *)user)[SWI_IRQn+1];
   13cd8:	bfd1                	j	13cac <IRQ_OPC_CHANGE+0x1c>
E:\16-24-BOOK\20-24-Machinery\22-24-CHB-20211026-20241126\06-User\AHL-CH573-EXP-V1.5-20241126\03-Software\CH07\GPIO-ASM-CH573\Debug/srcc/gec.c:37
    else if(IRQ_NUM == UART1_IRQn)  //对SysTick_Handler中断进行重定向
   13cda:	476d                	li	a4,27
E:\16-24-BOOK\20-24-Machinery\22-24-CHB-20211026-20241126\06-User\AHL-CH573-EXP-V1.5-20241126\03-Software\CH07\GPIO-ASM-CH573\Debug/srcc/gec.c:44
       return 0;
   13cdc:	4781                	li	a5,0
E:\16-24-BOOK\20-24-Machinery\22-24-CHB-20211026-20241126\06-User\AHL-CH573-EXP-V1.5-20241126\03-Software\CH07\GPIO-ASM-CH573\Debug/srcc/gec.c:37
    else if(IRQ_NUM == UART1_IRQn)  //对SysTick_Handler中断进行重定向
   13cde:	fce51de3          	bne	a0,a4,13cb8 <IRQ_OPC_CHANGE+0x28>
E:\16-24-BOOK\20-24-Machinery\22-24-CHB-20211026-20241126\06-User\AHL-CH573-EXP-V1.5-20241126\03-Software\CH07\GPIO-ASM-CH573\Debug/srcc/gec.c:40
        bios_addr = (uint32_t)component_fun[30];
   13ce2:	1fff2797          	auipc	a5,0x1fff2
   13ce6:	fee78793          	addi	a5,a5,-18 # 20005cd0 <_edata>
   13cea:	439c                	lw	a5,0(a5)
E:\16-24-BOOK\20-24-Machinery\22-24-CHB-20211026-20241126\06-User\AHL-CH573-EXP-V1.5-20241126\03-Software\CH07\GPIO-ASM-CH573\Debug/srcc/gec.c:39
        user_addr = (uint32_t)UART1_IRQHandler;
   13cec:	ffffe817          	auipc	a6,0xffffe
   13cf0:	3e080813          	addi	a6,a6,992 # 120cc <UART1_IRQHandler>
E:\16-24-BOOK\20-24-Machinery\22-24-CHB-20211026-20241126\06-User\AHL-CH573-EXP-V1.5-20241126\03-Software\CH07\GPIO-ASM-CH573\Debug/srcc/gec.c:41
        user_opc = ((uint32_t *)user)[UART1_IRQn+1];
   13cf4:	59b8                	lw	a4,112(a1)
E:\16-24-BOOK\20-24-Machinery\22-24-CHB-20211026-20241126\06-User\AHL-CH573-EXP-V1.5-20241126\03-Software\CH07\GPIO-ASM-CH573\Debug/srcc/gec.c:40
        bios_addr = (uint32_t)component_fun[30];
   13cf6:	5fb4                	lw	a3,120(a5)
E:\16-24-BOOK\20-24-Machinery\22-24-CHB-20211026-20241126\06-User\AHL-CH573-EXP-V1.5-20241126\03-Software\CH07\GPIO-ASM-CH573\Debug/srcc/gec.c:41
        user_opc = ((uint32_t *)user)[UART1_IRQn+1];
   13cf8:	bf55                	j	13cac <IRQ_OPC_CHANGE+0x1c>
E:\16-24-BOOK\20-24-Machinery\22-24-CHB-20211026-20241126\06-User\AHL-CH573-EXP-V1.5-20241126\03-Software\CH07\GPIO-ASM-CH573\Debug/srcc/gec.c:52
    imm1 = ( ((user_opc&0x80000000)>>11) | ((user_opc&0x7FE00000)>>20) | ((user_opc&0x00100000)>>9) | ((user_opc&0x000FF000)) );
   13cfa:	6585                	lui	a1,0x1
   13cfc:	01475793          	srli	a5,a4,0x14
   13d00:	00975613          	srli	a2,a4,0x9
   13d04:	80058593          	addi	a1,a1,-2048 # 800 <LIGHT_BLUE+0x6f2>
   13d08:	8e6d                	and	a2,a2,a1
   13d0a:	7fe7f793          	andi	a5,a5,2046
   13d0e:	8fd1                	or	a5,a5,a2
   13d10:	000ff637          	lui	a2,0xff
   13d14:	8f71                	and	a4,a4,a2
   13d16:	8fd9                	or	a5,a5,a4
E:\16-24-BOOK\20-24-Machinery\22-24-CHB-20211026-20241126\06-User\AHL-CH573-EXP-V1.5-20241126\03-Software\CH07\GPIO-ASM-CH573\Debug/srcc/gec.c:58
    imm2 = bios_addr - user_pc;
   13d18:	410686b3          	sub	a3,a3,a6
   13d1c:	97b6                	add	a5,a5,a3
E:\16-24-BOOK\20-24-Machinery\22-24-CHB-20211026-20241126\06-User\AHL-CH573-EXP-V1.5-20241126\03-Software\CH07\GPIO-ASM-CH573\Debug/srcc/gec.c:60
    opcode = (((imm2&0x100000)<<11) | ((imm2&0x7FE)<<20) | ((imm2&0x800)<<9) | (imm2&0xFF000)) | (0x0) | (0x6f);
   13d1e:	00b79513          	slli	a0,a5,0xb
   13d22:	80000737          	lui	a4,0x80000
   13d26:	8d79                	and	a0,a0,a4
   13d28:	001006b7          	lui	a3,0x100
   13d2c:	00979713          	slli	a4,a5,0x9
   13d30:	8f75                	and	a4,a4,a3
   13d32:	8d59                	or	a0,a0,a4
   13d34:	8e7d                	and	a2,a2,a5
   13d36:	7fe00737          	lui	a4,0x7fe00
   13d3a:	07d2                	slli	a5,a5,0x14
   13d3c:	8d51                	or	a0,a0,a2
   13d3e:	8ff9                	and	a5,a5,a4
   13d40:	8fc9                	or	a5,a5,a0
   13d42:	06f7e793          	ori	a5,a5,111
E:\16-24-BOOK\20-24-Machinery\22-24-CHB-20211026-20241126\06-User\AHL-CH573-EXP-V1.5-20241126\03-Software\CH07\GPIO-ASM-CH573\Debug/srcc/gec.c:62
    return opcode;
   13d46:	bf8d                	j	13cb8 <IRQ_OPC_CHANGE+0x28>

00013d48 <Vectors_Init>:
Vectors_Init():
E:\16-24-BOOK\20-24-Machinery\22-24-CHB-20211026-20241126\06-User\AHL-CH573-EXP-V1.5-20241126\03-Software\CH07\GPIO-ASM-CH573\Debug/srcc/gec.c:72
//参数说明：无
//功能概要：User对BIOS中断向量表的部分继承,构件库函数指针初始化
//修改信息：WYH，20200805，规范
//======================================================================
void  Vectors_Init()
{
   13d48:	716d                	addi	sp,sp,-272
E:\16-24-BOOK\20-24-Machinery\22-24-CHB-20211026-20241126\06-User\AHL-CH573-EXP-V1.5-20241126\03-Software\CH07\GPIO-ASM-CH573\Debug/srcc/gec.c:82
    // {
    //     flash_write_physical((MCU_SECTOR_NUM-1)*MCU_SECTORSIZE+
    //     MCU_FLASH_ADDR_START,24,(uint8_t *)"0123456789ABCDEF20200716");
    // }
    //（1）给component_fun赋值，SYSTEM_FUNCTION函数用
    component_fun=(void **)(MCU_FLASH_ADDR_START+GEC_COMPONENT_LST_START*MCU_SECTORSIZE);
   13d4a:	67c1                	lui	a5,0x10
E:\16-24-BOOK\20-24-Machinery\22-24-CHB-20211026-20241126\06-User\AHL-CH573-EXP-V1.5-20241126\03-Software\CH07\GPIO-ASM-CH573\Debug/srcc/gec.c:87
    
    uint8_t user[MCU_SECTORSIZE/16];                    //User向量表变量数组
    uint32_t opcode;
    //（2.1）读取User程序的中断向量表各中断处理程序首地址赋并给user数组
    flash_read_logic(user,GEC_USER_SECTOR_START,0,MCU_SECTORSIZE/16);
   13d4c:	10000693          	li	a3,256
   13d50:	4601                	li	a2,0
   13d52:	45c9                	li	a1,18
   13d54:	850a                	mv	a0,sp
E:\16-24-BOOK\20-24-Machinery\22-24-CHB-20211026-20241126\06-User\AHL-CH573-EXP-V1.5-20241126\03-Software\CH07\GPIO-ASM-CH573\Debug/srcc/gec.c:72
{
   13d56:	10112623          	sw	ra,268(sp)
E:\16-24-BOOK\20-24-Machinery\22-24-CHB-20211026-20241126\06-User\AHL-CH573-EXP-V1.5-20241126\03-Software\CH07\GPIO-ASM-CH573\Debug/srcc/gec.c:82
    component_fun=(void **)(MCU_FLASH_ADDR_START+GEC_COMPONENT_LST_START*MCU_SECTORSIZE);
   13d5a:	1fff2717          	auipc	a4,0x1fff2
   13d5e:	f6f72b23          	sw	a5,-138(a4) # 20005cd0 <_edata>
E:\16-24-BOOK\20-24-Machinery\22-24-CHB-20211026-20241126\06-User\AHL-CH573-EXP-V1.5-20241126\03-Software\CH07\GPIO-ASM-CH573\Debug/srcc/gec.c:87
    flash_read_logic(user,GEC_USER_SECTOR_START,0,MCU_SECTORSIZE/16);
   13d62:	00000097          	auipc	ra,0x0
   13d66:	d8c080e7          	jalr	-628(ra) # 13aee <flash_read_logic>
E:\16-24-BOOK\20-24-Machinery\22-24-CHB-20211026-20241126\06-User\AHL-CH573-EXP-V1.5-20241126\03-Software\CH07\GPIO-ASM-CH573\Debug/srcc/gec.c:89
    // （2.2）读取User程序的中断向量表各中断处理程序首地址赋并给user数组
    flash_erase(GEC_USER_SECTOR_START);
   13d6a:	4549                	li	a0,18
   13d6c:	00000097          	auipc	ra,0x0
   13d70:	d40080e7          	jalr	-704(ra) # 13aac <flash_erase>
E:\16-24-BOOK\20-24-Machinery\22-24-CHB-20211026-20241126\06-User\AHL-CH573-EXP-V1.5-20241126\03-Software\CH07\GPIO-ASM-CH573\Debug/srcc/gec.c:92
    //重定向 UART1_IRQHandler
    // user[112]=(uint8_t)(0x6f); user[113]=(uint8_t)(0x40); user[114]=(uint8_t)(0xaf); user[115]=(uint8_t)(0x8a);
    opcode = IRQ_OPC_CHANGE(UART1_IRQn, user);
   13d74:	858a                	mv	a1,sp
   13d76:	456d                	li	a0,27
   13d78:	00000097          	auipc	ra,0x0
   13d7c:	f18080e7          	jalr	-232(ra) # 13c90 <IRQ_OPC_CHANGE>
E:\16-24-BOOK\20-24-Machinery\22-24-CHB-20211026-20241126\06-User\AHL-CH573-EXP-V1.5-20241126\03-Software\CH07\GPIO-ASM-CH573\Debug/srcc/gec.c:93
    ((uint32_t *)user)[UART1_IRQn+1] = opcode;
   13d80:	d8aa                	sw	a0,112(sp)
E:\16-24-BOOK\20-24-Machinery\22-24-CHB-20211026-20241126\06-User\AHL-CH573-EXP-V1.5-20241126\03-Software\CH07\GPIO-ASM-CH573\Debug/srcc/gec.c:97
    #if (RTThread_Start == 0)
        //重定向 SW_Handler
        // user[60]=(uint8_t)(0x6f); user[61]=(uint8_t)(0x40); user[62]=(uint8_t)(0x0f); user[63]=(uint8_t)(0xdb);
        opcode = IRQ_OPC_CHANGE(SWI_IRQn, user);
   13d82:	858a                	mv	a1,sp
   13d84:	4539                	li	a0,14
   13d86:	00000097          	auipc	ra,0x0
   13d8a:	f0a080e7          	jalr	-246(ra) # 13c90 <IRQ_OPC_CHANGE>
E:\16-24-BOOK\20-24-Machinery\22-24-CHB-20211026-20241126\06-User\AHL-CH573-EXP-V1.5-20241126\03-Software\CH07\GPIO-ASM-CH573\Debug/srcc/gec.c:98
        ((uint32_t *)user)[SWI_IRQn+1] = opcode;
   13d8e:	de2a                	sw	a0,60(sp)
E:\16-24-BOOK\20-24-Machinery\22-24-CHB-20211026-20241126\06-User\AHL-CH573-EXP-V1.5-20241126\03-Software\CH07\GPIO-ASM-CH573\Debug/srcc/gec.c:101
        //重定向 SysTickHandler
        // user[52]=(uint8_t)(0x6f); user[53]=(uint8_t)(0x40); user[54]=(uint8_t)(0x0f); user[55]=(uint8_t)(0x86);
        opcode = IRQ_OPC_CHANGE(SysTick_IRQn, user);
   13d90:	858a                	mv	a1,sp
   13d92:	4531                	li	a0,12
   13d94:	00000097          	auipc	ra,0x0
   13d98:	efc080e7          	jalr	-260(ra) # 13c90 <IRQ_OPC_CHANGE>
E:\16-24-BOOK\20-24-Machinery\22-24-CHB-20211026-20241126\06-User\AHL-CH573-EXP-V1.5-20241126\03-Software\CH07\GPIO-ASM-CH573\Debug/srcc/gec.c:102
        ((uint32_t *)user)[SysTick_IRQn+1] = opcode;
   13d9c:	da2a                	sw	a0,52(sp)
E:\16-24-BOOK\20-24-Machinery\22-24-CHB-20211026-20241126\06-User\AHL-CH573-EXP-V1.5-20241126\03-Software\CH07\GPIO-ASM-CH573\Debug/srcc/gec.c:105
    #endif
    //（2.3）将修改后的user数组写回User中断向量表
    flash_write(GEC_USER_SECTOR_START,0,MCU_SECTORSIZE/16,user);
   13d9e:	868a                	mv	a3,sp
   13da0:	10000613          	li	a2,256
   13da4:	4581                	li	a1,0
   13da6:	4549                	li	a0,18
   13da8:	00000097          	auipc	ra,0x0
   13dac:	e22080e7          	jalr	-478(ra) # 13bca <flash_write>
E:\16-24-BOOK\20-24-Machinery\22-24-CHB-20211026-20241126\06-User\AHL-CH573-EXP-V1.5-20241126\03-Software\CH07\GPIO-ASM-CH573\Debug/srcc/gec.c:108

    //（4）printf提示
    printf("  【User提示】：将进入User的main函数执行...\r\n\n");
   13db0:	00002517          	auipc	a0,0x2
   13db4:	07050513          	addi	a0,a0,112 # 15e20 <strlen+0x14>
   13db8:	00001097          	auipc	ra,0x1
   13dbc:	922080e7          	jalr	-1758(ra) # 146da <myprintf>
E:\16-24-BOOK\20-24-Machinery\22-24-CHB-20211026-20241126\06-User\AHL-CH573-EXP-V1.5-20241126\03-Software\CH07\GPIO-ASM-CH573\Debug/srcc/gec.c:111

    // #endif
}
   13dc0:	10c12083          	lw	ra,268(sp)
   13dc4:	6151                	addi	sp,sp,272
   13dc6:	8082                	ret

00013dc8 <uart_send1>:
uart_is_uartNo():
E:\16-24-BOOK\20-24-Machinery\22-24-CHB-20211026-20241126\06-User\AHL-CH573-EXP-V1.5-20241126\03-Software\CH07\GPIO-ASM-CH573\Debug/srcc/uart.c:828
//参数说明：串口号uartNo  :UART_1、UART_2、UART_3
//功能概要：为程序健壮性而判断uartNo是否在串口数字范围内
//=====================================================================
uint8_t uart_is_uartNo(uint8_t uartNo)
{
    if(uartNo < UART_0 || uartNo > UART_3)
   13dc8:	470d                	li	a4,3
   13dca:	02a76a63          	bltu	a4,a0,13dfe <uart_send1+0x36>
uart_send1():
E:\16-24-BOOK\20-24-Machinery\22-24-CHB-20211026-20241126\06-User\AHL-CH573-EXP-V1.5-20241126\03-Software\CH07\GPIO-ASM-CH573\Debug/srcc/uart.c:206
    switch (uartNo)
   13dce:	67c1                	lui	a5,0x10
   13dd0:	4689                	li	a3,2
   13dd2:	bbb78793          	addi	a5,a5,-1093 # fbbb <MCU_SECTORSIZE+0xebbb>
   13dd6:	04d50063          	beq	a0,a3,13e16 <uart_send1+0x4e>
   13dda:	04e50b63          	beq	a0,a4,13e30 <uart_send1+0x68>
   13dde:	4705                	li	a4,1
E:\16-24-BOOK\20-24-Machinery\22-24-CHB-20211026-20241126\06-User\AHL-CH573-EXP-V1.5-20241126\03-Software\CH07\GPIO-ASM-CH573\Debug/srcc/uart.c:211
            if(R8_UART0_LSR &RB_LSR_TX_FIFO_EMP){
   13de0:	400036b7          	lui	a3,0x40003
   13de4:	02e50163          	beq	a0,a4,13e06 <uart_send1+0x3e>
   13de8:	0056c703          	lbu	a4,5(a3) # 40003005 <R32_PB_PD_DRV+0x1f31>
   13dec:	02077713          	andi	a4,a4,32
   13df0:	c709                	beqz	a4,13dfa <uart_send1+0x32>
E:\16-24-BOOK\20-24-Machinery\22-24-CHB-20211026-20241126\06-User\AHL-CH573-EXP-V1.5-20241126\03-Software\CH07\GPIO-ASM-CH573\Debug/srcc/uart.c:212
              R8_UART0_THR = ch;
   13df2:	00b68423          	sb	a1,8(a3)
E:\16-24-BOOK\20-24-Machinery\22-24-CHB-20211026-20241126\06-User\AHL-CH573-EXP-V1.5-20241126\03-Software\CH07\GPIO-ASM-CH573\Debug/srcc/uart.c:251
        return 1; //成功发送
   13df6:	4505                	li	a0,1
E:\16-24-BOOK\20-24-Machinery\22-24-CHB-20211026-20241126\06-User\AHL-CH573-EXP-V1.5-20241126\03-Software\CH07\GPIO-ASM-CH573\Debug/srcc/uart.c:231
              break;
   13df8:	8082                	ret
   13dfa:	17fd                	addi	a5,a5,-1
E:\16-24-BOOK\20-24-Machinery\22-24-CHB-20211026-20241126\06-User\AHL-CH573-EXP-V1.5-20241126\03-Software\CH07\GPIO-ASM-CH573\Debug/srcc/uart.c:209 (discriminator 2)
          for (t = 0; t < 0xFBBB; t++)//查询指定次数
   13dfc:	f7f5                	bnez	a5,13de8 <uart_send1+0x20>
E:\16-24-BOOK\20-24-Machinery\22-24-CHB-20211026-20241126\06-User\AHL-CH573-EXP-V1.5-20241126\03-Software\CH07\GPIO-ASM-CH573\Debug/srcc/uart.c:203
        return 0;
   13dfe:	4501                	li	a0,0
E:\16-24-BOOK\20-24-Machinery\22-24-CHB-20211026-20241126\06-User\AHL-CH573-EXP-V1.5-20241126\03-Software\CH07\GPIO-ASM-CH573\Debug/srcc/uart.c:252
}
   13e00:	8082                	ret
   13e02:	17fd                	addi	a5,a5,-1
E:\16-24-BOOK\20-24-Machinery\22-24-CHB-20211026-20241126\06-User\AHL-CH573-EXP-V1.5-20241126\03-Software\CH07\GPIO-ASM-CH573\Debug/srcc/uart.c:218 (discriminator 2)
          for (t = 0; t < 0xFBBB; t++)//查询指定次数
   13e04:	dfed                	beqz	a5,13dfe <uart_send1+0x36>
E:\16-24-BOOK\20-24-Machinery\22-24-CHB-20211026-20241126\06-User\AHL-CH573-EXP-V1.5-20241126\03-Software\CH07\GPIO-ASM-CH573\Debug/srcc/uart.c:220
            if(R8_UART1_LSR &RB_LSR_TX_FIFO_EMP){
   13e06:	4056c703          	lbu	a4,1029(a3)
   13e0a:	02077713          	andi	a4,a4,32
   13e0e:	db75                	beqz	a4,13e02 <uart_send1+0x3a>
E:\16-24-BOOK\20-24-Machinery\22-24-CHB-20211026-20241126\06-User\AHL-CH573-EXP-V1.5-20241126\03-Software\CH07\GPIO-ASM-CH573\Debug/srcc/uart.c:221
              R8_UART1_THR = ch;
   13e10:	40b68423          	sb	a1,1032(a3)
E:\16-24-BOOK\20-24-Machinery\22-24-CHB-20211026-20241126\06-User\AHL-CH573-EXP-V1.5-20241126\03-Software\CH07\GPIO-ASM-CH573\Debug/srcc/uart.c:222
              break;
   13e14:	8082                	ret
E:\16-24-BOOK\20-24-Machinery\22-24-CHB-20211026-20241126\06-User\AHL-CH573-EXP-V1.5-20241126\03-Software\CH07\GPIO-ASM-CH573\Debug/srcc/uart.c:229
            if(R8_UART2_LSR &RB_LSR_TX_FIFO_EMP){
   13e16:	400046b7          	lui	a3,0x40004
   13e1a:	8056c703          	lbu	a4,-2043(a3) # 40003805 <R32_PB_PD_DRV+0x2731>
   13e1e:	02077713          	andi	a4,a4,32
   13e22:	c701                	beqz	a4,13e2a <uart_send1+0x62>
E:\16-24-BOOK\20-24-Machinery\22-24-CHB-20211026-20241126\06-User\AHL-CH573-EXP-V1.5-20241126\03-Software\CH07\GPIO-ASM-CH573\Debug/srcc/uart.c:230
              R8_UART2_THR = ch;
   13e24:	80b68423          	sb	a1,-2040(a3)
   13e28:	b7f9                	j	13df6 <uart_send1+0x2e>
   13e2a:	17fd                	addi	a5,a5,-1
E:\16-24-BOOK\20-24-Machinery\22-24-CHB-20211026-20241126\06-User\AHL-CH573-EXP-V1.5-20241126\03-Software\CH07\GPIO-ASM-CH573\Debug/srcc/uart.c:227 (discriminator 2)
          for (t = 0; t < 0xFBBB; t++)//查询指定次数
   13e2c:	f7fd                	bnez	a5,13e1a <uart_send1+0x52>
   13e2e:	bfc1                	j	13dfe <uart_send1+0x36>
E:\16-24-BOOK\20-24-Machinery\22-24-CHB-20211026-20241126\06-User\AHL-CH573-EXP-V1.5-20241126\03-Software\CH07\GPIO-ASM-CH573\Debug/srcc/uart.c:238
            if(R8_UART3_LSR &RB_LSR_TX_FIFO_EMP){
   13e30:	400046b7          	lui	a3,0x40004
   13e34:	c056c703          	lbu	a4,-1019(a3) # 40003c05 <R32_PB_PD_DRV+0x2b31>
   13e38:	02077713          	andi	a4,a4,32
   13e3c:	c701                	beqz	a4,13e44 <uart_send1+0x7c>
E:\16-24-BOOK\20-24-Machinery\22-24-CHB-20211026-20241126\06-User\AHL-CH573-EXP-V1.5-20241126\03-Software\CH07\GPIO-ASM-CH573\Debug/srcc/uart.c:239
              R8_UART3_THR = ch;
   13e3e:	c0b68423          	sb	a1,-1016(a3)
E:\16-24-BOOK\20-24-Machinery\22-24-CHB-20211026-20241126\06-User\AHL-CH573-EXP-V1.5-20241126\03-Software\CH07\GPIO-ASM-CH573\Debug/srcc/uart.c:240
              break;
   13e42:	bf55                	j	13df6 <uart_send1+0x2e>
   13e44:	17fd                	addi	a5,a5,-1
E:\16-24-BOOK\20-24-Machinery\22-24-CHB-20211026-20241126\06-User\AHL-CH573-EXP-V1.5-20241126\03-Software\CH07\GPIO-ASM-CH573\Debug/srcc/uart.c:236 (discriminator 2)
          for (t = 0; t < 0xFBBB; t++)//查询指定次数
   13e46:	f7fd                	bnez	a5,13e34 <uart_send1+0x6c>
   13e48:	bf5d                	j	13dfe <uart_send1+0x36>

00013e4a <printk_putc>:
printk_putc():
E:\16-24-BOOK\20-24-Machinery\22-24-CHB-20211026-20241126\06-User\AHL-CH573-EXP-V1.5-20241126\03-Software\CH07\GPIO-ASM-CH573\Debug/srcc/printf.c:29
//参数说明：data:数据：通过串口发送的一字节数据
//函数返回：无
//======================================================================
static void printk_putc(int c, int *count, PRINTK_INFO *info)
{
	switch (info->dest) {
   13e4a:	421c                	lw	a5,0(a2)
   13e4c:	4705                	li	a4,1
   13e4e:	00e78963          	beq	a5,a4,13e60 <printk_putc+0x16>
   13e52:	4709                	li	a4,2
   13e54:	02e78463          	beq	a5,a4,13e7c <printk_putc+0x32>
E:\16-24-BOOK\20-24-Machinery\22-24-CHB-20211026-20241126\06-User\AHL-CH573-EXP-V1.5-20241126\03-Software\CH07\GPIO-ASM-CH573\Debug/srcc/printf.c:40
		++(info->loc);
		break;
	default:
		break;
	}
	*count += 1;
   13e58:	419c                	lw	a5,0(a1)
   13e5a:	0785                	addi	a5,a5,1
   13e5c:	c19c                	sw	a5,0(a1)
   13e5e:	8082                	ret
E:\16-24-BOOK\20-24-Machinery\22-24-CHB-20211026-20241126\06-User\AHL-CH573-EXP-V1.5-20241126\03-Software\CH07\GPIO-ASM-CH573\Debug/srcc/printf.c:31
		info->func((char) c);
   13e60:	425c                	lw	a5,4(a2)
E:\16-24-BOOK\20-24-Machinery\22-24-CHB-20211026-20241126\06-User\AHL-CH573-EXP-V1.5-20241126\03-Software\CH07\GPIO-ASM-CH573\Debug/srcc/printf.c:28
{
   13e62:	1101                	addi	sp,sp,-32
E:\16-24-BOOK\20-24-Machinery\22-24-CHB-20211026-20241126\06-User\AHL-CH573-EXP-V1.5-20241126\03-Software\CH07\GPIO-ASM-CH573\Debug/srcc/printf.c:31
		info->func((char) c);
   13e64:	0562                	slli	a0,a0,0x18
E:\16-24-BOOK\20-24-Machinery\22-24-CHB-20211026-20241126\06-User\AHL-CH573-EXP-V1.5-20241126\03-Software\CH07\GPIO-ASM-CH573\Debug/srcc/printf.c:28
{
   13e66:	ce06                	sw	ra,28(sp)
E:\16-24-BOOK\20-24-Machinery\22-24-CHB-20211026-20241126\06-User\AHL-CH573-EXP-V1.5-20241126\03-Software\CH07\GPIO-ASM-CH573\Debug/srcc/printf.c:31
		info->func((char) c);
   13e68:	8561                	srai	a0,a0,0x18
   13e6a:	c62e                	sw	a1,12(sp)
   13e6c:	9782                	jalr	a5
E:\16-24-BOOK\20-24-Machinery\22-24-CHB-20211026-20241126\06-User\AHL-CH573-EXP-V1.5-20241126\03-Software\CH07\GPIO-ASM-CH573\Debug/srcc/printf.c:32
		break;
   13e6e:	45b2                	lw	a1,12(sp)
E:\16-24-BOOK\20-24-Machinery\22-24-CHB-20211026-20241126\06-User\AHL-CH573-EXP-V1.5-20241126\03-Software\CH07\GPIO-ASM-CH573\Debug/srcc/printf.c:41
}
   13e70:	40f2                	lw	ra,28(sp)
E:\16-24-BOOK\20-24-Machinery\22-24-CHB-20211026-20241126\06-User\AHL-CH573-EXP-V1.5-20241126\03-Software\CH07\GPIO-ASM-CH573\Debug/srcc/printf.c:40
	*count += 1;
   13e72:	419c                	lw	a5,0(a1)
   13e74:	0785                	addi	a5,a5,1
   13e76:	c19c                	sw	a5,0(a1)
E:\16-24-BOOK\20-24-Machinery\22-24-CHB-20211026-20241126\06-User\AHL-CH573-EXP-V1.5-20241126\03-Software\CH07\GPIO-ASM-CH573\Debug/srcc/printf.c:41
}
   13e78:	6105                	addi	sp,sp,32
   13e7a:	8082                	ret
E:\16-24-BOOK\20-24-Machinery\22-24-CHB-20211026-20241126\06-User\AHL-CH573-EXP-V1.5-20241126\03-Software\CH07\GPIO-ASM-CH573\Debug/srcc/printf.c:34
		*(info->loc) = (unsigned char) c;
   13e7c:	461c                	lw	a5,8(a2)
   13e7e:	00a78023          	sb	a0,0(a5)
E:\16-24-BOOK\20-24-Machinery\22-24-CHB-20211026-20241126\06-User\AHL-CH573-EXP-V1.5-20241126\03-Software\CH07\GPIO-ASM-CH573\Debug/srcc/printf.c:35
		++(info->loc);
   13e82:	461c                	lw	a5,8(a2)
   13e84:	0785                	addi	a5,a5,1
   13e86:	c61c                	sw	a5,8(a2)
E:\16-24-BOOK\20-24-Machinery\22-24-CHB-20211026-20241126\06-User\AHL-CH573-EXP-V1.5-20241126\03-Software\CH07\GPIO-ASM-CH573\Debug/srcc/printf.c:36
		break;
   13e88:	bfc1                	j	13e58 <printk_putc+0xe>

00013e8a <printk_mknumstr>:
printk_mknumstr():
E:\16-24-BOOK\20-24-Machinery\22-24-CHB-20211026-20241126\06-User\AHL-CH573-EXP-V1.5-20241126\03-Software\CH07\GPIO-ASM-CH573\Debug/srcc/printf.c:131
	int nlen;
	char *nstrp;

	nlen = 0;
	nstrp = numstr;
	*nstrp++ = '\0';
   13e8a:	00050023          	sb	zero,0(a0)
E:\16-24-BOOK\20-24-Machinery\22-24-CHB-20211026-20241126\06-User\AHL-CH573-EXP-V1.5-20241126\03-Software\CH07\GPIO-ASM-CH573\Debug/srcc/printf.c:134

	if (neg) {
		a = *(int *) nump;
   13e8e:	419c                	lw	a5,0(a1)
E:\16-24-BOOK\20-24-Machinery\22-24-CHB-20211026-20241126\06-User\AHL-CH573-EXP-V1.5-20241126\03-Software\CH07\GPIO-ASM-CH573\Debug/srcc/printf.c:133
	if (neg) {
   13e90:	ce1d                	beqz	a2,13ece <printk_mknumstr+0x44>
E:\16-24-BOOK\20-24-Machinery\22-24-CHB-20211026-20241126\06-User\AHL-CH573-EXP-V1.5-20241126\03-Software\CH07\GPIO-ASM-CH573\Debug/srcc/printf.c:135
		if (a == 0) {
   13e92:	4705                	li	a4,1
E:\16-24-BOOK\20-24-Machinery\22-24-CHB-20211026-20241126\06-User\AHL-CH573-EXP-V1.5-20241126\03-Software\CH07\GPIO-ASM-CH573\Debug/srcc/printf.c:144
		}
		while (a != 0) {
			b = (int) a / (int) radix;
			c = (int) a - ((int) b * (int) radix);
			if (c < 0) {
				c = ~c + 1 + '0';
   13e94:	03000813          	li	a6,48
E:\16-24-BOOK\20-24-Machinery\22-24-CHB-20211026-20241126\06-User\AHL-CH573-EXP-V1.5-20241126\03-Software\CH07\GPIO-ASM-CH573\Debug/srcc/printf.c:135
		if (a == 0) {
   13e98:	eb81                	bnez	a5,13ea8 <printk_mknumstr+0x1e>
E:\16-24-BOOK\20-24-Machinery\22-24-CHB-20211026-20241126\06-User\AHL-CH573-EXP-V1.5-20241126\03-Software\CH07\GPIO-ASM-CH573\Debug/srcc/printf.c:136
			*nstrp = '0';
   13e9a:	03000793          	li	a5,48
   13e9e:	00f500a3          	sb	a5,1(a0)
E:\16-24-BOOK\20-24-Machinery\22-24-CHB-20211026-20241126\06-User\AHL-CH573-EXP-V1.5-20241126\03-Software\CH07\GPIO-ASM-CH573\Debug/srcc/printf.c:137
			++nlen;
   13ea2:	4605                	li	a2,1
E:\16-24-BOOK\20-24-Machinery\22-24-CHB-20211026-20241126\06-User\AHL-CH573-EXP-V1.5-20241126\03-Software\CH07\GPIO-ASM-CH573\Debug/srcc/printf.c:173
			*nstrp++ = (char) uc;
			++nlen;
		}
	}
	done: return nlen;
}
   13ea4:	8532                	mv	a0,a2
   13ea6:	8082                	ret
E:\16-24-BOOK\20-24-Machinery\22-24-CHB-20211026-20241126\06-User\AHL-CH573-EXP-V1.5-20241126\03-Software\CH07\GPIO-ASM-CH573\Debug/srcc/printf.c:141
			b = (int) a / (int) radix;
   13ea8:	02d7c5b3          	div	a1,a5,a3
E:\16-24-BOOK\20-24-Machinery\22-24-CHB-20211026-20241126\06-User\AHL-CH573-EXP-V1.5-20241126\03-Software\CH07\GPIO-ASM-CH573\Debug/srcc/printf.c:142
			c = (int) a - ((int) b * (int) radix);
   13eac:	02d7e7b3          	rem	a5,a5,a3
E:\16-24-BOOK\20-24-Machinery\22-24-CHB-20211026-20241126\06-User\AHL-CH573-EXP-V1.5-20241126\03-Software\CH07\GPIO-ASM-CH573\Debug/srcc/printf.c:146
				c = c + '0';
   13eb0:	03078613          	addi	a2,a5,48
E:\16-24-BOOK\20-24-Machinery\22-24-CHB-20211026-20241126\06-User\AHL-CH573-EXP-V1.5-20241126\03-Software\CH07\GPIO-ASM-CH573\Debug/srcc/printf.c:143
			if (c < 0) {
   13eb4:	0007d463          	bgez	a5,13ebc <printk_mknumstr+0x32>
E:\16-24-BOOK\20-24-Machinery\22-24-CHB-20211026-20241126\06-User\AHL-CH573-EXP-V1.5-20241126\03-Software\CH07\GPIO-ASM-CH573\Debug/srcc/printf.c:144
				c = ~c + 1 + '0';
   13eb8:	40f80633          	sub	a2,a6,a5
E:\16-24-BOOK\20-24-Machinery\22-24-CHB-20211026-20241126\06-User\AHL-CH573-EXP-V1.5-20241126\03-Software\CH07\GPIO-ASM-CH573\Debug/srcc/printf.c:149
			*nstrp++ = (char) c;
   13ebc:	00e507b3          	add	a5,a0,a4
   13ec0:	00c78023          	sb	a2,0(a5)
E:\16-24-BOOK\20-24-Machinery\22-24-CHB-20211026-20241126\06-User\AHL-CH573-EXP-V1.5-20241126\03-Software\CH07\GPIO-ASM-CH573\Debug/srcc/printf.c:150
			++nlen;
   13ec4:	863a                	mv	a2,a4
   13ec6:	87ae                	mv	a5,a1
   13ec8:	0705                	addi	a4,a4,1
E:\16-24-BOOK\20-24-Machinery\22-24-CHB-20211026-20241126\06-User\AHL-CH573-EXP-V1.5-20241126\03-Software\CH07\GPIO-ASM-CH573\Debug/srcc/printf.c:140
		while (a != 0) {
   13eca:	fdf9                	bnez	a1,13ea8 <printk_mknumstr+0x1e>
   13ecc:	bfe1                	j	13ea4 <printk_mknumstr+0x1a>
E:\16-24-BOOK\20-24-Machinery\22-24-CHB-20211026-20241126\06-User\AHL-CH573-EXP-V1.5-20241126\03-Software\CH07\GPIO-ASM-CH573\Debug/srcc/printf.c:154
		if (ua == 0) {
   13ece:	d7f1                	beqz	a5,13e9a <printk_mknumstr+0x10>
   13ed0:	4705                	li	a4,1
E:\16-24-BOOK\20-24-Machinery\22-24-CHB-20211026-20241126\06-User\AHL-CH573-EXP-V1.5-20241126\03-Software\CH07\GPIO-ASM-CH573\Debug/srcc/printf.c:162
			if (uc < 10) {
   13ed2:	48a5                	li	a7,9
E:\16-24-BOOK\20-24-Machinery\22-24-CHB-20211026-20241126\06-User\AHL-CH573-EXP-V1.5-20241126\03-Software\CH07\GPIO-ASM-CH573\Debug/srcc/printf.c:160
			ub = (unsigned int) ua / (unsigned int) radix;
   13ed4:	02d7f633          	remu	a2,a5,a3
   13ed8:	02d7d833          	divu	a6,a5,a3
E:\16-24-BOOK\20-24-Machinery\22-24-CHB-20211026-20241126\06-User\AHL-CH573-EXP-V1.5-20241126\03-Software\CH07\GPIO-ASM-CH573\Debug/srcc/printf.c:165
				uc = uc - 10 + 'A';
   13edc:	03760593          	addi	a1,a2,55 # ff037 <MAINLOOP_COUNT+0x6c877>
E:\16-24-BOOK\20-24-Machinery\22-24-CHB-20211026-20241126\06-User\AHL-CH573-EXP-V1.5-20241126\03-Software\CH07\GPIO-ASM-CH573\Debug/srcc/printf.c:162
			if (uc < 10) {
   13ee0:	00c8e463          	bltu	a7,a2,13ee8 <printk_mknumstr+0x5e>
E:\16-24-BOOK\20-24-Machinery\22-24-CHB-20211026-20241126\06-User\AHL-CH573-EXP-V1.5-20241126\03-Software\CH07\GPIO-ASM-CH573\Debug/srcc/printf.c:163
				uc = uc + '0';
   13ee4:	03060593          	addi	a1,a2,48
E:\16-24-BOOK\20-24-Machinery\22-24-CHB-20211026-20241126\06-User\AHL-CH573-EXP-V1.5-20241126\03-Software\CH07\GPIO-ASM-CH573\Debug/srcc/printf.c:168
			*nstrp++ = (char) uc;
   13ee8:	00e50633          	add	a2,a0,a4
   13eec:	00b60023          	sb	a1,0(a2)
E:\16-24-BOOK\20-24-Machinery\22-24-CHB-20211026-20241126\06-User\AHL-CH573-EXP-V1.5-20241126\03-Software\CH07\GPIO-ASM-CH573\Debug/srcc/printf.c:169
			++nlen;
   13ef0:	863a                	mv	a2,a4
   13ef2:	0705                	addi	a4,a4,1
E:\16-24-BOOK\20-24-Machinery\22-24-CHB-20211026-20241126\06-User\AHL-CH573-EXP-V1.5-20241126\03-Software\CH07\GPIO-ASM-CH573\Debug/srcc/printf.c:159
		while (ua != 0) {
   13ef4:	fad7e8e3          	bltu	a5,a3,13ea4 <printk_mknumstr+0x1a>
E:\16-24-BOOK\20-24-Machinery\22-24-CHB-20211026-20241126\06-User\AHL-CH573-EXP-V1.5-20241126\03-Software\CH07\GPIO-ASM-CH573\Debug/srcc/printf.c:167
			ua = ub;
   13ef8:	87c2                	mv	a5,a6
   13efa:	bfe9                	j	13ed4 <printk_mknumstr+0x4a>

00013efc <printk_pad_space>:
printk_pad_space():
E:\16-24-BOOK\20-24-Machinery\22-24-CHB-20211026-20241126\06-User\AHL-CH573-EXP-V1.5-20241126\03-Software\CH07\GPIO-ASM-CH573\Debug/srcc/printf.c:186
	}
}

/********************************************************************/
static void printk_pad_space(int curlen, int field_width, int *count,
		PRINTK_INFO *info) {
   13efc:	1101                	addi	sp,sp,-32
   13efe:	cc22                	sw	s0,24(sp)
   13f00:	ca26                	sw	s1,20(sp)
   13f02:	c84a                	sw	s2,16(sp)
   13f04:	ce06                	sw	ra,28(sp)
   13f06:	842a                	mv	s0,a0
   13f08:	84ae                	mv	s1,a1
   13f0a:	8932                	mv	s2,a2
E:\16-24-BOOK\20-24-Machinery\22-24-CHB-20211026-20241126\06-User\AHL-CH573-EXP-V1.5-20241126\03-Software\CH07\GPIO-ASM-CH573\Debug/srcc/printf.c:189 (discriminator 1)
	int i;

	for (i = curlen; i < field_width; i++) {
   13f0c:	00944863          	blt	s0,s1,13f1c <printk_pad_space+0x20>
E:\16-24-BOOK\20-24-Machinery\22-24-CHB-20211026-20241126\06-User\AHL-CH573-EXP-V1.5-20241126\03-Software\CH07\GPIO-ASM-CH573\Debug/srcc/printf.c:192
		printk_putc(' ', count, info);
	}
}
   13f10:	40f2                	lw	ra,28(sp)
   13f12:	4462                	lw	s0,24(sp)
   13f14:	44d2                	lw	s1,20(sp)
   13f16:	4942                	lw	s2,16(sp)
   13f18:	6105                	addi	sp,sp,32
   13f1a:	8082                	ret
E:\16-24-BOOK\20-24-Machinery\22-24-CHB-20211026-20241126\06-User\AHL-CH573-EXP-V1.5-20241126\03-Software\CH07\GPIO-ASM-CH573\Debug/srcc/printf.c:190 (discriminator 3)
		printk_putc(' ', count, info);
   13f1c:	8636                	mv	a2,a3
   13f1e:	85ca                	mv	a1,s2
   13f20:	02000513          	li	a0,32
   13f24:	c636                	sw	a3,12(sp)
   13f26:	00000097          	auipc	ra,0x0
   13f2a:	f24080e7          	jalr	-220(ra) # 13e4a <printk_putc>
E:\16-24-BOOK\20-24-Machinery\22-24-CHB-20211026-20241126\06-User\AHL-CH573-EXP-V1.5-20241126\03-Software\CH07\GPIO-ASM-CH573\Debug/srcc/printf.c:189 (discriminator 3)
	for (i = curlen; i < field_width; i++) {
   13f2e:	0405                	addi	s0,s0,1
   13f30:	46b2                	lw	a3,12(sp)
   13f32:	bfe9                	j	13f0c <printk_pad_space+0x10>

00013f34 <out_char>:
out_char():
E:\16-24-BOOK\20-24-Machinery\22-24-CHB-20211026-20241126\06-User\AHL-CH573-EXP-V1.5-20241126\03-Software\CH07\GPIO-ASM-CH573\Debug/srcc/printf.c:19
	uart_send1(UART_printf, data);
   13f34:	0ff57593          	andi	a1,a0,255
   13f38:	4505                	li	a0,1
   13f3a:	00000317          	auipc	t1,0x0
   13f3e:	e8e30067          	jr	-370(t1) # 13dc8 <uart_send1>

00013f42 <printk_mkfloatstr>:
printk_mkfloatstr():
E:\16-24-BOOK\20-24-Machinery\22-24-CHB-20211026-20241126\06-User\AHL-CH573-EXP-V1.5-20241126\03-Software\CH07\GPIO-ASM-CH573\Debug/srcc/printf.c:50
{
   13f42:	c9010113          	addi	sp,sp,-880
   13f46:	36812423          	sw	s0,872(sp)
   13f4a:	36912223          	sw	s1,868(sp)
   13f4e:	35912223          	sw	s9,836(sp)
   13f52:	84aa                	mv	s1,a0
   13f54:	8cb2                	mv	s9,a2
   13f56:	842e                	mv	s0,a1
E:\16-24-BOOK\20-24-Machinery\22-24-CHB-20211026-20241126\06-User\AHL-CH573-EXP-V1.5-20241126\03-Software\CH07\GPIO-ASM-CH573\Debug/srcc/printf.c:52
	uint32_t i=0,j=0,k=0,a[100]={0},b[100]={0};
   13f58:	19000613          	li	a2,400
   13f5c:	4581                	li	a1,0
   13f5e:	0808                	addi	a0,sp,16
E:\16-24-BOOK\20-24-Machinery\22-24-CHB-20211026-20241126\06-User\AHL-CH573-EXP-V1.5-20241126\03-Software\CH07\GPIO-ASM-CH573\Debug/srcc/printf.c:50
{
   13f60:	36112623          	sw	ra,876(sp)
   13f64:	37212023          	sw	s2,864(sp)
   13f68:	35312e23          	sw	s3,860(sp)
   13f6c:	35412c23          	sw	s4,856(sp)
   13f70:	35512a23          	sw	s5,852(sp)
   13f74:	35612823          	sw	s6,848(sp)
   13f78:	35712623          	sw	s7,844(sp)
   13f7c:	35812423          	sw	s8,840(sp)
   13f80:	35a12023          	sw	s10,832(sp)
   13f84:	33b12e23          	sw	s11,828(sp)
E:\16-24-BOOK\20-24-Machinery\22-24-CHB-20211026-20241126\06-User\AHL-CH573-EXP-V1.5-20241126\03-Software\CH07\GPIO-ASM-CH573\Debug/srcc/printf.c:52
	uint32_t i=0,j=0,k=0,a[100]={0},b[100]={0};
   13f88:	00000097          	auipc	ra,0x0
   13f8c:	a7a080e7          	jalr	-1414(ra) # 13a02 <memset>
   13f90:	19000613          	li	a2,400
   13f94:	4581                	li	a1,0
   13f96:	1308                	addi	a0,sp,416
   13f98:	00000097          	auipc	ra,0x0
   13f9c:	a6a080e7          	jalr	-1430(ra) # 13a02 <memset>
E:\16-24-BOOK\20-24-Machinery\22-24-CHB-20211026-20241126\06-User\AHL-CH573-EXP-V1.5-20241126\03-Software\CH07\GPIO-ASM-CH573\Debug/srcc/printf.c:59
	p=(uint64_t)*f;//整数部分
   13fa0:	0004a903          	lw	s2,0(s1)
   13fa4:	0044a983          	lw	s3,4(s1)
E:\16-24-BOOK\20-24-Machinery\22-24-CHB-20211026-20241126\06-User\AHL-CH573-EXP-V1.5-20241126\03-Software\CH07\GPIO-ASM-CH573\Debug/srcc/printf.c:61
	while(precision_width--)    tempf*=10;
   13fa8:	8a66                	mv	s4,s9
E:\16-24-BOOK\20-24-Machinery\22-24-CHB-20211026-20241126\06-User\AHL-CH573-EXP-V1.5-20241126\03-Software\CH07\GPIO-ASM-CH573\Debug/srcc/printf.c:59
	p=(uint64_t)*f;//整数部分
   13faa:	854a                	mv	a0,s2
   13fac:	85ce                	mv	a1,s3
   13fae:	00002097          	auipc	ra,0x2
   13fb2:	bb6080e7          	jalr	-1098(ra) # 15b64 <__fixunsdfdi>
   13fb6:	8d2a                	mv	s10,a0
   13fb8:	84ae                	mv	s1,a1
   13fba:	8baa                	mv	s7,a0
   13fbc:	8c2e                	mv	s8,a1
E:\16-24-BOOK\20-24-Machinery\22-24-CHB-20211026-20241126\06-User\AHL-CH573-EXP-V1.5-20241126\03-Software\CH07\GPIO-ASM-CH573\Debug/srcc/printf.c:60
	tempf=(*f-p);
   13fbe:	00002097          	auipc	ra,0x2
   13fc2:	c44080e7          	jalr	-956(ra) # 15c02 <__floatundidf>
   13fc6:	862a                	mv	a2,a0
   13fc8:	86ae                	mv	a3,a1
   13fca:	854a                	mv	a0,s2
   13fcc:	85ce                	mv	a1,s3
   13fce:	00001097          	auipc	ra,0x1
   13fd2:	450080e7          	jalr	1104(ra) # 1541e <__subdf3>
   13fd6:	89aa                	mv	s3,a0
   13fd8:	892e                	mv	s2,a1
E:\16-24-BOOK\20-24-Machinery\22-24-CHB-20211026-20241126\06-User\AHL-CH573-EXP-V1.5-20241126\03-Software\CH07\GPIO-ASM-CH573\Debug/srcc/printf.c:61
	while(precision_width--)    tempf*=10;
   13fda:	5afd                	li	s5,-1
   13fdc:	00002b17          	auipc	s6,0x2
   13fe0:	efcb0b13          	addi	s6,s6,-260 # 15ed8 <strlen+0xcc>
E:\16-24-BOOK\20-24-Machinery\22-24-CHB-20211026-20241126\06-User\AHL-CH573-EXP-V1.5-20241126\03-Software\CH07\GPIO-ASM-CH573\Debug/srcc/printf.c:61 (discriminator 1)
   13fe4:	1a7d                	addi	s4,s4,-1
   13fe6:	0d5a1563          	bne	s4,s5,140b0 <printk_mkfloatstr+0x16e>
E:\16-24-BOOK\20-24-Machinery\22-24-CHB-20211026-20241126\06-User\AHL-CH573-EXP-V1.5-20241126\03-Software\CH07\GPIO-ASM-CH573\Debug/srcc/printf.c:62
    q=tempf;
   13fea:	00002097          	auipc	ra,0x2
   13fee:	b7a080e7          	jalr	-1158(ra) # 15b64 <__fixunsdfdi>
E:\16-24-BOOK\20-24-Machinery\22-24-CHB-20211026-20241126\06-User\AHL-CH573-EXP-V1.5-20241126\03-Software\CH07\GPIO-ASM-CH573\Debug/srcc/printf.c:66
	while(tempf<0.1&&tempf!=0)    //【20201119】-2/3   原为while(m<1)
   13ff2:	00002797          	auipc	a5,0x2
   13ff6:	eee78793          	addi	a5,a5,-274 # 15ee0 <strlen+0xd4>
   13ffa:	0047a803          	lw	a6,4(a5)
   13ffe:	439c                	lw	a5,0(a5)
E:\16-24-BOOK\20-24-Machinery\22-24-CHB-20211026-20241126\06-User\AHL-CH573-EXP-V1.5-20241126\03-Software\CH07\GPIO-ASM-CH573\Debug/srcc/printf.c:62
    q=tempf;
   14000:	c22a                	sw	a0,4(sp)
   14002:	8b2e                	mv	s6,a1
   14004:	8a2a                	mv	s4,a0
   14006:	8aae                	mv	s5,a1
E:\16-24-BOOK\20-24-Machinery\22-24-CHB-20211026-20241126\06-User\AHL-CH573-EXP-V1.5-20241126\03-Software\CH07\GPIO-ASM-CH573\Debug/srcc/printf.c:52
	uint32_t i=0,j=0,k=0,a[100]={0},b[100]={0};
   14008:	4d81                	li	s11,0
E:\16-24-BOOK\20-24-Machinery\22-24-CHB-20211026-20241126\06-User\AHL-CH573-EXP-V1.5-20241126\03-Software\CH07\GPIO-ASM-CH573\Debug/srcc/printf.c:66
	while(tempf<0.1&&tempf!=0)    //【20201119】-2/3   原为while(m<1)
   1400a:	c43e                	sw	a5,8(sp)
   1400c:	c642                	sw	a6,12(sp)
   1400e:	4622                	lw	a2,8(sp)
   14010:	46b2                	lw	a3,12(sp)
   14012:	854e                	mv	a0,s3
   14014:	85ca                	mv	a1,s2
   14016:	00001097          	auipc	ra,0x1
   1401a:	e8a080e7          	jalr	-374(ra) # 14ea0 <__ledf2>
   1401e:	00055b63          	bgez	a0,14034 <printk_mkfloatstr+0xf2>
E:\16-24-BOOK\20-24-Machinery\22-24-CHB-20211026-20241126\06-User\AHL-CH573-EXP-V1.5-20241126\03-Software\CH07\GPIO-ASM-CH573\Debug/srcc/printf.c:66 (discriminator 1)
   14022:	4601                	li	a2,0
   14024:	4681                	li	a3,0
   14026:	854e                	mv	a0,s3
   14028:	85ca                	mv	a1,s2
   1402a:	00001097          	auipc	ra,0x1
   1402e:	e0c080e7          	jalr	-500(ra) # 14e36 <__eqdf2>
   14032:	e941                	bnez	a0,140c2 <printk_mkfloatstr+0x180>
E:\16-24-BOOK\20-24-Machinery\22-24-CHB-20211026-20241126\06-User\AHL-CH573-EXP-V1.5-20241126\03-Software\CH07\GPIO-ASM-CH573\Debug/srcc/printf.c:72
	if(p==0)//整数部分为0
   14034:	01a4e4b3          	or	s1,s1,s10
   14038:	e4cd                	bnez	s1,140e2 <printk_mkfloatstr+0x1a0>
E:\16-24-BOOK\20-24-Machinery\22-24-CHB-20211026-20241126\06-User\AHL-CH573-EXP-V1.5-20241126\03-Software\CH07\GPIO-ASM-CH573\Debug/srcc/printf.c:73
		c[i++]='0';
   1403a:	03000793          	li	a5,48
   1403e:	00f40023          	sb	a5,0(s0) # 1000 <MCU_SECTORSIZE>
   14042:	4485                	li	s1,1
E:\16-24-BOOK\20-24-Machinery\22-24-CHB-20211026-20241126\06-User\AHL-CH573-EXP-V1.5-20241126\03-Software\CH07\GPIO-ASM-CH573\Debug/srcc/printf.c:87
	c[i++]='.';   //小数点
   14044:	02e00793          	li	a5,46
   14048:	00148993          	addi	s3,s1,1
   1404c:	94a2                	add	s1,s1,s0
   1404e:	00f48023          	sb	a5,0(s1)
E:\16-24-BOOK\20-24-Machinery\22-24-CHB-20211026-20241126\06-User\AHL-CH573-EXP-V1.5-20241126\03-Software\CH07\GPIO-ASM-CH573\Debug/srcc/printf.c:88
	if(q==0)     //小数部分为0
   14052:	4792                	lw	a5,4(sp)
   14054:	00fb6b33          	or	s6,s6,a5
   14058:	0e0b1663          	bnez	s6,14144 <printk_mkfloatstr+0x202>
E:\16-24-BOOK\20-24-Machinery\22-24-CHB-20211026-20241126\06-User\AHL-CH573-EXP-V1.5-20241126\03-Software\CH07\GPIO-ASM-CH573\Debug/srcc/printf.c:56
	int zeroNum=precision_width;   //【20201119】-1/3
   1405c:	87e6                	mv	a5,s9
E:\16-24-BOOK\20-24-Machinery\22-24-CHB-20211026-20241126\06-User\AHL-CH573-EXP-V1.5-20241126\03-Software\CH07\GPIO-ASM-CH573\Debug/srcc/printf.c:89
		while(zeroNum--) c[i++]='0';     //【20201119】-3/3   原为 c[i++]='0';
   1405e:	577d                	li	a4,-1
   14060:	03000693          	li	a3,48
E:\16-24-BOOK\20-24-Machinery\22-24-CHB-20211026-20241126\06-User\AHL-CH573-EXP-V1.5-20241126\03-Software\CH07\GPIO-ASM-CH573\Debug/srcc/printf.c:89 (discriminator 1)
   14064:	17fd                	addi	a5,a5,-1
   14066:	0485                	addi	s1,s1,1
   14068:	0ce79b63          	bne	a5,a4,1413e <printk_mkfloatstr+0x1fc>
   1406c:	013c8533          	add	a0,s9,s3
E:\16-24-BOOK\20-24-Machinery\22-24-CHB-20211026-20241126\06-User\AHL-CH573-EXP-V1.5-20241126\03-Software\CH07\GPIO-ASM-CH573\Debug/srcc/printf.c:109
	c[i]='\0';
   14070:	942a                	add	s0,s0,a0
   14072:	00040023          	sb	zero,0(s0)
E:\16-24-BOOK\20-24-Machinery\22-24-CHB-20211026-20241126\06-User\AHL-CH573-EXP-V1.5-20241126\03-Software\CH07\GPIO-ASM-CH573\Debug/srcc/printf.c:111
}
   14076:	36c12083          	lw	ra,876(sp)
   1407a:	36812403          	lw	s0,872(sp)
   1407e:	36412483          	lw	s1,868(sp)
   14082:	36012903          	lw	s2,864(sp)
   14086:	35c12983          	lw	s3,860(sp)
   1408a:	35812a03          	lw	s4,856(sp)
   1408e:	35412a83          	lw	s5,852(sp)
   14092:	35012b03          	lw	s6,848(sp)
   14096:	34c12b83          	lw	s7,844(sp)
   1409a:	34812c03          	lw	s8,840(sp)
   1409e:	34412c83          	lw	s9,836(sp)
   140a2:	34012d03          	lw	s10,832(sp)
   140a6:	33c12d83          	lw	s11,828(sp)
   140aa:	37010113          	addi	sp,sp,880
   140ae:	8082                	ret
E:\16-24-BOOK\20-24-Machinery\22-24-CHB-20211026-20241126\06-User\AHL-CH573-EXP-V1.5-20241126\03-Software\CH07\GPIO-ASM-CH573\Debug/srcc/printf.c:61 (discriminator 2)
	while(precision_width--)    tempf*=10;
   140b0:	000b2603          	lw	a2,0(s6)
   140b4:	004b2683          	lw	a3,4(s6)
   140b8:	00001097          	auipc	ra,0x1
   140bc:	e9e080e7          	jalr	-354(ra) # 14f56 <__muldf3>
   140c0:	b715                	j	13fe4 <printk_mkfloatstr+0xa2>
E:\16-24-BOOK\20-24-Machinery\22-24-CHB-20211026-20241126\06-User\AHL-CH573-EXP-V1.5-20241126\03-Software\CH07\GPIO-ASM-CH573\Debug/srcc/printf.c:68
		tempf=tempf*10;
   140c2:	00002797          	auipc	a5,0x2
   140c6:	e1678793          	addi	a5,a5,-490 # 15ed8 <strlen+0xcc>
   140ca:	4390                	lw	a2,0(a5)
   140cc:	43d4                	lw	a3,4(a5)
   140ce:	854e                	mv	a0,s3
   140d0:	85ca                	mv	a1,s2
   140d2:	00001097          	auipc	ra,0x1
   140d6:	e84080e7          	jalr	-380(ra) # 14f56 <__muldf3>
   140da:	89aa                	mv	s3,a0
   140dc:	892e                	mv	s2,a1
E:\16-24-BOOK\20-24-Machinery\22-24-CHB-20211026-20241126\06-User\AHL-CH573-EXP-V1.5-20241126\03-Software\CH07\GPIO-ASM-CH573\Debug/srcc/printf.c:69
		k++;			
   140de:	0d85                	addi	s11,s11,1
   140e0:	b73d                	j	1400e <printk_mkfloatstr+0xcc>
   140e2:	01010913          	addi	s2,sp,16
E:\16-24-BOOK\20-24-Machinery\22-24-CHB-20211026-20241126\06-User\AHL-CH573-EXP-V1.5-20241126\03-Software\CH07\GPIO-ASM-CH573\Debug/srcc/printf.c:52
	uint32_t i=0,j=0,k=0,a[100]={0},b[100]={0};
   140e6:	4481                	li	s1,0
E:\16-24-BOOK\20-24-Machinery\22-24-CHB-20211026-20241126\06-User\AHL-CH573-EXP-V1.5-20241126\03-Software\CH07\GPIO-ASM-CH573\Debug/srcc/printf.c:76
		while(p!=0)//倒序的数字
   140e8:	49a5                	li	s3,9
E:\16-24-BOOK\20-24-Machinery\22-24-CHB-20211026-20241126\06-User\AHL-CH573-EXP-V1.5-20241126\03-Software\CH07\GPIO-ASM-CH573\Debug/srcc/printf.c:78
			a[j++]=p%10;
   140ea:	4629                	li	a2,10
   140ec:	4681                	li	a3,0
   140ee:	855e                	mv	a0,s7
   140f0:	85e2                	mv	a1,s8
   140f2:	00001097          	auipc	ra,0x1
   140f6:	9b6080e7          	jalr	-1610(ra) # 14aa8 <__umoddi3>
   140fa:	00a92023          	sw	a0,0(s2)
E:\16-24-BOOK\20-24-Machinery\22-24-CHB-20211026-20241126\06-User\AHL-CH573-EXP-V1.5-20241126\03-Software\CH07\GPIO-ASM-CH573\Debug/srcc/printf.c:79
			p/=10;
   140fe:	4629                	li	a2,10
   14100:	4681                	li	a3,0
   14102:	855e                	mv	a0,s7
   14104:	85e2                	mv	a1,s8
E:\16-24-BOOK\20-24-Machinery\22-24-CHB-20211026-20241126\06-User\AHL-CH573-EXP-V1.5-20241126\03-Software\CH07\GPIO-ASM-CH573\Debug/srcc/printf.c:78
			a[j++]=p%10;
   14106:	0485                	addi	s1,s1,1
E:\16-24-BOOK\20-24-Machinery\22-24-CHB-20211026-20241126\06-User\AHL-CH573-EXP-V1.5-20241126\03-Software\CH07\GPIO-ASM-CH573\Debug/srcc/printf.c:79
			p/=10;
   14108:	00000097          	auipc	ra,0x0
   1410c:	608080e7          	jalr	1544(ra) # 14710 <__udivdi3>
   14110:	0911                	addi	s2,s2,4
E:\16-24-BOOK\20-24-Machinery\22-24-CHB-20211026-20241126\06-User\AHL-CH573-EXP-V1.5-20241126\03-Software\CH07\GPIO-ASM-CH573\Debug/srcc/printf.c:76
		while(p!=0)//倒序的数字
   14112:	020c1363          	bnez	s8,14138 <printk_mkfloatstr+0x1f6>
   14116:	0379e163          	bltu	s3,s7,14138 <printk_mkfloatstr+0x1f6>
   1411a:	8722                	mv	a4,s0
E:\16-24-BOOK\20-24-Machinery\22-24-CHB-20211026-20241126\06-User\AHL-CH573-EXP-V1.5-20241126\03-Software\CH07\GPIO-ASM-CH573\Debug/srcc/printf.c:78
			a[j++]=p%10;
   1411c:	87a6                	mv	a5,s1
E:\16-24-BOOK\20-24-Machinery\22-24-CHB-20211026-20241126\06-User\AHL-CH573-EXP-V1.5-20241126\03-Software\CH07\GPIO-ASM-CH573\Debug/srcc/printf.c:83
			c[i++]=a[j-1]+'0';
   1411e:	17fd                	addi	a5,a5,-1
   14120:	00279693          	slli	a3,a5,0x2
   14124:	0810                	addi	a2,sp,16
   14126:	96b2                	add	a3,a3,a2
   14128:	4294                	lw	a3,0(a3)
   1412a:	0705                	addi	a4,a4,1
   1412c:	03068693          	addi	a3,a3,48
   14130:	fed70fa3          	sb	a3,-1(a4)
E:\16-24-BOOK\20-24-Machinery\22-24-CHB-20211026-20241126\06-User\AHL-CH573-EXP-V1.5-20241126\03-Software\CH07\GPIO-ASM-CH573\Debug/srcc/printf.c:81
		while(j>0)//将倒序数字转为正序，并转换为对应的字符形式
   14134:	f7ed                	bnez	a5,1411e <printk_mkfloatstr+0x1dc>
   14136:	b739                	j	14044 <printk_mkfloatstr+0x102>
E:\16-24-BOOK\20-24-Machinery\22-24-CHB-20211026-20241126\06-User\AHL-CH573-EXP-V1.5-20241126\03-Software\CH07\GPIO-ASM-CH573\Debug/srcc/printf.c:79
			p/=10;
   14138:	8baa                	mv	s7,a0
   1413a:	8c2e                	mv	s8,a1
   1413c:	b77d                	j	140ea <printk_mkfloatstr+0x1a8>
E:\16-24-BOOK\20-24-Machinery\22-24-CHB-20211026-20241126\06-User\AHL-CH573-EXP-V1.5-20241126\03-Software\CH07\GPIO-ASM-CH573\Debug/srcc/printf.c:89 (discriminator 2)
		while(zeroNum--) c[i++]='0';     //【20201119】-3/3   原为 c[i++]='0';
   1413e:	00d48023          	sb	a3,0(s1)
   14142:	b70d                	j	14064 <printk_mkfloatstr+0x122>
   14144:	1a010b13          	addi	s6,sp,416
E:\16-24-BOOK\20-24-Machinery\22-24-CHB-20211026-20241126\06-User\AHL-CH573-EXP-V1.5-20241126\03-Software\CH07\GPIO-ASM-CH573\Debug/srcc/printf.c:92
		j=0;
   14148:	4901                	li	s2,0
E:\16-24-BOOK\20-24-Machinery\22-24-CHB-20211026-20241126\06-User\AHL-CH573-EXP-V1.5-20241126\03-Software\CH07\GPIO-ASM-CH573\Debug/srcc/printf.c:93
		while(q!=0)//倒序的数字
   1414a:	4ba5                	li	s7,9
E:\16-24-BOOK\20-24-Machinery\22-24-CHB-20211026-20241126\06-User\AHL-CH573-EXP-V1.5-20241126\03-Software\CH07\GPIO-ASM-CH573\Debug/srcc/printf.c:95
			b[j++]=q%10;
   1414c:	4629                	li	a2,10
   1414e:	4681                	li	a3,0
   14150:	8552                	mv	a0,s4
   14152:	85d6                	mv	a1,s5
   14154:	00001097          	auipc	ra,0x1
   14158:	954080e7          	jalr	-1708(ra) # 14aa8 <__umoddi3>
   1415c:	00ab2023          	sw	a0,0(s6)
E:\16-24-BOOK\20-24-Machinery\22-24-CHB-20211026-20241126\06-User\AHL-CH573-EXP-V1.5-20241126\03-Software\CH07\GPIO-ASM-CH573\Debug/srcc/printf.c:96
			q/=10;
   14160:	4629                	li	a2,10
   14162:	4681                	li	a3,0
   14164:	8552                	mv	a0,s4
   14166:	85d6                	mv	a1,s5
E:\16-24-BOOK\20-24-Machinery\22-24-CHB-20211026-20241126\06-User\AHL-CH573-EXP-V1.5-20241126\03-Software\CH07\GPIO-ASM-CH573\Debug/srcc/printf.c:95
			b[j++]=q%10;
   14168:	0905                	addi	s2,s2,1
E:\16-24-BOOK\20-24-Machinery\22-24-CHB-20211026-20241126\06-User\AHL-CH573-EXP-V1.5-20241126\03-Software\CH07\GPIO-ASM-CH573\Debug/srcc/printf.c:96
			q/=10;
   1416a:	00000097          	auipc	ra,0x0
   1416e:	5a6080e7          	jalr	1446(ra) # 14710 <__udivdi3>
   14172:	0b11                	addi	s6,s6,4
E:\16-24-BOOK\20-24-Machinery\22-24-CHB-20211026-20241126\06-User\AHL-CH573-EXP-V1.5-20241126\03-Software\CH07\GPIO-ASM-CH573\Debug/srcc/printf.c:93
		while(q!=0)//倒序的数字
   14174:	000a9d63          	bnez	s5,1418e <printk_mkfloatstr+0x24c>
   14178:	014beb63          	bltu	s7,s4,1418e <printk_mkfloatstr+0x24c>
   1417c:	012d8533          	add	a0,s11,s2
E:\16-24-BOOK\20-24-Machinery\22-24-CHB-20211026-20241126\06-User\AHL-CH573-EXP-V1.5-20241126\03-Software\CH07\GPIO-ASM-CH573\Debug/srcc/printf.c:98
		while(k!=0)
   14180:	00a91a63          	bne	s2,a0,14194 <printk_mkfloatstr+0x252>
   14184:	87aa                	mv	a5,a0
   14186:	0485                	addi	s1,s1,1
E:\16-24-BOOK\20-24-Machinery\22-24-CHB-20211026-20241126\06-User\AHL-CH573-EXP-V1.5-20241126\03-Software\CH07\GPIO-ASM-CH573\Debug/srcc/printf.c:103
		while(j>0)//将倒序数字转为正序，并转换为对应的字符形式
   14188:	ef91                	bnez	a5,141a4 <printk_mkfloatstr+0x262>
   1418a:	954e                	add	a0,a0,s3
   1418c:	b5d5                	j	14070 <printk_mkfloatstr+0x12e>
E:\16-24-BOOK\20-24-Machinery\22-24-CHB-20211026-20241126\06-User\AHL-CH573-EXP-V1.5-20241126\03-Software\CH07\GPIO-ASM-CH573\Debug/srcc/printf.c:96
			q/=10;
   1418e:	8a2a                	mv	s4,a0
   14190:	8aae                	mv	s5,a1
   14192:	bf6d                	j	1414c <printk_mkfloatstr+0x20a>
E:\16-24-BOOK\20-24-Machinery\22-24-CHB-20211026-20241126\06-User\AHL-CH573-EXP-V1.5-20241126\03-Software\CH07\GPIO-ASM-CH573\Debug/srcc/printf.c:100
			b[j++]=0;
   14194:	00291793          	slli	a5,s2,0x2
   14198:	1318                	addi	a4,sp,416
   1419a:	97ba                	add	a5,a5,a4
   1419c:	0007a023          	sw	zero,0(a5)
E:\16-24-BOOK\20-24-Machinery\22-24-CHB-20211026-20241126\06-User\AHL-CH573-EXP-V1.5-20241126\03-Software\CH07\GPIO-ASM-CH573\Debug/srcc/printf.c:101
			k--;
   141a0:	0905                	addi	s2,s2,1
   141a2:	bff9                	j	14180 <printk_mkfloatstr+0x23e>
E:\16-24-BOOK\20-24-Machinery\22-24-CHB-20211026-20241126\06-User\AHL-CH573-EXP-V1.5-20241126\03-Software\CH07\GPIO-ASM-CH573\Debug/srcc/printf.c:105
			c[i++]=b[j-1]+'0';
   141a4:	17fd                	addi	a5,a5,-1
   141a6:	00279713          	slli	a4,a5,0x2
   141aa:	1314                	addi	a3,sp,416
   141ac:	9736                	add	a4,a4,a3
   141ae:	4318                	lw	a4,0(a4)
   141b0:	03070713          	addi	a4,a4,48
   141b4:	00e48023          	sb	a4,0(s1)
E:\16-24-BOOK\20-24-Machinery\22-24-CHB-20211026-20241126\06-User\AHL-CH573-EXP-V1.5-20241126\03-Software\CH07\GPIO-ASM-CH573\Debug/srcc/printf.c:106
			j--;
   141b8:	b7f9                	j	14186 <printk_mkfloatstr+0x244>

000141ba <printk>:
printk():
E:\16-24-BOOK\20-24-Machinery\22-24-CHB-20211026-20241126\06-User\AHL-CH573-EXP-V1.5-20241126\03-Software\CH07\GPIO-ASM-CH573\Debug/srcc/printf.c:202
//       fmt:输出格式信息
//       ap:va_list指针指向格式信息输出
//函数返回：无
//======================================================================
int printk(PRINTK_INFO *info, const char *fmt, char * ap)
{
   141ba:	7175                	addi	sp,sp,-144
   141bc:	c522                	sw	s0,136(sp)
   141be:	c326                	sw	s1,132(sp)
   141c0:	dcd2                	sw	s4,120(sp)
   141c2:	84aa                	mv	s1,a0
   141c4:	8a2e                	mv	s4,a1
   141c6:	8432                	mv	s0,a2
E:\16-24-BOOK\20-24-Machinery\22-24-CHB-20211026-20241126\06-User\AHL-CH573-EXP-V1.5-20241126\03-Software\CH07\GPIO-ASM-CH573\Debug/srcc/printf.c:226

	}un1;*/
	char *p;
	int c;
	//char temp1;
	char vstr[33]={'0'};
   141c8:	4581                	li	a1,0
   141ca:	02100613          	li	a2,33
   141ce:	1068                	addi	a0,sp,44
E:\16-24-BOOK\20-24-Machinery\22-24-CHB-20211026-20241126\06-User\AHL-CH573-EXP-V1.5-20241126\03-Software\CH07\GPIO-ASM-CH573\Debug/srcc/printf.c:202
{
   141d0:	d8da                	sw	s6,112(sp)
   141d2:	d6de                	sw	s7,108(sp)
   141d4:	d4e2                	sw	s8,104(sp)
   141d6:	d2e6                	sw	s9,100(sp)
   141d8:	c706                	sw	ra,140(sp)
   141da:	c14a                	sw	s2,128(sp)
   141dc:	dece                	sw	s3,124(sp)
   141de:	dad6                	sw	s5,116(sp)
   141e0:	d0ea                	sw	s10,96(sp)
   141e2:	ceee                	sw	s11,92(sp)
E:\16-24-BOOK\20-24-Machinery\22-24-CHB-20211026-20241126\06-User\AHL-CH573-EXP-V1.5-20241126\03-Software\CH07\GPIO-ASM-CH573\Debug/srcc/printf.c:226
	char vstr[33]={'0'};
   141e4:	00000097          	auipc	ra,0x0
   141e8:	81e080e7          	jalr	-2018(ra) # 13a02 <memset>
   141ec:	03000793          	li	a5,48
   141f0:	02f10623          	sb	a5,44(sp)
E:\16-24-BOOK\20-24-Machinery\22-24-CHB-20211026-20241126\06-User\AHL-CH573-EXP-V1.5-20241126\03-Software\CH07\GPIO-ASM-CH573\Debug/srcc/printf.c:247
	int *ivalp;
	char *sval;
	int cval;
	unsigned int uval;

	count = 0;
   141f4:	ca02                	sw	zero,20(sp)
E:\16-24-BOOK\20-24-Machinery\22-24-CHB-20211026-20241126\06-User\AHL-CH573-EXP-V1.5-20241126\03-Software\CH07\GPIO-ASM-CH573\Debug/srcc/printf.c:249
	length_modifier=0;
	precision_used=TRUE;
   141f6:	4b85                	li	s7,1
E:\16-24-BOOK\20-24-Machinery\22-24-CHB-20211026-20241126\06-User\AHL-CH573-EXP-V1.5-20241126\03-Software\CH07\GPIO-ASM-CH573\Debug/srcc/printf.c:254
	//从格式字符串第一个字符开始格式化输出数据
	for (p = (char *) fmt; (c = *p) != 0; p++)
	{
		//读取%前面的字符，直接输出的字符和最后的\n类的转义字符
		if (c != '%')
   141f8:	02500c93          	li	s9,37
E:\16-24-BOOK\20-24-Machinery\22-24-CHB-20211026-20241126\06-User\AHL-CH573-EXP-V1.5-20241126\03-Software\CH07\GPIO-ASM-CH573\Debug/srcc/printf.c:319
			case '5':
			case '6':
			case '7':
			case '8':
			case '9':
				field_width = (field_width * 10) + (c - '0');
   141fc:	4b29                	li	s6,10
E:\16-24-BOOK\20-24-Machinery\22-24-CHB-20211026-20241126\06-User\AHL-CH573-EXP-V1.5-20241126\03-Software\CH07\GPIO-ASM-CH573\Debug/srcc/printf.c:387
			--p;
			break;
		}

		//p为格式字符串的首地址
		switch (c = *++p) {
   141fe:	00002c17          	auipc	s8,0x2
   14202:	c52c0c13          	addi	s8,s8,-942 # 15e50 <strlen+0x44>
E:\16-24-BOOK\20-24-Machinery\22-24-CHB-20211026-20241126\06-User\AHL-CH573-EXP-V1.5-20241126\03-Software\CH07\GPIO-ASM-CH573\Debug/srcc/printf.c:251 (discriminator 1)
	for (p = (char *) fmt; (c = *p) != 0; p++)
   14206:	000a0503          	lb	a0,0(s4)
   1420a:	e10d                	bnez	a0,1422c <printk+0x72>
E:\16-24-BOOK\20-24-Machinery\22-24-CHB-20211026-20241126\06-User\AHL-CH573-EXP-V1.5-20241126\03-Software\CH07\GPIO-ASM-CH573\Debug/srcc/printf.c:647
			printk_putc(c, &count, info);
			break;
		}
	}
	return count;
}
   1420c:	40ba                	lw	ra,140(sp)
   1420e:	442a                	lw	s0,136(sp)
E:\16-24-BOOK\20-24-Machinery\22-24-CHB-20211026-20241126\06-User\AHL-CH573-EXP-V1.5-20241126\03-Software\CH07\GPIO-ASM-CH573\Debug/srcc/printf.c:646
	return count;
   14210:	4552                	lw	a0,20(sp)
E:\16-24-BOOK\20-24-Machinery\22-24-CHB-20211026-20241126\06-User\AHL-CH573-EXP-V1.5-20241126\03-Software\CH07\GPIO-ASM-CH573\Debug/srcc/printf.c:647
}
   14212:	449a                	lw	s1,132(sp)
   14214:	490a                	lw	s2,128(sp)
   14216:	59f6                	lw	s3,124(sp)
   14218:	5a66                	lw	s4,120(sp)
   1421a:	5ad6                	lw	s5,116(sp)
   1421c:	5b46                	lw	s6,112(sp)
   1421e:	5bb6                	lw	s7,108(sp)
   14220:	5c26                	lw	s8,104(sp)
   14222:	5c96                	lw	s9,100(sp)
   14224:	5d06                	lw	s10,96(sp)
   14226:	4df6                	lw	s11,92(sp)
   14228:	6149                	addi	sp,sp,144
   1422a:	8082                	ret
E:\16-24-BOOK\20-24-Machinery\22-24-CHB-20211026-20241126\06-User\AHL-CH573-EXP-V1.5-20241126\03-Software\CH07\GPIO-ASM-CH573\Debug/srcc/printf.c:254
		if (c != '%')
   1422c:	0b950f63          	beq	a0,s9,142ea <printk+0x130>
E:\16-24-BOOK\20-24-Machinery\22-24-CHB-20211026-20241126\06-User\AHL-CH573-EXP-V1.5-20241126\03-Software\CH07\GPIO-ASM-CH573\Debug/srcc/printf.c:259
				printk_putc(c, &count, info);
   14230:	8626                	mv	a2,s1
   14232:	084c                	addi	a1,sp,20
E:\16-24-BOOK\20-24-Machinery\22-24-CHB-20211026-20241126\06-User\AHL-CH573-EXP-V1.5-20241126\03-Software\CH07\GPIO-ASM-CH573\Debug/srcc/printf.c:258
			if (c != '\n') {
   14234:	01650863          	beq	a0,s6,14244 <printk+0x8a>
E:\16-24-BOOK\20-24-Machinery\22-24-CHB-20211026-20241126\06-User\AHL-CH573-EXP-V1.5-20241126\03-Software\CH07\GPIO-ASM-CH573\Debug/srcc/printf.c:642
			printk_putc(c, &count, info);
   14238:	00000097          	auipc	ra,0x0
   1423c:	c12080e7          	jalr	-1006(ra) # 13e4a <printk_putc>
E:\16-24-BOOK\20-24-Machinery\22-24-CHB-20211026-20241126\06-User\AHL-CH573-EXP-V1.5-20241126\03-Software\CH07\GPIO-ASM-CH573\Debug/srcc/printf.c:643
			break;
   14240:	8aa2                	mv	s5,s0
   14242:	a461                	j	144ca <printk+0x310>
E:\16-24-BOOK\20-24-Machinery\22-24-CHB-20211026-20241126\06-User\AHL-CH573-EXP-V1.5-20241126\03-Software\CH07\GPIO-ASM-CH573\Debug/srcc/printf.c:263
				printk_putc(0x0D /* CR */, &count, info);
   14244:	4535                	li	a0,13
   14246:	00000097          	auipc	ra,0x0
   1424a:	c04080e7          	jalr	-1020(ra) # 13e4a <printk_putc>
E:\16-24-BOOK\20-24-Machinery\22-24-CHB-20211026-20241126\06-User\AHL-CH573-EXP-V1.5-20241126\03-Software\CH07\GPIO-ASM-CH573\Debug/srcc/printf.c:264
				printk_putc(0x0A /* LF */, &count, info);
   1424e:	8626                	mv	a2,s1
   14250:	084c                	addi	a1,sp,20
   14252:	4529                	li	a0,10
   14254:	b7d5                	j	14238 <printk+0x7e>
E:\16-24-BOOK\20-24-Machinery\22-24-CHB-20211026-20241126\06-User\AHL-CH573-EXP-V1.5-20241126\03-Software\CH07\GPIO-ASM-CH573\Debug/srcc/printf.c:281
				flags_used |= FLAGS_MINUS;
   14256:	00196913          	ori	s2,s2,1
E:\16-24-BOOK\20-24-Machinery\22-24-CHB-20211026-20241126\06-User\AHL-CH573-EXP-V1.5-20241126\03-Software\CH07\GPIO-ASM-CH573\Debug/srcc/printf.c:202
{
   1425a:	8a32                	mv	s4,a2
E:\16-24-BOOK\20-24-Machinery\22-24-CHB-20211026-20241126\06-User\AHL-CH573-EXP-V1.5-20241126\03-Software\CH07\GPIO-ASM-CH573\Debug/srcc/printf.c:279
			switch (/* c = */*++p) {
   1425c:	001a0783          	lb	a5,1(s4)
   14260:	001a0613          	addi	a2,s4,1
   14264:	06e78a63          	beq	a5,a4,142d8 <printk+0x11e>
   14268:	08f74d63          	blt	a4,a5,14302 <printk+0x148>
   1426c:	06a78963          	beq	a5,a0,142de <printk+0x124>
   14270:	07078a63          	beq	a5,a6,142e4 <printk+0x12a>
E:\16-24-BOOK\20-24-Machinery\22-24-CHB-20211026-20241126\06-User\AHL-CH573-EXP-V1.5-20241126\03-Software\CH07\GPIO-ASM-CH573\Debug/srcc/printf.c:305
		field_width = 0;
   14274:	4981                	li	s3,0
E:\16-24-BOOK\20-24-Machinery\22-24-CHB-20211026-20241126\06-User\AHL-CH573-EXP-V1.5-20241126\03-Software\CH07\GPIO-ASM-CH573\Debug/srcc/printf.c:308
			switch (c = *++p) {
   14276:	4625                	li	a2,9
   14278:	001a0703          	lb	a4,1(s4)
   1427c:	001a0793          	addi	a5,s4,1
   14280:	fd070693          	addi	a3,a4,-48
   14284:	08d67663          	bgeu	a2,a3,14310 <printk+0x156>
E:\16-24-BOOK\20-24-Machinery\22-24-CHB-20211026-20241126\06-User\AHL-CH573-EXP-V1.5-20241126\03-Software\CH07\GPIO-ASM-CH573\Debug/srcc/printf.c:329
		if (/* (c = *++p) */*++p == '.') {
   14288:	02e00693          	li	a3,46
E:\16-24-BOOK\20-24-Machinery\22-24-CHB-20211026-20241126\06-User\AHL-CH573-EXP-V1.5-20241126\03-Software\CH07\GPIO-ASM-CH573\Debug/srcc/printf.c:335
			precision_width = 0;
   1428c:	4d01                	li	s10,0
E:\16-24-BOOK\20-24-Machinery\22-24-CHB-20211026-20241126\06-User\AHL-CH573-EXP-V1.5-20241126\03-Software\CH07\GPIO-ASM-CH573\Debug/srcc/printf.c:329
		if (/* (c = *++p) */*++p == '.') {
   1428e:	0ad70463          	beq	a4,a3,14336 <printk+0x17c>
E:\16-24-BOOK\20-24-Machinery\22-24-CHB-20211026-20241126\06-User\AHL-CH573-EXP-V1.5-20241126\03-Software\CH07\GPIO-ASM-CH573\Debug/srcc/printf.c:365
			precision_used = FALSE;
   14292:	4b81                	li	s7,0
E:\16-24-BOOK\20-24-Machinery\22-24-CHB-20211026-20241126\06-User\AHL-CH573-EXP-V1.5-20241126\03-Software\CH07\GPIO-ASM-CH573\Debug/srcc/printf.c:370
		switch (/* c = */*++p) {
   14294:	001a0703          	lb	a4,1(s4)
   14298:	06800693          	li	a3,104
   1429c:	001a0793          	addi	a5,s4,1
   142a0:	00d70b63          	beq	a4,a3,142b6 <printk+0xfc>
   142a4:	06c00693          	li	a3,108
   142a8:	00d70763          	beq	a4,a3,142b6 <printk+0xfc>
   142ac:	04c00693          	li	a3,76
   142b0:	00d70363          	beq	a4,a3,142b6 <printk+0xfc>
   142b4:	87d2                	mv	a5,s4
E:\16-24-BOOK\20-24-Machinery\22-24-CHB-20211026-20241126\06-User\AHL-CH573-EXP-V1.5-20241126\03-Software\CH07\GPIO-ASM-CH573\Debug/srcc/printf.c:387
		switch (c = *++p) {
   142b6:	00178503          	lb	a0,1(a5)
   142ba:	00178a13          	addi	s4,a5,1
   142be:	02000713          	li	a4,32
   142c2:	fa850793          	addi	a5,a0,-88
   142c6:	0ff7f793          	andi	a5,a5,255
   142ca:	40f76263          	bltu	a4,a5,146ce <printk+0x514>
   142ce:	078a                	slli	a5,a5,0x2
   142d0:	97e2                	add	a5,a5,s8
   142d2:	439c                	lw	a5,0(a5)
   142d4:	97e2                	add	a5,a5,s8
   142d6:	8782                	jr	a5
E:\16-24-BOOK\20-24-Machinery\22-24-CHB-20211026-20241126\06-User\AHL-CH573-EXP-V1.5-20241126\03-Software\CH07\GPIO-ASM-CH573\Debug/srcc/printf.c:284
				flags_used |= FLAGS_PLUS;
   142d8:	00296913          	ori	s2,s2,2
E:\16-24-BOOK\20-24-Machinery\22-24-CHB-20211026-20241126\06-User\AHL-CH573-EXP-V1.5-20241126\03-Software\CH07\GPIO-ASM-CH573\Debug/srcc/printf.c:285
				break;
   142dc:	bfbd                	j	1425a <printk+0xa0>
E:\16-24-BOOK\20-24-Machinery\22-24-CHB-20211026-20241126\06-User\AHL-CH573-EXP-V1.5-20241126\03-Software\CH07\GPIO-ASM-CH573\Debug/srcc/printf.c:287
				flags_used |= FLAGS_SPACE;
   142de:	00496913          	ori	s2,s2,4
E:\16-24-BOOK\20-24-Machinery\22-24-CHB-20211026-20241126\06-User\AHL-CH573-EXP-V1.5-20241126\03-Software\CH07\GPIO-ASM-CH573\Debug/srcc/printf.c:288
				break;
   142e2:	bfa5                	j	1425a <printk+0xa0>
E:\16-24-BOOK\20-24-Machinery\22-24-CHB-20211026-20241126\06-User\AHL-CH573-EXP-V1.5-20241126\03-Software\CH07\GPIO-ASM-CH573\Debug/srcc/printf.c:293
				flags_used |= FLAGS_POUND;
   142e4:	01096913          	ori	s2,s2,16
E:\16-24-BOOK\20-24-Machinery\22-24-CHB-20211026-20241126\06-User\AHL-CH573-EXP-V1.5-20241126\03-Software\CH07\GPIO-ASM-CH573\Debug/srcc/printf.c:294
				break;
   142e8:	bf8d                	j	1425a <printk+0xa0>
E:\16-24-BOOK\20-24-Machinery\22-24-CHB-20211026-20241126\06-User\AHL-CH573-EXP-V1.5-20241126\03-Software\CH07\GPIO-ASM-CH573\Debug/srcc/printf.c:276
		flags_used = 0;
   142ea:	4901                	li	s2,0
   142ec:	02b00713          	li	a4,43
   142f0:	02d00593          	li	a1,45
   142f4:	03000693          	li	a3,48
   142f8:	02000513          	li	a0,32
   142fc:	02300813          	li	a6,35
   14300:	bfb1                	j	1425c <printk+0xa2>
   14302:	f4b78ae3          	beq	a5,a1,14256 <printk+0x9c>
   14306:	f6d797e3          	bne	a5,a3,14274 <printk+0xba>
E:\16-24-BOOK\20-24-Machinery\22-24-CHB-20211026-20241126\06-User\AHL-CH573-EXP-V1.5-20241126\03-Software\CH07\GPIO-ASM-CH573\Debug/srcc/printf.c:290
				flags_used |= FLAGS_ZERO;
   1430a:	00896913          	ori	s2,s2,8
E:\16-24-BOOK\20-24-Machinery\22-24-CHB-20211026-20241126\06-User\AHL-CH573-EXP-V1.5-20241126\03-Software\CH07\GPIO-ASM-CH573\Debug/srcc/printf.c:291
				break;
   1430e:	b7b1                	j	1425a <printk+0xa0>
E:\16-24-BOOK\20-24-Machinery\22-24-CHB-20211026-20241126\06-User\AHL-CH573-EXP-V1.5-20241126\03-Software\CH07\GPIO-ASM-CH573\Debug/srcc/printf.c:319
				field_width = (field_width * 10) + (c - '0');
   14310:	036989b3          	mul	s3,s3,s6
E:\16-24-BOOK\20-24-Machinery\22-24-CHB-20211026-20241126\06-User\AHL-CH573-EXP-V1.5-20241126\03-Software\CH07\GPIO-ASM-CH573\Debug/srcc/printf.c:320
				break;
   14314:	8a3e                	mv	s4,a5
E:\16-24-BOOK\20-24-Machinery\22-24-CHB-20211026-20241126\06-User\AHL-CH573-EXP-V1.5-20241126\03-Software\CH07\GPIO-ASM-CH573\Debug/srcc/printf.c:319
				field_width = (field_width * 10) + (c - '0');
   14316:	99b6                	add	s3,s3,a3
E:\16-24-BOOK\20-24-Machinery\22-24-CHB-20211026-20241126\06-User\AHL-CH573-EXP-V1.5-20241126\03-Software\CH07\GPIO-ASM-CH573\Debug/srcc/printf.c:320
				break;
   14318:	b785                	j	14278 <printk+0xbe>
E:\16-24-BOOK\20-24-Machinery\22-24-CHB-20211026-20241126\06-User\AHL-CH573-EXP-V1.5-20241126\03-Software\CH07\GPIO-ASM-CH573\Debug/srcc/printf.c:350
				precision_width = (precision_width * 10) +	(c - '0');
   1431a:	036d0d33          	mul	s10,s10,s6
E:\16-24-BOOK\20-24-Machinery\22-24-CHB-20211026-20241126\06-User\AHL-CH573-EXP-V1.5-20241126\03-Software\CH07\GPIO-ASM-CH573\Debug/srcc/printf.c:353
					break;
   1431e:	87b2                	mv	a5,a2
E:\16-24-BOOK\20-24-Machinery\22-24-CHB-20211026-20241126\06-User\AHL-CH573-EXP-V1.5-20241126\03-Software\CH07\GPIO-ASM-CH573\Debug/srcc/printf.c:350
				precision_width = (precision_width * 10) +	(c - '0');
   14320:	9d3a                	add	s10,s10,a4
E:\16-24-BOOK\20-24-Machinery\22-24-CHB-20211026-20241126\06-User\AHL-CH573-EXP-V1.5-20241126\03-Software\CH07\GPIO-ASM-CH573\Debug/srcc/printf.c:338
				switch ( c = *++p) {
   14322:	00178703          	lb	a4,1(a5)
   14326:	00178613          	addi	a2,a5,1
   1432a:	fd070713          	addi	a4,a4,-48
   1432e:	fee6f6e3          	bgeu	a3,a4,1431a <printk+0x160>
   14332:	8a3e                	mv	s4,a5
   14334:	b785                	j	14294 <printk+0xda>
   14336:	46a5                	li	a3,9
   14338:	b7ed                	j	14322 <printk+0x168>
E:\16-24-BOOK\20-24-Machinery\22-24-CHB-20211026-20241126\06-User\AHL-CH573-EXP-V1.5-20241126\03-Software\CH07\GPIO-ASM-CH573\Debug/srcc/printf.c:391
			ival = (int) va_arg1(ap, int);  //返回当前参数，并将ap指向下一个参数
   1433a:	401c                	lw	a5,0(s0)
E:\16-24-BOOK\20-24-Machinery\22-24-CHB-20211026-20241126\06-User\AHL-CH573-EXP-V1.5-20241126\03-Software\CH07\GPIO-ASM-CH573\Debug/srcc/printf.c:392
			vlen = printk_mknumstr(vstr, &ival, TRUE, 10);//将整型转换成字符型保存在vstr中，返回字符数vlen
   1433c:	46a9                	li	a3,10
   1433e:	4605                	li	a2,1
   14340:	082c                	addi	a1,sp,24
   14342:	1068                	addi	a0,sp,44
E:\16-24-BOOK\20-24-Machinery\22-24-CHB-20211026-20241126\06-User\AHL-CH573-EXP-V1.5-20241126\03-Software\CH07\GPIO-ASM-CH573\Debug/srcc/printf.c:391
			ival = (int) va_arg1(ap, int);  //返回当前参数，并将ap指向下一个参数
   14344:	cc3e                	sw	a5,24(sp)
E:\16-24-BOOK\20-24-Machinery\22-24-CHB-20211026-20241126\06-User\AHL-CH573-EXP-V1.5-20241126\03-Software\CH07\GPIO-ASM-CH573\Debug/srcc/printf.c:392
			vlen = printk_mknumstr(vstr, &ival, TRUE, 10);//将整型转换成字符型保存在vstr中，返回字符数vlen
   14346:	00000097          	auipc	ra,0x0
   1434a:	b44080e7          	jalr	-1212(ra) # 13e8a <printk_mknumstr>
E:\16-24-BOOK\20-24-Machinery\22-24-CHB-20211026-20241126\06-User\AHL-CH573-EXP-V1.5-20241126\03-Software\CH07\GPIO-ASM-CH573\Debug/srcc/printf.c:393
			vstrp = &vstr[vlen];  //指向转换后的最后一个字符
   1434e:	107c                	addi	a5,sp,44
   14350:	00a78db3          	add	s11,a5,a0
E:\16-24-BOOK\20-24-Machinery\22-24-CHB-20211026-20241126\06-User\AHL-CH573-EXP-V1.5-20241126\03-Software\CH07\GPIO-ASM-CH573\Debug/srcc/printf.c:396
			if (ival < 0) {
   14354:	47e2                	lw	a5,24(sp)
E:\16-24-BOOK\20-24-Machinery\22-24-CHB-20211026-20241126\06-User\AHL-CH573-EXP-V1.5-20241126\03-Software\CH07\GPIO-ASM-CH573\Debug/srcc/printf.c:391
			ival = (int) va_arg1(ap, int);  //返回当前参数，并将ap指向下一个参数
   14356:	00440a93          	addi	s5,s0,4
E:\16-24-BOOK\20-24-Machinery\22-24-CHB-20211026-20241126\06-User\AHL-CH573-EXP-V1.5-20241126\03-Software\CH07\GPIO-ASM-CH573\Debug/srcc/printf.c:392
			vlen = printk_mknumstr(vstr, &ival, TRUE, 10);//将整型转换成字符型保存在vstr中，返回字符数vlen
   1435a:	842a                	mv	s0,a0
E:\16-24-BOOK\20-24-Machinery\22-24-CHB-20211026-20241126\06-User\AHL-CH573-EXP-V1.5-20241126\03-Software\CH07\GPIO-ASM-CH573\Debug/srcc/printf.c:396
			if (ival < 0) {
   1435c:	0207d663          	bgez	a5,14388 <printk+0x1ce>
E:\16-24-BOOK\20-24-Machinery\22-24-CHB-20211026-20241126\06-User\AHL-CH573-EXP-V1.5-20241126\03-Software\CH07\GPIO-ASM-CH573\Debug/srcc/printf.c:398
				++vlen;
   14360:	00150413          	addi	s0,a0,1
E:\16-24-BOOK\20-24-Machinery\22-24-CHB-20211026-20241126\06-User\AHL-CH573-EXP-V1.5-20241126\03-Software\CH07\GPIO-ASM-CH573\Debug/srcc/printf.c:397
				schar = '-';
   14364:	02d00d13          	li	s10,45
E:\16-24-BOOK\20-24-Machinery\22-24-CHB-20211026-20241126\06-User\AHL-CH573-EXP-V1.5-20241126\03-Software\CH07\GPIO-ASM-CH573\Debug/srcc/printf.c:419
			if (IS_FLAG_ZERO(flags_used)) {
   14368:	00897793          	andi	a5,s2,8
   1436c:	cba9                	beqz	a5,143be <printk+0x204>
E:\16-24-BOOK\20-24-Machinery\22-24-CHB-20211026-20241126\06-User\AHL-CH573-EXP-V1.5-20241126\03-Software\CH07\GPIO-ASM-CH573\Debug/srcc/printf.c:420
				if (schar)
   1436e:	000d0963          	beqz	s10,14380 <printk+0x1c6>
E:\16-24-BOOK\20-24-Machinery\22-24-CHB-20211026-20241126\06-User\AHL-CH573-EXP-V1.5-20241126\03-Software\CH07\GPIO-ASM-CH573\Debug/srcc/printf.c:421
					printk_putc(schar, &count, info);  //输出符号
   14372:	8626                	mv	a2,s1
   14374:	084c                	addi	a1,sp,20
   14376:	856a                	mv	a0,s10
   14378:	00000097          	auipc	ra,0x0
   1437c:	ad2080e7          	jalr	-1326(ra) # 13e4a <printk_putc>
printk_pad_zero():
E:\16-24-BOOK\20-24-Machinery\22-24-CHB-20211026-20241126\06-User\AHL-CH573-EXP-V1.5-20241126\03-Software\CH07\GPIO-ASM-CH573\Debug/srcc/printf.c:179
	for (i = curlen; i < field_width; i++) {
   14380:	03344563          	blt	s0,s3,143aa <printk+0x1f0>
   14384:	844e                	mv	s0,s3
   14386:	a2e9                	j	14550 <printk+0x396>
printk():
E:\16-24-BOOK\20-24-Machinery\22-24-CHB-20211026-20241126\06-User\AHL-CH573-EXP-V1.5-20241126\03-Software\CH07\GPIO-ASM-CH573\Debug/srcc/printf.c:402
				if (IS_FLAG_PLUS(flags_used)) {
   14388:	00297793          	andi	a5,s2,2
   1438c:	c791                	beqz	a5,14398 <printk+0x1de>
E:\16-24-BOOK\20-24-Machinery\22-24-CHB-20211026-20241126\06-User\AHL-CH573-EXP-V1.5-20241126\03-Software\CH07\GPIO-ASM-CH573\Debug/srcc/printf.c:404
					++vlen;
   1438e:	00150413          	addi	s0,a0,1
E:\16-24-BOOK\20-24-Machinery\22-24-CHB-20211026-20241126\06-User\AHL-CH573-EXP-V1.5-20241126\03-Software\CH07\GPIO-ASM-CH573\Debug/srcc/printf.c:403
					schar = '+';
   14392:	02b00d13          	li	s10,43
   14396:	bfc9                	j	14368 <printk+0x1ae>
E:\16-24-BOOK\20-24-Machinery\22-24-CHB-20211026-20241126\06-User\AHL-CH573-EXP-V1.5-20241126\03-Software\CH07\GPIO-ASM-CH573\Debug/srcc/printf.c:406
					if (IS_FLAG_SPACE(flags_used)) {
   14398:	00497d13          	andi	s10,s2,4
   1439c:	fc0d06e3          	beqz	s10,14368 <printk+0x1ae>
E:\16-24-BOOK\20-24-Machinery\22-24-CHB-20211026-20241126\06-User\AHL-CH573-EXP-V1.5-20241126\03-Software\CH07\GPIO-ASM-CH573\Debug/srcc/printf.c:408
						++vlen;
   143a0:	00150413          	addi	s0,a0,1
E:\16-24-BOOK\20-24-Machinery\22-24-CHB-20211026-20241126\06-User\AHL-CH573-EXP-V1.5-20241126\03-Software\CH07\GPIO-ASM-CH573\Debug/srcc/printf.c:407
						schar = ' ';
   143a4:	02000d13          	li	s10,32
   143a8:	b7c1                	j	14368 <printk+0x1ae>
printk_pad_zero():
E:\16-24-BOOK\20-24-Machinery\22-24-CHB-20211026-20241126\06-User\AHL-CH573-EXP-V1.5-20241126\03-Software\CH07\GPIO-ASM-CH573\Debug/srcc/printf.c:180
		printk_putc('0', count, info);
   143aa:	8626                	mv	a2,s1
   143ac:	084c                	addi	a1,sp,20
   143ae:	03000513          	li	a0,48
   143b2:	00000097          	auipc	ra,0x0
   143b6:	a98080e7          	jalr	-1384(ra) # 13e4a <printk_putc>
E:\16-24-BOOK\20-24-Machinery\22-24-CHB-20211026-20241126\06-User\AHL-CH573-EXP-V1.5-20241126\03-Software\CH07\GPIO-ASM-CH573\Debug/srcc/printf.c:179
	for (i = curlen; i < field_width; i++) {
   143ba:	0405                	addi	s0,s0,1
   143bc:	b7d1                	j	14380 <printk+0x1c6>
printk():
E:\16-24-BOOK\20-24-Machinery\22-24-CHB-20211026-20241126\06-User\AHL-CH573-EXP-V1.5-20241126\03-Software\CH07\GPIO-ASM-CH573\Debug/srcc/printf.c:426
				if (!IS_FLAG_MINUS(flags_used)) {
   143be:	00197793          	andi	a5,s2,1
   143c2:	eb89                	bnez	a5,143d4 <printk+0x21a>
E:\16-24-BOOK\20-24-Machinery\22-24-CHB-20211026-20241126\06-User\AHL-CH573-EXP-V1.5-20241126\03-Software\CH07\GPIO-ASM-CH573\Debug/srcc/printf.c:427
					printk_pad_space(vlen, field_width, &count, info);  //输出空格
   143c4:	86a6                	mv	a3,s1
   143c6:	0850                	addi	a2,sp,20
   143c8:	85ce                	mv	a1,s3
   143ca:	8522                	mv	a0,s0
   143cc:	00000097          	auipc	ra,0x0
   143d0:	b30080e7          	jalr	-1232(ra) # 13efc <printk_pad_space>
E:\16-24-BOOK\20-24-Machinery\22-24-CHB-20211026-20241126\06-User\AHL-CH573-EXP-V1.5-20241126\03-Software\CH07\GPIO-ASM-CH573\Debug/srcc/printf.c:437
			if (!dschar && schar) {
   143d4:	160d0e63          	beqz	s10,14550 <printk+0x396>
E:\16-24-BOOK\20-24-Machinery\22-24-CHB-20211026-20241126\06-User\AHL-CH573-EXP-V1.5-20241126\03-Software\CH07\GPIO-ASM-CH573\Debug/srcc/printf.c:438
				printk_putc(schar, &count, info);
   143d8:	8626                	mv	a2,s1
   143da:	084c                	addi	a1,sp,20
   143dc:	856a                	mv	a0,s10
E:\16-24-BOOK\20-24-Machinery\22-24-CHB-20211026-20241126\06-User\AHL-CH573-EXP-V1.5-20241126\03-Software\CH07\GPIO-ASM-CH573\Debug/srcc/printf.c:598
				printk_putc(*vstrp--, &count, info);
   143de:	00000097          	auipc	ra,0x0
   143e2:	a6c080e7          	jalr	-1428(ra) # 13e4a <printk_putc>
   143e6:	a2ad                	j	14550 <printk+0x396>
E:\16-24-BOOK\20-24-Machinery\22-24-CHB-20211026-20241126\06-User\AHL-CH573-EXP-V1.5-20241126\03-Software\CH07\GPIO-ASM-CH573\Debug/srcc/printf.c:452
			fval= (double)va_arg1(ap,double);
   143e8:	00442d83          	lw	s11,4(s0)
   143ec:	00c40a93          	addi	s5,s0,12
   143f0:	4400                	lw	s0,8(s0)
E:\16-24-BOOK\20-24-Machinery\22-24-CHB-20211026-20241126\06-User\AHL-CH573-EXP-V1.5-20241126\03-Software\CH07\GPIO-ASM-CH573\Debug/srcc/printf.c:456
			if (fval < 0) {
   143f2:	4601                	li	a2,0
   143f4:	4681                	li	a3,0
   143f6:	856e                	mv	a0,s11
   143f8:	85a2                	mv	a1,s0
E:\16-24-BOOK\20-24-Machinery\22-24-CHB-20211026-20241126\06-User\AHL-CH573-EXP-V1.5-20241126\03-Software\CH07\GPIO-ASM-CH573\Debug/srcc/printf.c:452
			fval= (double)va_arg1(ap,double);
   143fa:	d06e                	sw	s11,32(sp)
   143fc:	d222                	sw	s0,36(sp)
E:\16-24-BOOK\20-24-Machinery\22-24-CHB-20211026-20241126\06-User\AHL-CH573-EXP-V1.5-20241126\03-Software\CH07\GPIO-ASM-CH573\Debug/srcc/printf.c:456
			if (fval < 0) {
   143fe:	00001097          	auipc	ra,0x1
   14402:	aa2080e7          	jalr	-1374(ra) # 14ea0 <__ledf2>
   14406:	04055763          	bgez	a0,14454 <printk+0x29a>
E:\16-24-BOOK\20-24-Machinery\22-24-CHB-20211026-20241126\06-User\AHL-CH573-EXP-V1.5-20241126\03-Software\CH07\GPIO-ASM-CH573\Debug/srcc/printf.c:458
				fval = -fval;				//负数取它的正数
   1440a:	800007b7          	lui	a5,0x80000
   1440e:	8fa1                	xor	a5,a5,s0
   14410:	d06e                	sw	s11,32(sp)
   14412:	d23e                	sw	a5,36(sp)
E:\16-24-BOOK\20-24-Machinery\22-24-CHB-20211026-20241126\06-User\AHL-CH573-EXP-V1.5-20241126\03-Software\CH07\GPIO-ASM-CH573\Debug/srcc/printf.c:457
				schar = '-';
   14414:	02d00413          	li	s0,45
E:\16-24-BOOK\20-24-Machinery\22-24-CHB-20211026-20241126\06-User\AHL-CH573-EXP-V1.5-20241126\03-Software\CH07\GPIO-ASM-CH573\Debug/srcc/printf.c:480
				vlen = printk_mkfloatstr(&fval,vstr,precision_width);//将整型转换成字符型保存在vstr中，返回字符数vlen
   14418:	866a                	mv	a2,s10
E:\16-24-BOOK\20-24-Machinery\22-24-CHB-20211026-20241126\06-User\AHL-CH573-EXP-V1.5-20241126\03-Software\CH07\GPIO-ASM-CH573\Debug/srcc/printf.c:478
			if(precision_used)
   1441a:	000b9363          	bnez	s7,14420 <printk+0x266>
E:\16-24-BOOK\20-24-Machinery\22-24-CHB-20211026-20241126\06-User\AHL-CH573-EXP-V1.5-20241126\03-Software\CH07\GPIO-ASM-CH573\Debug/srcc/printf.c:487
					vlen = printk_mkfloatstr(&fval,vstr,6);//将整型转换成字符型保存在vstr中，返回字符数vlen
   1441e:	4619                	li	a2,6
   14420:	106c                	addi	a1,sp,44
   14422:	1008                	addi	a0,sp,32
   14424:	00000097          	auipc	ra,0x0
   14428:	b1e080e7          	jalr	-1250(ra) # 13f42 <printk_mkfloatstr>
   1442c:	00197d93          	andi	s11,s2,1
E:\16-24-BOOK\20-24-Machinery\22-24-CHB-20211026-20241126\06-User\AHL-CH573-EXP-V1.5-20241126\03-Software\CH07\GPIO-ASM-CH573\Debug/srcc/printf.c:503
			if (IS_FLAG_ZERO(flags_used)) {
   14430:	00897913          	andi	s2,s2,8
E:\16-24-BOOK\20-24-Machinery\22-24-CHB-20211026-20241126\06-User\AHL-CH573-EXP-V1.5-20241126\03-Software\CH07\GPIO-ASM-CH573\Debug/srcc/printf.c:487
					vlen = printk_mkfloatstr(&fval,vstr,6);//将整型转换成字符型保存在vstr中，返回字符数vlen
   14434:	8d2a                	mv	s10,a0
E:\16-24-BOOK\20-24-Machinery\22-24-CHB-20211026-20241126\06-User\AHL-CH573-EXP-V1.5-20241126\03-Software\CH07\GPIO-ASM-CH573\Debug/srcc/printf.c:503
			if (IS_FLAG_ZERO(flags_used)) {
   14436:	04090463          	beqz	s2,1447e <printk+0x2c4>
E:\16-24-BOOK\20-24-Machinery\22-24-CHB-20211026-20241126\06-User\AHL-CH573-EXP-V1.5-20241126\03-Software\CH07\GPIO-ASM-CH573\Debug/srcc/printf.c:504
				if (schar)
   1443a:	c801                	beqz	s0,1444a <printk+0x290>
E:\16-24-BOOK\20-24-Machinery\22-24-CHB-20211026-20241126\06-User\AHL-CH573-EXP-V1.5-20241126\03-Software\CH07\GPIO-ASM-CH573\Debug/srcc/printf.c:505
					printk_putc(schar, &count, info);  //输出符号
   1443c:	8626                	mv	a2,s1
   1443e:	084c                	addi	a1,sp,20
   14440:	8522                	mv	a0,s0
   14442:	00000097          	auipc	ra,0x0
   14446:	a08080e7          	jalr	-1528(ra) # 13e4a <printk_putc>
printk_pad_zero():
E:\16-24-BOOK\20-24-Machinery\22-24-CHB-20211026-20241126\06-User\AHL-CH573-EXP-V1.5-20241126\03-Software\CH07\GPIO-ASM-CH573\Debug/srcc/printf.c:179
	for (i = curlen; i < field_width; i++) {
   1444a:	033d4063          	blt	s10,s3,1446a <printk+0x2b0>
   1444e:	8d4e                	mv	s10,s3
   14450:	1060                	addi	s0,sp,44
   14452:	a8b9                	j	144b0 <printk+0x2f6>
printk():
E:\16-24-BOOK\20-24-Machinery\22-24-CHB-20211026-20241126\06-User\AHL-CH573-EXP-V1.5-20241126\03-Software\CH07\GPIO-ASM-CH573\Debug/srcc/printf.c:463
				if (IS_FLAG_PLUS(flags_used)) {
   14454:	00297793          	andi	a5,s2,2
E:\16-24-BOOK\20-24-Machinery\22-24-CHB-20211026-20241126\06-User\AHL-CH573-EXP-V1.5-20241126\03-Software\CH07\GPIO-ASM-CH573\Debug/srcc/printf.c:464
					schar = '+';
   14458:	02b00413          	li	s0,43
E:\16-24-BOOK\20-24-Machinery\22-24-CHB-20211026-20241126\06-User\AHL-CH573-EXP-V1.5-20241126\03-Software\CH07\GPIO-ASM-CH573\Debug/srcc/printf.c:463
				if (IS_FLAG_PLUS(flags_used)) {
   1445c:	ffd5                	bnez	a5,14418 <printk+0x25e>
E:\16-24-BOOK\20-24-Machinery\22-24-CHB-20211026-20241126\06-User\AHL-CH573-EXP-V1.5-20241126\03-Software\CH07\GPIO-ASM-CH573\Debug/srcc/printf.c:467
					if (IS_FLAG_SPACE(flags_used)) {
   1445e:	00497413          	andi	s0,s2,4
   14462:	d85d                	beqz	s0,14418 <printk+0x25e>
E:\16-24-BOOK\20-24-Machinery\22-24-CHB-20211026-20241126\06-User\AHL-CH573-EXP-V1.5-20241126\03-Software\CH07\GPIO-ASM-CH573\Debug/srcc/printf.c:468
						schar = ' ';
   14464:	02000413          	li	s0,32
   14468:	bf45                	j	14418 <printk+0x25e>
printk_pad_zero():
E:\16-24-BOOK\20-24-Machinery\22-24-CHB-20211026-20241126\06-User\AHL-CH573-EXP-V1.5-20241126\03-Software\CH07\GPIO-ASM-CH573\Debug/srcc/printf.c:180
		printk_putc('0', count, info);
   1446a:	8626                	mv	a2,s1
   1446c:	084c                	addi	a1,sp,20
   1446e:	03000513          	li	a0,48
   14472:	00000097          	auipc	ra,0x0
   14476:	9d8080e7          	jalr	-1576(ra) # 13e4a <printk_putc>
E:\16-24-BOOK\20-24-Machinery\22-24-CHB-20211026-20241126\06-User\AHL-CH573-EXP-V1.5-20241126\03-Software\CH07\GPIO-ASM-CH573\Debug/srcc/printf.c:179
	for (i = curlen; i < field_width; i++) {
   1447a:	0d05                	addi	s10,s10,1
   1447c:	b7f9                	j	1444a <printk+0x290>
printk():
E:\16-24-BOOK\20-24-Machinery\22-24-CHB-20211026-20241126\06-User\AHL-CH573-EXP-V1.5-20241126\03-Software\CH07\GPIO-ASM-CH573\Debug/srcc/printf.c:510
				if (!IS_FLAG_MINUS(flags_used)) {
   1447e:	000d9963          	bnez	s11,14490 <printk+0x2d6>
E:\16-24-BOOK\20-24-Machinery\22-24-CHB-20211026-20241126\06-User\AHL-CH573-EXP-V1.5-20241126\03-Software\CH07\GPIO-ASM-CH573\Debug/srcc/printf.c:511
					printk_pad_space(vlen, field_width, &count, info);  //输出空格
   14482:	86a6                	mv	a3,s1
   14484:	0850                	addi	a2,sp,20
   14486:	85ce                	mv	a1,s3
   14488:	00000097          	auipc	ra,0x0
   1448c:	a74080e7          	jalr	-1420(ra) # 13efc <printk_pad_space>
E:\16-24-BOOK\20-24-Machinery\22-24-CHB-20211026-20241126\06-User\AHL-CH573-EXP-V1.5-20241126\03-Software\CH07\GPIO-ASM-CH573\Debug/srcc/printf.c:521
			if (!dschar && schar) {
   14490:	d061                	beqz	s0,14450 <printk+0x296>
E:\16-24-BOOK\20-24-Machinery\22-24-CHB-20211026-20241126\06-User\AHL-CH573-EXP-V1.5-20241126\03-Software\CH07\GPIO-ASM-CH573\Debug/srcc/printf.c:522
				printk_putc(schar, &count, info);
   14492:	8626                	mv	a2,s1
   14494:	084c                	addi	a1,sp,20
   14496:	8522                	mv	a0,s0
   14498:	00000097          	auipc	ra,0x0
   1449c:	9b2080e7          	jalr	-1614(ra) # 13e4a <printk_putc>
   144a0:	bf45                	j	14450 <printk+0x296>
E:\16-24-BOOK\20-24-Machinery\22-24-CHB-20211026-20241126\06-User\AHL-CH573-EXP-V1.5-20241126\03-Software\CH07\GPIO-ASM-CH573\Debug/srcc/printf.c:525
				printk_putc(*vstrp++, &count, info);
   144a2:	8626                	mv	a2,s1
   144a4:	084c                	addi	a1,sp,20
   144a6:	0405                	addi	s0,s0,1
   144a8:	00000097          	auipc	ra,0x0
   144ac:	9a2080e7          	jalr	-1630(ra) # 13e4a <printk_putc>
E:\16-24-BOOK\20-24-Machinery\22-24-CHB-20211026-20241126\06-User\AHL-CH573-EXP-V1.5-20241126\03-Software\CH07\GPIO-ASM-CH573\Debug/srcc/printf.c:524
			while (*vstrp)
   144b0:	00040503          	lb	a0,0(s0)
   144b4:	f57d                	bnez	a0,144a2 <printk+0x2e8>
E:\16-24-BOOK\20-24-Machinery\22-24-CHB-20211026-20241126\06-User\AHL-CH573-EXP-V1.5-20241126\03-Software\CH07\GPIO-ASM-CH573\Debug/srcc/printf.c:526
			if (IS_FLAG_MINUS(flags_used)) {
   144b6:	000d8a63          	beqz	s11,144ca <printk+0x310>
E:\16-24-BOOK\20-24-Machinery\22-24-CHB-20211026-20241126\06-User\AHL-CH573-EXP-V1.5-20241126\03-Software\CH07\GPIO-ASM-CH573\Debug/srcc/printf.c:527
				printk_pad_space(vlen, field_width, &count, info);
   144ba:	86a6                	mv	a3,s1
   144bc:	0850                	addi	a2,sp,20
   144be:	85ce                	mv	a1,s3
   144c0:	856a                	mv	a0,s10
E:\16-24-BOOK\20-24-Machinery\22-24-CHB-20211026-20241126\06-User\AHL-CH573-EXP-V1.5-20241126\03-Software\CH07\GPIO-ASM-CH573\Debug/srcc/printf.c:601
				printk_pad_space(vlen, field_width, &count, info);
   144c2:	00000097          	auipc	ra,0x0
   144c6:	a3a080e7          	jalr	-1478(ra) # 13efc <printk_pad_space>
E:\16-24-BOOK\20-24-Machinery\22-24-CHB-20211026-20241126\06-User\AHL-CH573-EXP-V1.5-20241126\03-Software\CH07\GPIO-ASM-CH573\Debug/srcc/printf.c:251 (discriminator 2)
	for (p = (char *) fmt; (c = *p) != 0; p++)
   144ca:	0a05                	addi	s4,s4,1
   144cc:	8456                	mv	s0,s5
   144ce:	bb25                	j	14206 <printk+0x4c>
E:\16-24-BOOK\20-24-Machinery\22-24-CHB-20211026-20241126\06-User\AHL-CH573-EXP-V1.5-20241126\03-Software\CH07\GPIO-ASM-CH573\Debug/srcc/printf.c:533
			uval = (unsigned int) va_arg1(ap, unsigned int);
   144d0:	401c                	lw	a5,0(s0)
E:\16-24-BOOK\20-24-Machinery\22-24-CHB-20211026-20241126\06-User\AHL-CH573-EXP-V1.5-20241126\03-Software\CH07\GPIO-ASM-CH573\Debug/srcc/printf.c:534
			vlen = printk_mknumstr(vstr, &uval, FALSE, 16);
   144d2:	46c1                	li	a3,16
   144d4:	4601                	li	a2,0
   144d6:	086c                	addi	a1,sp,28
   144d8:	1068                	addi	a0,sp,44
E:\16-24-BOOK\20-24-Machinery\22-24-CHB-20211026-20241126\06-User\AHL-CH573-EXP-V1.5-20241126\03-Software\CH07\GPIO-ASM-CH573\Debug/srcc/printf.c:533
			uval = (unsigned int) va_arg1(ap, unsigned int);
   144da:	ce3e                	sw	a5,28(sp)
E:\16-24-BOOK\20-24-Machinery\22-24-CHB-20211026-20241126\06-User\AHL-CH573-EXP-V1.5-20241126\03-Software\CH07\GPIO-ASM-CH573\Debug/srcc/printf.c:534
			vlen = printk_mknumstr(vstr, &uval, FALSE, 16);
   144dc:	00000097          	auipc	ra,0x0
   144e0:	9ae080e7          	jalr	-1618(ra) # 13e8a <printk_mknumstr>
E:\16-24-BOOK\20-24-Machinery\22-24-CHB-20211026-20241126\06-User\AHL-CH573-EXP-V1.5-20241126\03-Software\CH07\GPIO-ASM-CH573\Debug/srcc/printf.c:535
			vstrp = &vstr[vlen];
   144e4:	107c                	addi	a5,sp,44
   144e6:	00a78db3          	add	s11,a5,a0
E:\16-24-BOOK\20-24-Machinery\22-24-CHB-20211026-20241126\06-User\AHL-CH573-EXP-V1.5-20241126\03-Software\CH07\GPIO-ASM-CH573\Debug/srcc/printf.c:538
			if (IS_FLAG_ZERO(flags_used)) {
   144ea:	00897793          	andi	a5,s2,8
E:\16-24-BOOK\20-24-Machinery\22-24-CHB-20211026-20241126\06-User\AHL-CH573-EXP-V1.5-20241126\03-Software\CH07\GPIO-ASM-CH573\Debug/srcc/printf.c:533
			uval = (unsigned int) va_arg1(ap, unsigned int);
   144ee:	00440a93          	addi	s5,s0,4
E:\16-24-BOOK\20-24-Machinery\22-24-CHB-20211026-20241126\06-User\AHL-CH573-EXP-V1.5-20241126\03-Software\CH07\GPIO-ASM-CH573\Debug/srcc/printf.c:534
			vlen = printk_mknumstr(vstr, &uval, FALSE, 16);
   144f2:	01097d13          	andi	s10,s2,16
   144f6:	842a                	mv	s0,a0
E:\16-24-BOOK\20-24-Machinery\22-24-CHB-20211026-20241126\06-User\AHL-CH573-EXP-V1.5-20241126\03-Software\CH07\GPIO-ASM-CH573\Debug/srcc/printf.c:538
			if (IS_FLAG_ZERO(flags_used)) {
   144f8:	c7c1                	beqz	a5,14580 <printk+0x3c6>
E:\16-24-BOOK\20-24-Machinery\22-24-CHB-20211026-20241126\06-User\AHL-CH573-EXP-V1.5-20241126\03-Software\CH07\GPIO-ASM-CH573\Debug/srcc/printf.c:537
			dschar = FALSE;
   144fa:	4781                	li	a5,0
E:\16-24-BOOK\20-24-Machinery\22-24-CHB-20211026-20241126\06-User\AHL-CH573-EXP-V1.5-20241126\03-Software\CH07\GPIO-ASM-CH573\Debug/srcc/printf.c:539
				if (IS_FLAG_POUND(flags_used)) {
   144fc:	020d0363          	beqz	s10,14522 <printk+0x368>
E:\16-24-BOOK\20-24-Machinery\22-24-CHB-20211026-20241126\06-User\AHL-CH573-EXP-V1.5-20241126\03-Software\CH07\GPIO-ASM-CH573\Debug/srcc/printf.c:540
					printk_putc('0', &count, info);
   14500:	8626                	mv	a2,s1
   14502:	084c                	addi	a1,sp,20
   14504:	03000513          	li	a0,48
   14508:	00000097          	auipc	ra,0x0
   1450c:	942080e7          	jalr	-1726(ra) # 13e4a <printk_putc>
E:\16-24-BOOK\20-24-Machinery\22-24-CHB-20211026-20241126\06-User\AHL-CH573-EXP-V1.5-20241126\03-Software\CH07\GPIO-ASM-CH573\Debug/srcc/printf.c:541
					printk_putc('x', &count, info);
   14510:	8626                	mv	a2,s1
   14512:	084c                	addi	a1,sp,20
   14514:	07800513          	li	a0,120
   14518:	00000097          	auipc	ra,0x0
   1451c:	932080e7          	jalr	-1742(ra) # 13e4a <printk_putc>
E:\16-24-BOOK\20-24-Machinery\22-24-CHB-20211026-20241126\06-User\AHL-CH573-EXP-V1.5-20241126\03-Software\CH07\GPIO-ASM-CH573\Debug/srcc/printf.c:543
					dschar = TRUE;
   14520:	4785                	li	a5,1
printk_pad_zero():
E:\16-24-BOOK\20-24-Machinery\22-24-CHB-20211026-20241126\06-User\AHL-CH573-EXP-V1.5-20241126\03-Software\CH07\GPIO-ASM-CH573\Debug/srcc/printf.c:179
	for (i = curlen; i < field_width; i++) {
   14522:	05344363          	blt	s0,s3,14568 <printk+0x3ae>
printk():
E:\16-24-BOOK\20-24-Machinery\22-24-CHB-20211026-20241126\06-User\AHL-CH573-EXP-V1.5-20241126\03-Software\CH07\GPIO-ASM-CH573\Debug/srcc/printf.c:561
			if ((IS_FLAG_POUND(flags_used)) && !dschar) {
   14526:	844e                	mv	s0,s3
   14528:	020d0463          	beqz	s10,14550 <printk+0x396>
E:\16-24-BOOK\20-24-Machinery\22-24-CHB-20211026-20241126\06-User\AHL-CH573-EXP-V1.5-20241126\03-Software\CH07\GPIO-ASM-CH573\Debug/srcc/printf.c:561 (discriminator 1)
   1452c:	e395                	bnez	a5,14550 <printk+0x396>
E:\16-24-BOOK\20-24-Machinery\22-24-CHB-20211026-20241126\06-User\AHL-CH573-EXP-V1.5-20241126\03-Software\CH07\GPIO-ASM-CH573\Debug/srcc/printf.c:562
				printk_putc('0', &count, info);
   1452e:	8626                	mv	a2,s1
   14530:	084c                	addi	a1,sp,20
   14532:	03000513          	li	a0,48
   14536:	00000097          	auipc	ra,0x0
   1453a:	914080e7          	jalr	-1772(ra) # 13e4a <printk_putc>
E:\16-24-BOOK\20-24-Machinery\22-24-CHB-20211026-20241126\06-User\AHL-CH573-EXP-V1.5-20241126\03-Software\CH07\GPIO-ASM-CH573\Debug/srcc/printf.c:563
				printk_putc('x', &count, info);
   1453e:	8626                	mv	a2,s1
   14540:	084c                	addi	a1,sp,20
   14542:	07800513          	li	a0,120
   14546:	00000097          	auipc	ra,0x0
   1454a:	904080e7          	jalr	-1788(ra) # 13e4a <printk_putc>
E:\16-24-BOOK\20-24-Machinery\22-24-CHB-20211026-20241126\06-User\AHL-CH573-EXP-V1.5-20241126\03-Software\CH07\GPIO-ASM-CH573\Debug/srcc/printf.c:564
				vlen += 2;
   1454e:	0409                	addi	s0,s0,2
E:\16-24-BOOK\20-24-Machinery\22-24-CHB-20211026-20241126\06-User\AHL-CH573-EXP-V1.5-20241126\03-Software\CH07\GPIO-ASM-CH573\Debug/srcc/printf.c:597 (discriminator 1)
			cont_xd: while (*vstrp)
   14550:	000d8503          	lb	a0,0(s11)
   14554:	e16d                	bnez	a0,14636 <printk+0x47c>
E:\16-24-BOOK\20-24-Machinery\22-24-CHB-20211026-20241126\06-User\AHL-CH573-EXP-V1.5-20241126\03-Software\CH07\GPIO-ASM-CH573\Debug/srcc/printf.c:600
			if (IS_FLAG_MINUS(flags_used)) {
   14556:	00197913          	andi	s2,s2,1
   1455a:	f60908e3          	beqz	s2,144ca <printk+0x310>
E:\16-24-BOOK\20-24-Machinery\22-24-CHB-20211026-20241126\06-User\AHL-CH573-EXP-V1.5-20241126\03-Software\CH07\GPIO-ASM-CH573\Debug/srcc/printf.c:601
				printk_pad_space(vlen, field_width, &count, info);
   1455e:	86a6                	mv	a3,s1
   14560:	0850                	addi	a2,sp,20
   14562:	85ce                	mv	a1,s3
   14564:	8522                	mv	a0,s0
   14566:	bfb1                	j	144c2 <printk+0x308>
printk_pad_zero():
E:\16-24-BOOK\20-24-Machinery\22-24-CHB-20211026-20241126\06-User\AHL-CH573-EXP-V1.5-20241126\03-Software\CH07\GPIO-ASM-CH573\Debug/srcc/printf.c:180
		printk_putc('0', count, info);
   14568:	8626                	mv	a2,s1
   1456a:	084c                	addi	a1,sp,20
   1456c:	03000513          	li	a0,48
   14570:	c63e                	sw	a5,12(sp)
   14572:	00000097          	auipc	ra,0x0
   14576:	8d8080e7          	jalr	-1832(ra) # 13e4a <printk_putc>
E:\16-24-BOOK\20-24-Machinery\22-24-CHB-20211026-20241126\06-User\AHL-CH573-EXP-V1.5-20241126\03-Software\CH07\GPIO-ASM-CH573\Debug/srcc/printf.c:179
	for (i = curlen; i < field_width; i++) {
   1457a:	0405                	addi	s0,s0,1
   1457c:	47b2                	lw	a5,12(sp)
   1457e:	b755                	j	14522 <printk+0x368>
printk():
E:\16-24-BOOK\20-24-Machinery\22-24-CHB-20211026-20241126\06-User\AHL-CH573-EXP-V1.5-20241126\03-Software\CH07\GPIO-ASM-CH573\Debug/srcc/printf.c:548
				if (!IS_FLAG_MINUS(flags_used)) {
   14580:	00197793          	andi	a5,s2,1
   14584:	14079863          	bnez	a5,146d4 <printk+0x51a>
E:\16-24-BOOK\20-24-Machinery\22-24-CHB-20211026-20241126\06-User\AHL-CH573-EXP-V1.5-20241126\03-Software\CH07\GPIO-ASM-CH573\Debug/srcc/printf.c:549
					if (IS_FLAG_POUND(flags_used)) {
   14588:	000d0463          	beqz	s10,14590 <printk+0x3d6>
E:\16-24-BOOK\20-24-Machinery\22-24-CHB-20211026-20241126\06-User\AHL-CH573-EXP-V1.5-20241126\03-Software\CH07\GPIO-ASM-CH573\Debug/srcc/printf.c:550
						vlen += 2;
   1458c:	00250413          	addi	s0,a0,2
E:\16-24-BOOK\20-24-Machinery\22-24-CHB-20211026-20241126\06-User\AHL-CH573-EXP-V1.5-20241126\03-Software\CH07\GPIO-ASM-CH573\Debug/srcc/printf.c:552
					printk_pad_space(vlen, field_width, &count, info);
   14590:	86a6                	mv	a3,s1
   14592:	0850                	addi	a2,sp,20
   14594:	85ce                	mv	a1,s3
   14596:	8522                	mv	a0,s0
   14598:	00000097          	auipc	ra,0x0
   1459c:	964080e7          	jalr	-1692(ra) # 13efc <printk_pad_space>
E:\16-24-BOOK\20-24-Machinery\22-24-CHB-20211026-20241126\06-User\AHL-CH573-EXP-V1.5-20241126\03-Software\CH07\GPIO-ASM-CH573\Debug/srcc/printf.c:553
					if (IS_FLAG_POUND(flags_used)) {
   145a0:	fa0d08e3          	beqz	s10,14550 <printk+0x396>
E:\16-24-BOOK\20-24-Machinery\22-24-CHB-20211026-20241126\06-User\AHL-CH573-EXP-V1.5-20241126\03-Software\CH07\GPIO-ASM-CH573\Debug/srcc/printf.c:554
						printk_putc('0', &count, info);
   145a4:	8626                	mv	a2,s1
   145a6:	084c                	addi	a1,sp,20
   145a8:	03000513          	li	a0,48
   145ac:	00000097          	auipc	ra,0x0
   145b0:	89e080e7          	jalr	-1890(ra) # 13e4a <printk_putc>
E:\16-24-BOOK\20-24-Machinery\22-24-CHB-20211026-20241126\06-User\AHL-CH573-EXP-V1.5-20241126\03-Software\CH07\GPIO-ASM-CH573\Debug/srcc/printf.c:555
						printk_putc('x', &count, info);
   145b4:	8626                	mv	a2,s1
   145b6:	084c                	addi	a1,sp,20
   145b8:	07800513          	li	a0,120
   145bc:	b50d                	j	143de <printk+0x224>
E:\16-24-BOOK\20-24-Machinery\22-24-CHB-20211026-20241126\06-User\AHL-CH573-EXP-V1.5-20241126\03-Software\CH07\GPIO-ASM-CH573\Debug/srcc/printf.c:569
			uval = (unsigned int) va_arg1(ap, unsigned int);
   145be:	401c                	lw	a5,0(s0)
   145c0:	00440a93          	addi	s5,s0,4
E:\16-24-BOOK\20-24-Machinery\22-24-CHB-20211026-20241126\06-User\AHL-CH573-EXP-V1.5-20241126\03-Software\CH07\GPIO-ASM-CH573\Debug/srcc/printf.c:570
			vlen = printk_mknumstr(vstr, &uval, FALSE, 8);
   145c4:	46a1                	li	a3,8
E:\16-24-BOOK\20-24-Machinery\22-24-CHB-20211026-20241126\06-User\AHL-CH573-EXP-V1.5-20241126\03-Software\CH07\GPIO-ASM-CH573\Debug/srcc/printf.c:569
			uval = (unsigned int) va_arg1(ap, unsigned int);
   145c6:	ce3e                	sw	a5,28(sp)
E:\16-24-BOOK\20-24-Machinery\22-24-CHB-20211026-20241126\06-User\AHL-CH573-EXP-V1.5-20241126\03-Software\CH07\GPIO-ASM-CH573\Debug/srcc/printf.c:584
			vlen = printk_mknumstr(vstr, &uval, FALSE, 10);
   145c8:	4601                	li	a2,0
   145ca:	086c                	addi	a1,sp,28
   145cc:	1068                	addi	a0,sp,44
   145ce:	00000097          	auipc	ra,0x0
   145d2:	8bc080e7          	jalr	-1860(ra) # 13e8a <printk_mknumstr>
E:\16-24-BOOK\20-24-Machinery\22-24-CHB-20211026-20241126\06-User\AHL-CH573-EXP-V1.5-20241126\03-Software\CH07\GPIO-ASM-CH573\Debug/srcc/printf.c:586
			cont_u: vstrp = &vstr[vlen];
   145d6:	107c                	addi	a5,sp,44
   145d8:	00a78db3          	add	s11,a5,a0
E:\16-24-BOOK\20-24-Machinery\22-24-CHB-20211026-20241126\06-User\AHL-CH573-EXP-V1.5-20241126\03-Software\CH07\GPIO-ASM-CH573\Debug/srcc/printf.c:588
			if (IS_FLAG_ZERO(flags_used)) {
   145dc:	00897793          	andi	a5,s2,8
E:\16-24-BOOK\20-24-Machinery\22-24-CHB-20211026-20241126\06-User\AHL-CH573-EXP-V1.5-20241126\03-Software\CH07\GPIO-ASM-CH573\Debug/srcc/printf.c:584
			vlen = printk_mknumstr(vstr, &uval, FALSE, 10);
   145e0:	842a                	mv	s0,a0
E:\16-24-BOOK\20-24-Machinery\22-24-CHB-20211026-20241126\06-User\AHL-CH573-EXP-V1.5-20241126\03-Software\CH07\GPIO-ASM-CH573\Debug/srcc/printf.c:588
			if (IS_FLAG_ZERO(flags_used)) {
   145e2:	cf9d                	beqz	a5,14620 <printk+0x466>
printk_pad_zero():
E:\16-24-BOOK\20-24-Machinery\22-24-CHB-20211026-20241126\06-User\AHL-CH573-EXP-V1.5-20241126\03-Software\CH07\GPIO-ASM-CH573\Debug/srcc/printf.c:179
	for (i = curlen; i < field_width; i++) {
   145e4:	db3450e3          	bge	s0,s3,14384 <printk+0x1ca>
E:\16-24-BOOK\20-24-Machinery\22-24-CHB-20211026-20241126\06-User\AHL-CH573-EXP-V1.5-20241126\03-Software\CH07\GPIO-ASM-CH573\Debug/srcc/printf.c:180
		printk_putc('0', count, info);
   145e8:	8626                	mv	a2,s1
   145ea:	084c                	addi	a1,sp,20
   145ec:	03000513          	li	a0,48
   145f0:	00000097          	auipc	ra,0x0
   145f4:	85a080e7          	jalr	-1958(ra) # 13e4a <printk_putc>
E:\16-24-BOOK\20-24-Machinery\22-24-CHB-20211026-20241126\06-User\AHL-CH573-EXP-V1.5-20241126\03-Software\CH07\GPIO-ASM-CH573\Debug/srcc/printf.c:179
	for (i = curlen; i < field_width; i++) {
   145f8:	0405                	addi	s0,s0,1
   145fa:	b7ed                	j	145e4 <printk+0x42a>
printk():
E:\16-24-BOOK\20-24-Machinery\22-24-CHB-20211026-20241126\06-User\AHL-CH573-EXP-V1.5-20241126\03-Software\CH07\GPIO-ASM-CH573\Debug/srcc/printf.c:574
			uval = (unsigned int) va_arg1(ap, unsigned int);
   145fc:	401c                	lw	a5,0(s0)
   145fe:	00440a93          	addi	s5,s0,4
E:\16-24-BOOK\20-24-Machinery\22-24-CHB-20211026-20241126\06-User\AHL-CH573-EXP-V1.5-20241126\03-Software\CH07\GPIO-ASM-CH573\Debug/srcc/printf.c:575
			vlen = printk_mknumstr(vstr, &uval, FALSE, 2);
   14602:	4689                	li	a3,2
E:\16-24-BOOK\20-24-Machinery\22-24-CHB-20211026-20241126\06-User\AHL-CH573-EXP-V1.5-20241126\03-Software\CH07\GPIO-ASM-CH573\Debug/srcc/printf.c:574
			uval = (unsigned int) va_arg1(ap, unsigned int);
   14604:	ce3e                	sw	a5,28(sp)
E:\16-24-BOOK\20-24-Machinery\22-24-CHB-20211026-20241126\06-User\AHL-CH573-EXP-V1.5-20241126\03-Software\CH07\GPIO-ASM-CH573\Debug/srcc/printf.c:575
			vlen = printk_mknumstr(vstr, &uval, FALSE, 2);
   14606:	b7c9                	j	145c8 <printk+0x40e>
E:\16-24-BOOK\20-24-Machinery\22-24-CHB-20211026-20241126\06-User\AHL-CH573-EXP-V1.5-20241126\03-Software\CH07\GPIO-ASM-CH573\Debug/srcc/printf.c:579
			uval = (unsigned int) va_arg1(ap, void *);
   14608:	401c                	lw	a5,0(s0)
   1460a:	00440a93          	addi	s5,s0,4
E:\16-24-BOOK\20-24-Machinery\22-24-CHB-20211026-20241126\06-User\AHL-CH573-EXP-V1.5-20241126\03-Software\CH07\GPIO-ASM-CH573\Debug/srcc/printf.c:580
			vlen = printk_mknumstr(vstr, &uval, FALSE, 16);
   1460e:	46c1                	li	a3,16
E:\16-24-BOOK\20-24-Machinery\22-24-CHB-20211026-20241126\06-User\AHL-CH573-EXP-V1.5-20241126\03-Software\CH07\GPIO-ASM-CH573\Debug/srcc/printf.c:579
			uval = (unsigned int) va_arg1(ap, void *);
   14610:	ce3e                	sw	a5,28(sp)
E:\16-24-BOOK\20-24-Machinery\22-24-CHB-20211026-20241126\06-User\AHL-CH573-EXP-V1.5-20241126\03-Software\CH07\GPIO-ASM-CH573\Debug/srcc/printf.c:580
			vlen = printk_mknumstr(vstr, &uval, FALSE, 16);
   14612:	bf5d                	j	145c8 <printk+0x40e>
E:\16-24-BOOK\20-24-Machinery\22-24-CHB-20211026-20241126\06-User\AHL-CH573-EXP-V1.5-20241126\03-Software\CH07\GPIO-ASM-CH573\Debug/srcc/printf.c:583
			uval = (unsigned int) va_arg1(ap, unsigned int);
   14614:	401c                	lw	a5,0(s0)
   14616:	00440a93          	addi	s5,s0,4
E:\16-24-BOOK\20-24-Machinery\22-24-CHB-20211026-20241126\06-User\AHL-CH573-EXP-V1.5-20241126\03-Software\CH07\GPIO-ASM-CH573\Debug/srcc/printf.c:584
			vlen = printk_mknumstr(vstr, &uval, FALSE, 10);
   1461a:	46a9                	li	a3,10
E:\16-24-BOOK\20-24-Machinery\22-24-CHB-20211026-20241126\06-User\AHL-CH573-EXP-V1.5-20241126\03-Software\CH07\GPIO-ASM-CH573\Debug/srcc/printf.c:583
			uval = (unsigned int) va_arg1(ap, unsigned int);
   1461c:	ce3e                	sw	a5,28(sp)
E:\16-24-BOOK\20-24-Machinery\22-24-CHB-20211026-20241126\06-User\AHL-CH573-EXP-V1.5-20241126\03-Software\CH07\GPIO-ASM-CH573\Debug/srcc/printf.c:584
			vlen = printk_mknumstr(vstr, &uval, FALSE, 10);
   1461e:	b76d                	j	145c8 <printk+0x40e>
E:\16-24-BOOK\20-24-Machinery\22-24-CHB-20211026-20241126\06-User\AHL-CH573-EXP-V1.5-20241126\03-Software\CH07\GPIO-ASM-CH573\Debug/srcc/printf.c:592
				if (!IS_FLAG_MINUS(flags_used)) {
   14620:	00197793          	andi	a5,s2,1
   14624:	f795                	bnez	a5,14550 <printk+0x396>
E:\16-24-BOOK\20-24-Machinery\22-24-CHB-20211026-20241126\06-User\AHL-CH573-EXP-V1.5-20241126\03-Software\CH07\GPIO-ASM-CH573\Debug/srcc/printf.c:593
					printk_pad_space(vlen, field_width, &count, info);
   14626:	86a6                	mv	a3,s1
   14628:	0850                	addi	a2,sp,20
   1462a:	85ce                	mv	a1,s3
   1462c:	00000097          	auipc	ra,0x0
   14630:	8d0080e7          	jalr	-1840(ra) # 13efc <printk_pad_space>
   14634:	bf31                	j	14550 <printk+0x396>
E:\16-24-BOOK\20-24-Machinery\22-24-CHB-20211026-20241126\06-User\AHL-CH573-EXP-V1.5-20241126\03-Software\CH07\GPIO-ASM-CH573\Debug/srcc/printf.c:598
				printk_putc(*vstrp--, &count, info);
   14636:	1dfd                	addi	s11,s11,-1
   14638:	8626                	mv	a2,s1
   1463a:	084c                	addi	a1,sp,20
   1463c:	b34d                	j	143de <printk+0x224>
E:\16-24-BOOK\20-24-Machinery\22-24-CHB-20211026-20241126\06-User\AHL-CH573-EXP-V1.5-20241126\03-Software\CH07\GPIO-ASM-CH573\Debug/srcc/printf.c:608
			printk_putc(cval, &count, info);
   1463e:	00040503          	lb	a0,0(s0)
   14642:	8626                	mv	a2,s1
   14644:	084c                	addi	a1,sp,20
E:\16-24-BOOK\20-24-Machinery\22-24-CHB-20211026-20241126\06-User\AHL-CH573-EXP-V1.5-20241126\03-Software\CH07\GPIO-ASM-CH573\Debug/srcc/printf.c:607
			cval = (char) va_arg1(ap, unsigned int);
   14646:	00440a93          	addi	s5,s0,4
E:\16-24-BOOK\20-24-Machinery\22-24-CHB-20211026-20241126\06-User\AHL-CH573-EXP-V1.5-20241126\03-Software\CH07\GPIO-ASM-CH573\Debug/srcc/printf.c:608
			printk_putc(cval, &count, info);
   1464a:	00000097          	auipc	ra,0x0
   1464e:	800080e7          	jalr	-2048(ra) # 13e4a <printk_putc>
E:\16-24-BOOK\20-24-Machinery\22-24-CHB-20211026-20241126\06-User\AHL-CH573-EXP-V1.5-20241126\03-Software\CH07\GPIO-ASM-CH573\Debug/srcc/printf.c:609
			break;
   14652:	bda5                	j	144ca <printk+0x310>
E:\16-24-BOOK\20-24-Machinery\22-24-CHB-20211026-20241126\06-User\AHL-CH573-EXP-V1.5-20241126\03-Software\CH07\GPIO-ASM-CH573\Debug/srcc/printf.c:611
			sval = (char *) va_arg1(ap, char *);
   14654:	00440a93          	addi	s5,s0,4
   14658:	4000                	lw	s0,0(s0)
E:\16-24-BOOK\20-24-Machinery\22-24-CHB-20211026-20241126\06-User\AHL-CH573-EXP-V1.5-20241126\03-Software\CH07\GPIO-ASM-CH573\Debug/srcc/printf.c:612
			if (sval) {
   1465a:	e60408e3          	beqz	s0,144ca <printk+0x310>
E:\16-24-BOOK\20-24-Machinery\22-24-CHB-20211026-20241126\06-User\AHL-CH573-EXP-V1.5-20241126\03-Software\CH07\GPIO-ASM-CH573\Debug/srcc/printf.c:613
				vlen = strlen(sval);
   1465e:	8522                	mv	a0,s0
   14660:	00001097          	auipc	ra,0x1
   14664:	7ac080e7          	jalr	1964(ra) # 15e0c <strlen>
E:\16-24-BOOK\20-24-Machinery\22-24-CHB-20211026-20241126\06-User\AHL-CH573-EXP-V1.5-20241126\03-Software\CH07\GPIO-ASM-CH573\Debug/srcc/printf.c:614
				if (!IS_FLAG_MINUS(flags_used)) {
   14668:	00197913          	andi	s2,s2,1
E:\16-24-BOOK\20-24-Machinery\22-24-CHB-20211026-20241126\06-User\AHL-CH573-EXP-V1.5-20241126\03-Software\CH07\GPIO-ASM-CH573\Debug/srcc/printf.c:613
				vlen = strlen(sval);
   1466c:	8daa                	mv	s11,a0
E:\16-24-BOOK\20-24-Machinery\22-24-CHB-20211026-20241126\06-User\AHL-CH573-EXP-V1.5-20241126\03-Software\CH07\GPIO-ASM-CH573\Debug/srcc/printf.c:614
				if (!IS_FLAG_MINUS(flags_used)) {
   1466e:	00091963          	bnez	s2,14680 <printk+0x4c6>
E:\16-24-BOOK\20-24-Machinery\22-24-CHB-20211026-20241126\06-User\AHL-CH573-EXP-V1.5-20241126\03-Software\CH07\GPIO-ASM-CH573\Debug/srcc/printf.c:615
					printk_pad_space(vlen, field_width, &count, info);
   14672:	86a6                	mv	a3,s1
   14674:	0850                	addi	a2,sp,20
   14676:	85ce                	mv	a1,s3
   14678:	00000097          	auipc	ra,0x0
   1467c:	884080e7          	jalr	-1916(ra) # 13efc <printk_pad_space>
E:\16-24-BOOK\20-24-Machinery\22-24-CHB-20211026-20241126\06-User\AHL-CH573-EXP-V1.5-20241126\03-Software\CH07\GPIO-ASM-CH573\Debug/srcc/printf.c:617
				if(precision_width!=0)
   14680:	000d1d63          	bnez	s10,1469a <printk+0x4e0>
E:\16-24-BOOK\20-24-Machinery\22-24-CHB-20211026-20241126\06-User\AHL-CH573-EXP-V1.5-20241126\03-Software\CH07\GPIO-ASM-CH573\Debug/srcc/printf.c:628
					while (*sval)
   14684:	00040503          	lb	a0,0(s0)
   14688:	c515                	beqz	a0,146b4 <printk+0x4fa>
E:\16-24-BOOK\20-24-Machinery\22-24-CHB-20211026-20241126\06-User\AHL-CH573-EXP-V1.5-20241126\03-Software\CH07\GPIO-ASM-CH573\Debug/srcc/printf.c:629
					   printk_putc(*sval++, &count, info);
   1468a:	8626                	mv	a2,s1
   1468c:	084c                	addi	a1,sp,20
   1468e:	0405                	addi	s0,s0,1
   14690:	fffff097          	auipc	ra,0xfffff
   14694:	7ba080e7          	jalr	1978(ra) # 13e4a <printk_putc>
   14698:	b7f5                	j	14684 <printk+0x4ca>
   1469a:	9d22                	add	s10,s10,s0
E:\16-24-BOOK\20-24-Machinery\22-24-CHB-20211026-20241126\06-User\AHL-CH573-EXP-V1.5-20241126\03-Software\CH07\GPIO-ASM-CH573\Debug/srcc/printf.c:620 (discriminator 1)
					while (precision_width>=1&&*sval)
   1469c:	00040503          	lb	a0,0(s0)
   146a0:	c911                	beqz	a0,146b4 <printk+0x4fa>
E:\16-24-BOOK\20-24-Machinery\22-24-CHB-20211026-20241126\06-User\AHL-CH573-EXP-V1.5-20241126\03-Software\CH07\GPIO-ASM-CH573\Debug/srcc/printf.c:623
							printk_putc(*sval++, &count, info);					
   146a2:	0405                	addi	s0,s0,1
   146a4:	8626                	mv	a2,s1
   146a6:	084c                	addi	a1,sp,20
   146a8:	fffff097          	auipc	ra,0xfffff
   146ac:	7a2080e7          	jalr	1954(ra) # 13e4a <printk_putc>
E:\16-24-BOOK\20-24-Machinery\22-24-CHB-20211026-20241126\06-User\AHL-CH573-EXP-V1.5-20241126\03-Software\CH07\GPIO-ASM-CH573\Debug/srcc/printf.c:620
					while (precision_width>=1&&*sval)
   146b0:	fe8d16e3          	bne	s10,s0,1469c <printk+0x4e2>
E:\16-24-BOOK\20-24-Machinery\22-24-CHB-20211026-20241126\06-User\AHL-CH573-EXP-V1.5-20241126\03-Software\CH07\GPIO-ASM-CH573\Debug/srcc/printf.c:631
				if (IS_FLAG_MINUS(flags_used)) {
   146b4:	e0090be3          	beqz	s2,144ca <printk+0x310>
E:\16-24-BOOK\20-24-Machinery\22-24-CHB-20211026-20241126\06-User\AHL-CH573-EXP-V1.5-20241126\03-Software\CH07\GPIO-ASM-CH573\Debug/srcc/printf.c:632
					printk_pad_space(vlen, field_width, &count, info);
   146b8:	86a6                	mv	a3,s1
   146ba:	0850                	addi	a2,sp,20
   146bc:	85ce                	mv	a1,s3
   146be:	856e                	mv	a0,s11
   146c0:	b509                	j	144c2 <printk+0x308>
E:\16-24-BOOK\20-24-Machinery\22-24-CHB-20211026-20241126\06-User\AHL-CH573-EXP-V1.5-20241126\03-Software\CH07\GPIO-ASM-CH573\Debug/srcc/printf.c:638
			*ivalp = count;
   146c2:	401c                	lw	a5,0(s0)
   146c4:	4752                	lw	a4,20(sp)
E:\16-24-BOOK\20-24-Machinery\22-24-CHB-20211026-20241126\06-User\AHL-CH573-EXP-V1.5-20241126\03-Software\CH07\GPIO-ASM-CH573\Debug/srcc/printf.c:637
			ivalp = (int *) va_arg1(ap, int *);
   146c6:	00440a93          	addi	s5,s0,4
E:\16-24-BOOK\20-24-Machinery\22-24-CHB-20211026-20241126\06-User\AHL-CH573-EXP-V1.5-20241126\03-Software\CH07\GPIO-ASM-CH573\Debug/srcc/printf.c:638
			*ivalp = count;
   146ca:	c398                	sw	a4,0(a5)
E:\16-24-BOOK\20-24-Machinery\22-24-CHB-20211026-20241126\06-User\AHL-CH573-EXP-V1.5-20241126\03-Software\CH07\GPIO-ASM-CH573\Debug/srcc/printf.c:639
			break;
   146cc:	bbfd                	j	144ca <printk+0x310>
E:\16-24-BOOK\20-24-Machinery\22-24-CHB-20211026-20241126\06-User\AHL-CH573-EXP-V1.5-20241126\03-Software\CH07\GPIO-ASM-CH573\Debug/srcc/printf.c:642
			printk_putc(c, &count, info);
   146ce:	8626                	mv	a2,s1
   146d0:	084c                	addi	a1,sp,20
   146d2:	b69d                	j	14238 <printk+0x7e>
E:\16-24-BOOK\20-24-Machinery\22-24-CHB-20211026-20241126\06-User\AHL-CH573-EXP-V1.5-20241126\03-Software\CH07\GPIO-ASM-CH573\Debug/srcc/printf.c:561
			if ((IS_FLAG_POUND(flags_used)) && !dschar) {
   146d4:	e40d1de3          	bnez	s10,1452e <printk+0x374>
   146d8:	bda5                	j	14550 <printk+0x396>

000146da <myprintf>:
myprintf():
E:\16-24-BOOK\20-24-Machinery\22-24-CHB-20211026-20241126\06-User\AHL-CH573-EXP-V1.5-20241126\03-Software\CH07\GPIO-ASM-CH573\Debug/srcc/printf.c:656
//参数说明：const char *:打印参数字符串：对输入的字符串进行解析并按格式输出
//       例如： printf("c=%c\n",c); 将c按char型进行输出
//函数返回：字符串长度
//======================================================================
int myprintf(const char *fmt, ...)
{
   146da:	7139                	addi	sp,sp,-64
   146dc:	da3e                	sw	a5,52(sp)
E:\16-24-BOOK\20-24-Machinery\22-24-CHB-20211026-20241126\06-User\AHL-CH573-EXP-V1.5-20241126\03-Software\CH07\GPIO-ASM-CH573\Debug/srcc/printf.c:662
	//char * ap;
  va_list ap;
	char c;
	int rvalue;
	PRINTK_INFO info;
	info.dest = DEST_CONSOLE;  //宏定义为1
   146de:	4785                	li	a5,1
E:\16-24-BOOK\20-24-Machinery\22-24-CHB-20211026-20241126\06-User\AHL-CH573-EXP-V1.5-20241126\03-Software\CH07\GPIO-ASM-CH573\Debug/srcc/printf.c:656
{
   146e0:	d22e                	sw	a1,36(sp)
   146e2:	d432                	sw	a2,40(sp)
E:\16-24-BOOK\20-24-Machinery\22-24-CHB-20211026-20241126\06-User\AHL-CH573-EXP-V1.5-20241126\03-Software\CH07\GPIO-ASM-CH573\Debug/srcc/printf.c:662
	info.dest = DEST_CONSOLE;  //宏定义为1
   146e4:	c23e                	sw	a5,4(sp)
E:\16-24-BOOK\20-24-Machinery\22-24-CHB-20211026-20241126\06-User\AHL-CH573-EXP-V1.5-20241126\03-Software\CH07\GPIO-ASM-CH573\Debug/srcc/printf.c:664
	info.func = &out_char;     //调用的串口输出函数
	va_start(ap, fmt);  //对ap 进行初始化，让它指向可变参数表里面的第一个参数
   146e6:	1050                	addi	a2,sp,36
E:\16-24-BOOK\20-24-Machinery\22-24-CHB-20211026-20241126\06-User\AHL-CH573-EXP-V1.5-20241126\03-Software\CH07\GPIO-ASM-CH573\Debug/srcc/printf.c:663
	info.func = &out_char;     //调用的串口输出函数
   146e8:	00000797          	auipc	a5,0x0
   146ec:	84c78793          	addi	a5,a5,-1972 # 13f34 <out_char>
E:\16-24-BOOK\20-24-Machinery\22-24-CHB-20211026-20241126\06-User\AHL-CH573-EXP-V1.5-20241126\03-Software\CH07\GPIO-ASM-CH573\Debug/srcc/printf.c:665
	rvalue = printk(&info, fmt, ap);
   146f0:	85aa                	mv	a1,a0
   146f2:	0048                	addi	a0,sp,4
E:\16-24-BOOK\20-24-Machinery\22-24-CHB-20211026-20241126\06-User\AHL-CH573-EXP-V1.5-20241126\03-Software\CH07\GPIO-ASM-CH573\Debug/srcc/printf.c:656
{
   146f4:	ce06                	sw	ra,28(sp)
   146f6:	d636                	sw	a3,44(sp)
   146f8:	d83a                	sw	a4,48(sp)
   146fa:	dc42                	sw	a6,56(sp)
   146fc:	de46                	sw	a7,60(sp)
E:\16-24-BOOK\20-24-Machinery\22-24-CHB-20211026-20241126\06-User\AHL-CH573-EXP-V1.5-20241126\03-Software\CH07\GPIO-ASM-CH573\Debug/srcc/printf.c:663
	info.func = &out_char;     //调用的串口输出函数
   146fe:	c43e                	sw	a5,8(sp)
E:\16-24-BOOK\20-24-Machinery\22-24-CHB-20211026-20241126\06-User\AHL-CH573-EXP-V1.5-20241126\03-Software\CH07\GPIO-ASM-CH573\Debug/srcc/printf.c:664
	va_start(ap, fmt);  //对ap 进行初始化，让它指向可变参数表里面的第一个参数
   14700:	c032                	sw	a2,0(sp)
E:\16-24-BOOK\20-24-Machinery\22-24-CHB-20211026-20241126\06-User\AHL-CH573-EXP-V1.5-20241126\03-Software\CH07\GPIO-ASM-CH573\Debug/srcc/printf.c:665
	rvalue = printk(&info, fmt, ap);
   14702:	00000097          	auipc	ra,0x0
   14706:	ab8080e7          	jalr	-1352(ra) # 141ba <printk>
E:\16-24-BOOK\20-24-Machinery\22-24-CHB-20211026-20241126\06-User\AHL-CH573-EXP-V1.5-20241126\03-Software\CH07\GPIO-ASM-CH573\Debug/srcc/printf.c:670
    
	va_end(ap);

	return rvalue;
}
   1470a:	40f2                	lw	ra,28(sp)
   1470c:	6121                	addi	sp,sp,64
   1470e:	8082                	ret

00014710 <__udivdi3>:
__udivdi3():
   14710:	87b6                	mv	a5,a3
   14712:	88b2                	mv	a7,a2
   14714:	832a                	mv	t1,a0
   14716:	882e                	mv	a6,a1
   14718:	14069d63          	bnez	a3,14872 <__udivdi3+0x162>
   1471c:	0ac5f963          	bgeu	a1,a2,147ce <__udivdi3+0xbe>
   14720:	6741                	lui	a4,0x10
   14722:	1ae66e63          	bltu	a2,a4,148de <__udivdi3+0x1ce>
   14726:	010007b7          	lui	a5,0x1000
   1472a:	34f66363          	bltu	a2,a5,14a70 <__udivdi3+0x360>
   1472e:	01865693          	srli	a3,a2,0x18
   14732:	47e1                	li	a5,24
   14734:	00001717          	auipc	a4,0x1
   14738:	7f470713          	addi	a4,a4,2036 # 15f28 <__clz_tab>
   1473c:	9736                	add	a4,a4,a3
   1473e:	00074703          	lbu	a4,0(a4)
   14742:	97ba                	add	a5,a5,a4
   14744:	02000713          	li	a4,32
   14748:	8f1d                	sub	a4,a4,a5
   1474a:	cb19                	beqz	a4,14760 <__udivdi3+0x50>
   1474c:	00e59833          	sll	a6,a1,a4
   14750:	00f557b3          	srl	a5,a0,a5
   14754:	00e618b3          	sll	a7,a2,a4
   14758:	0107e833          	or	a6,a5,a6
   1475c:	00e51333          	sll	t1,a0,a4
   14760:	0108d613          	srli	a2,a7,0x10
   14764:	02c85533          	divu	a0,a6,a2
   14768:	01089693          	slli	a3,a7,0x10
   1476c:	82c1                	srli	a3,a3,0x10
   1476e:	01035793          	srli	a5,t1,0x10
   14772:	02c87733          	remu	a4,a6,a2
   14776:	02a685b3          	mul	a1,a3,a0
   1477a:	0742                	slli	a4,a4,0x10
   1477c:	00f76833          	or	a6,a4,a5
   14780:	00b87a63          	bgeu	a6,a1,14794 <__udivdi3+0x84>
   14784:	9846                	add	a6,a6,a7
   14786:	fff50793          	addi	a5,a0,-1
   1478a:	01186463          	bltu	a6,a7,14792 <__udivdi3+0x82>
   1478e:	30b86763          	bltu	a6,a1,14a9c <__udivdi3+0x38c>
   14792:	853e                	mv	a0,a5
   14794:	40b80833          	sub	a6,a6,a1
   14798:	02c85733          	divu	a4,a6,a2
   1479c:	0342                	slli	t1,t1,0x10
   1479e:	01035313          	srli	t1,t1,0x10
   147a2:	02c87833          	remu	a6,a6,a2
   147a6:	02e686b3          	mul	a3,a3,a4
   147aa:	0842                	slli	a6,a6,0x10
   147ac:	00686833          	or	a6,a6,t1
   147b0:	00d87b63          	bgeu	a6,a3,147c6 <__udivdi3+0xb6>
   147b4:	9846                	add	a6,a6,a7
   147b6:	fff70793          	addi	a5,a4,-1
   147ba:	01186563          	bltu	a6,a7,147c4 <__udivdi3+0xb4>
   147be:	1779                	addi	a4,a4,-2
   147c0:	00d86363          	bltu	a6,a3,147c6 <__udivdi3+0xb6>
   147c4:	873e                	mv	a4,a5
   147c6:	0542                	slli	a0,a0,0x10
   147c8:	8d59                	or	a0,a0,a4
   147ca:	4581                	li	a1,0
   147cc:	8082                	ret
   147ce:	e601                	bnez	a2,147d6 <__udivdi3+0xc6>
   147d0:	4705                	li	a4,1
   147d2:	02c758b3          	divu	a7,a4,a2
   147d6:	6741                	lui	a4,0x10
   147d8:	0ee8ea63          	bltu	a7,a4,148cc <__udivdi3+0x1bc>
   147dc:	010007b7          	lui	a5,0x1000
   147e0:	28f8ec63          	bltu	a7,a5,14a78 <__udivdi3+0x368>
   147e4:	0188d693          	srli	a3,a7,0x18
   147e8:	47e1                	li	a5,24
   147ea:	00001717          	auipc	a4,0x1
   147ee:	73e70713          	addi	a4,a4,1854 # 15f28 <__clz_tab>
   147f2:	9736                	add	a4,a4,a3
   147f4:	00074683          	lbu	a3,0(a4)
   147f8:	96be                	add	a3,a3,a5
   147fa:	02000793          	li	a5,32
   147fe:	8f95                	sub	a5,a5,a3
   14800:	ebe5                	bnez	a5,148f0 <__udivdi3+0x1e0>
   14802:	01089e93          	slli	t4,a7,0x10
   14806:	41158733          	sub	a4,a1,a7
   1480a:	0108df13          	srli	t5,a7,0x10
   1480e:	010ede93          	srli	t4,t4,0x10
   14812:	4585                	li	a1,1
   14814:	01035793          	srli	a5,t1,0x10
   14818:	03e75533          	divu	a0,a4,t5
   1481c:	03e77733          	remu	a4,a4,t5
   14820:	03d506b3          	mul	a3,a0,t4
   14824:	0742                	slli	a4,a4,0x10
   14826:	8fd9                	or	a5,a5,a4
   14828:	00d7fa63          	bgeu	a5,a3,1483c <__udivdi3+0x12c>
   1482c:	97c6                	add	a5,a5,a7
   1482e:	fff50713          	addi	a4,a0,-1
   14832:	0117e463          	bltu	a5,a7,1483a <__udivdi3+0x12a>
   14836:	26d7e663          	bltu	a5,a3,14aa2 <__udivdi3+0x392>
   1483a:	853a                	mv	a0,a4
   1483c:	8f95                	sub	a5,a5,a3
   1483e:	03e7d733          	divu	a4,a5,t5
   14842:	0342                	slli	t1,t1,0x10
   14844:	01035313          	srli	t1,t1,0x10
   14848:	03e7f7b3          	remu	a5,a5,t5
   1484c:	03d70eb3          	mul	t4,a4,t4
   14850:	07c2                	slli	a5,a5,0x10
   14852:	0067e7b3          	or	a5,a5,t1
   14856:	01d7fb63          	bgeu	a5,t4,1486c <__udivdi3+0x15c>
   1485a:	97c6                	add	a5,a5,a7
   1485c:	fff70693          	addi	a3,a4,-1
   14860:	0117e563          	bltu	a5,a7,1486a <__udivdi3+0x15a>
   14864:	1779                	addi	a4,a4,-2
   14866:	01d7e363          	bltu	a5,t4,1486c <__udivdi3+0x15c>
   1486a:	8736                	mv	a4,a3
   1486c:	0542                	slli	a0,a0,0x10
   1486e:	8d59                	or	a0,a0,a4
   14870:	8082                	ret
   14872:	04d5e263          	bltu	a1,a3,148b6 <__udivdi3+0x1a6>
   14876:	67c1                	lui	a5,0x10
   14878:	04f6e263          	bltu	a3,a5,148bc <__udivdi3+0x1ac>
   1487c:	010007b7          	lui	a5,0x1000
   14880:	1ef6e463          	bltu	a3,a5,14a68 <__udivdi3+0x358>
   14884:	0186d713          	srli	a4,a3,0x18
   14888:	4861                	li	a6,24
   1488a:	00001797          	auipc	a5,0x1
   1488e:	69e78793          	addi	a5,a5,1694 # 15f28 <__clz_tab>
   14892:	97ba                	add	a5,a5,a4
   14894:	0007c703          	lbu	a4,0(a5)
   14898:	02000e13          	li	t3,32
   1489c:	9742                	add	a4,a4,a6
   1489e:	40ee0e33          	sub	t3,t3,a4
   148a2:	0c0e1a63          	bnez	t3,14976 <__udivdi3+0x266>
   148a6:	1cb6ed63          	bltu	a3,a1,14a80 <__udivdi3+0x370>
   148aa:	00c53533          	sltu	a0,a0,a2
   148ae:	00154513          	xori	a0,a0,1
   148b2:	4581                	li	a1,0
   148b4:	8082                	ret
   148b6:	4581                	li	a1,0
   148b8:	4501                	li	a0,0
   148ba:	8082                	ret
   148bc:	0ff00793          	li	a5,255
   148c0:	1cd7f363          	bgeu	a5,a3,14a86 <__udivdi3+0x376>
   148c4:	0086d713          	srli	a4,a3,0x8
   148c8:	4821                	li	a6,8
   148ca:	b7c1                	j	1488a <__udivdi3+0x17a>
   148cc:	0ff00713          	li	a4,255
   148d0:	86c6                	mv	a3,a7
   148d2:	f1177ce3          	bgeu	a4,a7,147ea <__udivdi3+0xda>
   148d6:	0088d693          	srli	a3,a7,0x8
   148da:	47a1                	li	a5,8
   148dc:	b739                	j	147ea <__udivdi3+0xda>
   148de:	0ff00713          	li	a4,255
   148e2:	86b2                	mv	a3,a2
   148e4:	e4c778e3          	bgeu	a4,a2,14734 <__udivdi3+0x24>
   148e8:	00865693          	srli	a3,a2,0x8
   148ec:	47a1                	li	a5,8
   148ee:	b599                	j	14734 <__udivdi3+0x24>
   148f0:	00f898b3          	sll	a7,a7,a5
   148f4:	00d5d633          	srl	a2,a1,a3
   148f8:	0108df13          	srli	t5,a7,0x10
   148fc:	03e65e33          	divu	t3,a2,t5
   14900:	00f59733          	sll	a4,a1,a5
   14904:	00d556b3          	srl	a3,a0,a3
   14908:	8f55                	or	a4,a4,a3
   1490a:	01089e93          	slli	t4,a7,0x10
   1490e:	010ede93          	srli	t4,t4,0x10
   14912:	00f51333          	sll	t1,a0,a5
   14916:	01075593          	srli	a1,a4,0x10
   1491a:	03e676b3          	remu	a3,a2,t5
   1491e:	03ce87b3          	mul	a5,t4,t3
   14922:	06c2                	slli	a3,a3,0x10
   14924:	8ecd                	or	a3,a3,a1
   14926:	00f6fb63          	bgeu	a3,a5,1493c <__udivdi3+0x22c>
   1492a:	96c6                	add	a3,a3,a7
   1492c:	fffe0613          	addi	a2,t3,-1
   14930:	1716e463          	bltu	a3,a7,14a98 <__udivdi3+0x388>
   14934:	16f6f263          	bgeu	a3,a5,14a98 <__udivdi3+0x388>
   14938:	1e79                	addi	t3,t3,-2
   1493a:	96c6                	add	a3,a3,a7
   1493c:	8e9d                	sub	a3,a3,a5
   1493e:	03e6d633          	divu	a2,a3,t5
   14942:	01071793          	slli	a5,a4,0x10
   14946:	83c1                	srli	a5,a5,0x10
   14948:	03e6f6b3          	remu	a3,a3,t5
   1494c:	02ce8533          	mul	a0,t4,a2
   14950:	01069713          	slli	a4,a3,0x10
   14954:	8f5d                	or	a4,a4,a5
   14956:	00a77b63          	bgeu	a4,a0,1496c <__udivdi3+0x25c>
   1495a:	9746                	add	a4,a4,a7
   1495c:	fff60793          	addi	a5,a2,-1
   14960:	13176863          	bltu	a4,a7,14a90 <__udivdi3+0x380>
   14964:	12a77663          	bgeu	a4,a0,14a90 <__udivdi3+0x380>
   14968:	1679                	addi	a2,a2,-2
   1496a:	9746                	add	a4,a4,a7
   1496c:	010e1593          	slli	a1,t3,0x10
   14970:	8f09                	sub	a4,a4,a0
   14972:	8dd1                	or	a1,a1,a2
   14974:	b545                	j	14814 <__udivdi3+0x104>
   14976:	00e657b3          	srl	a5,a2,a4
   1497a:	01c696b3          	sll	a3,a3,t3
   1497e:	8edd                	or	a3,a3,a5
   14980:	00e5d333          	srl	t1,a1,a4
   14984:	0106df13          	srli	t5,a3,0x10
   14988:	03e357b3          	divu	a5,t1,t5
   1498c:	01069e93          	slli	t4,a3,0x10
   14990:	010ede93          	srli	t4,t4,0x10
   14994:	01c59833          	sll	a6,a1,t3
   14998:	00e55733          	srl	a4,a0,a4
   1499c:	01076833          	or	a6,a4,a6
   149a0:	01085893          	srli	a7,a6,0x10
   149a4:	01c61633          	sll	a2,a2,t3
   149a8:	03e37333          	remu	t1,t1,t5
   149ac:	02fe85b3          	mul	a1,t4,a5
   149b0:	0342                	slli	t1,t1,0x10
   149b2:	011368b3          	or	a7,t1,a7
   149b6:	00b8fb63          	bgeu	a7,a1,149cc <__udivdi3+0x2bc>
   149ba:	98b6                	add	a7,a7,a3
   149bc:	fff78713          	addi	a4,a5,-1
   149c0:	0cd8ea63          	bltu	a7,a3,14a94 <__udivdi3+0x384>
   149c4:	0cb8f863          	bgeu	a7,a1,14a94 <__udivdi3+0x384>
   149c8:	17f9                	addi	a5,a5,-2
   149ca:	98b6                	add	a7,a7,a3
   149cc:	40b888b3          	sub	a7,a7,a1
   149d0:	03e8d733          	divu	a4,a7,t5
   149d4:	0842                	slli	a6,a6,0x10
   149d6:	01085813          	srli	a6,a6,0x10
   149da:	03e8f8b3          	remu	a7,a7,t5
   149de:	02ee8333          	mul	t1,t4,a4
   149e2:	08c2                	slli	a7,a7,0x10
   149e4:	0108e5b3          	or	a1,a7,a6
   149e8:	0065fb63          	bgeu	a1,t1,149fe <__udivdi3+0x2ee>
   149ec:	95b6                	add	a1,a1,a3
   149ee:	fff70813          	addi	a6,a4,-1
   149f2:	08d5ed63          	bltu	a1,a3,14a8c <__udivdi3+0x37c>
   149f6:	0865fb63          	bgeu	a1,t1,14a8c <__udivdi3+0x37c>
   149fa:	1779                	addi	a4,a4,-2
   149fc:	95b6                	add	a1,a1,a3
   149fe:	07c2                	slli	a5,a5,0x10
   14a00:	6f41                	lui	t5,0x10
   14a02:	8fd9                	or	a5,a5,a4
   14a04:	ffff0713          	addi	a4,t5,-1 # ffff <MCU_SECTORSIZE+0xefff>
   14a08:	00e7f6b3          	and	a3,a5,a4
   14a0c:	0107d893          	srli	a7,a5,0x10
   14a10:	8f71                	and	a4,a4,a2
   14a12:	8241                	srli	a2,a2,0x10
   14a14:	02e68eb3          	mul	t4,a3,a4
   14a18:	406585b3          	sub	a1,a1,t1
   14a1c:	02c686b3          	mul	a3,a3,a2
   14a20:	010ed813          	srli	a6,t4,0x10
   14a24:	02e88733          	mul	a4,a7,a4
   14a28:	96ba                	add	a3,a3,a4
   14a2a:	96c2                	add	a3,a3,a6
   14a2c:	02c88633          	mul	a2,a7,a2
   14a30:	00e6f363          	bgeu	a3,a4,14a36 <__udivdi3+0x326>
   14a34:	967a                	add	a2,a2,t5
   14a36:	0106d893          	srli	a7,a3,0x10
   14a3a:	9646                	add	a2,a2,a7
   14a3c:	02c5e263          	bltu	a1,a2,14a60 <__udivdi3+0x350>
   14a40:	00c58563          	beq	a1,a2,14a4a <__udivdi3+0x33a>
   14a44:	853e                	mv	a0,a5
   14a46:	4581                	li	a1,0
   14a48:	8082                	ret
   14a4a:	6741                	lui	a4,0x10
   14a4c:	177d                	addi	a4,a4,-1
   14a4e:	8ef9                	and	a3,a3,a4
   14a50:	06c2                	slli	a3,a3,0x10
   14a52:	00eefeb3          	and	t4,t4,a4
   14a56:	01c51533          	sll	a0,a0,t3
   14a5a:	96f6                	add	a3,a3,t4
   14a5c:	fed574e3          	bgeu	a0,a3,14a44 <__udivdi3+0x334>
   14a60:	fff78513          	addi	a0,a5,-1
   14a64:	4581                	li	a1,0
   14a66:	8082                	ret
   14a68:	0106d713          	srli	a4,a3,0x10
   14a6c:	4841                	li	a6,16
   14a6e:	bd31                	j	1488a <__udivdi3+0x17a>
   14a70:	01065693          	srli	a3,a2,0x10
   14a74:	47c1                	li	a5,16
   14a76:	b97d                	j	14734 <__udivdi3+0x24>
   14a78:	0108d693          	srli	a3,a7,0x10
   14a7c:	47c1                	li	a5,16
   14a7e:	b3b5                	j	147ea <__udivdi3+0xda>
   14a80:	4581                	li	a1,0
   14a82:	4505                	li	a0,1
   14a84:	8082                	ret
   14a86:	8736                	mv	a4,a3
   14a88:	4801                	li	a6,0
   14a8a:	b501                	j	1488a <__udivdi3+0x17a>
   14a8c:	8742                	mv	a4,a6
   14a8e:	bf85                	j	149fe <__udivdi3+0x2ee>
   14a90:	863e                	mv	a2,a5
   14a92:	bde9                	j	1496c <__udivdi3+0x25c>
   14a94:	87ba                	mv	a5,a4
   14a96:	bf1d                	j	149cc <__udivdi3+0x2bc>
   14a98:	8e32                	mv	t3,a2
   14a9a:	b54d                	j	1493c <__udivdi3+0x22c>
   14a9c:	1579                	addi	a0,a0,-2
   14a9e:	9846                	add	a6,a6,a7
   14aa0:	b9d5                	j	14794 <__udivdi3+0x84>
   14aa2:	1579                	addi	a0,a0,-2
   14aa4:	97c6                	add	a5,a5,a7
   14aa6:	bb59                	j	1483c <__udivdi3+0x12c>

00014aa8 <__umoddi3>:
__umoddi3():
   14aa8:	87b6                	mv	a5,a3
   14aaa:	8832                	mv	a6,a2
   14aac:	832a                	mv	t1,a0
   14aae:	872e                	mv	a4,a1
   14ab0:	8e2e                	mv	t3,a1
   14ab2:	14069363          	bnez	a3,14bf8 <__umoddi3+0x150>
   14ab6:	0ac5f163          	bgeu	a1,a2,14b58 <__umoddi3+0xb0>
   14aba:	6741                	lui	a4,0x10
   14abc:	1ae67863          	bgeu	a2,a4,14c6c <__umoddi3+0x1c4>
   14ac0:	0ff00713          	li	a4,255
   14ac4:	86b2                	mv	a3,a2
   14ac6:	00c77563          	bgeu	a4,a2,14ad0 <__umoddi3+0x28>
   14aca:	00865693          	srli	a3,a2,0x8
   14ace:	47a1                	li	a5,8
   14ad0:	00001717          	auipc	a4,0x1
   14ad4:	45870713          	addi	a4,a4,1112 # 15f28 <__clz_tab>
   14ad8:	9736                	add	a4,a4,a3
   14ada:	00074703          	lbu	a4,0(a4)
   14ade:	02000893          	li	a7,32
   14ae2:	97ba                	add	a5,a5,a4
   14ae4:	40f888b3          	sub	a7,a7,a5
   14ae8:	00088c63          	beqz	a7,14b00 <__umoddi3+0x58>
   14aec:	011595b3          	sll	a1,a1,a7
   14af0:	00f557b3          	srl	a5,a0,a5
   14af4:	01161833          	sll	a6,a2,a7
   14af8:	00b7ee33          	or	t3,a5,a1
   14afc:	01151333          	sll	t1,a0,a7
   14b00:	01085613          	srli	a2,a6,0x10
   14b04:	02ce57b3          	divu	a5,t3,a2
   14b08:	01081513          	slli	a0,a6,0x10
   14b0c:	8141                	srli	a0,a0,0x10
   14b0e:	01035693          	srli	a3,t1,0x10
   14b12:	02ce7e33          	remu	t3,t3,a2
   14b16:	02f507b3          	mul	a5,a0,a5
   14b1a:	0e42                	slli	t3,t3,0x10
   14b1c:	00de6733          	or	a4,t3,a3
   14b20:	00f77863          	bgeu	a4,a5,14b30 <__umoddi3+0x88>
   14b24:	9742                	add	a4,a4,a6
   14b26:	01076563          	bltu	a4,a6,14b30 <__umoddi3+0x88>
   14b2a:	00f77363          	bgeu	a4,a5,14b30 <__umoddi3+0x88>
   14b2e:	9742                	add	a4,a4,a6
   14b30:	8f1d                	sub	a4,a4,a5
   14b32:	02c756b3          	divu	a3,a4,a2
   14b36:	01031793          	slli	a5,t1,0x10
   14b3a:	83c1                	srli	a5,a5,0x10
   14b3c:	02c77733          	remu	a4,a4,a2
   14b40:	02d50533          	mul	a0,a0,a3
   14b44:	0742                	slli	a4,a4,0x10
   14b46:	8fd9                	or	a5,a5,a4
   14b48:	08a7ec63          	bltu	a5,a0,14be0 <__umoddi3+0x138>
   14b4c:	40a78533          	sub	a0,a5,a0
   14b50:	01155533          	srl	a0,a0,a7
   14b54:	4581                	li	a1,0
   14b56:	8082                	ret
   14b58:	e601                	bnez	a2,14b60 <__umoddi3+0xb8>
   14b5a:	4705                	li	a4,1
   14b5c:	02c75833          	divu	a6,a4,a2
   14b60:	6741                	lui	a4,0x10
   14b62:	0ee86c63          	bltu	a6,a4,14c5a <__umoddi3+0x1b2>
   14b66:	010007b7          	lui	a5,0x1000
   14b6a:	2af86563          	bltu	a6,a5,14e14 <__umoddi3+0x36c>
   14b6e:	01885693          	srli	a3,a6,0x18
   14b72:	47e1                	li	a5,24
   14b74:	00001717          	auipc	a4,0x1
   14b78:	3b470713          	addi	a4,a4,948 # 15f28 <__clz_tab>
   14b7c:	9736                	add	a4,a4,a3
   14b7e:	00074703          	lbu	a4,0(a4)
   14b82:	02000893          	li	a7,32
   14b86:	97ba                	add	a5,a5,a4
   14b88:	40f888b3          	sub	a7,a7,a5
   14b8c:	1e089a63          	bnez	a7,14d80 <__umoddi3+0x2d8>
   14b90:	01081e13          	slli	t3,a6,0x10
   14b94:	410585b3          	sub	a1,a1,a6
   14b98:	01085613          	srli	a2,a6,0x10
   14b9c:	010e5e13          	srli	t3,t3,0x10
   14ba0:	01035713          	srli	a4,t1,0x10
   14ba4:	02c5d6b3          	divu	a3,a1,a2
   14ba8:	02c5f5b3          	remu	a1,a1,a2
   14bac:	03c686b3          	mul	a3,a3,t3
   14bb0:	05c2                	slli	a1,a1,0x10
   14bb2:	8f4d                	or	a4,a4,a1
   14bb4:	00d77763          	bgeu	a4,a3,14bc2 <__umoddi3+0x11a>
   14bb8:	9742                	add	a4,a4,a6
   14bba:	01076463          	bltu	a4,a6,14bc2 <__umoddi3+0x11a>
   14bbe:	26d76a63          	bltu	a4,a3,14e32 <__umoddi3+0x38a>
   14bc2:	8f15                	sub	a4,a4,a3
   14bc4:	02c75533          	divu	a0,a4,a2
   14bc8:	0342                	slli	t1,t1,0x10
   14bca:	01035313          	srli	t1,t1,0x10
   14bce:	02c77733          	remu	a4,a4,a2
   14bd2:	03c50533          	mul	a0,a0,t3
   14bd6:	0742                	slli	a4,a4,0x10
   14bd8:	006767b3          	or	a5,a4,t1
   14bdc:	00a7f863          	bgeu	a5,a0,14bec <__umoddi3+0x144>
   14be0:	97c2                	add	a5,a5,a6
   14be2:	0107e563          	bltu	a5,a6,14bec <__umoddi3+0x144>
   14be6:	00a7f363          	bgeu	a5,a0,14bec <__umoddi3+0x144>
   14bea:	97c2                	add	a5,a5,a6
   14bec:	40a78533          	sub	a0,a5,a0
   14bf0:	01155533          	srl	a0,a0,a7
   14bf4:	4581                	li	a1,0
   14bf6:	8082                	ret
   14bf8:	882a                	mv	a6,a0
   14bfa:	f4d5eee3          	bltu	a1,a3,14b56 <__umoddi3+0xae>
   14bfe:	67c1                	lui	a5,0x10
   14c00:	04f6e563          	bltu	a3,a5,14c4a <__umoddi3+0x1a2>
   14c04:	010007b7          	lui	a5,0x1000
   14c08:	20f6e263          	bltu	a3,a5,14e0c <__umoddi3+0x364>
   14c0c:	0186d313          	srli	t1,a3,0x18
   14c10:	48e1                	li	a7,24
   14c12:	00001797          	auipc	a5,0x1
   14c16:	31678793          	addi	a5,a5,790 # 15f28 <__clz_tab>
   14c1a:	979a                	add	a5,a5,t1
   14c1c:	0007ce03          	lbu	t3,0(a5)
   14c20:	02000313          	li	t1,32
   14c24:	9e46                	add	t3,t3,a7
   14c26:	41c30333          	sub	t1,t1,t3
   14c2a:	04031963          	bnez	t1,14c7c <__umoddi3+0x1d4>
   14c2e:	00b6e463          	bltu	a3,a1,14c36 <__umoddi3+0x18e>
   14c32:	00c56963          	bltu	a0,a2,14c44 <__umoddi3+0x19c>
   14c36:	40c50833          	sub	a6,a0,a2
   14c3a:	8d95                	sub	a1,a1,a3
   14c3c:	01053733          	sltu	a4,a0,a6
   14c40:	40e58733          	sub	a4,a1,a4
   14c44:	8542                	mv	a0,a6
   14c46:	85ba                	mv	a1,a4
   14c48:	8082                	ret
   14c4a:	0ff00793          	li	a5,255
   14c4e:	1cd7fb63          	bgeu	a5,a3,14e24 <__umoddi3+0x37c>
   14c52:	0086d313          	srli	t1,a3,0x8
   14c56:	48a1                	li	a7,8
   14c58:	bf6d                	j	14c12 <__umoddi3+0x16a>
   14c5a:	0ff00713          	li	a4,255
   14c5e:	86c2                	mv	a3,a6
   14c60:	f1077ae3          	bgeu	a4,a6,14b74 <__umoddi3+0xcc>
   14c64:	00885693          	srli	a3,a6,0x8
   14c68:	47a1                	li	a5,8
   14c6a:	b729                	j	14b74 <__umoddi3+0xcc>
   14c6c:	010007b7          	lui	a5,0x1000
   14c70:	1af66663          	bltu	a2,a5,14e1c <__umoddi3+0x374>
   14c74:	01865693          	srli	a3,a2,0x18
   14c78:	47e1                	li	a5,24
   14c7a:	bd99                	j	14ad0 <__umoddi3+0x28>
   14c7c:	01c657b3          	srl	a5,a2,t3
   14c80:	006696b3          	sll	a3,a3,t1
   14c84:	8edd                	or	a3,a3,a5
   14c86:	01c5d8b3          	srl	a7,a1,t3
   14c8a:	0106d713          	srli	a4,a3,0x10
   14c8e:	02e8deb3          	divu	t4,a7,a4
   14c92:	01069f13          	slli	t5,a3,0x10
   14c96:	01c557b3          	srl	a5,a0,t3
   14c9a:	010f5f13          	srli	t5,t5,0x10
   14c9e:	006595b3          	sll	a1,a1,t1
   14ca2:	8ddd                	or	a1,a1,a5
   14ca4:	0105d813          	srli	a6,a1,0x10
   14ca8:	00661633          	sll	a2,a2,t1
   14cac:	00651533          	sll	a0,a0,t1
   14cb0:	02e8f8b3          	remu	a7,a7,a4
   14cb4:	03df07b3          	mul	a5,t5,t4
   14cb8:	08c2                	slli	a7,a7,0x10
   14cba:	0108e833          	or	a6,a7,a6
   14cbe:	00f87b63          	bgeu	a6,a5,14cd4 <__umoddi3+0x22c>
   14cc2:	9836                	add	a6,a6,a3
   14cc4:	fffe8893          	addi	a7,t4,-1
   14cc8:	16d86363          	bltu	a6,a3,14e2e <__umoddi3+0x386>
   14ccc:	16f87163          	bgeu	a6,a5,14e2e <__umoddi3+0x386>
   14cd0:	1ef9                	addi	t4,t4,-2
   14cd2:	9836                	add	a6,a6,a3
   14cd4:	40f80833          	sub	a6,a6,a5
   14cd8:	02e857b3          	divu	a5,a6,a4
   14cdc:	05c2                	slli	a1,a1,0x10
   14cde:	81c1                	srli	a1,a1,0x10
   14ce0:	02e87833          	remu	a6,a6,a4
   14ce4:	02ff0f33          	mul	t5,t5,a5
   14ce8:	01081713          	slli	a4,a6,0x10
   14cec:	8f4d                	or	a4,a4,a1
   14cee:	01e77b63          	bgeu	a4,t5,14d04 <__umoddi3+0x25c>
   14cf2:	9736                	add	a4,a4,a3
   14cf4:	fff78593          	addi	a1,a5,-1 # ffffff <MAINLOOP_COUNT+0xf6d83f>
   14cf8:	12d76963          	bltu	a4,a3,14e2a <__umoddi3+0x382>
   14cfc:	13e77763          	bgeu	a4,t5,14e2a <__umoddi3+0x382>
   14d00:	17f9                	addi	a5,a5,-2
   14d02:	9736                	add	a4,a4,a3
   14d04:	0ec2                	slli	t4,t4,0x10
   14d06:	62c1                	lui	t0,0x10
   14d08:	00feeeb3          	or	t4,t4,a5
   14d0c:	fff28813          	addi	a6,t0,-1 # ffff <MCU_SECTORSIZE+0xefff>
   14d10:	010ef8b3          	and	a7,t4,a6
   14d14:	01065593          	srli	a1,a2,0x10
   14d18:	010ede93          	srli	t4,t4,0x10
   14d1c:	01067833          	and	a6,a2,a6
   14d20:	03088fb3          	mul	t6,a7,a6
   14d24:	41e70733          	sub	a4,a4,t5
   14d28:	030e8833          	mul	a6,t4,a6
   14d2c:	010fd793          	srli	a5,t6,0x10
   14d30:	02b888b3          	mul	a7,a7,a1
   14d34:	98c2                	add	a7,a7,a6
   14d36:	97c6                	add	a5,a5,a7
   14d38:	02be8eb3          	mul	t4,t4,a1
   14d3c:	0107f363          	bgeu	a5,a6,14d42 <__umoddi3+0x29a>
   14d40:	9e96                	add	t4,t4,t0
   14d42:	6841                	lui	a6,0x10
   14d44:	187d                	addi	a6,a6,-1
   14d46:	0107d593          	srli	a1,a5,0x10
   14d4a:	0107f7b3          	and	a5,a5,a6
   14d4e:	07c2                	slli	a5,a5,0x10
   14d50:	010fffb3          	and	t6,t6,a6
   14d54:	95f6                	add	a1,a1,t4
   14d56:	97fe                	add	a5,a5,t6
   14d58:	0ab76263          	bltu	a4,a1,14dfc <__umoddi3+0x354>
   14d5c:	08b70e63          	beq	a4,a1,14df8 <__umoddi3+0x350>
   14d60:	40f507b3          	sub	a5,a0,a5
   14d64:	00f53533          	sltu	a0,a0,a5
   14d68:	40b705b3          	sub	a1,a4,a1
   14d6c:	8d89                	sub	a1,a1,a0
   14d6e:	01c59e33          	sll	t3,a1,t3
   14d72:	0067d533          	srl	a0,a5,t1
   14d76:	00ae6533          	or	a0,t3,a0
   14d7a:	0065d5b3          	srl	a1,a1,t1
   14d7e:	8082                	ret
   14d80:	01181833          	sll	a6,a6,a7
   14d84:	00f5d733          	srl	a4,a1,a5
   14d88:	01085613          	srli	a2,a6,0x10
   14d8c:	02c756b3          	divu	a3,a4,a2
   14d90:	01081e13          	slli	t3,a6,0x10
   14d94:	00f557b3          	srl	a5,a0,a5
   14d98:	010e5e13          	srli	t3,t3,0x10
   14d9c:	011595b3          	sll	a1,a1,a7
   14da0:	8ddd                	or	a1,a1,a5
   14da2:	0105de93          	srli	t4,a1,0x10
   14da6:	01151333          	sll	t1,a0,a7
   14daa:	02c77733          	remu	a4,a4,a2
   14dae:	02de07b3          	mul	a5,t3,a3
   14db2:	01071693          	slli	a3,a4,0x10
   14db6:	01d6e6b3          	or	a3,a3,t4
   14dba:	00f6f863          	bgeu	a3,a5,14dca <__umoddi3+0x322>
   14dbe:	96c2                	add	a3,a3,a6
   14dc0:	0106e563          	bltu	a3,a6,14dca <__umoddi3+0x322>
   14dc4:	00f6f363          	bgeu	a3,a5,14dca <__umoddi3+0x322>
   14dc8:	96c2                	add	a3,a3,a6
   14dca:	8e9d                	sub	a3,a3,a5
   14dcc:	02c6d733          	divu	a4,a3,a2
   14dd0:	01059793          	slli	a5,a1,0x10
   14dd4:	83c1                	srli	a5,a5,0x10
   14dd6:	02c6f6b3          	remu	a3,a3,a2
   14dda:	02ee0733          	mul	a4,t3,a4
   14dde:	01069593          	slli	a1,a3,0x10
   14de2:	8ddd                	or	a1,a1,a5
   14de4:	00e5f863          	bgeu	a1,a4,14df4 <__umoddi3+0x34c>
   14de8:	95c2                	add	a1,a1,a6
   14dea:	0105e563          	bltu	a1,a6,14df4 <__umoddi3+0x34c>
   14dee:	00e5f363          	bgeu	a1,a4,14df4 <__umoddi3+0x34c>
   14df2:	95c2                	add	a1,a1,a6
   14df4:	8d99                	sub	a1,a1,a4
   14df6:	b36d                	j	14ba0 <__umoddi3+0xf8>
   14df8:	f6f574e3          	bgeu	a0,a5,14d60 <__umoddi3+0x2b8>
   14dfc:	40c78633          	sub	a2,a5,a2
   14e00:	00c7b7b3          	sltu	a5,a5,a2
   14e04:	97b6                	add	a5,a5,a3
   14e06:	8d9d                	sub	a1,a1,a5
   14e08:	87b2                	mv	a5,a2
   14e0a:	bf99                	j	14d60 <__umoddi3+0x2b8>
   14e0c:	0106d313          	srli	t1,a3,0x10
   14e10:	48c1                	li	a7,16
   14e12:	b501                	j	14c12 <__umoddi3+0x16a>
   14e14:	01085693          	srli	a3,a6,0x10
   14e18:	47c1                	li	a5,16
   14e1a:	bba9                	j	14b74 <__umoddi3+0xcc>
   14e1c:	01065693          	srli	a3,a2,0x10
   14e20:	47c1                	li	a5,16
   14e22:	b17d                	j	14ad0 <__umoddi3+0x28>
   14e24:	8336                	mv	t1,a3
   14e26:	4881                	li	a7,0
   14e28:	b3ed                	j	14c12 <__umoddi3+0x16a>
   14e2a:	87ae                	mv	a5,a1
   14e2c:	bde1                	j	14d04 <__umoddi3+0x25c>
   14e2e:	8ec6                	mv	t4,a7
   14e30:	b555                	j	14cd4 <__umoddi3+0x22c>
   14e32:	9742                	add	a4,a4,a6
   14e34:	b379                	j	14bc2 <__umoddi3+0x11a>

00014e36 <__eqdf2>:
__eqdf2():
   14e36:	0145d713          	srli	a4,a1,0x14
   14e3a:	001007b7          	lui	a5,0x100
   14e3e:	17fd                	addi	a5,a5,-1
   14e40:	0146d813          	srli	a6,a3,0x14
   14e44:	7ff77713          	andi	a4,a4,2047
   14e48:	7ff00893          	li	a7,2047
   14e4c:	00b7fe33          	and	t3,a5,a1
   14e50:	8eaa                	mv	t4,a0
   14e52:	8ff5                	and	a5,a5,a3
   14e54:	81fd                	srli	a1,a1,0x1f
   14e56:	8f32                	mv	t5,a2
   14e58:	7ff87813          	andi	a6,a6,2047
   14e5c:	82fd                	srli	a3,a3,0x1f
   14e5e:	01170b63          	beq	a4,a7,14e74 <__eqdf2+0x3e>
   14e62:	4305                	li	t1,1
   14e64:	01180663          	beq	a6,a7,14e70 <__eqdf2+0x3a>
   14e68:	01071463          	bne	a4,a6,14e70 <__eqdf2+0x3a>
   14e6c:	00fe0d63          	beq	t3,a5,14e86 <__eqdf2+0x50>
   14e70:	851a                	mv	a0,t1
   14e72:	8082                	ret
   14e74:	00ae68b3          	or	a7,t3,a0
   14e78:	4305                	li	t1,1
   14e7a:	fe089be3          	bnez	a7,14e70 <__eqdf2+0x3a>
   14e7e:	fee819e3          	bne	a6,a4,14e70 <__eqdf2+0x3a>
   14e82:	8fd1                	or	a5,a5,a2
   14e84:	f7f5                	bnez	a5,14e70 <__eqdf2+0x3a>
   14e86:	4305                	li	t1,1
   14e88:	ffee94e3          	bne	t4,t5,14e70 <__eqdf2+0x3a>
   14e8c:	4301                	li	t1,0
   14e8e:	fed581e3          	beq	a1,a3,14e70 <__eqdf2+0x3a>
   14e92:	4305                	li	t1,1
   14e94:	ff71                	bnez	a4,14e70 <__eqdf2+0x3a>
   14e96:	00ae6533          	or	a0,t3,a0
   14e9a:	00a03333          	snez	t1,a0
   14e9e:	bfc9                	j	14e70 <__eqdf2+0x3a>

00014ea0 <__ledf2>:
__ltdf2():
   14ea0:	0145d713          	srli	a4,a1,0x14
   14ea4:	001007b7          	lui	a5,0x100
   14ea8:	17fd                	addi	a5,a5,-1
   14eaa:	0146d813          	srli	a6,a3,0x14
   14eae:	7ff77713          	andi	a4,a4,2047
   14eb2:	7ff00893          	li	a7,2047
   14eb6:	00b7fe33          	and	t3,a5,a1
   14eba:	8eaa                	mv	t4,a0
   14ebc:	8ff5                	and	a5,a5,a3
   14ebe:	81fd                	srli	a1,a1,0x1f
   14ec0:	8f32                	mv	t5,a2
   14ec2:	7ff87813          	andi	a6,a6,2047
   14ec6:	82fd                	srli	a3,a3,0x1f
   14ec8:	03170e63          	beq	a4,a7,14f04 <__ledf2+0x64>
   14ecc:	01180d63          	beq	a6,a7,14ee6 <__ledf2+0x46>
   14ed0:	e329                	bnez	a4,14f12 <__ledf2+0x72>
   14ed2:	00ae68b3          	or	a7,t3,a0
   14ed6:	00081f63          	bnez	a6,14ef4 <__ledf2+0x54>
   14eda:	8e5d                	or	a2,a2,a5
   14edc:	ee01                	bnez	a2,14ef4 <__ledf2+0x54>
   14ede:	4301                	li	t1,0
   14ee0:	04088c63          	beqz	a7,14f38 <__ledf2+0x98>
   14ee4:	a821                	j	14efc <__ledf2+0x5c>
   14ee6:	00c7e8b3          	or	a7,a5,a2
   14eea:	4309                	li	t1,2
   14eec:	04089663          	bnez	a7,14f38 <__ledf2+0x98>
   14ef0:	d36d                	beqz	a4,14ed2 <__ledf2+0x32>
   14ef2:	a005                	j	14f12 <__ledf2+0x72>
   14ef4:	04088463          	beqz	a7,14f3c <__ledf2+0x9c>
   14ef8:	02d58563          	beq	a1,a3,14f22 <__ledf2+0x82>
   14efc:	4305                	li	t1,1
   14efe:	cd8d                	beqz	a1,14f38 <__ledf2+0x98>
   14f00:	537d                	li	t1,-1
   14f02:	a81d                	j	14f38 <__ledf2+0x98>
   14f04:	00ae68b3          	or	a7,t3,a0
   14f08:	4309                	li	t1,2
   14f0a:	02089763          	bnez	a7,14f38 <__ledf2+0x98>
   14f0e:	02e80a63          	beq	a6,a4,14f42 <__ledf2+0xa2>
   14f12:	00081463          	bnez	a6,14f1a <__ledf2+0x7a>
   14f16:	8e5d                	or	a2,a2,a5
   14f18:	d275                	beqz	a2,14efc <__ledf2+0x5c>
   14f1a:	fed591e3          	bne	a1,a3,14efc <__ledf2+0x5c>
   14f1e:	fce84fe3          	blt	a6,a4,14efc <__ledf2+0x5c>
   14f22:	01074963          	blt	a4,a6,14f34 <__ledf2+0x94>
   14f26:	fdc7ebe3          	bltu	a5,t3,14efc <__ledf2+0x5c>
   14f2a:	00fe0f63          	beq	t3,a5,14f48 <__ledf2+0xa8>
   14f2e:	4301                	li	t1,0
   14f30:	00fe7463          	bgeu	t3,a5,14f38 <__ledf2+0x98>
   14f34:	d5f1                	beqz	a1,14f00 <__ledf2+0x60>
   14f36:	4305                	li	t1,1
   14f38:	851a                	mv	a0,t1
   14f3a:	8082                	ret
   14f3c:	feed                	bnez	a3,14f36 <__ledf2+0x96>
   14f3e:	537d                	li	t1,-1
   14f40:	bfe5                	j	14f38 <__ledf2+0x98>
   14f42:	8e5d                	or	a2,a2,a5
   14f44:	da79                	beqz	a2,14f1a <__ledf2+0x7a>
   14f46:	bfcd                	j	14f38 <__ledf2+0x98>
   14f48:	fbdf6ae3          	bltu	t5,t4,14efc <__ledf2+0x5c>
   14f4c:	4301                	li	t1,0
   14f4e:	ffeef5e3          	bgeu	t4,t5,14f38 <__ledf2+0x98>
   14f52:	f1f5                	bnez	a1,14f36 <__ledf2+0x96>
   14f54:	b775                	j	14f00 <__ledf2+0x60>

00014f56 <__muldf3>:
__muldf3():
   14f56:	7139                	addi	sp,sp,-64
   14f58:	d84a                	sw	s2,48(sp)
   14f5a:	0145d913          	srli	s2,a1,0x14
   14f5e:	d64e                	sw	s3,44(sp)
   14f60:	d452                	sw	s4,40(sp)
   14f62:	d256                	sw	s5,36(sp)
   14f64:	00c59993          	slli	s3,a1,0xc
   14f68:	de06                	sw	ra,60(sp)
   14f6a:	dc22                	sw	s0,56(sp)
   14f6c:	da26                	sw	s1,52(sp)
   14f6e:	d05a                	sw	s6,32(sp)
   14f70:	ce5e                	sw	s7,28(sp)
   14f72:	7ff97913          	andi	s2,s2,2047
   14f76:	8a2a                	mv	s4,a0
   14f78:	00c9d993          	srli	s3,s3,0xc
   14f7c:	01f5da93          	srli	s5,a1,0x1f
   14f80:	0e090d63          	beqz	s2,1507a <__muldf3+0x124>
   14f84:	7ff00793          	li	a5,2047
   14f88:	18f90a63          	beq	s2,a5,1511c <__muldf3+0x1c6>
   14f8c:	01d55413          	srli	s0,a0,0x1d
   14f90:	098e                	slli	s3,s3,0x3
   14f92:	013469b3          	or	s3,s0,s3
   14f96:	00800437          	lui	s0,0x800
   14f9a:	0089e433          	or	s0,s3,s0
   14f9e:	00351493          	slli	s1,a0,0x3
   14fa2:	c0190913          	addi	s2,s2,-1023
   14fa6:	4981                	li	s3,0
   14fa8:	4b81                	li	s7,0
   14faa:	0146d713          	srli	a4,a3,0x14
   14fae:	00c69a13          	slli	s4,a3,0xc
   14fb2:	7ff77713          	andi	a4,a4,2047
   14fb6:	85b2                	mv	a1,a2
   14fb8:	00ca5a13          	srli	s4,s4,0xc
   14fbc:	01f6db13          	srli	s6,a3,0x1f
   14fc0:	10070d63          	beqz	a4,150da <__muldf3+0x184>
   14fc4:	7ff00793          	li	a5,2047
   14fc8:	04f70363          	beq	a4,a5,1500e <__muldf3+0xb8>
   14fcc:	01d65793          	srli	a5,a2,0x1d
   14fd0:	0a0e                	slli	s4,s4,0x3
   14fd2:	0147ea33          	or	s4,a5,s4
   14fd6:	c0170713          	addi	a4,a4,-1023
   14fda:	008007b7          	lui	a5,0x800
   14fde:	00fa67b3          	or	a5,s4,a5
   14fe2:	00361593          	slli	a1,a2,0x3
   14fe6:	993a                	add	s2,s2,a4
   14fe8:	4881                	li	a7,0
   14fea:	016ac733          	xor	a4,s5,s6
   14fee:	46bd                	li	a3,15
   14ff0:	853a                	mv	a0,a4
   14ff2:	00190813          	addi	a6,s2,1
   14ff6:	1736ec63          	bltu	a3,s3,1516e <__muldf3+0x218>
   14ffa:	00001617          	auipc	a2,0x1
   14ffe:	eee60613          	addi	a2,a2,-274 # 15ee8 <strlen+0xdc>
   15002:	098a                	slli	s3,s3,0x2
   15004:	99b2                	add	s3,s3,a2
   15006:	0009a683          	lw	a3,0(s3)
   1500a:	96b2                	add	a3,a3,a2
   1500c:	8682                	jr	a3
   1500e:	00ca67b3          	or	a5,s4,a2
   15012:	7ff90913          	addi	s2,s2,2047
   15016:	12079d63          	bnez	a5,15150 <__muldf3+0x1fa>
   1501a:	0029e993          	ori	s3,s3,2
   1501e:	4581                	li	a1,0
   15020:	4889                	li	a7,2
   15022:	b7e1                	j	14fea <__muldf3+0x94>
   15024:	4701                	li	a4,0
   15026:	7ff00793          	li	a5,2047
   1502a:	00080437          	lui	s0,0x80
   1502e:	4481                	li	s1,0
   15030:	0432                	slli	s0,s0,0xc
   15032:	07d2                	slli	a5,a5,0x14
   15034:	8031                	srli	s0,s0,0xc
   15036:	077e                	slli	a4,a4,0x1f
   15038:	8c5d                	or	s0,s0,a5
   1503a:	8c59                	or	s0,s0,a4
   1503c:	85a2                	mv	a1,s0
   1503e:	50f2                	lw	ra,60(sp)
   15040:	5462                	lw	s0,56(sp)
   15042:	8526                	mv	a0,s1
   15044:	5942                	lw	s2,48(sp)
   15046:	54d2                	lw	s1,52(sp)
   15048:	59b2                	lw	s3,44(sp)
   1504a:	5a22                	lw	s4,40(sp)
   1504c:	5a92                	lw	s5,36(sp)
   1504e:	5b02                	lw	s6,32(sp)
   15050:	4bf2                	lw	s7,28(sp)
   15052:	6121                	addi	sp,sp,64
   15054:	8082                	ret
   15056:	855a                	mv	a0,s6
   15058:	843e                	mv	s0,a5
   1505a:	84ae                	mv	s1,a1
   1505c:	8bc6                	mv	s7,a7
   1505e:	4789                	li	a5,2
   15060:	10fb8163          	beq	s7,a5,15162 <__muldf3+0x20c>
   15064:	478d                	li	a5,3
   15066:	fafb8fe3          	beq	s7,a5,15024 <__muldf3+0xce>
   1506a:	4785                	li	a5,1
   1506c:	872a                	mv	a4,a0
   1506e:	3afb9663          	bne	s7,a5,1541a <__muldf3+0x4c4>
   15072:	4781                	li	a5,0
   15074:	4401                	li	s0,0
   15076:	4481                	li	s1,0
   15078:	bf65                	j	15030 <__muldf3+0xda>
   1507a:	00a9e433          	or	s0,s3,a0
   1507e:	c461                	beqz	s0,15146 <__muldf3+0x1f0>
   15080:	c636                	sw	a3,12(sp)
   15082:	c432                	sw	a2,8(sp)
   15084:	2c098263          	beqz	s3,15348 <__muldf3+0x3f2>
   15088:	854e                	mv	a0,s3
   1508a:	00001097          	auipc	ra,0x1
   1508e:	d0c080e7          	jalr	-756(ra) # 15d96 <__clzsi2>
   15092:	4622                	lw	a2,8(sp)
   15094:	46b2                	lw	a3,12(sp)
   15096:	87aa                	mv	a5,a0
   15098:	ff550713          	addi	a4,a0,-11
   1509c:	4475                	li	s0,29
   1509e:	ff878493          	addi	s1,a5,-8 # 7ffff8 <MAINLOOP_COUNT+0x76d838>
   150a2:	8c19                	sub	s0,s0,a4
   150a4:	009999b3          	sll	s3,s3,s1
   150a8:	008a5433          	srl	s0,s4,s0
   150ac:	01346433          	or	s0,s0,s3
   150b0:	009a14b3          	sll	s1,s4,s1
   150b4:	0146d713          	srli	a4,a3,0x14
   150b8:	c0d00913          	li	s2,-1011
   150bc:	00c69a13          	slli	s4,a3,0xc
   150c0:	7ff77713          	andi	a4,a4,2047
   150c4:	40f90933          	sub	s2,s2,a5
   150c8:	4981                	li	s3,0
   150ca:	4b81                	li	s7,0
   150cc:	85b2                	mv	a1,a2
   150ce:	00ca5a13          	srli	s4,s4,0xc
   150d2:	01f6db13          	srli	s6,a3,0x1f
   150d6:	ee0717e3          	bnez	a4,14fc4 <__muldf3+0x6e>
   150da:	00ca67b3          	or	a5,s4,a2
   150de:	cba1                	beqz	a5,1512e <__muldf3+0x1d8>
   150e0:	240a0163          	beqz	s4,15322 <__muldf3+0x3cc>
   150e4:	8552                	mv	a0,s4
   150e6:	c432                	sw	a2,8(sp)
   150e8:	00001097          	auipc	ra,0x1
   150ec:	cae080e7          	jalr	-850(ra) # 15d96 <__clzsi2>
   150f0:	4622                	lw	a2,8(sp)
   150f2:	872a                	mv	a4,a0
   150f4:	ff550693          	addi	a3,a0,-11
   150f8:	47f5                	li	a5,29
   150fa:	ff870593          	addi	a1,a4,-8
   150fe:	8f95                	sub	a5,a5,a3
   15100:	00ba1a33          	sll	s4,s4,a1
   15104:	00f657b3          	srl	a5,a2,a5
   15108:	0147e7b3          	or	a5,a5,s4
   1510c:	00b615b3          	sll	a1,a2,a1
   15110:	40e90933          	sub	s2,s2,a4
   15114:	c0d90913          	addi	s2,s2,-1011
   15118:	4881                	li	a7,0
   1511a:	bdc1                	j	14fea <__muldf3+0x94>
   1511c:	00a9e433          	or	s0,s3,a0
   15120:	ec01                	bnez	s0,15138 <__muldf3+0x1e2>
   15122:	49a1                	li	s3,8
   15124:	4481                	li	s1,0
   15126:	7ff00913          	li	s2,2047
   1512a:	4b89                	li	s7,2
   1512c:	bdbd                	j	14faa <__muldf3+0x54>
   1512e:	0019e993          	ori	s3,s3,1
   15132:	4581                	li	a1,0
   15134:	4885                	li	a7,1
   15136:	bd55                	j	14fea <__muldf3+0x94>
   15138:	844e                	mv	s0,s3
   1513a:	84aa                	mv	s1,a0
   1513c:	49b1                	li	s3,12
   1513e:	7ff00913          	li	s2,2047
   15142:	4b8d                	li	s7,3
   15144:	b59d                	j	14faa <__muldf3+0x54>
   15146:	4991                	li	s3,4
   15148:	4481                	li	s1,0
   1514a:	4901                	li	s2,0
   1514c:	4b85                	li	s7,1
   1514e:	bdb1                	j	14faa <__muldf3+0x54>
   15150:	0039e993          	ori	s3,s3,3
   15154:	87d2                	mv	a5,s4
   15156:	488d                	li	a7,3
   15158:	bd49                	j	14fea <__muldf3+0x94>
   1515a:	4789                	li	a5,2
   1515c:	8556                	mv	a0,s5
   1515e:	f0fb93e3          	bne	s7,a5,15064 <__muldf3+0x10e>
   15162:	872a                	mv	a4,a0
   15164:	7ff00793          	li	a5,2047
   15168:	4401                	li	s0,0
   1516a:	4481                	li	s1,0
   1516c:	b5d1                	j	15030 <__muldf3+0xda>
   1516e:	6ec1                	lui	t4,0x10
   15170:	fffe8613          	addi	a2,t4,-1 # ffff <MCU_SECTORSIZE+0xefff>
   15174:	0104d693          	srli	a3,s1,0x10
   15178:	0105de13          	srli	t3,a1,0x10
   1517c:	8cf1                	and	s1,s1,a2
   1517e:	8df1                	and	a1,a1,a2
   15180:	02958633          	mul	a2,a1,s1
   15184:	02b68333          	mul	t1,a3,a1
   15188:	01065893          	srli	a7,a2,0x10
   1518c:	029e0533          	mul	a0,t3,s1
   15190:	951a                	add	a0,a0,t1
   15192:	98aa                	add	a7,a7,a0
   15194:	03c682b3          	mul	t0,a3,t3
   15198:	0068f363          	bgeu	a7,t1,1519e <__muldf3+0x248>
   1519c:	92f6                	add	t0,t0,t4
   1519e:	6fc1                	lui	t6,0x10
   151a0:	ffff8313          	addi	t1,t6,-1 # ffff <MCU_SECTORSIZE+0xefff>
   151a4:	0067f533          	and	a0,a5,t1
   151a8:	0107d393          	srli	t2,a5,0x10
   151ac:	0068f7b3          	and	a5,a7,t1
   151b0:	07c2                	slli	a5,a5,0x10
   151b2:	00667333          	and	t1,a2,t1
   151b6:	933e                	add	t1,t1,a5
   151b8:	02950633          	mul	a2,a0,s1
   151bc:	0108d893          	srli	a7,a7,0x10
   151c0:	02a687b3          	mul	a5,a3,a0
   151c4:	01065f13          	srli	t5,a2,0x10
   151c8:	029384b3          	mul	s1,t2,s1
   151cc:	94be                	add	s1,s1,a5
   151ce:	94fa                	add	s1,s1,t5
   151d0:	02768eb3          	mul	t4,a3,t2
   151d4:	00f4f363          	bgeu	s1,a5,151da <__muldf3+0x284>
   151d8:	9efe                	add	t4,t4,t6
   151da:	6a41                	lui	s4,0x10
   151dc:	fffa0793          	addi	a5,s4,-1 # ffff <MCU_SECTORSIZE+0xefff>
   151e0:	01045f93          	srli	t6,s0,0x10
   151e4:	00f476b3          	and	a3,s0,a5
   151e8:	00f4f9b3          	and	s3,s1,a5
   151ec:	8e7d                	and	a2,a2,a5
   151ee:	80c1                	srli	s1,s1,0x10
   151f0:	02d58433          	mul	s0,a1,a3
   151f4:	09c2                	slli	s3,s3,0x10
   151f6:	01d48f33          	add	t5,s1,t4
   151fa:	99b2                	add	s3,s3,a2
   151fc:	98ce                	add	a7,a7,s3
   151fe:	02de07b3          	mul	a5,t3,a3
   15202:	01045e93          	srli	t4,s0,0x10
   15206:	02bf85b3          	mul	a1,t6,a1
   1520a:	97ae                	add	a5,a5,a1
   1520c:	9ebe                	add	t4,t4,a5
   1520e:	03fe0e33          	mul	t3,t3,t6
   15212:	00bef363          	bgeu	t4,a1,15218 <__muldf3+0x2c2>
   15216:	9e52                	add	t3,t3,s4
   15218:	67c1                	lui	a5,0x10
   1521a:	fff78593          	addi	a1,a5,-1 # ffff <MCU_SECTORSIZE+0xefff>
   1521e:	00bef633          	and	a2,t4,a1
   15222:	8c6d                	and	s0,s0,a1
   15224:	0642                	slli	a2,a2,0x10
   15226:	9622                	add	a2,a2,s0
   15228:	010ede93          	srli	t4,t4,0x10
   1522c:	02d505b3          	mul	a1,a0,a3
   15230:	9e76                	add	t3,t3,t4
   15232:	02af8533          	mul	a0,t6,a0
   15236:	0105d413          	srli	s0,a1,0x10
   1523a:	02d386b3          	mul	a3,t2,a3
   1523e:	96aa                	add	a3,a3,a0
   15240:	96a2                	add	a3,a3,s0
   15242:	03f38fb3          	mul	t6,t2,t6
   15246:	00a6f363          	bgeu	a3,a0,1524c <__muldf3+0x2f6>
   1524a:	9fbe                	add	t6,t6,a5
   1524c:	6541                	lui	a0,0x10
   1524e:	157d                	addi	a0,a0,-1
   15250:	00a6f7b3          	and	a5,a3,a0
   15254:	07c2                	slli	a5,a5,0x10
   15256:	8d6d                	and	a0,a0,a1
   15258:	97aa                	add	a5,a5,a0
   1525a:	005885b3          	add	a1,a7,t0
   1525e:	0135b9b3          	sltu	s3,a1,s3
   15262:	97fa                	add	a5,a5,t5
   15264:	95b2                	add	a1,a1,a2
   15266:	01378433          	add	s0,a5,s3
   1526a:	00c5b633          	sltu	a2,a1,a2
   1526e:	01c40eb3          	add	t4,s0,t3
   15272:	00ce8533          	add	a0,t4,a2
   15276:	01343433          	sltu	s0,s0,s3
   1527a:	01e7b7b3          	sltu	a5,a5,t5
   1527e:	8fc1                	or	a5,a5,s0
   15280:	01cebe33          	sltu	t3,t4,t3
   15284:	0106d413          	srli	s0,a3,0x10
   15288:	00c53633          	sltu	a2,a0,a2
   1528c:	943e                	add	s0,s0,a5
   1528e:	00ce6633          	or	a2,t3,a2
   15292:	00959493          	slli	s1,a1,0x9
   15296:	9432                	add	s0,s0,a2
   15298:	947e                	add	s0,s0,t6
   1529a:	0064e4b3          	or	s1,s1,t1
   1529e:	0426                	slli	s0,s0,0x9
   152a0:	01755693          	srli	a3,a0,0x17
   152a4:	009034b3          	snez	s1,s1
   152a8:	81dd                	srli	a1,a1,0x17
   152aa:	00951793          	slli	a5,a0,0x9
   152ae:	8ccd                	or	s1,s1,a1
   152b0:	8c55                	or	s0,s0,a3
   152b2:	8cdd                	or	s1,s1,a5
   152b4:	00741793          	slli	a5,s0,0x7
   152b8:	0007db63          	bgez	a5,152ce <__muldf3+0x378>
   152bc:	0014d793          	srli	a5,s1,0x1
   152c0:	8885                	andi	s1,s1,1
   152c2:	01f41693          	slli	a3,s0,0x1f
   152c6:	8cdd                	or	s1,s1,a5
   152c8:	8cd5                	or	s1,s1,a3
   152ca:	8005                	srli	s0,s0,0x1
   152cc:	8942                	mv	s2,a6
   152ce:	3ff90793          	addi	a5,s2,1023
   152d2:	08f05d63          	blez	a5,1536c <__muldf3+0x416>
   152d6:	0074f693          	andi	a3,s1,7
   152da:	ce81                	beqz	a3,152f2 <__muldf3+0x39c>
   152dc:	00f4f693          	andi	a3,s1,15
   152e0:	4611                	li	a2,4
   152e2:	00c68863          	beq	a3,a2,152f2 <__muldf3+0x39c>
   152e6:	00448693          	addi	a3,s1,4
   152ea:	0096b4b3          	sltu	s1,a3,s1
   152ee:	9426                	add	s0,s0,s1
   152f0:	84b6                	mv	s1,a3
   152f2:	00741693          	slli	a3,s0,0x7
   152f6:	0006d863          	bgez	a3,15306 <__muldf3+0x3b0>
   152fa:	ff0007b7          	lui	a5,0xff000
   152fe:	17fd                	addi	a5,a5,-1
   15300:	8c7d                	and	s0,s0,a5
   15302:	40090793          	addi	a5,s2,1024
   15306:	7fe00693          	li	a3,2046
   1530a:	10f6c363          	blt	a3,a5,15410 <__muldf3+0x4ba>
   1530e:	0034d693          	srli	a3,s1,0x3
   15312:	01d41493          	slli	s1,s0,0x1d
   15316:	0426                	slli	s0,s0,0x9
   15318:	8cd5                	or	s1,s1,a3
   1531a:	8031                	srli	s0,s0,0xc
   1531c:	7ff7f793          	andi	a5,a5,2047
   15320:	bb01                	j	15030 <__muldf3+0xda>
   15322:	8532                	mv	a0,a2
   15324:	c432                	sw	a2,8(sp)
   15326:	00001097          	auipc	ra,0x1
   1532a:	a70080e7          	jalr	-1424(ra) # 15d96 <__clzsi2>
   1532e:	01550693          	addi	a3,a0,21 # 10015 <MCU_SECTORSIZE+0xf015>
   15332:	47f1                	li	a5,28
   15334:	02050713          	addi	a4,a0,32
   15338:	4622                	lw	a2,8(sp)
   1533a:	dad7dfe3          	bge	a5,a3,150f8 <__muldf3+0x1a2>
   1533e:	1561                	addi	a0,a0,-8
   15340:	00a617b3          	sll	a5,a2,a0
   15344:	4581                	li	a1,0
   15346:	b3e9                	j	15110 <__muldf3+0x1ba>
   15348:	00001097          	auipc	ra,0x1
   1534c:	a4e080e7          	jalr	-1458(ra) # 15d96 <__clzsi2>
   15350:	01550713          	addi	a4,a0,21
   15354:	45f1                	li	a1,28
   15356:	02050793          	addi	a5,a0,32
   1535a:	4622                	lw	a2,8(sp)
   1535c:	46b2                	lw	a3,12(sp)
   1535e:	d2e5dfe3          	bge	a1,a4,1509c <__muldf3+0x146>
   15362:	1561                	addi	a0,a0,-8
   15364:	00aa1433          	sll	s0,s4,a0
   15368:	4481                	li	s1,0
   1536a:	b3a9                	j	150b4 <__muldf3+0x15e>
   1536c:	4685                	li	a3,1
   1536e:	8e9d                	sub	a3,a3,a5
   15370:	e7b1                	bnez	a5,153bc <__muldf3+0x466>
   15372:	41e90913          	addi	s2,s2,1054
   15376:	012497b3          	sll	a5,s1,s2
   1537a:	00d4d4b3          	srl	s1,s1,a3
   1537e:	01241933          	sll	s2,s0,s2
   15382:	00f037b3          	snez	a5,a5
   15386:	009964b3          	or	s1,s2,s1
   1538a:	8cdd                	or	s1,s1,a5
   1538c:	0074f793          	andi	a5,s1,7
   15390:	00d456b3          	srl	a3,s0,a3
   15394:	cf81                	beqz	a5,153ac <__muldf3+0x456>
   15396:	00f4f793          	andi	a5,s1,15
   1539a:	4611                	li	a2,4
   1539c:	00c78863          	beq	a5,a2,153ac <__muldf3+0x456>
   153a0:	00448793          	addi	a5,s1,4
   153a4:	0097b4b3          	sltu	s1,a5,s1
   153a8:	96a6                	add	a3,a3,s1
   153aa:	84be                	mv	s1,a5
   153ac:	00869793          	slli	a5,a3,0x8
   153b0:	0407d863          	bgez	a5,15400 <__muldf3+0x4aa>
   153b4:	4785                	li	a5,1
   153b6:	4401                	li	s0,0
   153b8:	4481                	li	s1,0
   153ba:	b99d                	j	15030 <__muldf3+0xda>
   153bc:	03800613          	li	a2,56
   153c0:	cad649e3          	blt	a2,a3,15072 <__muldf3+0x11c>
   153c4:	467d                	li	a2,31
   153c6:	fad656e3          	bge	a2,a3,15372 <__muldf3+0x41c>
   153ca:	5605                	li	a2,-31
   153cc:	40f607b3          	sub	a5,a2,a5
   153d0:	02000593          	li	a1,32
   153d4:	00f45633          	srl	a2,s0,a5
   153d8:	00b68763          	beq	a3,a1,153e6 <__muldf3+0x490>
   153dc:	43e90913          	addi	s2,s2,1086
   153e0:	012417b3          	sll	a5,s0,s2
   153e4:	8cdd                	or	s1,s1,a5
   153e6:	009034b3          	snez	s1,s1
   153ea:	8cd1                	or	s1,s1,a2
   153ec:	0074f693          	andi	a3,s1,7
   153f0:	4401                	li	s0,0
   153f2:	ca99                	beqz	a3,15408 <__muldf3+0x4b2>
   153f4:	00f4f793          	andi	a5,s1,15
   153f8:	4611                	li	a2,4
   153fa:	4681                	li	a3,0
   153fc:	fac792e3          	bne	a5,a2,153a0 <__muldf3+0x44a>
   15400:	00969413          	slli	s0,a3,0x9
   15404:	8031                	srli	s0,s0,0xc
   15406:	06f6                	slli	a3,a3,0x1d
   15408:	808d                	srli	s1,s1,0x3
   1540a:	8cd5                	or	s1,s1,a3
   1540c:	4781                	li	a5,0
   1540e:	b10d                	j	15030 <__muldf3+0xda>
   15410:	7ff00793          	li	a5,2047
   15414:	4401                	li	s0,0
   15416:	4481                	li	s1,0
   15418:	b921                	j	15030 <__muldf3+0xda>
   1541a:	8942                	mv	s2,a6
   1541c:	bd4d                	j	152ce <__muldf3+0x378>

0001541e <__subdf3>:
__subdf3():
   1541e:	00100737          	lui	a4,0x100
   15422:	177d                	addi	a4,a4,-1
   15424:	1101                	addi	sp,sp,-32
   15426:	00b77333          	and	t1,a4,a1
   1542a:	0146d893          	srli	a7,a3,0x14
   1542e:	8f75                	and	a4,a4,a3
   15430:	01d65e93          	srli	t4,a2,0x1d
   15434:	cc22                	sw	s0,24(sp)
   15436:	ca26                	sw	s1,20(sp)
   15438:	030e                	slli	t1,t1,0x3
   1543a:	0145d493          	srli	s1,a1,0x14
   1543e:	01d55793          	srli	a5,a0,0x1d
   15442:	070e                	slli	a4,a4,0x3
   15444:	ce06                	sw	ra,28(sp)
   15446:	c84a                	sw	s2,16(sp)
   15448:	c64e                	sw	s3,12(sp)
   1544a:	7ff8f893          	andi	a7,a7,2047
   1544e:	7ff00e13          	li	t3,2047
   15452:	00eee733          	or	a4,t4,a4
   15456:	7ff4f493          	andi	s1,s1,2047
   1545a:	01f5d413          	srli	s0,a1,0x1f
   1545e:	0067e333          	or	t1,a5,t1
   15462:	00351f13          	slli	t5,a0,0x3
   15466:	82fd                	srli	a3,a3,0x1f
   15468:	00361e93          	slli	t4,a2,0x3
   1546c:	19c88263          	beq	a7,t3,155f0 <__subdf3+0x1d2>
   15470:	0016c693          	xori	a3,a3,1
   15474:	411485b3          	sub	a1,s1,a7
   15478:	12d40763          	beq	s0,a3,155a6 <__subdf3+0x188>
   1547c:	18b05363          	blez	a1,15602 <__subdf3+0x1e4>
   15480:	1a088d63          	beqz	a7,1563a <__subdf3+0x21c>
   15484:	008007b7          	lui	a5,0x800
   15488:	8f5d                	or	a4,a4,a5
   1548a:	59c48563          	beq	s1,t3,15a14 <__subdf3+0x5f6>
   1548e:	03800793          	li	a5,56
   15492:	34b7c863          	blt	a5,a1,157e2 <__subdf3+0x3c4>
   15496:	47fd                	li	a5,31
   15498:	48b7c963          	blt	a5,a1,1592a <__subdf3+0x50c>
   1549c:	02000793          	li	a5,32
   154a0:	8f8d                	sub	a5,a5,a1
   154a2:	00bed9b3          	srl	s3,t4,a1
   154a6:	00f71833          	sll	a6,a4,a5
   154aa:	00fe9eb3          	sll	t4,t4,a5
   154ae:	01386833          	or	a6,a6,s3
   154b2:	00b75733          	srl	a4,a4,a1
   154b6:	01d039b3          	snez	s3,t4
   154ba:	01386833          	or	a6,a6,s3
   154be:	40e30333          	sub	t1,t1,a4
   154c2:	410f09b3          	sub	s3,t5,a6
   154c6:	013f37b3          	sltu	a5,t5,s3
   154ca:	40f30633          	sub	a2,t1,a5
   154ce:	00861793          	slli	a5,a2,0x8
   154d2:	2407d563          	bgez	a5,1571c <__subdf3+0x2fe>
   154d6:	00800937          	lui	s2,0x800
   154da:	197d                	addi	s2,s2,-1
   154dc:	01267933          	and	s2,a2,s2
   154e0:	2e090163          	beqz	s2,157c2 <__subdf3+0x3a4>
   154e4:	854a                	mv	a0,s2
   154e6:	00001097          	auipc	ra,0x1
   154ea:	8b0080e7          	jalr	-1872(ra) # 15d96 <__clzsi2>
   154ee:	ff850713          	addi	a4,a0,-8
   154f2:	02000793          	li	a5,32
   154f6:	8f99                	sub	a5,a5,a4
   154f8:	00f9d7b3          	srl	a5,s3,a5
   154fc:	00e91633          	sll	a2,s2,a4
   15500:	8fd1                	or	a5,a5,a2
   15502:	00e999b3          	sll	s3,s3,a4
   15506:	2a974463          	blt	a4,s1,157ae <__subdf3+0x390>
   1550a:	8f05                	sub	a4,a4,s1
   1550c:	00170613          	addi	a2,a4,1 # 100001 <MAINLOOP_COUNT+0x6d841>
   15510:	46fd                	li	a3,31
   15512:	3ac6c763          	blt	a3,a2,158c0 <__subdf3+0x4a2>
   15516:	02000713          	li	a4,32
   1551a:	8f11                	sub	a4,a4,a2
   1551c:	00c9d6b3          	srl	a3,s3,a2
   15520:	00e99833          	sll	a6,s3,a4
   15524:	00e79733          	sll	a4,a5,a4
   15528:	8f55                	or	a4,a4,a3
   1552a:	01003833          	snez	a6,a6
   1552e:	010769b3          	or	s3,a4,a6
   15532:	00c7d633          	srl	a2,a5,a2
   15536:	4481                	li	s1,0
   15538:	0079f793          	andi	a5,s3,7
   1553c:	cf81                	beqz	a5,15554 <__subdf3+0x136>
   1553e:	00f9f693          	andi	a3,s3,15
   15542:	4791                	li	a5,4
   15544:	00f68863          	beq	a3,a5,15554 <__subdf3+0x136>
   15548:	00498693          	addi	a3,s3,4
   1554c:	0136b833          	sltu	a6,a3,s3
   15550:	9642                	add	a2,a2,a6
   15552:	89b6                	mv	s3,a3
   15554:	00861793          	slli	a5,a2,0x8
   15558:	1c07d663          	bgez	a5,15724 <__subdf3+0x306>
   1555c:	00148713          	addi	a4,s1,1
   15560:	7ff00793          	li	a5,2047
   15564:	8805                	andi	s0,s0,1
   15566:	20f70663          	beq	a4,a5,15772 <__subdf3+0x354>
   1556a:	ff8007b7          	lui	a5,0xff800
   1556e:	17fd                	addi	a5,a5,-1
   15570:	8ff1                	and	a5,a5,a2
   15572:	01d79813          	slli	a6,a5,0x1d
   15576:	0039d993          	srli	s3,s3,0x3
   1557a:	07a6                	slli	a5,a5,0x9
   1557c:	01386833          	or	a6,a6,s3
   15580:	83b1                	srli	a5,a5,0xc
   15582:	7ff77713          	andi	a4,a4,2047
   15586:	00c79693          	slli	a3,a5,0xc
   1558a:	0752                	slli	a4,a4,0x14
   1558c:	82b1                	srli	a3,a3,0xc
   1558e:	047e                	slli	s0,s0,0x1f
   15590:	8ed9                	or	a3,a3,a4
   15592:	8ec1                	or	a3,a3,s0
   15594:	40f2                	lw	ra,28(sp)
   15596:	4462                	lw	s0,24(sp)
   15598:	44d2                	lw	s1,20(sp)
   1559a:	4942                	lw	s2,16(sp)
   1559c:	49b2                	lw	s3,12(sp)
   1559e:	8542                	mv	a0,a6
   155a0:	85b6                	mv	a1,a3
   155a2:	6105                	addi	sp,sp,32
   155a4:	8082                	ret
   155a6:	0ab05663          	blez	a1,15652 <__subdf3+0x234>
   155aa:	12088a63          	beqz	a7,156de <__subdf3+0x2c0>
   155ae:	008007b7          	lui	a5,0x800
   155b2:	8f5d                	or	a4,a4,a5
   155b4:	2dc48963          	beq	s1,t3,15886 <__subdf3+0x468>
   155b8:	03800793          	li	a5,56
   155bc:	18b7c763          	blt	a5,a1,1574a <__subdf3+0x32c>
   155c0:	47fd                	li	a5,31
   155c2:	3cb7d463          	bge	a5,a1,1598a <__subdf3+0x56c>
   155c6:	fe058813          	addi	a6,a1,-32
   155ca:	02000793          	li	a5,32
   155ce:	010759b3          	srl	s3,a4,a6
   155d2:	00f58a63          	beq	a1,a5,155e6 <__subdf3+0x1c8>
   155d6:	04000793          	li	a5,64
   155da:	40b785b3          	sub	a1,a5,a1
   155de:	00b71733          	sll	a4,a4,a1
   155e2:	00eeeeb3          	or	t4,t4,a4
   155e6:	01d03833          	snez	a6,t4
   155ea:	01386833          	or	a6,a6,s3
   155ee:	a295                	j	15752 <__subdf3+0x334>
   155f0:	01d767b3          	or	a5,a4,t4
   155f4:	80148593          	addi	a1,s1,-2047
   155f8:	e399                	bnez	a5,155fe <__subdf3+0x1e0>
   155fa:	0016c693          	xori	a3,a3,1
   155fe:	04d40a63          	beq	s0,a3,15652 <__subdf3+0x234>
   15602:	e1d1                	bnez	a1,15686 <__subdf3+0x268>
   15604:	00148793          	addi	a5,s1,1
   15608:	7fe7f793          	andi	a5,a5,2046
   1560c:	1e079b63          	bnez	a5,15802 <__subdf3+0x3e4>
   15610:	01e367b3          	or	a5,t1,t5
   15614:	01d76833          	or	a6,a4,t4
   15618:	16049263          	bnez	s1,1577c <__subdf3+0x35e>
   1561c:	3c078463          	beqz	a5,159e4 <__subdf3+0x5c6>
   15620:	42081863          	bnez	a6,15a50 <__subdf3+0x632>
   15624:	00351813          	slli	a6,a0,0x3
   15628:	01d31693          	slli	a3,t1,0x1d
   1562c:	00385813          	srli	a6,a6,0x3
   15630:	0106e833          	or	a6,a3,a6
   15634:	00335793          	srli	a5,t1,0x3
   15638:	a219                	j	1573e <__subdf3+0x320>
   1563a:	01d767b3          	or	a5,a4,t4
   1563e:	1a078763          	beqz	a5,157ec <__subdf3+0x3ce>
   15642:	fff58793          	addi	a5,a1,-1
   15646:	3a078d63          	beqz	a5,15a00 <__subdf3+0x5e2>
   1564a:	23c58e63          	beq	a1,t3,15886 <__subdf3+0x468>
   1564e:	85be                	mv	a1,a5
   15650:	bd3d                	j	1548e <__subdf3+0x70>
   15652:	1c059b63          	bnez	a1,15828 <__subdf3+0x40a>
   15656:	00148693          	addi	a3,s1,1
   1565a:	7fe6f793          	andi	a5,a3,2046
   1565e:	efc1                	bnez	a5,156f6 <__subdf3+0x2d8>
   15660:	01e367b3          	or	a5,t1,t5
   15664:	36049263          	bnez	s1,159c8 <__subdf3+0x5aa>
   15668:	44078f63          	beqz	a5,15ac6 <__subdf3+0x6a8>
   1566c:	01d767b3          	or	a5,a4,t4
   15670:	46079663          	bnez	a5,15adc <__subdf3+0x6be>
   15674:	050e                	slli	a0,a0,0x3
   15676:	01d31813          	slli	a6,t1,0x1d
   1567a:	810d                	srli	a0,a0,0x3
   1567c:	00a86833          	or	a6,a6,a0
   15680:	00335793          	srli	a5,t1,0x3
   15684:	a86d                	j	1573e <__subdf3+0x320>
   15686:	409885b3          	sub	a1,a7,s1
   1568a:	20049963          	bnez	s1,1589c <__subdf3+0x47e>
   1568e:	01e367b3          	or	a5,t1,t5
   15692:	30078f63          	beqz	a5,159b0 <__subdf3+0x592>
   15696:	fff58793          	addi	a5,a1,-1
   1569a:	40078b63          	beqz	a5,15ab0 <__subdf3+0x692>
   1569e:	7ff00513          	li	a0,2047
   156a2:	20a58563          	beq	a1,a0,158ac <__subdf3+0x48e>
   156a6:	85be                	mv	a1,a5
   156a8:	03800793          	li	a5,56
   156ac:	2ab7c463          	blt	a5,a1,15954 <__subdf3+0x536>
   156b0:	47fd                	li	a5,31
   156b2:	3cb7ca63          	blt	a5,a1,15a86 <__subdf3+0x668>
   156b6:	02000793          	li	a5,32
   156ba:	8f8d                	sub	a5,a5,a1
   156bc:	00f31833          	sll	a6,t1,a5
   156c0:	00bf5633          	srl	a2,t5,a1
   156c4:	00ff17b3          	sll	a5,t5,a5
   156c8:	00c86833          	or	a6,a6,a2
   156cc:	00f039b3          	snez	s3,a5
   156d0:	00b35333          	srl	t1,t1,a1
   156d4:	01386833          	or	a6,a6,s3
   156d8:	40670733          	sub	a4,a4,t1
   156dc:	a441                	j	1595c <__subdf3+0x53e>
   156de:	01d767b3          	or	a5,a4,t4
   156e2:	10078563          	beqz	a5,157ec <__subdf3+0x3ce>
   156e6:	fff58793          	addi	a5,a1,-1
   156ea:	20078163          	beqz	a5,158ec <__subdf3+0x4ce>
   156ee:	2fc58263          	beq	a1,t3,159d2 <__subdf3+0x5b4>
   156f2:	85be                	mv	a1,a5
   156f4:	b5d1                	j	155b8 <__subdf3+0x19a>
   156f6:	7ff00793          	li	a5,2047
   156fa:	06f68b63          	beq	a3,a5,15770 <__subdf3+0x352>
   156fe:	9efa                	add	t4,t4,t5
   15700:	01eeb633          	sltu	a2,t4,t5
   15704:	00e307b3          	add	a5,t1,a4
   15708:	97b2                	add	a5,a5,a2
   1570a:	01f79813          	slli	a6,a5,0x1f
   1570e:	001ede93          	srli	t4,t4,0x1
   15712:	01d869b3          	or	s3,a6,t4
   15716:	0017d613          	srli	a2,a5,0x1
   1571a:	84b6                	mv	s1,a3
   1571c:	0079f793          	andi	a5,s3,7
   15720:	e0079fe3          	bnez	a5,1553e <__subdf3+0x120>
   15724:	01d61793          	slli	a5,a2,0x1d
   15728:	0039d813          	srli	a6,s3,0x3
   1572c:	00f86833          	or	a6,a6,a5
   15730:	85a6                	mv	a1,s1
   15732:	00365793          	srli	a5,a2,0x3
   15736:	7ff00713          	li	a4,2047
   1573a:	06e58063          	beq	a1,a4,1579a <__subdf3+0x37c>
   1573e:	07b2                	slli	a5,a5,0xc
   15740:	83b1                	srli	a5,a5,0xc
   15742:	7ff5f713          	andi	a4,a1,2047
   15746:	8805                	andi	s0,s0,1
   15748:	bd3d                	j	15586 <__subdf3+0x168>
   1574a:	01d76733          	or	a4,a4,t4
   1574e:	00e03833          	snez	a6,a4
   15752:	01e809b3          	add	s3,a6,t5
   15756:	01e9b7b3          	sltu	a5,s3,t5
   1575a:	00678633          	add	a2,a5,t1
   1575e:	00861793          	slli	a5,a2,0x8
   15762:	fa07dde3          	bgez	a5,1571c <__subdf3+0x2fe>
   15766:	0485                	addi	s1,s1,1
   15768:	7ff00793          	li	a5,2047
   1576c:	18f49e63          	bne	s1,a5,15908 <__subdf3+0x4ea>
   15770:	8805                	andi	s0,s0,1
   15772:	7ff00713          	li	a4,2047
   15776:	4781                	li	a5,0
   15778:	4801                	li	a6,0
   1577a:	b531                	j	15586 <__subdf3+0x168>
   1577c:	10079363          	bnez	a5,15882 <__subdf3+0x464>
   15780:	3c080363          	beqz	a6,15b46 <__subdf3+0x728>
   15784:	00361813          	slli	a6,a2,0x3
   15788:	01d71793          	slli	a5,a4,0x1d
   1578c:	00385813          	srli	a6,a6,0x3
   15790:	00f86833          	or	a6,a6,a5
   15794:	8436                	mv	s0,a3
   15796:	00375793          	srli	a5,a4,0x3
   1579a:	00f867b3          	or	a5,a6,a5
   1579e:	dbe9                	beqz	a5,15770 <__subdf3+0x352>
   157a0:	4401                	li	s0,0
   157a2:	7ff00713          	li	a4,2047
   157a6:	000807b7          	lui	a5,0x80
   157aa:	4801                	li	a6,0
   157ac:	bbe9                	j	15586 <__subdf3+0x168>
   157ae:	ff800637          	lui	a2,0xff800
   157b2:	167d                	addi	a2,a2,-1
   157b4:	8e7d                	and	a2,a2,a5
   157b6:	0079f793          	andi	a5,s3,7
   157ba:	8c99                	sub	s1,s1,a4
   157bc:	d80791e3          	bnez	a5,1553e <__subdf3+0x120>
   157c0:	b795                	j	15724 <__subdf3+0x306>
   157c2:	854e                	mv	a0,s3
   157c4:	00000097          	auipc	ra,0x0
   157c8:	5d2080e7          	jalr	1490(ra) # 15d96 <__clzsi2>
   157cc:	01850713          	addi	a4,a0,24
   157d0:	47fd                	li	a5,31
   157d2:	d2e7d0e3          	bge	a5,a4,154f2 <__subdf3+0xd4>
   157d6:	ff850613          	addi	a2,a0,-8
   157da:	00c997b3          	sll	a5,s3,a2
   157de:	4981                	li	s3,0
   157e0:	b31d                	j	15506 <__subdf3+0xe8>
   157e2:	01d76833          	or	a6,a4,t4
   157e6:	01003833          	snez	a6,a6
   157ea:	b9e1                	j	154c2 <__subdf3+0xa4>
   157ec:	00351813          	slli	a6,a0,0x3
   157f0:	01d31793          	slli	a5,t1,0x1d
   157f4:	00385813          	srli	a6,a6,0x3
   157f8:	00f86833          	or	a6,a6,a5
   157fc:	00335793          	srli	a5,t1,0x3
   15800:	bf1d                	j	15736 <__subdf3+0x318>
   15802:	41df09b3          	sub	s3,t5,t4
   15806:	40e30933          	sub	s2,t1,a4
   1580a:	013f3633          	sltu	a2,t5,s3
   1580e:	40c90933          	sub	s2,s2,a2
   15812:	00891793          	slli	a5,s2,0x8
   15816:	2007ca63          	bltz	a5,15a2a <__subdf3+0x60c>
   1581a:	0129e833          	or	a6,s3,s2
   1581e:	cc0811e3          	bnez	a6,154e0 <__subdf3+0xc2>
   15822:	4781                	li	a5,0
   15824:	4401                	li	s0,0
   15826:	bf21                	j	1573e <__subdf3+0x320>
   15828:	409885b3          	sub	a1,a7,s1
   1582c:	14048163          	beqz	s1,1596e <__subdf3+0x550>
   15830:	008006b7          	lui	a3,0x800
   15834:	7ff00793          	li	a5,2047
   15838:	00d36333          	or	t1,t1,a3
   1583c:	20f88163          	beq	a7,a5,15a3e <__subdf3+0x620>
   15840:	03800793          	li	a5,56
   15844:	22b7cc63          	blt	a5,a1,15a7c <__subdf3+0x65e>
   15848:	47fd                	li	a5,31
   1584a:	2cb7c963          	blt	a5,a1,15b1c <__subdf3+0x6fe>
   1584e:	02000793          	li	a5,32
   15852:	8f8d                	sub	a5,a5,a1
   15854:	00f31833          	sll	a6,t1,a5
   15858:	00bf56b3          	srl	a3,t5,a1
   1585c:	00ff17b3          	sll	a5,t5,a5
   15860:	00d86833          	or	a6,a6,a3
   15864:	00f039b3          	snez	s3,a5
   15868:	00b35333          	srl	t1,t1,a1
   1586c:	01386833          	or	a6,a6,s3
   15870:	971a                	add	a4,a4,t1
   15872:	01d809b3          	add	s3,a6,t4
   15876:	01d9b7b3          	sltu	a5,s3,t4
   1587a:	00e78633          	add	a2,a5,a4
   1587e:	84c6                	mv	s1,a7
   15880:	bdf9                	j	1575e <__subdf3+0x340>
   15882:	f0081fe3          	bnez	a6,157a0 <__subdf3+0x382>
   15886:	00351813          	slli	a6,a0,0x3
   1588a:	01d31793          	slli	a5,t1,0x1d
   1588e:	00385813          	srli	a6,a6,0x3
   15892:	00f86833          	or	a6,a6,a5
   15896:	00335793          	srli	a5,t1,0x3
   1589a:	b701                	j	1579a <__subdf3+0x37c>
   1589c:	00800537          	lui	a0,0x800
   158a0:	7ff00793          	li	a5,2047
   158a4:	00a36333          	or	t1,t1,a0
   158a8:	e0f890e3          	bne	a7,a5,156a8 <__subdf3+0x28a>
   158ac:	060e                	slli	a2,a2,0x3
   158ae:	01d71813          	slli	a6,a4,0x1d
   158b2:	820d                	srli	a2,a2,0x3
   158b4:	00c86833          	or	a6,a6,a2
   158b8:	00375793          	srli	a5,a4,0x3
   158bc:	8436                	mv	s0,a3
   158be:	bdf1                	j	1579a <__subdf3+0x37c>
   158c0:	1705                	addi	a4,a4,-31
   158c2:	02000693          	li	a3,32
   158c6:	00e7d733          	srl	a4,a5,a4
   158ca:	00d60a63          	beq	a2,a3,158de <__subdf3+0x4c0>
   158ce:	04000693          	li	a3,64
   158d2:	40c68633          	sub	a2,a3,a2
   158d6:	00c79633          	sll	a2,a5,a2
   158da:	00c9e9b3          	or	s3,s3,a2
   158de:	01303833          	snez	a6,s3
   158e2:	00e869b3          	or	s3,a6,a4
   158e6:	4601                	li	a2,0
   158e8:	4481                	li	s1,0
   158ea:	bd0d                	j	1571c <__subdf3+0x2fe>
   158ec:	01df09b3          	add	s3,t5,t4
   158f0:	00e307b3          	add	a5,t1,a4
   158f4:	01e9bf33          	sltu	t5,s3,t5
   158f8:	01e78633          	add	a2,a5,t5
   158fc:	00861793          	slli	a5,a2,0x8
   15900:	4485                	li	s1,1
   15902:	e007dde3          	bgez	a5,1571c <__subdf3+0x2fe>
   15906:	4489                	li	s1,2
   15908:	ff8007b7          	lui	a5,0xff800
   1590c:	17fd                	addi	a5,a5,-1
   1590e:	8ff1                	and	a5,a5,a2
   15910:	0019d713          	srli	a4,s3,0x1
   15914:	0019f813          	andi	a6,s3,1
   15918:	01076833          	or	a6,a4,a6
   1591c:	01f79993          	slli	s3,a5,0x1f
   15920:	0109e9b3          	or	s3,s3,a6
   15924:	0017d613          	srli	a2,a5,0x1
   15928:	b901                	j	15538 <__subdf3+0x11a>
   1592a:	fe058813          	addi	a6,a1,-32
   1592e:	02000793          	li	a5,32
   15932:	010759b3          	srl	s3,a4,a6
   15936:	00f58a63          	beq	a1,a5,1594a <__subdf3+0x52c>
   1593a:	04000793          	li	a5,64
   1593e:	40b785b3          	sub	a1,a5,a1
   15942:	00b71733          	sll	a4,a4,a1
   15946:	00eeeeb3          	or	t4,t4,a4
   1594a:	01d03833          	snez	a6,t4
   1594e:	01386833          	or	a6,a6,s3
   15952:	be85                	j	154c2 <__subdf3+0xa4>
   15954:	01e36333          	or	t1,t1,t5
   15958:	00603833          	snez	a6,t1
   1595c:	410e89b3          	sub	s3,t4,a6
   15960:	013eb7b3          	sltu	a5,t4,s3
   15964:	40f70633          	sub	a2,a4,a5
   15968:	84c6                	mv	s1,a7
   1596a:	8436                	mv	s0,a3
   1596c:	b68d                	j	154ce <__subdf3+0xb0>
   1596e:	01e367b3          	or	a5,t1,t5
   15972:	18078763          	beqz	a5,15b00 <__subdf3+0x6e2>
   15976:	fff58793          	addi	a5,a1,-1
   1597a:	1c078c63          	beqz	a5,15b52 <__subdf3+0x734>
   1597e:	7ff00693          	li	a3,2047
   15982:	0ad58e63          	beq	a1,a3,15a3e <__subdf3+0x620>
   15986:	85be                	mv	a1,a5
   15988:	bd65                	j	15840 <__subdf3+0x422>
   1598a:	02000793          	li	a5,32
   1598e:	8f8d                	sub	a5,a5,a1
   15990:	00bed9b3          	srl	s3,t4,a1
   15994:	00f71833          	sll	a6,a4,a5
   15998:	00fe9eb3          	sll	t4,t4,a5
   1599c:	01386833          	or	a6,a6,s3
   159a0:	00b75733          	srl	a4,a4,a1
   159a4:	01d039b3          	snez	s3,t4
   159a8:	01386833          	or	a6,a6,s3
   159ac:	933a                	add	t1,t1,a4
   159ae:	b355                	j	15752 <__subdf3+0x334>
   159b0:	00361813          	slli	a6,a2,0x3
   159b4:	01d71793          	slli	a5,a4,0x1d
   159b8:	00385813          	srli	a6,a6,0x3
   159bc:	0107e833          	or	a6,a5,a6
   159c0:	8436                	mv	s0,a3
   159c2:	00375793          	srli	a5,a4,0x3
   159c6:	bb85                	j	15736 <__subdf3+0x318>
   159c8:	cbbd                	beqz	a5,15a3e <__subdf3+0x620>
   159ca:	01d76733          	or	a4,a4,t4
   159ce:	dc0719e3          	bnez	a4,157a0 <__subdf3+0x382>
   159d2:	050e                	slli	a0,a0,0x3
   159d4:	01d31813          	slli	a6,t1,0x1d
   159d8:	810d                	srli	a0,a0,0x3
   159da:	00a86833          	or	a6,a6,a0
   159de:	00335793          	srli	a5,t1,0x3
   159e2:	bb65                	j	1579a <__subdf3+0x37c>
   159e4:	e2080fe3          	beqz	a6,15822 <__subdf3+0x404>
   159e8:	00361813          	slli	a6,a2,0x3
   159ec:	01d71793          	slli	a5,a4,0x1d
   159f0:	00385813          	srli	a6,a6,0x3
   159f4:	00f86833          	or	a6,a6,a5
   159f8:	8436                	mv	s0,a3
   159fa:	00375793          	srli	a5,a4,0x3
   159fe:	b381                	j	1573e <__subdf3+0x320>
   15a00:	41df09b3          	sub	s3,t5,t4
   15a04:	40e307b3          	sub	a5,t1,a4
   15a08:	013f3f33          	sltu	t5,t5,s3
   15a0c:	41e78633          	sub	a2,a5,t5
   15a10:	4485                	li	s1,1
   15a12:	bc75                	j	154ce <__subdf3+0xb0>
   15a14:	00351813          	slli	a6,a0,0x3
   15a18:	01d31693          	slli	a3,t1,0x1d
   15a1c:	00385813          	srli	a6,a6,0x3
   15a20:	0106e833          	or	a6,a3,a6
   15a24:	00335793          	srli	a5,t1,0x3
   15a28:	bb8d                	j	1579a <__subdf3+0x37c>
   15a2a:	41ee89b3          	sub	s3,t4,t5
   15a2e:	40670633          	sub	a2,a4,t1
   15a32:	013eb933          	sltu	s2,t4,s3
   15a36:	41260933          	sub	s2,a2,s2
   15a3a:	8436                	mv	s0,a3
   15a3c:	b455                	j	154e0 <__subdf3+0xc2>
   15a3e:	060e                	slli	a2,a2,0x3
   15a40:	01d71813          	slli	a6,a4,0x1d
   15a44:	820d                	srli	a2,a2,0x3
   15a46:	00c86833          	or	a6,a6,a2
   15a4a:	00375793          	srli	a5,a4,0x3
   15a4e:	b3b1                	j	1579a <__subdf3+0x37c>
   15a50:	41df09b3          	sub	s3,t5,t4
   15a54:	40e307b3          	sub	a5,t1,a4
   15a58:	013f3633          	sltu	a2,t5,s3
   15a5c:	40c78633          	sub	a2,a5,a2
   15a60:	00861793          	slli	a5,a2,0x8
   15a64:	0a07d763          	bgez	a5,15b12 <__subdf3+0x6f4>
   15a68:	41ee89b3          	sub	s3,t4,t5
   15a6c:	406707b3          	sub	a5,a4,t1
   15a70:	013ebeb3          	sltu	t4,t4,s3
   15a74:	41d78633          	sub	a2,a5,t4
   15a78:	8436                	mv	s0,a3
   15a7a:	bc7d                	j	15538 <__subdf3+0x11a>
   15a7c:	01e36333          	or	t1,t1,t5
   15a80:	00603833          	snez	a6,t1
   15a84:	b3fd                	j	15872 <__subdf3+0x454>
   15a86:	fe058813          	addi	a6,a1,-32
   15a8a:	02000793          	li	a5,32
   15a8e:	010359b3          	srl	s3,t1,a6
   15a92:	00f58a63          	beq	a1,a5,15aa6 <__subdf3+0x688>
   15a96:	04000793          	li	a5,64
   15a9a:	40b785b3          	sub	a1,a5,a1
   15a9e:	00b31333          	sll	t1,t1,a1
   15aa2:	006f6f33          	or	t5,t5,t1
   15aa6:	01e03833          	snez	a6,t5
   15aaa:	01386833          	or	a6,a6,s3
   15aae:	b57d                	j	1595c <__subdf3+0x53e>
   15ab0:	41ee89b3          	sub	s3,t4,t5
   15ab4:	406707b3          	sub	a5,a4,t1
   15ab8:	013ebeb3          	sltu	t4,t4,s3
   15abc:	41d78633          	sub	a2,a5,t4
   15ac0:	8436                	mv	s0,a3
   15ac2:	4485                	li	s1,1
   15ac4:	b429                	j	154ce <__subdf3+0xb0>
   15ac6:	00361813          	slli	a6,a2,0x3
   15aca:	01d71793          	slli	a5,a4,0x1d
   15ace:	00385813          	srli	a6,a6,0x3
   15ad2:	00f86833          	or	a6,a6,a5
   15ad6:	00375793          	srli	a5,a4,0x3
   15ada:	b195                	j	1573e <__subdf3+0x320>
   15adc:	01df09b3          	add	s3,t5,t4
   15ae0:	00e307b3          	add	a5,t1,a4
   15ae4:	01e9bf33          	sltu	t5,s3,t5
   15ae8:	01e78633          	add	a2,a5,t5
   15aec:	00861793          	slli	a5,a2,0x8
   15af0:	c207d6e3          	bgez	a5,1571c <__subdf3+0x2fe>
   15af4:	ff8007b7          	lui	a5,0xff800
   15af8:	17fd                	addi	a5,a5,-1
   15afa:	8e7d                	and	a2,a2,a5
   15afc:	4485                	li	s1,1
   15afe:	b939                	j	1571c <__subdf3+0x2fe>
   15b00:	060e                	slli	a2,a2,0x3
   15b02:	01d71813          	slli	a6,a4,0x1d
   15b06:	820d                	srli	a2,a2,0x3
   15b08:	00c86833          	or	a6,a6,a2
   15b0c:	00375793          	srli	a5,a4,0x3
   15b10:	b11d                	j	15736 <__subdf3+0x318>
   15b12:	00c9e833          	or	a6,s3,a2
   15b16:	d00806e3          	beqz	a6,15822 <__subdf3+0x404>
   15b1a:	b109                	j	1571c <__subdf3+0x2fe>
   15b1c:	fe058813          	addi	a6,a1,-32
   15b20:	02000793          	li	a5,32
   15b24:	010359b3          	srl	s3,t1,a6
   15b28:	00f58a63          	beq	a1,a5,15b3c <__subdf3+0x71e>
   15b2c:	04000793          	li	a5,64
   15b30:	40b785b3          	sub	a1,a5,a1
   15b34:	00b31333          	sll	t1,t1,a1
   15b38:	006f6f33          	or	t5,t5,t1
   15b3c:	01e03833          	snez	a6,t5
   15b40:	01386833          	or	a6,a6,s3
   15b44:	b33d                	j	15872 <__subdf3+0x454>
   15b46:	4401                	li	s0,0
   15b48:	7ff00713          	li	a4,2047
   15b4c:	000807b7          	lui	a5,0x80
   15b50:	bc1d                	j	15586 <__subdf3+0x168>
   15b52:	01df09b3          	add	s3,t5,t4
   15b56:	00e307b3          	add	a5,t1,a4
   15b5a:	01d9beb3          	sltu	t4,s3,t4
   15b5e:	01d78633          	add	a2,a5,t4
   15b62:	bb69                	j	158fc <__subdf3+0x4de>

00015b64 <__fixunsdfdi>:
__fixunsdfdi():
   15b64:	0145d793          	srli	a5,a1,0x14
   15b68:	001006b7          	lui	a3,0x100
   15b6c:	fff68713          	addi	a4,a3,-1 # fffff <MAINLOOP_COUNT+0x6d83f>
   15b70:	7ff7f793          	andi	a5,a5,2047
   15b74:	3fe00613          	li	a2,1022
   15b78:	8f6d                	and	a4,a4,a1
   15b7a:	81fd                	srli	a1,a1,0x1f
   15b7c:	00f65363          	bge	a2,a5,15b82 <__fixunsdfdi+0x1e>
   15b80:	c581                	beqz	a1,15b88 <__fixunsdfdi+0x24>
   15b82:	4501                	li	a0,0
   15b84:	4581                	li	a1,0
   15b86:	8082                	ret
   15b88:	43e00613          	li	a2,1086
   15b8c:	00f65563          	bge	a2,a5,15b96 <__fixunsdfdi+0x32>
   15b90:	557d                	li	a0,-1
   15b92:	55fd                	li	a1,-1
   15b94:	8082                	ret
   15b96:	43200613          	li	a2,1074
   15b9a:	00d765b3          	or	a1,a4,a3
   15b9e:	00f65c63          	bge	a2,a5,15bb6 <__fixunsdfdi+0x52>
   15ba2:	bad78713          	addi	a4,a5,-1107 # 7fbad <_data_lma+0x69b85>
   15ba6:	bcd78793          	addi	a5,a5,-1075
   15baa:	04074063          	bltz	a4,15bea <__fixunsdfdi+0x86>
   15bae:	00e515b3          	sll	a1,a0,a4
   15bb2:	4501                	li	a0,0
   15bb4:	8082                	ret
   15bb6:	43300693          	li	a3,1075
   15bba:	8e9d                	sub	a3,a3,a5
   15bbc:	477d                	li	a4,31
   15bbe:	00d75b63          	bge	a4,a3,15bd4 <__fixunsdfdi+0x70>
   15bc2:	41300713          	li	a4,1043
   15bc6:	40f707b3          	sub	a5,a4,a5
   15bca:	00f5d7b3          	srl	a5,a1,a5
   15bce:	4581                	li	a1,0
   15bd0:	853e                	mv	a0,a5
   15bd2:	8082                	ret
   15bd4:	bed78713          	addi	a4,a5,-1043
   15bd8:	00e59733          	sll	a4,a1,a4
   15bdc:	00d55533          	srl	a0,a0,a3
   15be0:	00a767b3          	or	a5,a4,a0
   15be4:	00d5d5b3          	srl	a1,a1,a3
   15be8:	b7e5                	j	15bd0 <__fixunsdfdi+0x6c>
   15bea:	46fd                	li	a3,31
   15bec:	00155713          	srli	a4,a0,0x1
   15bf0:	8e9d                	sub	a3,a3,a5
   15bf2:	00d75733          	srl	a4,a4,a3
   15bf6:	00f595b3          	sll	a1,a1,a5
   15bfa:	8dd9                	or	a1,a1,a4
   15bfc:	00f51533          	sll	a0,a0,a5
   15c00:	8082                	ret

00015c02 <__floatundidf>:
__floatundidf():
   15c02:	00b567b3          	or	a5,a0,a1
   15c06:	c3b1                	beqz	a5,15c4a <__floatundidf+0x48>
   15c08:	1141                	addi	sp,sp,-16
   15c0a:	c422                	sw	s0,8(sp)
   15c0c:	c226                	sw	s1,4(sp)
   15c0e:	c04a                	sw	s2,0(sp)
   15c10:	c606                	sw	ra,12(sp)
   15c12:	84aa                	mv	s1,a0
   15c14:	892e                	mv	s2,a1
   15c16:	842e                	mv	s0,a1
   15c18:	c1b9                	beqz	a1,15c5e <__floatundidf+0x5c>
   15c1a:	852e                	mv	a0,a1
   15c1c:	00000097          	auipc	ra,0x0
   15c20:	17a080e7          	jalr	378(ra) # 15d96 <__clzsi2>
   15c24:	43e00693          	li	a3,1086
   15c28:	8e89                	sub	a3,a3,a0
   15c2a:	43300793          	li	a5,1075
   15c2e:	06d7c763          	blt	a5,a3,15c9c <__floatundidf+0x9a>
   15c32:	00c91793          	slli	a5,s2,0xc
   15c36:	462d                	li	a2,11
   15c38:	8726                	mv	a4,s1
   15c3a:	7ff6f693          	andi	a3,a3,2047
   15c3e:	83b1                	srli	a5,a5,0xc
   15c40:	0ca65f63          	bge	a2,a0,15d1e <__floatundidf+0x11c>
   15c44:	ff550613          	addi	a2,a0,-11 # 7ffff5 <MAINLOOP_COUNT+0x76d835>
   15c48:	a825                	j	15c80 <__floatundidf+0x7e>
   15c4a:	4781                	li	a5,0
   15c4c:	4681                	li	a3,0
   15c4e:	07b2                	slli	a5,a5,0xc
   15c50:	06d2                	slli	a3,a3,0x14
   15c52:	83b1                	srli	a5,a5,0xc
   15c54:	4701                	li	a4,0
   15c56:	8fd5                	or	a5,a5,a3
   15c58:	853a                	mv	a0,a4
   15c5a:	85be                	mv	a1,a5
   15c5c:	8082                	ret
   15c5e:	00000097          	auipc	ra,0x0
   15c62:	138080e7          	jalr	312(ra) # 15d96 <__clzsi2>
   15c66:	862a                	mv	a2,a0
   15c68:	43e00693          	li	a3,1086
   15c6c:	02050513          	addi	a0,a0,32
   15c70:	8e89                	sub	a3,a3,a0
   15c72:	02a00713          	li	a4,42
   15c76:	7ff6f693          	andi	a3,a3,2047
   15c7a:	0ca74c63          	blt	a4,a0,15d52 <__floatundidf+0x150>
   15c7e:	0655                	addi	a2,a2,21
   15c80:	02b00713          	li	a4,43
   15c84:	8f09                	sub	a4,a4,a0
   15c86:	00c917b3          	sll	a5,s2,a2
   15c8a:	00e4d733          	srl	a4,s1,a4
   15c8e:	8f5d                	or	a4,a4,a5
   15c90:	00c71793          	slli	a5,a4,0xc
   15c94:	83b1                	srli	a5,a5,0xc
   15c96:	00c49733          	sll	a4,s1,a2
   15c9a:	a051                	j	15d1e <__floatundidf+0x11c>
   15c9c:	43600793          	li	a5,1078
   15ca0:	02d7d963          	bge	a5,a3,15cd2 <__floatundidf+0xd0>
   15ca4:	01850713          	addi	a4,a0,24
   15ca8:	03850793          	addi	a5,a0,56
   15cac:	0c074763          	bltz	a4,15d7a <__floatundidf+0x178>
   15cb0:	00e49633          	sll	a2,s1,a4
   15cb4:	4701                	li	a4,0
   15cb6:	4421                	li	s0,8
   15cb8:	8c09                	sub	s0,s0,a0
   15cba:	8f51                	or	a4,a4,a2
   15cbc:	fe040793          	addi	a5,s0,-32 # 7ffe0 <_data_lma+0x69fb8>
   15cc0:	00e03733          	snez	a4,a4
   15cc4:	0807cf63          	bltz	a5,15d62 <__floatundidf+0x160>
   15cc8:	00f954b3          	srl	s1,s2,a5
   15ccc:	4781                	li	a5,0
   15cce:	8cd9                	or	s1,s1,a4
   15cd0:	843e                	mv	s0,a5
   15cd2:	47a1                	li	a5,8
   15cd4:	06a7c163          	blt	a5,a0,15d36 <__floatundidf+0x134>
   15cd8:	ff800737          	lui	a4,0xff800
   15cdc:	177d                	addi	a4,a4,-1
   15cde:	0074f613          	andi	a2,s1,7
   15ce2:	00e477b3          	and	a5,s0,a4
   15ce6:	c605                	beqz	a2,15d0e <__floatundidf+0x10c>
   15ce8:	00f4f613          	andi	a2,s1,15
   15cec:	4591                	li	a1,4
   15cee:	02b60063          	beq	a2,a1,15d0e <__floatundidf+0x10c>
   15cf2:	00448613          	addi	a2,s1,4
   15cf6:	009634b3          	sltu	s1,a2,s1
   15cfa:	97a6                	add	a5,a5,s1
   15cfc:	00879593          	slli	a1,a5,0x8
   15d00:	0805d963          	bgez	a1,15d92 <__floatundidf+0x190>
   15d04:	43f00693          	li	a3,1087
   15d08:	8ff9                	and	a5,a5,a4
   15d0a:	8e89                	sub	a3,a3,a0
   15d0c:	84b2                	mv	s1,a2
   15d0e:	01d79713          	slli	a4,a5,0x1d
   15d12:	808d                	srli	s1,s1,0x3
   15d14:	07a6                	slli	a5,a5,0x9
   15d16:	8f45                	or	a4,a4,s1
   15d18:	83b1                	srli	a5,a5,0xc
   15d1a:	7ff6f693          	andi	a3,a3,2047
   15d1e:	40b2                	lw	ra,12(sp)
   15d20:	4422                	lw	s0,8(sp)
   15d22:	07b2                	slli	a5,a5,0xc
   15d24:	06d2                	slli	a3,a3,0x14
   15d26:	83b1                	srli	a5,a5,0xc
   15d28:	8fd5                	or	a5,a5,a3
   15d2a:	4492                	lw	s1,4(sp)
   15d2c:	4902                	lw	s2,0(sp)
   15d2e:	853a                	mv	a0,a4
   15d30:	85be                	mv	a1,a5
   15d32:	0141                	addi	sp,sp,16
   15d34:	8082                	ret
   15d36:	02800713          	li	a4,40
   15d3a:	ff850613          	addi	a2,a0,-8
   15d3e:	8f09                	sub	a4,a4,a0
   15d40:	00e4d733          	srl	a4,s1,a4
   15d44:	00c417b3          	sll	a5,s0,a2
   15d48:	00f76433          	or	s0,a4,a5
   15d4c:	00c494b3          	sll	s1,s1,a2
   15d50:	b761                	j	15cd8 <__floatundidf+0xd6>
   15d52:	ff560793          	addi	a5,a2,-11 # ff7ffff5 <R32_PB_PD_DRV+0xbf7fef21>
   15d56:	00f497b3          	sll	a5,s1,a5
   15d5a:	07b2                	slli	a5,a5,0xc
   15d5c:	83b1                	srli	a5,a5,0xc
   15d5e:	4701                	li	a4,0
   15d60:	bf7d                	j	15d1e <__floatundidf+0x11c>
   15d62:	467d                	li	a2,31
   15d64:	00191793          	slli	a5,s2,0x1
   15d68:	8e01                	sub	a2,a2,s0
   15d6a:	00c797b3          	sll	a5,a5,a2
   15d6e:	0084d4b3          	srl	s1,s1,s0
   15d72:	8cdd                	or	s1,s1,a5
   15d74:	008957b3          	srl	a5,s2,s0
   15d78:	bf99                	j	15cce <__floatundidf+0xcc>
   15d7a:	467d                	li	a2,31
   15d7c:	8e1d                	sub	a2,a2,a5
   15d7e:	0014d713          	srli	a4,s1,0x1
   15d82:	00c75733          	srl	a4,a4,a2
   15d86:	00f91633          	sll	a2,s2,a5
   15d8a:	8e59                	or	a2,a2,a4
   15d8c:	00f49733          	sll	a4,s1,a5
   15d90:	b71d                	j	15cb6 <__floatundidf+0xb4>
   15d92:	84b2                	mv	s1,a2
   15d94:	bfad                	j	15d0e <__floatundidf+0x10c>

00015d96 <__clzsi2>:
__clzsi2():
   15d96:	67c1                	lui	a5,0x10
   15d98:	02f57e63          	bgeu	a0,a5,15dd4 <__clzsi2+0x3e>
   15d9c:	0ff00793          	li	a5,255
   15da0:	02000713          	li	a4,32
   15da4:	00a7ec63          	bltu	a5,a0,15dbc <__clzsi2+0x26>
   15da8:	00000797          	auipc	a5,0x0
   15dac:	18078793          	addi	a5,a5,384 # 15f28 <__clz_tab>
   15db0:	97aa                	add	a5,a5,a0
   15db2:	0007c503          	lbu	a0,0(a5)
   15db6:	40a70533          	sub	a0,a4,a0
   15dba:	8082                	ret
   15dbc:	8121                	srli	a0,a0,0x8
   15dbe:	00000797          	auipc	a5,0x0
   15dc2:	16a78793          	addi	a5,a5,362 # 15f28 <__clz_tab>
   15dc6:	97aa                	add	a5,a5,a0
   15dc8:	0007c503          	lbu	a0,0(a5)
   15dcc:	4761                	li	a4,24
   15dce:	40a70533          	sub	a0,a4,a0
   15dd2:	8082                	ret
   15dd4:	010007b7          	lui	a5,0x1000
   15dd8:	00f56e63          	bltu	a0,a5,15df4 <__clzsi2+0x5e>
   15ddc:	8161                	srli	a0,a0,0x18
   15dde:	00000797          	auipc	a5,0x0
   15de2:	14a78793          	addi	a5,a5,330 # 15f28 <__clz_tab>
   15de6:	97aa                	add	a5,a5,a0
   15de8:	0007c503          	lbu	a0,0(a5)
   15dec:	4721                	li	a4,8
   15dee:	40a70533          	sub	a0,a4,a0
   15df2:	8082                	ret
   15df4:	8141                	srli	a0,a0,0x10
   15df6:	00000797          	auipc	a5,0x0
   15dfa:	13278793          	addi	a5,a5,306 # 15f28 <__clz_tab>
   15dfe:	97aa                	add	a5,a5,a0
   15e00:	0007c503          	lbu	a0,0(a5)
   15e04:	4741                	li	a4,16
   15e06:	40a70533          	sub	a0,a4,a0
   15e0a:	8082                	ret

00015e0c <strlen>:
strlen():
   15e0c:	87aa                	mv	a5,a0
   15e0e:	0785                	addi	a5,a5,1
   15e10:	fff7c703          	lbu	a4,-1(a5)
   15e14:	ff6d                	bnez	a4,15e0e <strlen+0x2>
   15e16:	40a78533          	sub	a0,a5,a0
   15e1a:	157d                	addi	a0,a0,-1
   15e1c:	8082                	ret
   15e1e:	0000                	unimp
   15e20:	2020                	fld	fs0,64(s0)
   15e22:	bea1                	j	1597a <__subdf3+0x55c>
   15e24:	7355                	lui	t1,0xffff5
   15e26:	7265                	lui	tp,0xffff9
   15e28:	e1cc                	fsw	fa1,4(a1)
   15e2a:	beca                	fsd	fs2,376(sp)
   15e2c:	bfa1                	j	15d84 <__floatundidf+0x182>
   15e2e:	abbdbaa3          	0xabbdbaa3
   15e32:	f8bd                	bnez	s1,15da8 <__clzsi2+0x12>
   15e34:	ebc8                	fsw	fa0,20(a5)
   15e36:	7355                	lui	t1,0xffff5
   15e38:	7265                	lui	tp,0xffff9
   15e3a:	c4b5                	beqz	s1,15ea6 <strlen+0x9a>
   15e3c:	616d                	addi	sp,sp,240
   15e3e:	6e69                	lui	t3,0x1a
   15e40:	afba                	fsd	fa4,472(sp)
   15e42:	fdca                	fsw	fs2,248(sp)
   15e44:	b4d6                	fsd	fs5,104(sp)
   15e46:	d0d0                	sw	a2,36(s1)
   15e48:	2e2e                	fld	ft8,200(sp)
   15e4a:	0d2e                	slli	s10,s10,0xb
   15e4c:	0a0a                	slli	s4,s4,0x2
   15e4e:	0000                	unimp
   15e50:	e680                	fsw	fs0,8(a3)
   15e52:	ffff                	0xffff
   15e54:	e87e                	fsw	ft11,16(sp)
   15e56:	ffff                	0xffff
   15e58:	e87e                	fsw	ft11,16(sp)
   15e5a:	ffff                	0xffff
   15e5c:	e87e                	fsw	ft11,16(sp)
   15e5e:	ffff                	0xffff
   15e60:	e87e                	fsw	ft11,16(sp)
   15e62:	ffff                	0xffff
   15e64:	e87e                	fsw	ft11,16(sp)
   15e66:	ffff                	0xffff
   15e68:	e87e                	fsw	ft11,16(sp)
   15e6a:	ffff                	0xffff
   15e6c:	e87e                	fsw	ft11,16(sp)
   15e6e:	ffff                	0xffff
   15e70:	e87e                	fsw	ft11,16(sp)
   15e72:	ffff                	0xffff
   15e74:	e87e                	fsw	ft11,16(sp)
   15e76:	ffff                	0xffff
   15e78:	e7ac                	fsw	fa1,72(a5)
   15e7a:	ffff                	0xffff
   15e7c:	e7ee                	fsw	fs11,204(sp)
   15e7e:	ffff                	0xffff
   15e80:	e4ea                	fsw	fs10,72(sp)
   15e82:	ffff                	0xffff
   15e84:	e87e                	fsw	ft11,16(sp)
   15e86:	ffff                	0xffff
   15e88:	e598                	fsw	fa4,8(a1)
   15e8a:	ffff                	0xffff
   15e8c:	e87e                	fsw	ft11,16(sp)
   15e8e:	ffff                	0xffff
   15e90:	e87e                	fsw	ft11,16(sp)
   15e92:	ffff                	0xffff
   15e94:	e4ea                	fsw	fs10,72(sp)
   15e96:	ffff                	0xffff
   15e98:	e87e                	fsw	ft11,16(sp)
   15e9a:	ffff                	0xffff
   15e9c:	e87e                	fsw	ft11,16(sp)
   15e9e:	ffff                	0xffff
   15ea0:	e87e                	fsw	ft11,16(sp)
   15ea2:	ffff                	0xffff
   15ea4:	e87e                	fsw	ft11,16(sp)
   15ea6:	ffff                	0xffff
   15ea8:	e872                	fsw	ft8,16(sp)
   15eaa:	ffff                	0xffff
   15eac:	e76e                	fsw	fs11,140(sp)
   15eae:	ffff                	0xffff
   15eb0:	e7b8                	fsw	fa4,72(a5)
   15eb2:	ffff                	0xffff
   15eb4:	e87e                	fsw	ft11,16(sp)
   15eb6:	ffff                	0xffff
   15eb8:	e87e                	fsw	ft11,16(sp)
   15eba:	ffff                	0xffff
   15ebc:	e804                	fsw	fs1,16(s0)
   15ebe:	ffff                	0xffff
   15ec0:	e87e                	fsw	ft11,16(sp)
   15ec2:	ffff                	0xffff
   15ec4:	e7c4                	fsw	fs1,12(a5)
   15ec6:	ffff                	0xffff
   15ec8:	e87e                	fsw	ft11,16(sp)
   15eca:	ffff                	0xffff
   15ecc:	e87e                	fsw	ft11,16(sp)
   15ece:	ffff                	0xffff
   15ed0:	e680                	fsw	fs0,8(a3)
   15ed2:	ffff                	0xffff
	...
   15edc:	0000                	unimp
   15ede:	4024                	lw	s1,64(s0)
   15ee0:	999a                	add	s3,s3,t1
   15ee2:	9999                	andi	a1,a1,-26
   15ee4:	9999                	andi	a1,a1,-26
   15ee6:	3fb9                	jal	15e44 <strlen+0x38>
   15ee8:	f286                	fsw	ft1,100(sp)
   15eea:	ffff                	0xffff
   15eec:	f170                	fsw	fa2,100(a0)
   15eee:	ffff                	0xffff
   15ef0:	f170                	fsw	fa2,100(a0)
   15ef2:	ffff                	0xffff
   15ef4:	f16e                	fsw	fs11,160(sp)
   15ef6:	ffff                	0xffff
   15ef8:	f176                	fsw	ft9,160(sp)
   15efa:	ffff                	0xffff
   15efc:	f176                	fsw	ft9,160(sp)
   15efe:	ffff                	0xffff
   15f00:	f13c                	fsw	fa5,96(a0)
   15f02:	ffff                	0xffff
   15f04:	f16e                	fsw	fs11,160(sp)
   15f06:	ffff                	0xffff
   15f08:	f176                	fsw	ft9,160(sp)
   15f0a:	ffff                	0xffff
   15f0c:	f13c                	fsw	fa5,96(a0)
   15f0e:	ffff                	0xffff
   15f10:	f176                	fsw	ft9,160(sp)
   15f12:	ffff                	0xffff
   15f14:	f16e                	fsw	fs11,160(sp)
   15f16:	ffff                	0xffff
   15f18:	f272                	fsw	ft8,36(sp)
   15f1a:	ffff                	0xffff
   15f1c:	f272                	fsw	ft8,36(sp)
   15f1e:	ffff                	0xffff
   15f20:	f272                	fsw	ft8,36(sp)
   15f22:	ffff                	0xffff
   15f24:	f13c                	fsw	fa5,96(a0)
   15f26:	ffff                	0xffff

00015f28 <__clz_tab>:
   15f28:	0100 0202 0303 0303 0404 0404 0404 0404     ................
   15f38:	0505 0505 0505 0505 0505 0505 0505 0505     ................
   15f48:	0606 0606 0606 0606 0606 0606 0606 0606     ................
   15f58:	0606 0606 0606 0606 0606 0606 0606 0606     ................
   15f68:	0707 0707 0707 0707 0707 0707 0707 0707     ................
   15f78:	0707 0707 0707 0707 0707 0707 0707 0707     ................
   15f88:	0707 0707 0707 0707 0707 0707 0707 0707     ................
   15f98:	0707 0707 0707 0707 0707 0707 0707 0707     ................
   15fa8:	0808 0808 0808 0808 0808 0808 0808 0808     ................
   15fb8:	0808 0808 0808 0808 0808 0808 0808 0808     ................
   15fc8:	0808 0808 0808 0808 0808 0808 0808 0808     ................
   15fd8:	0808 0808 0808 0808 0808 0808 0808 0808     ................
   15fe8:	0808 0808 0808 0808 0808 0808 0808 0808     ................
   15ff8:	0808 0808 0808 0808 0808 0808 0808 0808     ................
   16008:	0808 0808 0808 0808 0808 0808 0808 0808     ................
   16018:	0808 0808 0808 0808 0808 0808 0808 0808     ................
