
MCU-CH573.elf:     file format elf32-littleriscv
MCU-CH573.elf
architecture: riscv:rv32, flags 0x00000112:
EXEC_P, HAS_SYMS, D_PAGED
start address 0x00012000

Program Header:
    LOAD off    0x00001000 vaddr 0x00012000 paddr 0x00012000 align 2**12
         filesz 0x000000ec memsz 0x000000ec flags r-x
    LOAD off    0x00002000 vaddr 0x00013000 paddr 0x00013000 align 2**12
         filesz 0x00004ac0 memsz 0x00004ac0 flags r-x
    LOAD off    0x00007600 vaddr 0x20005600 paddr 0x00017ac0 align 2**12
         filesz 0x00000000 memsz 0x00000080 flags rw-
    LOAD off    0x00007680 vaddr 0x20005680 paddr 0x00017ac0 align 2**12
         filesz 0x000000f8 memsz 0x000017e4 flags rw-

Sections:
Idx Name            Size      VMA       LMA       File off  Algn  Flags
  0 .init           00000004  00012000  00012000  00001000  2**1  CONTENTS, ALLOC, LOAD, READONLY, CODE
  1 .vector         000000e8  00012004  00012004  00001004  2**1  CONTENTS, ALLOC, LOAD, READONLY, CODE
  2 .highcodelalign 00000000  00013000  00013000  00007778  2**0  CONTENTS
  3 .highcode       00000000  20005600  20005600  00007778  2**0  CONTENTS
  4 .text           00004ac0  00013000  00013000  00002000  2**3  CONTENTS, ALLOC, LOAD, READONLY, CODE
  5 .fini           00000000  00017ac0  00017ac0  00007778  2**0  CONTENTS, ALLOC, LOAD, CODE
  6 .dalign         00000080  20005600  00017ac0  00007600  2**0  ALLOC
  7 .dlalign        00000000  00017ac0  00017ac0  00007778  2**0  CONTENTS
  8 .data           000000f8  20005680  00017ac0  00007680  2**2  CONTENTS, ALLOC, LOAD, DATA
  9 .bss            000016ec  20005778  00017bb8  00007778  2**2  ALLOC
 10 .stack          00000000  20008000  20008000  00007778  2**0  CONTENTS
 11 .debug_info     000094de  00000000  00000000  00007778  2**0  CONTENTS, READONLY, DEBUGGING
 12 .debug_abbrev   00001faf  00000000  00000000  00010c56  2**0  CONTENTS, READONLY, DEBUGGING
 13 .debug_loc      00003ee3  00000000  00000000  00012c05  2**0  CONTENTS, READONLY, DEBUGGING
 14 .debug_aranges  00000310  00000000  00000000  00016ae8  2**3  CONTENTS, READONLY, DEBUGGING
 15 .debug_ranges   00000300  00000000  00000000  00016df8  2**3  CONTENTS, READONLY, DEBUGGING
 16 .debug_line     00007494  00000000  00000000  000170f8  2**0  CONTENTS, READONLY, DEBUGGING
 17 .debug_str      00000e95  00000000  00000000  0001e58c  2**0  CONTENTS, READONLY, DEBUGGING
 18 .comment        00000033  00000000  00000000  0001f421  2**0  CONTENTS, READONLY
 19 .debug_frame    00000a18  00000000  00000000  0001f454  2**2  CONTENTS, READONLY, DEBUGGING
SYMBOL TABLE:
00012000 l    d  .init	00000000 .init
00012004 l    d  .vector	00000000 .vector
00013000 l    d  .highcodelalign	00000000 .highcodelalign
20005600 l    d  .highcode	00000000 .highcode
00013000 l    d  .text	00000000 .text
00017ac0 l    d  .fini	00000000 .fini
20005600 l    d  .dalign	00000000 .dalign
00017ac0 l    d  .dlalign	00000000 .dlalign
20005680 l    d  .data	00000000 .data
20005778 l    d  .bss	00000000 .bss
20008000 l    d  .stack	00000000 .stack
00000000 l    d  .debug_info	00000000 .debug_info
00000000 l    d  .debug_abbrev	00000000 .debug_abbrev
00000000 l    d  .debug_loc	00000000 .debug_loc
00000000 l    d  .debug_aranges	00000000 .debug_aranges
00000000 l    d  .debug_ranges	00000000 .debug_ranges
00000000 l    d  .debug_line	00000000 .debug_line
00000000 l    d  .debug_str	00000000 .debug_str
00000000 l    d  .comment	00000000 .comment
00000000 l    d  .debug_frame	00000000 .debug_frame
00000000 l    df *ABS*	00000000 ./obj/startup_CH573.o
00012004 l       .vector	00000000 _vector_base
00000000 l    df *ABS*	00000000 adc.c
20005778 l     O .bss	00000004 RoughCalib_Value
00000000 l    df *ABS*	00000000 main.c
00000000 l    df *ABS*	00000000 flash.c
00000000 l    df *ABS*	00000000 gec_lab.c
20005794 l     O .bss	00001000 __buffer
20006794 l     O .bss	00000400 __lens
2000577c l     O .bss	00000004 __buffer_back
20005780 l     O .bss	00000004 __buffer_front
20005784 l     O .bss	00000004 __queue_back
20005788 l     O .bss	00000004 __queue_front
00000000 l    df *ABS*	00000000 gpio.c
00000000 l    df *ABS*	00000000 pwm.c
00000000 l    df *ABS*	00000000 gec.c
00000000 l    df *ABS*	00000000 uart.c
00000000 l    df *ABS*	00000000 isr.c
20006b94 l     O .bss	00000040 recv_data.3208
2000578c l     O .bss	00000002 gcRecvLen.3209
2000578e l     O .bss	00000002 index.3215
20005790 l     O .bss	00000002 length.3216
00000000 l    df *ABS*	00000000 printf.c
00014db8 l     F .text	0000003c printk_putc
00014df4 l     F .text	00000082 printk_mknumstr
00014e76 l     F .text	0000003c printk_pad_space
00000000 l    df *ABS*	00000000 libgcc2.c
00000000 l    df *ABS*	00000000 libgcc2.c
00000000 l    df *ABS*	00000000 divdf3.c
00000000 l    df *ABS*	00000000 eqdf2.c
00000000 l    df *ABS*	00000000 ledf2.c
00000000 l    df *ABS*	00000000 muldf3.c
00000000 l    df *ABS*	00000000 subdf3.c
00000000 l    df *ABS*	00000000 fixdfsi.c
00000000 l    df *ABS*	00000000 fixunsdfsi.c
00000000 l    df *ABS*	00000000 floatsidf.c
00000000 l    df *ABS*	00000000 fixunsdfdi.c
00000000 l    df *ABS*	00000000 floatundidf.c
00000000 l    df *ABS*	00000000 libgcc2.c
00000000 l    df *ABS*	00000000 strlen.c
00000000 l    df *ABS*	00000000 libgcc2.c
00000000 l    df *ABS*	00000000 user.c
00013d08 g     F .text	000000cc flash_write
20006bd4 g     O .bss	00000001 digitalOutCount
000165b4 g     F .text	0000006a .hidden __eqdf2
20006bd8 g     O .bss	00000050 digitalInList
20005f70 g       .data	00000000 __global_pointer$
00000025 g       *ABS*	00000000 GEC_USER_SECTOR_END
00012098  w      .vector	00000000 HardFault_Handler
000120ac  w      .vector	00000000 GPIOB_IRQHandler
000120a8  w      .vector	00000000 GPIOA_IRQHandler
0001209c  w      .vector	00000000 SysTick_Handler
00012094  w      .vector	00000000 NMI_Handler
000149ac g     F .text	00000146 uart_sendN
000120cc  w      .vector	00000000 UART1_IRQHandler
00014b70 g     F .text	000000c6 uart_enable_re_int
20005778 g       .bss	00000000 _sbss
20006c28 g     O .bss	00000001 digitalInCount
00013f78 g     F .text	0000012c queue_put
00000012 g       *ABS*	00000000 GEC_USER_SECTOR_START
00014d3c g     F .text	0000007c UART0_IRQHandler
000173a6 g     F .text	00000076 .hidden __floatsidf
0001661e g     F .text	000000b6 .hidden __ltdf2
20006c2c g     O .bss	00000050 analogInList
00012004 g       .init	00000000 _einit
0001734a g     F .text	0000005c .hidden __fixunsdfsi
000120b4  w      .vector	00000000 BB_IRQHandler
00013c94 g     F .text	00000026 flash_erase
00013cba g     F .text	00000028 flash_Best
000120a4  w      .vector	00000000 TMR0_IRQHandler
20006c7c g     O .bss	000000a0 analogOutString
00015c62 g     F .text	0000038e .hidden __umoddi3
000158ca g     F .text	00000398 .hidden __udivdi3
00013914 g     F .text	00000202 send
20006d1c g     O .bss	00000001 analogOutCount
00014eca g     F .text	000002e8 printk_mkfloatstr
20005680 g     O .data	00000050 analogInPin
200056d0 g     O .data	00000050 analogOutPin
000120d0  w      .vector	00000000 RTC_IRQHandler
20006e64 g       .bss	00000000 _ebss
20006d1d g     O .bss	00000001 analogInCount
00001000 g       *ABS*	00000000 MCU_SECTORSIZE
000172e2 g     F .text	00000068 .hidden __fixdfsi
0001323c g     F .text	00000214 adc_read
0001422c g     F .text	00000312 pwm_init
0001661e g     F .text	000000b6 .hidden __ledf2
20007fff g       *ABS*	00000000 GEC_USER_RAM_END
00015894 g     F .text	00000036 myprintf
000120e0  w      .vector	00000000 UART2_IRQHandler
000120d8  w      .vector	00000000 PWMX_IRQHandler
0001764e g     F .text	00000076 .hidden __clzsi2
00014676 g     F .text	00000228 uart_init
20005770 g     O .data	00000006 mcu_desc
00014194 g     F .text	00000098 gpio_get
20005720 g     O .data	00000050 digitalPin
00012000 g       .init	00000000 _start
20006d20 g     O .bss	00000004 component_fun
20006d24 g     O .bss	000000a0 analogInString
000174ba g     F .text	00000194 .hidden __floatundidf
20005600 g       *ABS*	00000000 GEC_USER_RAM_START
00013520 g     F .text	000003f4 handle
000120d4  w      .vector	00000000 ADC_IRQHandler
20005600 g       .highcode	00000000 _highcode_vma_start
00013dd4 g     F .text	0000004a crc16
000120c4  w      .vector	00000000 TMR2_IRQHandler
20005680 g       .data	00000000 _data_vma
00014eb2 g     F .text	00000018 out_char
000120bc  w      .vector	00000000 USB_IRQHandler
000151b2 g     F .text	000006e2 printk
00015ff0 g     F .text	000005c4 .hidden __divdf3
00013ce2 g     F .text	00000026 flash_read_logic
20006dc4 g     O .bss	00000050 digitalOutString
000166d4 g     F .text	000004c8 .hidden __muldf3
00014af2 g     F .text	0000007e uart_re1
000134cc g     F .text	00000054 adc_ave
00013e1e g     F .text	00000084 sendFrame
000130c0 g     F .text	000000a8 memset
00013b16 g     F .text	0000017e main
0001453e g     F .text	000000b8 IRQ_OPC_CHANGE
00013ec8 g     F .text	000000b0 queue_get
00013000 g       .highcodelalign	00000000 _highcode_lma
000165b4 g     F .text	0000006a .hidden __nedf2
0001741c g     F .text	0000009e .hidden __fixunsdfdi
000179c0 g     O .text	00000100 .hidden __clz_tab
000120b8  w      .vector	00000000 LLE_IRQHandler
00012000 g       .init	00000000 _sinit
20005776 g     O .data	00000002 gc_period_minus_one
00013168 g     F .text	000000d4 adc_init
000120e8  w      .vector	00000000 WDOG_BAT_IRQHandler
20006e14 g     O .bss	00000050 digitalInString
000120dc  w      .vector	00000000 TMR3_IRQHandler
20008000 g       .stack	00000000 _eusrstack
000120a0  w      .vector	00000000 SW_Handler
000145f6 g     F .text	00000080 Vectors_Init
00014c36 g     F .text	00000106 emuart_frame
00013450 g     F .text	0000007c adc_mid
20005778 g       .data	00000000 _edata
000120b0  w      .vector	00000000 SPI0_IRQHandler
20005600 g       .highcode	00000000 _highcode_vma_end
00017ac0 g       .dlalign	00000000 _data_lma
00013000  w      .text	00000000 handle_reset
000176c4 g     F .text	00000012 strlen
000120e4  w      .vector	00000000 UART3_IRQHandler
0001489e g     F .text	0000010e uart_send1
000140a4 g     F .text	00000072 gpio_set
00014116 g     F .text	0000007e gpio_init
00016b9c g     F .text	00000746 .hidden __subdf3
000120c0  w      .vector	00000000 TMR1_IRQHandler
00013ea2 g     F .text	00000026 queue_init
00000000 g       *ABS*	00000000 MCU_FLASH_ADDR_START



Disassembly of section .init:

00012000 <_sinit>:
_start():
F:\git\MCU-CH573\Debug/srcs/startup_CH573.S:14
	.section	.init,"ax",@progbits   /*ax是 allocation  execute的缩写，表示该节区可分配并且可执行，progbits是类型*/
	.global	_start   /*将_start标签定义为全局可见*/
	.align	1   /*将当前PC地址推进到2的1次方个字节对齐的位置*/
    .option	norelax  /*	不允许链接松弛*/
_start:     /*定义此处的标签为_start*/
	j	handle_reset     /*跳转指令跳转到标签handle_reset所在的位置*/
   12000:	0000106f          	j	13000 <_highcode_lma>

Disassembly of section .vector:

00012004 <_vector_base>:
_vector_base():
   12004:	8000                	0x8000
   12006:	2000                	fld	fs0,0(s0)
   12008:	0000                	unimp
   1200a:	0000                	unimp
F:\git\MCU-CH573\Debug/srcs/startup_CH573.S:22
    .align  1
_vector_base:
    .option norvc; /*表示接下来的汇编程序不可以被汇编生成16位宽的压缩指令*/
    .word   _eusrstack
    .word   0
        j   NMI_Handler                 /* NMI Handler */
   1200c:	0880006f          	j	12094 <NMI_Handler>
F:\git\MCU-CH573\Debug/srcs/startup_CH573.S:23
        j   HardFault_Handler           /* Hard Fault Handler */
   12010:	0880006f          	j	12098 <HardFault_Handler>
	...
F:\git\MCU-CH573\Debug/srcs/startup_CH573.S:32
    .word   0
    .word   0
    .word   0
    .word   0
    .word   0
        j   SysTick_Handler            /* SysTick Handler */
   12034:	0680006f          	j	1209c <SysTick_Handler>
   12038:	0000                	unimp
   1203a:	0000                	unimp
F:\git\MCU-CH573\Debug/srcs/startup_CH573.S:34
    .word   0
        j   SW_Handler                 /* SW Handler */
   1203c:	0640006f          	j	120a0 <SW_Handler>
   12040:	0000                	unimp
   12042:	0000                	unimp
F:\git\MCU-CH573\Debug/srcs/startup_CH573.S:37
    .word   0
    /* External Interrupts */
        j   TMR0_IRQHandler            /* 0:  TMR0 */
   12044:	0600006f          	j	120a4 <TMR0_IRQHandler>
F:\git\MCU-CH573\Debug/srcs/startup_CH573.S:38
        j   GPIOA_IRQHandler           /* GPIOA */
   12048:	0600006f          	j	120a8 <GPIOA_IRQHandler>
F:\git\MCU-CH573\Debug/srcs/startup_CH573.S:39
        j   GPIOB_IRQHandler           /* GPIOB */
   1204c:	0600006f          	j	120ac <GPIOB_IRQHandler>
F:\git\MCU-CH573\Debug/srcs/startup_CH573.S:40
        j   SPI0_IRQHandler            /* SPI0 */
   12050:	0600006f          	j	120b0 <SPI0_IRQHandler>
F:\git\MCU-CH573\Debug/srcs/startup_CH573.S:41
        j   BB_IRQHandler              /* BLEB */
   12054:	0600006f          	j	120b4 <BB_IRQHandler>
F:\git\MCU-CH573\Debug/srcs/startup_CH573.S:42
        j   LLE_IRQHandler             /* BLEL */
   12058:	0600006f          	j	120b8 <LLE_IRQHandler>
F:\git\MCU-CH573\Debug/srcs/startup_CH573.S:43
        j   USB_IRQHandler             /* USB */
   1205c:	0600006f          	j	120bc <USB_IRQHandler>
   12060:	0000                	unimp
   12062:	0000                	unimp
F:\git\MCU-CH573\Debug/srcs/startup_CH573.S:45
        .word   0
        j   TMR1_IRQHandler            /* TMR1 */
   12064:	05c0006f          	j	120c0 <TMR1_IRQHandler>
F:\git\MCU-CH573\Debug/srcs/startup_CH573.S:46
        j   TMR2_IRQHandler            /* TMR2 */
   12068:	05c0006f          	j	120c4 <TMR2_IRQHandler>
F:\git\MCU-CH573\Debug/srcs/startup_CH573.S:47
        j   UART0_IRQHandler           /* UART0 */
   1206c:	4d10206f          	j	14d3c <UART0_IRQHandler>
F:\git\MCU-CH573\Debug/srcs/startup_CH573.S:48
        j   UART1_IRQHandler           /* UART1 */
   12070:	05c0006f          	j	120cc <UART1_IRQHandler>
F:\git\MCU-CH573\Debug/srcs/startup_CH573.S:49
        j   RTC_IRQHandler             /* RTC */
   12074:	05c0006f          	j	120d0 <RTC_IRQHandler>
F:\git\MCU-CH573\Debug/srcs/startup_CH573.S:50
        j   ADC_IRQHandler             /* ADC */
   12078:	05c0006f          	j	120d4 <ADC_IRQHandler>
   1207c:	0000                	unimp
   1207e:	0000                	unimp
F:\git\MCU-CH573\Debug/srcs/startup_CH573.S:52
        .word   0
        j   PWMX_IRQHandler            /* PWMX */
   12080:	0580006f          	j	120d8 <PWMX_IRQHandler>
F:\git\MCU-CH573\Debug/srcs/startup_CH573.S:53
        j   TMR3_IRQHandler            /* TMR3 */
   12084:	0580006f          	j	120dc <TMR3_IRQHandler>
F:\git\MCU-CH573\Debug/srcs/startup_CH573.S:54
        j   UART2_IRQHandler           /* UART2 */
   12088:	0580006f          	j	120e0 <UART2_IRQHandler>
F:\git\MCU-CH573\Debug/srcs/startup_CH573.S:55
        j   UART3_IRQHandler           /* UART3 */
   1208c:	0580006f          	j	120e4 <UART3_IRQHandler>
F:\git\MCU-CH573\Debug/srcs/startup_CH573.S:56
        j   WDOG_BAT_IRQHandler        /* WDOG_BAT */
   12090:	0580006f          	j	120e8 <WDOG_BAT_IRQHandler>

00012094 <NMI_Handler>:
NMI_Handler():
F:\git\MCU-CH573\Debug/srcs/startup_CH573.S:84
    .weak   TMR3_IRQHandler
    .weak   UART2_IRQHandler
    .weak   UART3_IRQHandler
    .weak   WDOG_BAT_IRQHandler

NMI_Handler:  1:  j 1b     /* 在被引用之时，数字标签通常需要带上一个字母“f”或者“b”的后缀，“f”表示下一行，“b”表示向上一行*/
   12094:	0000006f          	j	12094 <NMI_Handler>

00012098 <HardFault_Handler>:
HardFault_Handler():
F:\git\MCU-CH573\Debug/srcs/startup_CH573.S:85
HardFault_Handler:  1:  j 1b
   12098:	0000006f          	j	12098 <HardFault_Handler>

0001209c <SysTick_Handler>:
SysTick_Handler():
F:\git\MCU-CH573\Debug/srcs/startup_CH573.S:86
SysTick_Handler:  1:  j 1b
   1209c:	0000006f          	j	1209c <SysTick_Handler>

000120a0 <SW_Handler>:
SW_Handler():
F:\git\MCU-CH573\Debug/srcs/startup_CH573.S:87
SW_Handler:  1:  j 1b
   120a0:	0000006f          	j	120a0 <SW_Handler>

000120a4 <TMR0_IRQHandler>:
TMR0_IRQHandler():
F:\git\MCU-CH573\Debug/srcs/startup_CH573.S:88
TMR0_IRQHandler:  1:  j 1b
   120a4:	0000006f          	j	120a4 <TMR0_IRQHandler>

000120a8 <GPIOA_IRQHandler>:
GPIOA_IRQHandler():
F:\git\MCU-CH573\Debug/srcs/startup_CH573.S:89
GPIOA_IRQHandler:  1:  j 1b
   120a8:	0000006f          	j	120a8 <GPIOA_IRQHandler>

000120ac <GPIOB_IRQHandler>:
GPIOB_IRQHandler():
F:\git\MCU-CH573\Debug/srcs/startup_CH573.S:90
GPIOB_IRQHandler:  1:  j 1b
   120ac:	0000006f          	j	120ac <GPIOB_IRQHandler>

000120b0 <SPI0_IRQHandler>:
SPI0_IRQHandler():
F:\git\MCU-CH573\Debug/srcs/startup_CH573.S:91
SPI0_IRQHandler:  1:  j 1b
   120b0:	0000006f          	j	120b0 <SPI0_IRQHandler>

000120b4 <BB_IRQHandler>:
BB_IRQHandler():
F:\git\MCU-CH573\Debug/srcs/startup_CH573.S:92
BB_IRQHandler:  1:  j 1b
   120b4:	0000006f          	j	120b4 <BB_IRQHandler>

000120b8 <LLE_IRQHandler>:
LLE_IRQHandler():
F:\git\MCU-CH573\Debug/srcs/startup_CH573.S:93
LLE_IRQHandler:  1:  j 1b
   120b8:	0000006f          	j	120b8 <LLE_IRQHandler>

000120bc <USB_IRQHandler>:
USB_IRQHandler():
F:\git\MCU-CH573\Debug/srcs/startup_CH573.S:94
USB_IRQHandler:  1:  j 1b
   120bc:	0000006f          	j	120bc <USB_IRQHandler>

000120c0 <TMR1_IRQHandler>:
TMR1_IRQHandler():
F:\git\MCU-CH573\Debug/srcs/startup_CH573.S:95
TMR1_IRQHandler:  1:  j 1b
   120c0:	0000006f          	j	120c0 <TMR1_IRQHandler>

000120c4 <TMR2_IRQHandler>:
TMR2_IRQHandler():
F:\git\MCU-CH573\Debug/srcs/startup_CH573.S:96
TMR2_IRQHandler:  1:  j 1b
   120c4:	0000006f          	j	120c4 <TMR2_IRQHandler>
F:\git\MCU-CH573\Debug/srcs/startup_CH573.S:97
UART0_IRQHandler:  1:  j 1b
   120c8:	0000006f          	j	120c8 <TMR2_IRQHandler+0x4>

000120cc <UART1_IRQHandler>:
UART1_IRQHandler():
F:\git\MCU-CH573\Debug/srcs/startup_CH573.S:98
UART1_IRQHandler:  1:  j 1b
   120cc:	0000006f          	j	120cc <UART1_IRQHandler>

000120d0 <RTC_IRQHandler>:
RTC_IRQHandler():
F:\git\MCU-CH573\Debug/srcs/startup_CH573.S:99
RTC_IRQHandler:  1:  j 1b
   120d0:	0000006f          	j	120d0 <RTC_IRQHandler>

000120d4 <ADC_IRQHandler>:
ADC_IRQHandler():
F:\git\MCU-CH573\Debug/srcs/startup_CH573.S:100
ADC_IRQHandler:  1:  j 1b
   120d4:	0000006f          	j	120d4 <ADC_IRQHandler>

000120d8 <PWMX_IRQHandler>:
PWMX_IRQHandler():
F:\git\MCU-CH573\Debug/srcs/startup_CH573.S:101
PWMX_IRQHandler:  1:  j 1b
   120d8:	0000006f          	j	120d8 <PWMX_IRQHandler>

000120dc <TMR3_IRQHandler>:
TMR3_IRQHandler():
F:\git\MCU-CH573\Debug/srcs/startup_CH573.S:102
TMR3_IRQHandler:  1:  j 1b
   120dc:	0000006f          	j	120dc <TMR3_IRQHandler>

000120e0 <UART2_IRQHandler>:
UART2_IRQHandler():
F:\git\MCU-CH573\Debug/srcs/startup_CH573.S:103
UART2_IRQHandler:  1:  j 1b
   120e0:	0000006f          	j	120e0 <UART2_IRQHandler>

000120e4 <UART3_IRQHandler>:
UART3_IRQHandler():
F:\git\MCU-CH573\Debug/srcs/startup_CH573.S:104
UART3_IRQHandler:  1:  j 1b
   120e4:	0000006f          	j	120e4 <UART3_IRQHandler>

000120e8 <WDOG_BAT_IRQHandler>:
WDOG_BAT_IRQHandler():
F:\git\MCU-CH573\Debug/srcs/startup_CH573.S:105
WDOG_BAT_IRQHandler:  1:  j 1b
   120e8:	0000006f          	j	120e8 <WDOG_BAT_IRQHandler>

Disassembly of section .text:

00013000 <handle_reset>:
handle_reset():
F:\git\MCU-CH573\Debug/srcs/startup_CH573.S:113
	.weak	handle_reset
	.align	1
handle_reset:
.option push 
.option	norelax 
	la gp, __global_pointer$
   13000:	1fff3197          	auipc	gp,0x1fff3
   13004:	f7018193          	addi	gp,gp,-144 # 20005f70 <__global_pointer$>
F:\git\MCU-CH573\Debug/srcs/startup_CH573.S:116
.option	pop 
1:
	la sp, _eusrstack 
   13008:	1fff5117          	auipc	sp,0x1fff5
   1300c:	ff810113          	addi	sp,sp,-8 # 20008000 <_eusrstack>
F:\git\MCU-CH573\Debug/srcs/startup_CH573.S:120

/* Load highcode code  section from flash to RAM */
2:
    la a0, _highcode_lma
   13010:	00000517          	auipc	a0,0x0
   13014:	ff050513          	addi	a0,a0,-16 # 13000 <handle_reset>
F:\git\MCU-CH573\Debug/srcs/startup_CH573.S:121
    la a1, _highcode_vma_start
   13018:	1fff2597          	auipc	a1,0x1fff2
   1301c:	5e858593          	addi	a1,a1,1512 # 20005600 <GEC_USER_RAM_START>
F:\git\MCU-CH573\Debug/srcs/startup_CH573.S:122
    la a2, _highcode_vma_end
   13020:	1fff2617          	auipc	a2,0x1fff2
   13024:	5e060613          	addi	a2,a2,1504 # 20005600 <GEC_USER_RAM_START>
F:\git\MCU-CH573\Debug/srcs/startup_CH573.S:123
    bgeu a1, a2, 2f
   13028:	00c5fc63          	bgeu	a1,a2,13040 <handle_reset+0x40>
F:\git\MCU-CH573\Debug/srcs/startup_CH573.S:125
1:
    lw t0, (a0)
   1302c:	00052283          	lw	t0,0(a0)
F:\git\MCU-CH573\Debug/srcs/startup_CH573.S:126
    sw t0, (a1)
   13030:	0055a023          	sw	t0,0(a1)
F:\git\MCU-CH573\Debug/srcs/startup_CH573.S:127
    addi a0, a0, 4
   13034:	00450513          	addi	a0,a0,4
F:\git\MCU-CH573\Debug/srcs/startup_CH573.S:128
    addi a1, a1, 4
   13038:	00458593          	addi	a1,a1,4
F:\git\MCU-CH573\Debug/srcs/startup_CH573.S:129
    bltu a1, a2, 1b
   1303c:	fec5e8e3          	bltu	a1,a2,1302c <handle_reset+0x2c>
F:\git\MCU-CH573\Debug/srcs/startup_CH573.S:133

/* Load data section from flash to RAM */
2:
	la a0, _data_lma
   13040:	00005517          	auipc	a0,0x5
   13044:	a8050513          	addi	a0,a0,-1408 # 17ac0 <_data_lma>
F:\git\MCU-CH573\Debug/srcs/startup_CH573.S:134
	la a1, _data_vma
   13048:	1fff2597          	auipc	a1,0x1fff2
   1304c:	63858593          	addi	a1,a1,1592 # 20005680 <analogInPin>
F:\git\MCU-CH573\Debug/srcs/startup_CH573.S:135
	la a2, _edata
   13050:	1fff2617          	auipc	a2,0x1fff2
   13054:	72860613          	addi	a2,a2,1832 # 20005778 <_edata>
F:\git\MCU-CH573\Debug/srcs/startup_CH573.S:136
	bgeu a1, a2, 2f
   13058:	00c5fc63          	bgeu	a1,a2,13070 <handle_reset+0x70>
F:\git\MCU-CH573\Debug/srcs/startup_CH573.S:138
1:
	lw t0, (a0)
   1305c:	00052283          	lw	t0,0(a0)
F:\git\MCU-CH573\Debug/srcs/startup_CH573.S:139
	sw t0, (a1)
   13060:	0055a023          	sw	t0,0(a1)
F:\git\MCU-CH573\Debug/srcs/startup_CH573.S:140
	addi a0, a0, 4
   13064:	00450513          	addi	a0,a0,4
F:\git\MCU-CH573\Debug/srcs/startup_CH573.S:141
	addi a1, a1, 4
   13068:	00458593          	addi	a1,a1,4
F:\git\MCU-CH573\Debug/srcs/startup_CH573.S:142
	bltu a1, a2, 1b
   1306c:	fec5e8e3          	bltu	a1,a2,1305c <handle_reset+0x5c>
F:\git\MCU-CH573\Debug/srcs/startup_CH573.S:145
2:
	/* clear bss section */
	la a0, _sbss
   13070:	1fff2517          	auipc	a0,0x1fff2
   13074:	70850513          	addi	a0,a0,1800 # 20005778 <_edata>
F:\git\MCU-CH573\Debug/srcs/startup_CH573.S:146
	la a1, _ebss
   13078:	1fff4597          	auipc	a1,0x1fff4
   1307c:	dec58593          	addi	a1,a1,-532 # 20006e64 <_ebss>
F:\git\MCU-CH573\Debug/srcs/startup_CH573.S:147
	bgeu a0, a1, 2f
   13080:	00b57863          	bgeu	a0,a1,13090 <handle_reset+0x90>
F:\git\MCU-CH573\Debug/srcs/startup_CH573.S:149
1:
	sw zero, (a0)
   13084:	00052023          	sw	zero,0(a0)
F:\git\MCU-CH573\Debug/srcs/startup_CH573.S:150
	addi a0, a0, 4
   13088:	00450513          	addi	a0,a0,4
F:\git\MCU-CH573\Debug/srcs/startup_CH573.S:151
	bltu a0, a1, 1b
   1308c:	feb56ce3          	bltu	a0,a1,13084 <handle_reset+0x84>
F:\git\MCU-CH573\Debug/srcs/startup_CH573.S:153
2:
    li t0, 0x1880
   13090:	000022b7          	lui	t0,0x2
   13094:	88028293          	addi	t0,t0,-1920 # 1880 <MCU_SECTORSIZE+0x880>
F:\git\MCU-CH573\Debug/srcs/startup_CH573.S:154
    csrs mstatus, t0
   13098:	3002a073          	csrs	mstatus,t0
F:\git\MCU-CH573\Debug/srcs/startup_CH573.S:156

    jal  Vectors_Init	    /* 跳转并链接到Vectors_Init函数，Vectors_Init：User对BIOS中断向量表的部分继承,构件库函数指针初始化 */		
   1309c:	55a010ef          	jal	ra,145f6 <Vectors_Init>
F:\git\MCU-CH573\Debug/srcs/startup_CH573.S:157
	la t0, _vector_base
   130a0:	fffff297          	auipc	t0,0xfffff
   130a4:	f6428293          	addi	t0,t0,-156 # 12004 <_einit>
F:\git\MCU-CH573\Debug/srcs/startup_CH573.S:158
    ori t0, t0, 1
   130a8:	0012e293          	ori	t0,t0,1
F:\git\MCU-CH573\Debug/srcs/startup_CH573.S:159
	csrw mtvec, t0
   130ac:	30529073          	csrw	mtvec,t0
F:\git\MCU-CH573\Debug/srcs/startup_CH573.S:160
	la t0, main
   130b0:	00001297          	auipc	t0,0x1
   130b4:	a6628293          	addi	t0,t0,-1434 # 13b16 <main>
F:\git\MCU-CH573\Debug/srcs/startup_CH573.S:161
	csrw mepc, t0
   130b8:	34129073          	csrw	mepc,t0
F:\git\MCU-CH573\Debug/srcs/startup_CH573.S:168
	/* enable vector relocation
	li t0, 0xE000ED14
	li t1, 1
	sw t1, 0(t0)*/
	
	mret
   130bc:	30200073          	mret

000130c0 <memset>:
memset():
   130c0:	433d                	li	t1,15
   130c2:	872a                	mv	a4,a0
   130c4:	02c37363          	bgeu	t1,a2,130ea <memset+0x2a>
   130c8:	00f77793          	andi	a5,a4,15
   130cc:	efbd                	bnez	a5,1314a <memset+0x8a>
   130ce:	e5ad                	bnez	a1,13138 <memset+0x78>
   130d0:	ff067693          	andi	a3,a2,-16
   130d4:	8a3d                	andi	a2,a2,15
   130d6:	96ba                	add	a3,a3,a4
   130d8:	c30c                	sw	a1,0(a4)
   130da:	c34c                	sw	a1,4(a4)
   130dc:	c70c                	sw	a1,8(a4)
   130de:	c74c                	sw	a1,12(a4)
   130e0:	0741                	addi	a4,a4,16
   130e2:	fed76be3          	bltu	a4,a3,130d8 <memset+0x18>
   130e6:	e211                	bnez	a2,130ea <memset+0x2a>
   130e8:	8082                	ret
   130ea:	40c306b3          	sub	a3,t1,a2
   130ee:	068a                	slli	a3,a3,0x2
   130f0:	00000297          	auipc	t0,0x0
   130f4:	9696                	add	a3,a3,t0
   130f6:	00a68067          	jr	10(a3)
   130fa:	00b70723          	sb	a1,14(a4)
   130fe:	00b706a3          	sb	a1,13(a4)
   13102:	00b70623          	sb	a1,12(a4)
   13106:	00b705a3          	sb	a1,11(a4)
   1310a:	00b70523          	sb	a1,10(a4)
   1310e:	00b704a3          	sb	a1,9(a4)
   13112:	00b70423          	sb	a1,8(a4)
   13116:	00b703a3          	sb	a1,7(a4)
   1311a:	00b70323          	sb	a1,6(a4)
   1311e:	00b702a3          	sb	a1,5(a4)
   13122:	00b70223          	sb	a1,4(a4)
   13126:	00b701a3          	sb	a1,3(a4)
   1312a:	00b70123          	sb	a1,2(a4)
   1312e:	00b700a3          	sb	a1,1(a4)
   13132:	00b70023          	sb	a1,0(a4)
   13136:	8082                	ret
   13138:	0ff5f593          	andi	a1,a1,255
   1313c:	00859693          	slli	a3,a1,0x8
   13140:	8dd5                	or	a1,a1,a3
   13142:	01059693          	slli	a3,a1,0x10
   13146:	8dd5                	or	a1,a1,a3
   13148:	b761                	j	130d0 <memset+0x10>
   1314a:	00279693          	slli	a3,a5,0x2
   1314e:	00000297          	auipc	t0,0x0
   13152:	9696                	add	a3,a3,t0
   13154:	8286                	mv	t0,ra
   13156:	fa8680e7          	jalr	-88(a3)
   1315a:	8096                	mv	ra,t0
   1315c:	17c1                	addi	a5,a5,-16
   1315e:	8f1d                	sub	a4,a4,a5
   13160:	963e                	add	a2,a2,a5
   13162:	f8c374e3          	bgeu	t1,a2,130ea <memset+0x2a>
   13166:	b7a5                	j	130ce <memset+0xe>

00013168 <adc_init>:
adc_init():
F:\git\MCU-CH573\Debug/srcc/adc.c:26
//======================================================================
void adc_init(uint16_t Channel,uint16_t Nc)
{	
	uint16_t i;
	uint32_t sum = 0;
	R8_TKEY_CFG &= ~RB_TKEY_PWR_ON;  //关闭触摸功能
   13168:	40001737          	lui	a4,0x40001
   1316c:	05774783          	lbu	a5,87(a4) # 40001057 <_eusrstack+0x1fff9057>
   13170:	0fe7f793          	andi	a5,a5,254
   13174:	04f70ba3          	sb	a5,87(a4)
F:\git\MCU-CH573\Debug/srcc/adc.c:28
    
    if(Channel == ADC_CHANNEL_VTEMP)
   13178:	47bd                	li	a5,15
   1317a:	0af50063          	beq	a0,a5,1321a <adc_init+0xb2>
F:\git\MCU-CH573\Debug/srcc/adc.c:33
    {
//		内置温度传感器采样初始化
	    R8_TEM_SENSOR = RB_TEM_SEN_PWR_ON;
	    R8_ADC_CFG = RB_ADC_POWER_ON | RB_ADC_DIFF_EN | (3 << 4);
	}else if(Channel == ADC_CHANNEL_VBTA)
   1317e:	47b9                	li	a5,14
   13180:	0af50863          	beq	a0,a5,13230 <adc_init+0xc8>
F:\git\MCU-CH573\Debug/srcc/adc.c:39
    {
//    	内置电池电压采样初始化
	    R8_ADC_CFG = RB_ADC_POWER_ON | RB_ADC_BUF_EN | (0 << 4); // 使用-12dB模式，
	}else{
//		外部信号单通道采样初始化
		R8_ADC_CFG = RB_ADC_POWER_ON | RB_ADC_BUF_EN | (0x01 << 6) | (ADC_PGA_1 << 4);
   13184:	400017b7          	lui	a5,0x40001
   13188:	06300713          	li	a4,99
   1318c:	04e78ca3          	sb	a4,89(a5) # 40001059 <_eusrstack+0x1fff9059>
F:\git\MCU-CH573\Debug/srcc/adc.c:43
	}

	// 采样数据粗调,获取偏差值
	R8_ADC_CHANNEL = ADC_CHANNEL_6;		    // 6/7/10/11 可选
   13190:	400017b7          	lui	a5,0x40001
   13194:	4719                	li	a4,6
   13196:	04e78c23          	sb	a4,88(a5) # 40001058 <_eusrstack+0x1fff9058>
F:\git\MCU-CH573\Debug/srcc/adc.c:44
	R8_ADC_CFG |= RB_ADC_OFS_TEST; 			// 进入测试模式
   1319a:	0597c703          	lbu	a4,89(a5)
   1319e:	00876713          	ori	a4,a4,8
   131a2:	04e78ca3          	sb	a4,89(a5)
F:\git\MCU-CH573\Debug/srcc/adc.c:45
	R8_ADC_CONVERT = RB_ADC_START;
   131a6:	4705                	li	a4,1
   131a8:	04e78d23          	sb	a4,90(a5)
F:\git\MCU-CH573\Debug/srcc/adc.c:46
	while(R8_ADC_CONVERT & RB_ADC_START);
   131ac:	40001737          	lui	a4,0x40001
F:\git\MCU-CH573\Debug/srcc/adc.c:46 (discriminator 1)
   131b0:	05a74783          	lbu	a5,90(a4) # 4000105a <_eusrstack+0x1fff905a>
   131b4:	8b85                	andi	a5,a5,1
   131b6:	ffed                	bnez	a5,131b0 <adc_init+0x48>
   131b8:	46c1                	li	a3,16
F:\git\MCU-CH573\Debug/srcc/adc.c:25
	uint32_t sum = 0;
   131ba:	4601                	li	a2,0
F:\git\MCU-CH573\Debug/srcc/adc.c:49
	for(i = 0; i < 16; i++)
	{
		R8_ADC_CONVERT = RB_ADC_START;
   131bc:	40001837          	lui	a6,0x40001
   131c0:	05a80713          	addi	a4,a6,90 # 4000105a <_eusrstack+0x1fff905a>
   131c4:	4885                	li	a7,1
F:\git\MCU-CH573\Debug/srcc/adc.c:51
		while(R8_ADC_CONVERT & RB_ADC_START);
		sum += (~R16_ADC_DATA) & RB_ADC_DATA;
   131c6:	6585                	lui	a1,0x1
   131c8:	15fd                	addi	a1,a1,-1
F:\git\MCU-CH573\Debug/srcc/adc.c:49
		R8_ADC_CONVERT = RB_ADC_START;
   131ca:	01170023          	sb	a7,0(a4)
F:\git\MCU-CH573\Debug/srcc/adc.c:50 (discriminator 1)
		while(R8_ADC_CONVERT & RB_ADC_START);
   131ce:	00074783          	lbu	a5,0(a4)
   131d2:	8b85                	andi	a5,a5,1
   131d4:	ffed                	bnez	a5,131ce <adc_init+0x66>
F:\git\MCU-CH573\Debug/srcc/adc.c:51 (discriminator 2)
		sum += (~R16_ADC_DATA) & RB_ADC_DATA;
   131d6:	05c85783          	lhu	a5,92(a6)
   131da:	fff7c793          	not	a5,a5
   131de:	8fed                	and	a5,a5,a1
   131e0:	963e                	add	a2,a2,a5
   131e2:	16fd                	addi	a3,a3,-1
   131e4:	06c2                	slli	a3,a3,0x10
   131e6:	82c1                	srli	a3,a3,0x10
F:\git\MCU-CH573\Debug/srcc/adc.c:47 (discriminator 2)
	for(i = 0; i < 16; i++)
   131e8:	f2ed                	bnez	a3,131ca <adc_init+0x62>
F:\git\MCU-CH573\Debug/srcc/adc.c:53
	}
	sum = (sum + 8) >> 4;
   131ea:	0621                	addi	a2,a2,8
F:\git\MCU-CH573\Debug/srcc/adc.c:54
	R8_ADC_CFG &= ~RB_ADC_OFS_TEST; // 关闭测试模式
   131ec:	400017b7          	lui	a5,0x40001
   131f0:	0597c703          	lbu	a4,89(a5) # 40001059 <_eusrstack+0x1fff9059>
   131f4:	0f777713          	andi	a4,a4,247
   131f8:	04e78ca3          	sb	a4,89(a5)
F:\git\MCU-CH573\Debug/srcc/adc.c:56

	R8_ADC_CHANNEL = Channel;        //设置通道
   131fc:	0ff57513          	andi	a0,a0,255
   13200:	04a78c23          	sb	a0,88(a5)
F:\git\MCU-CH573\Debug/srcc/adc.c:53
	sum = (sum + 8) >> 4;
   13204:	8211                	srli	a2,a2,0x4
F:\git\MCU-CH573\Debug/srcc/adc.c:57
	RoughCalib_Value = 2048-sum;	
   13206:	6785                	lui	a5,0x1
   13208:	80078793          	addi	a5,a5,-2048 # 800 <GEC_USER_SECTOR_END+0x7db>
   1320c:	40c78633          	sub	a2,a5,a2
   13210:	1fff2797          	auipc	a5,0x1fff2
   13214:	56c7a423          	sw	a2,1384(a5) # 20005778 <_edata>
F:\git\MCU-CH573\Debug/srcc/adc.c:58
}  
   13218:	8082                	ret
F:\git\MCU-CH573\Debug/srcc/adc.c:31
	    R8_TEM_SENSOR = RB_TEM_SEN_PWR_ON;
   1321a:	400017b7          	lui	a5,0x40001
   1321e:	f8000713          	li	a4,-128
   13222:	04e78da3          	sb	a4,91(a5) # 4000105b <_eusrstack+0x1fff905b>
F:\git\MCU-CH573\Debug/srcc/adc.c:32
	    R8_ADC_CFG = RB_ADC_POWER_ON | RB_ADC_DIFF_EN | (3 << 4);
   13226:	03500713          	li	a4,53
   1322a:	04e78ca3          	sb	a4,89(a5)
   1322e:	b78d                	j	13190 <adc_init+0x28>
F:\git\MCU-CH573\Debug/srcc/adc.c:36
	    R8_ADC_CFG = RB_ADC_POWER_ON | RB_ADC_BUF_EN | (0 << 4); // 使用-12dB模式，
   13230:	400017b7          	lui	a5,0x40001
   13234:	470d                	li	a4,3
   13236:	04e78ca3          	sb	a4,89(a5) # 40001059 <_eusrstack+0x1fff9059>
   1323a:	bf99                	j	13190 <adc_init+0x28>

0001323c <adc_read>:
adc_read():
F:\git\MCU-CH573\Debug/srcc/adc.c:69
//									 预留测试通道6、7、10、11		
//									 电源监测通道为14,内部温度检测通道为15
//内部调用:adc_ad_read,adc_voltage
//======================================================================
uint16_t adc_read(uint8_t Channel)
{
   1323c:	1141                	addi	sp,sp,-16
   1323e:	c606                	sw	ra,12(sp)
   13240:	c422                	sw	s0,8(sp)
   13242:	c226                	sw	s1,4(sp)
F:\git\MCU-CH573\Debug/srcc/adc.c:70
	R8_ADC_CHANNEL = Channel;        //设置通道
   13244:	400017b7          	lui	a5,0x40001
   13248:	04a78c23          	sb	a0,88(a5) # 40001058 <_eusrstack+0x1fff9058>
   1324c:	460d                	li	a2,3
F:\git\MCU-CH573\Debug/srcc/adc.c:76
	uint16_t mcu_AD;
	uint16_t ad;
	double voltage;
	uint8_t max=3; //最大采样3次，以保证不会死循环
	while(max--){
		uint8_t ga=adc_ga;  
   1324e:	40001337          	lui	t1,0x40001
F:\git\MCU-CH573\Debug/srcc/adc.c:78
		//先采样一次，后续可能需要调整档位
		R8_ADC_CONVERT = RB_ADC_START;
   13252:	05a30713          	addi	a4,t1,90 # 4000105a <_eusrstack+0x1fff905a>
   13256:	4f85                	li	t6,1
F:\git\MCU-CH573\Debug/srcc/adc.c:80
		while(R8_ADC_CONVERT & RB_ADC_START);
		mcu_AD = (R16_ADC_DATA & RB_ADC_DATA) + RoughCalib_Value;
   13258:	6785                	lui	a5,0x1
   1325a:	fff78f13          	addi	t5,a5,-1 # fff <GEC_USER_SECTOR_END+0xfda>
   1325e:	1fff2e97          	auipc	t4,0x1fff2
   13262:	51ae8e93          	addi	t4,t4,1306 # 20005778 <_edata>
F:\git\MCU-CH573\Debug/srcc/adc.c:82

		if(ga == ADC_PGA_1)   
   13266:	4e09                	li	t3,2
F:\git\MCU-CH573\Debug/srcc/adc.c:94
			}else{
				//有效范围0V - 2V
				voltage = mcu_AD  / 2048.0 * ADC_Verf;
				break;
			}
		}else if(ga == ADC_PGA_1_2)  //有效范围1.9V - 3V
   13268:	4285                	li	t0,1
F:\git\MCU-CH573\Debug/srcc/adc.c:114
			}
		}
		else if(ga == ADC_PGA_1_4) //有效范围2.9V - 5V
		{
			// printf("p4 %d\n",mcu_AD);
			if(mcu_AD<2450){ 
   1326a:	99178093          	addi	ra,a5,-1647
F:\git\MCU-CH573\Debug/srcc/adc.c:117
				//实际电压小于2.9V 切换到1/2档位
				set_ga(ADC_PGA_1_2);
			}else if(mcu_AD<2950){ 
   1326e:	b8578493          	addi	s1,a5,-1147
F:\git\MCU-CH573\Debug/srcc/adc.c:97
			if(mcu_AD<2877){     
   13272:	b3c78393          	addi	t2,a5,-1220
F:\git\MCU-CH573\Debug/srcc/adc.c:101
			}else if(mcu_AD>3949){ 
   13276:	f6d78413          	addi	s0,a5,-147
F:\git\MCU-CH573\Debug/srcc/adc.c:85
			if(mcu_AD>3900){  
   1327a:	f3c78593          	addi	a1,a5,-196
   1327e:	a839                	j	1329c <adc_read+0x60>
   13280:	06a5f263          	bgeu	a1,a0,132e4 <adc_read+0xa8>
F:\git\MCU-CH573\Debug/srcc/adc.c:88
				set_ga(ADC_PGA_1_2);
   13284:	05934783          	lbu	a5,89(t1)
   13288:	0cf7f793          	andi	a5,a5,207
   1328c:	0107e793          	ori	a5,a5,16
   13290:	04f30ca3          	sb	a5,89(t1)
   13294:	167d                	addi	a2,a2,-1
   13296:	0ff67613          	andi	a2,a2,255
F:\git\MCU-CH573\Debug/srcc/adc.c:75
	while(max--){
   1329a:	ce3d                	beqz	a2,13318 <adc_read+0xdc>
F:\git\MCU-CH573\Debug/srcc/adc.c:76
		uint8_t ga=adc_ga;  
   1329c:	05934683          	lbu	a3,89(t1)
   132a0:	8291                	srli	a3,a3,0x4
   132a2:	8a8d                	andi	a3,a3,3
F:\git\MCU-CH573\Debug/srcc/adc.c:78
		R8_ADC_CONVERT = RB_ADC_START;
   132a4:	01f70023          	sb	t6,0(a4)
F:\git\MCU-CH573\Debug/srcc/adc.c:79 (discriminator 1)
		while(R8_ADC_CONVERT & RB_ADC_START);
   132a8:	00074783          	lbu	a5,0(a4)
   132ac:	8b85                	andi	a5,a5,1
   132ae:	ffed                	bnez	a5,132a8 <adc_read+0x6c>
F:\git\MCU-CH573\Debug/srcc/adc.c:80
		mcu_AD = (R16_ADC_DATA & RB_ADC_DATA) + RoughCalib_Value;
   132b0:	05c35503          	lhu	a0,92(t1)
   132b4:	00af7533          	and	a0,t5,a0
   132b8:	000ea783          	lw	a5,0(t4)
   132bc:	953e                	add	a0,a0,a5
   132be:	0542                	slli	a0,a0,0x10
   132c0:	8141                	srli	a0,a0,0x10
F:\git\MCU-CH573\Debug/srcc/adc.c:82
		if(ga == ADC_PGA_1)   
   132c2:	fbc68fe3          	beq	a3,t3,13280 <adc_read+0x44>
F:\git\MCU-CH573\Debug/srcc/adc.c:94
		}else if(ga == ADC_PGA_1_2)  //有效范围1.9V - 3V
   132c6:	0a568363          	beq	a3,t0,1336c <adc_read+0x130>
F:\git\MCU-CH573\Debug/srcc/adc.c:111
		else if(ga == ADC_PGA_1_4) //有效范围2.9V - 5V
   132ca:	16069a63          	bnez	a3,1343e <adc_read+0x202>
F:\git\MCU-CH573\Debug/srcc/adc.c:114
			if(mcu_AD<2450){ 
   132ce:	10a0e863          	bltu	ra,a0,133de <adc_read+0x1a2>
F:\git\MCU-CH573\Debug/srcc/adc.c:116
				set_ga(ADC_PGA_1_2);
   132d2:	05934783          	lbu	a5,89(t1)
   132d6:	0cf7f793          	andi	a5,a5,207
   132da:	0107e793          	ori	a5,a5,16
   132de:	04f30ca3          	sb	a5,89(t1)
   132e2:	bf4d                	j	13294 <adc_read+0x58>
F:\git\MCU-CH573\Debug/srcc/adc.c:91
				voltage = mcu_AD  / 2048.0 * ADC_Verf;
   132e4:	00004097          	auipc	ra,0x4
   132e8:	0c2080e7          	jalr	194(ra) # 173a6 <__floatsidf>
   132ec:	00004797          	auipc	a5,0x4
   132f0:	3ec78793          	addi	a5,a5,1004 # 176d8 <strlen+0x14>
   132f4:	4390                	lw	a2,0(a5)
   132f6:	43d4                	lw	a3,4(a5)
   132f8:	00003097          	auipc	ra,0x3
   132fc:	3dc080e7          	jalr	988(ra) # 166d4 <__muldf3>
   13300:	00004797          	auipc	a5,0x4
   13304:	3e078793          	addi	a5,a5,992 # 176e0 <strlen+0x1c>
   13308:	4390                	lw	a2,0(a5)
   1330a:	43d4                	lw	a3,4(a5)
   1330c:	00003097          	auipc	ra,0x3
   13310:	3c8080e7          	jalr	968(ra) # 166d4 <__muldf3>
   13314:	882a                	mv	a6,a0
   13316:	88ae                	mv	a7,a1
F:\git\MCU-CH573\Debug/srcc/adc.c:129
		}else{
			// printf("p? %d\n",mcu_AD);
			set_ga(ADC_PGA_1);
		}
	}
	ad = (int)(voltage*4095/3.3);  
   13318:	00004797          	auipc	a5,0x4
   1331c:	3f078793          	addi	a5,a5,1008 # 17708 <strlen+0x44>
   13320:	4390                	lw	a2,0(a5)
   13322:	43d4                	lw	a3,4(a5)
   13324:	8542                	mv	a0,a6
   13326:	85c6                	mv	a1,a7
   13328:	00003097          	auipc	ra,0x3
   1332c:	3ac080e7          	jalr	940(ra) # 166d4 <__muldf3>
   13330:	00004797          	auipc	a5,0x4
   13334:	3e078793          	addi	a5,a5,992 # 17710 <strlen+0x4c>
   13338:	4390                	lw	a2,0(a5)
   1333a:	43d4                	lw	a3,4(a5)
   1333c:	00003097          	auipc	ra,0x3
   13340:	cb4080e7          	jalr	-844(ra) # 15ff0 <__divdf3>
   13344:	00004097          	auipc	ra,0x4
   13348:	f9e080e7          	jalr	-98(ra) # 172e2 <__fixdfsi>
   1334c:	87aa                	mv	a5,a0
F:\git\MCU-CH573\Debug/srcc/adc.c:130
	return ad>4095? 4095 : ad;  //4096级 最大值为3.3v。和其他构件行为保持一致
   1334e:	0542                	slli	a0,a0,0x10
   13350:	8141                	srli	a0,a0,0x10
   13352:	6705                	lui	a4,0x1
   13354:	00e56463          	bltu	a0,a4,1335c <adc_read+0x120>
   13358:	6785                	lui	a5,0x1
   1335a:	17fd                	addi	a5,a5,-1
F:\git\MCU-CH573\Debug/srcc/adc.c:131
}
   1335c:	01079513          	slli	a0,a5,0x10
   13360:	8141                	srli	a0,a0,0x10
   13362:	40b2                	lw	ra,12(sp)
   13364:	4422                	lw	s0,8(sp)
   13366:	4492                	lw	s1,4(sp)
   13368:	0141                	addi	sp,sp,16
   1336a:	8082                	ret
F:\git\MCU-CH573\Debug/srcc/adc.c:97
			if(mcu_AD<2877){     
   1336c:	00a3eb63          	bltu	t2,a0,13382 <adc_read+0x146>
F:\git\MCU-CH573\Debug/srcc/adc.c:100
				set_ga(ADC_PGA_1);
   13370:	05934783          	lbu	a5,89(t1)
   13374:	0cf7f793          	andi	a5,a5,207
   13378:	0207e793          	ori	a5,a5,32
   1337c:	04f30ca3          	sb	a5,89(t1)
   13380:	bf11                	j	13294 <adc_read+0x58>
F:\git\MCU-CH573\Debug/srcc/adc.c:101
			}else if(mcu_AD>3949){ 
   13382:	00a47963          	bgeu	s0,a0,13394 <adc_read+0x158>
F:\git\MCU-CH573\Debug/srcc/adc.c:104
				set_ga(ADC_PGA_1_4);
   13386:	05934783          	lbu	a5,89(t1)
   1338a:	0cf7f793          	andi	a5,a5,207
   1338e:	04f30ca3          	sb	a5,89(t1)
   13392:	b709                	j	13294 <adc_read+0x58>
F:\git\MCU-CH573\Debug/srcc/adc.c:107
				voltage = (mcu_AD/ 1024.0 - 1) * ADC_Verf;
   13394:	00004097          	auipc	ra,0x4
   13398:	012080e7          	jalr	18(ra) # 173a6 <__floatsidf>
   1339c:	00004797          	auipc	a5,0x4
   133a0:	34c78793          	addi	a5,a5,844 # 176e8 <strlen+0x24>
   133a4:	4390                	lw	a2,0(a5)
   133a6:	43d4                	lw	a3,4(a5)
   133a8:	00003097          	auipc	ra,0x3
   133ac:	32c080e7          	jalr	812(ra) # 166d4 <__muldf3>
   133b0:	00004797          	auipc	a5,0x4
   133b4:	34078793          	addi	a5,a5,832 # 176f0 <strlen+0x2c>
   133b8:	4390                	lw	a2,0(a5)
   133ba:	43d4                	lw	a3,4(a5)
   133bc:	00003097          	auipc	ra,0x3
   133c0:	7e0080e7          	jalr	2016(ra) # 16b9c <__subdf3>
   133c4:	00004797          	auipc	a5,0x4
   133c8:	31c78793          	addi	a5,a5,796 # 176e0 <strlen+0x1c>
   133cc:	4390                	lw	a2,0(a5)
   133ce:	43d4                	lw	a3,4(a5)
   133d0:	00003097          	auipc	ra,0x3
   133d4:	304080e7          	jalr	772(ra) # 166d4 <__muldf3>
   133d8:	882a                	mv	a6,a0
   133da:	88ae                	mv	a7,a1
F:\git\MCU-CH573\Debug/srcc/adc.c:108
				break;
   133dc:	bf35                	j	13318 <adc_read+0xdc>
F:\git\MCU-CH573\Debug/srcc/adc.c:117
			}else if(mcu_AD<2950){ 
   133de:	00a4eb63          	bltu	s1,a0,133f4 <adc_read+0x1b8>
F:\git\MCU-CH573\Debug/srcc/adc.c:119
				set_ga(ADC_PGA_1);
   133e2:	05934783          	lbu	a5,89(t1)
   133e6:	0cf7f793          	andi	a5,a5,207
   133ea:	0207e793          	ori	a5,a5,32
   133ee:	04f30ca3          	sb	a5,89(t1)
   133f2:	b54d                	j	13294 <adc_read+0x58>
F:\git\MCU-CH573\Debug/srcc/adc.c:121
				voltage= (mcu_AD / 512.0 - 3) * ADC_Verf;
   133f4:	00004097          	auipc	ra,0x4
   133f8:	fb2080e7          	jalr	-78(ra) # 173a6 <__floatsidf>
   133fc:	00004797          	auipc	a5,0x4
   13400:	2fc78793          	addi	a5,a5,764 # 176f8 <strlen+0x34>
   13404:	4390                	lw	a2,0(a5)
   13406:	43d4                	lw	a3,4(a5)
   13408:	00003097          	auipc	ra,0x3
   1340c:	2cc080e7          	jalr	716(ra) # 166d4 <__muldf3>
   13410:	00004797          	auipc	a5,0x4
   13414:	2f078793          	addi	a5,a5,752 # 17700 <strlen+0x3c>
   13418:	4390                	lw	a2,0(a5)
   1341a:	43d4                	lw	a3,4(a5)
   1341c:	00003097          	auipc	ra,0x3
   13420:	780080e7          	jalr	1920(ra) # 16b9c <__subdf3>
   13424:	00004797          	auipc	a5,0x4
   13428:	2bc78793          	addi	a5,a5,700 # 176e0 <strlen+0x1c>
   1342c:	4390                	lw	a2,0(a5)
   1342e:	43d4                	lw	a3,4(a5)
   13430:	00003097          	auipc	ra,0x3
   13434:	2a4080e7          	jalr	676(ra) # 166d4 <__muldf3>
   13438:	882a                	mv	a6,a0
   1343a:	88ae                	mv	a7,a1
F:\git\MCU-CH573\Debug/srcc/adc.c:122
				break;
   1343c:	bdf1                	j	13318 <adc_read+0xdc>
F:\git\MCU-CH573\Debug/srcc/adc.c:126
			set_ga(ADC_PGA_1);
   1343e:	05934783          	lbu	a5,89(t1)
   13442:	0cf7f793          	andi	a5,a5,207
   13446:	0207e793          	ori	a5,a5,32
   1344a:	04f30ca3          	sb	a5,89(t1)
   1344e:	b599                	j	13294 <adc_read+0x58>

00013450 <adc_mid>:
adc_mid():
F:\git\MCU-CH573\Debug/srcc/adc.c:141
//参    数:channel = 通道号                                           
//返    回:该通道中值滤波后的A/D转换结果                         
//内部调用:adc_ad_read                                               
//======================================================================
uint16_t adc_mid(uint16_t Channel)
{
   13450:	1141                	addi	sp,sp,-16
   13452:	c606                	sw	ra,12(sp)
   13454:	c422                	sw	s0,8(sp)
   13456:	c226                	sw	s1,4(sp)
   13458:	c04a                	sw	s2,0(sp)
F:\git\MCU-CH573\Debug/srcc/adc.c:145
    uint16_t a,b,c;
    uint16_t i;
    //（1）取三次A/D转换结果
    a = adc_read(Channel);
   1345a:	0ff57493          	andi	s1,a0,255
   1345e:	8526                	mv	a0,s1
   13460:	00000097          	auipc	ra,0x0
   13464:	ddc080e7          	jalr	-548(ra) # 1323c <adc_read>
   13468:	842a                	mv	s0,a0
   1346a:	0c800793          	li	a5,200
F:\git\MCU-CH573\Debug/srcc/adc.c:146 (discriminator 3)
    for (i=0;i<200;i++) ;
   1346e:	17fd                	addi	a5,a5,-1
   13470:	07c2                	slli	a5,a5,0x10
   13472:	83c1                	srli	a5,a5,0x10
   13474:	ffed                	bnez	a5,1346e <adc_mid+0x1e>
F:\git\MCU-CH573\Debug/srcc/adc.c:147
    b = adc_read(Channel);
   13476:	8526                	mv	a0,s1
   13478:	00000097          	auipc	ra,0x0
   1347c:	dc4080e7          	jalr	-572(ra) # 1323c <adc_read>
   13480:	892a                	mv	s2,a0
   13482:	0c800793          	li	a5,200
F:\git\MCU-CH573\Debug/srcc/adc.c:148 (discriminator 3)
    for (i=0;i<200;i++) ;
   13486:	17fd                	addi	a5,a5,-1
   13488:	07c2                	slli	a5,a5,0x10
   1348a:	83c1                	srli	a5,a5,0x10
   1348c:	ffed                	bnez	a5,13486 <adc_mid+0x36>
F:\git\MCU-CH573\Debug/srcc/adc.c:149
    c = adc_read(Channel);
   1348e:	8526                	mv	a0,s1
   13490:	00000097          	auipc	ra,0x0
   13494:	dac080e7          	jalr	-596(ra) # 1323c <adc_read>
F:\git\MCU-CH573\Debug/srcc/adc.c:151
   // （2）从三次A/D转换结果中取中值
    return  a > b ? (b > c ? b : ( a > c ? c : a)) : ( a > c ? a: (b > c ? c : a));
   13498:	02897263          	bgeu	s2,s0,134bc <adc_mid+0x6c>
F:\git\MCU-CH573\Debug/srcc/adc.c:151 (discriminator 1)
   1349c:	03256663          	bltu	a0,s2,134c8 <adc_mid+0x78>
F:\git\MCU-CH573\Debug/srcc/adc.c:151 (discriminator 3)
   134a0:	87a2                	mv	a5,s0
   134a2:	00857363          	bgeu	a0,s0,134a8 <adc_mid+0x58>
   134a6:	87aa                	mv	a5,a0
   134a8:	01079413          	slli	s0,a5,0x10
   134ac:	8041                	srli	s0,s0,0x10
F:\git\MCU-CH573\Debug/srcc/adc.c:152 (discriminator 16)
}
   134ae:	8522                	mv	a0,s0
   134b0:	40b2                	lw	ra,12(sp)
   134b2:	4422                	lw	s0,8(sp)
   134b4:	4492                	lw	s1,4(sp)
   134b6:	4902                	lw	s2,0(sp)
   134b8:	0141                	addi	sp,sp,16
   134ba:	8082                	ret
F:\git\MCU-CH573\Debug/srcc/adc.c:151 (discriminator 2)
    return  a > b ? (b > c ? b : ( a > c ? c : a)) : ( a > c ? a: (b > c ? c : a));
   134bc:	fe8569e3          	bltu	a0,s0,134ae <adc_mid+0x5e>
F:\git\MCU-CH573\Debug/srcc/adc.c:151 (discriminator 8)
   134c0:	ff2577e3          	bgeu	a0,s2,134ae <adc_mid+0x5e>
F:\git\MCU-CH573\Debug/srcc/adc.c:151
   134c4:	842a                	mv	s0,a0
   134c6:	b7e5                	j	134ae <adc_mid+0x5e>
   134c8:	844a                	mv	s0,s2
   134ca:	b7d5                	j	134ae <adc_mid+0x5e>

000134cc <adc_ave>:
adc_ave():
F:\git\MCU-CH573\Debug/srcc/adc.c:163
//参    数:channel = 通道号,n = 中值滤波次数                               
//返    回:该通道均值滤波后的A/D转换结果                                   
//内部调用:adc_mid                                                          
//======================================================================
uint16_t adc_ave(uint16_t Channel,uint8_t n) 
{
   134cc:	1101                	addi	sp,sp,-32
   134ce:	ce06                	sw	ra,28(sp)
   134d0:	cc22                	sw	s0,24(sp)
   134d2:	ca26                	sw	s1,20(sp)
   134d4:	c84a                	sw	s2,16(sp)
   134d6:	c64e                	sw	s3,12(sp)
   134d8:	c452                	sw	s4,8(sp)
   134da:	8a2e                	mv	s4,a1
F:\git\MCU-CH573\Debug/srcc/adc.c:167
    uint16_t i;
    uint32_t j;
    j = 0;
    for (i = 0; i < n; i++) j += adc_mid(Channel);
   134dc:	01059913          	slli	s2,a1,0x10
   134e0:	01095913          	srli	s2,s2,0x10
   134e4:	02090c63          	beqz	s2,1351c <adc_ave+0x50>
   134e8:	89aa                	mv	s3,a0
F:\git\MCU-CH573\Debug/srcc/adc.c:166
    j = 0;
   134ea:	4481                	li	s1,0
F:\git\MCU-CH573\Debug/srcc/adc.c:167
    for (i = 0; i < n; i++) j += adc_mid(Channel);
   134ec:	4401                	li	s0,0
F:\git\MCU-CH573\Debug/srcc/adc.c:167 (discriminator 3)
   134ee:	854e                	mv	a0,s3
   134f0:	00000097          	auipc	ra,0x0
   134f4:	f60080e7          	jalr	-160(ra) # 13450 <adc_mid>
   134f8:	94aa                	add	s1,s1,a0
   134fa:	0405                	addi	s0,s0,1
   134fc:	0442                	slli	s0,s0,0x10
   134fe:	8041                	srli	s0,s0,0x10
   13500:	ff2417e3          	bne	s0,s2,134ee <adc_ave+0x22>
F:\git\MCU-CH573\Debug/srcc/adc.c:168
    j = j/n;
   13504:	0344d533          	divu	a0,s1,s4
F:\git\MCU-CH573\Debug/srcc/adc.c:170
    return (uint16_t)j;
}
   13508:	0542                	slli	a0,a0,0x10
   1350a:	8141                	srli	a0,a0,0x10
   1350c:	40f2                	lw	ra,28(sp)
   1350e:	4462                	lw	s0,24(sp)
   13510:	44d2                	lw	s1,20(sp)
   13512:	4942                	lw	s2,16(sp)
   13514:	49b2                	lw	s3,12(sp)
   13516:	4a22                	lw	s4,8(sp)
   13518:	6105                	addi	sp,sp,32
   1351a:	8082                	ret
F:\git\MCU-CH573\Debug/srcc/adc.c:166
    j = 0;
   1351c:	4481                	li	s1,0
   1351e:	b7dd                	j	13504 <adc_ave+0x38>

00013520 <handle>:
handle():
F:\git\MCU-CH573\Debug/srcc/main.c:35
//函数返回：无
//参数说明：data：数据指针，size：数据大小
//功能概要：处理temp中的数据
//内部调用：无
//======================================================================
void handle(uint8_t * data,uint8_t size){
   13520:	7139                	addi	sp,sp,-64
   13522:	de06                	sw	ra,60(sp)
   13524:	dc22                	sw	s0,56(sp)
   13526:	da26                	sw	s1,52(sp)
   13528:	d84a                	sw	s2,48(sp)
   1352a:	d64e                	sw	s3,44(sp)
   1352c:	d452                	sw	s4,40(sp)
   1352e:	d256                	sw	s5,36(sp)
   13530:	d05a                	sw	s6,32(sp)
   13532:	ce5e                	sw	s7,28(sp)
   13534:	cc62                	sw	s8,24(sp)
   13536:	ca66                	sw	s9,20(sp)
F:\git\MCU-CH573\Debug/srcc/main.c:43
    #ifdef __debug
    printf("handle,data=");
    for(int i=0;i<size && data[i]!=FrameTail;++i)  printf("0x%x ",data[i]);
    printf("\n");
    #endif
    switch (data[0])
   13538:	00054703          	lbu	a4,0(a0)
   1353c:	09000793          	li	a5,144
   13540:	04f70363          	beq	a4,a5,13586 <handle+0x66>
   13544:	842a                	mv	s0,a0
   13546:	84ae                	mv	s1,a1
F:\git\MCU-CH573\Debug/srcc/main.c:52
        uart_sendN(UART_User,mcu_desc_len,mcu_desc);
        analogInCount = analogOutCount = digitalInCount = digitalOutCount = 0;
        // printf("shake\n");
        return;
    }
    flag = i = 0; // 当前正在处理的数据指针
   13548:	000107a3          	sb	zero,15(sp)
   1354c:	00010723          	sb	zero,14(sp)
F:\git\MCU-CH573\Debug/srcc/main.c:59
    {
        switch (data[i])
        {
            case 0xa0:
            // （2.1.1）若接受到数据为0b1010_0000，清空输入缓存
                analogInCount = digitalInCount = 0;
   13550:	1fff3a17          	auipc	s4,0x1fff3
   13554:	6d8a0a13          	addi	s4,s4,1752 # 20006c28 <digitalInCount>
   13558:	1fff3917          	auipc	s2,0x1fff3
   1355c:	7c590913          	addi	s2,s2,1989 # 20006d1d <analogInCount>
F:\git\MCU-CH573\Debug/srcc/main.c:108
            i += 2;
            break;
        case 0b001:
            // （2.4.2）0b001为模拟输出，3字节数据
            // (a)将模拟输出数值存入analogOutString
            analogOutString[analogOutCount][0] = 0xc0 | data[i] & 0x1f;
   13560:	1fff3997          	auipc	s3,0x1fff3
   13564:	7bc98993          	addi	s3,s3,1980 # 20006d1c <analogOutCount>
   13568:	1fff3c17          	auipc	s8,0x1fff3
   1356c:	714c0c13          	addi	s8,s8,1812 # 20006c7c <analogOutString>
F:\git\MCU-CH573\Debug/srcc/main.c:114
            analogOutString[analogOutCount][1] = data[i + 1] & 0x7f;
            analogOutString[analogOutCount][2] = data[i + 2] & 0x7f;
            // (b)模拟输出字节数 + 1
            analogOutCount++;
            // (c)将模拟输出数值存入val,并更新模拟输出
            val = (data[i + 2] & 0x7f) << 5 | data[i] & 0x1f;
   13570:	6a85                	lui	s5,0x1
   13572:	1a81                	addi	s5,s5,-32
F:\git\MCU-CH573\Debug/srcc/main.c:115
            LAB_ANALOG_CTRL(analogOutPin[pin],val);
   13574:	00004b97          	auipc	s7,0x4
   13578:	1a4b8b93          	addi	s7,s7,420 # 17718 <strlen+0x54>
   1357c:	00004b17          	auipc	s6,0x4
   13580:	18cb0b13          	addi	s6,s6,396 # 17708 <strlen+0x44>
F:\git\MCU-CH573\Debug/srcc/main.c:53
    while (i < size)
   13584:	a09d                	j	135ea <handle+0xca>
F:\git\MCU-CH573\Debug/srcc/main.c:47
        uart_sendN(UART_User,mcu_desc_len,mcu_desc);
   13586:	1fff2617          	auipc	a2,0x1fff2
   1358a:	1ea60613          	addi	a2,a2,490 # 20005770 <mcu_desc>
   1358e:	4599                	li	a1,6
   13590:	4501                	li	a0,0
   13592:	00001097          	auipc	ra,0x1
   13596:	41a080e7          	jalr	1050(ra) # 149ac <uart_sendN>
F:\git\MCU-CH573\Debug/srcc/main.c:48
        analogInCount = analogOutCount = digitalInCount = digitalOutCount = 0;
   1359a:	1fff3797          	auipc	a5,0x1fff3
   1359e:	62078d23          	sb	zero,1594(a5) # 20006bd4 <digitalOutCount>
   135a2:	1fff3797          	auipc	a5,0x1fff3
   135a6:	68078323          	sb	zero,1670(a5) # 20006c28 <digitalInCount>
   135aa:	1fff3797          	auipc	a5,0x1fff3
   135ae:	76078923          	sb	zero,1906(a5) # 20006d1c <analogOutCount>
   135b2:	1fff3797          	auipc	a5,0x1fff3
   135b6:	760785a3          	sb	zero,1899(a5) # 20006d1d <analogInCount>
F:\git\MCU-CH573\Debug/srcc/main.c:162
        // （2.4.5）默认情况，跳过这一字节
        default:
            i++;
        }
    }
}
   135ba:	50f2                	lw	ra,60(sp)
   135bc:	5462                	lw	s0,56(sp)
   135be:	54d2                	lw	s1,52(sp)
   135c0:	5942                	lw	s2,48(sp)
   135c2:	59b2                	lw	s3,44(sp)
   135c4:	5a22                	lw	s4,40(sp)
   135c6:	5a92                	lw	s5,36(sp)
   135c8:	5b02                	lw	s6,32(sp)
   135ca:	4bf2                	lw	s7,28(sp)
   135cc:	4c62                	lw	s8,24(sp)
   135ce:	4cd2                	lw	s9,20(sp)
   135d0:	6121                	addi	sp,sp,64
   135d2:	8082                	ret
F:\git\MCU-CH573\Debug/srcc/main.c:59
                analogInCount = digitalInCount = 0;
   135d4:	000a0023          	sb	zero,0(s4)
   135d8:	00090023          	sb	zero,0(s2)
F:\git\MCU-CH573\Debug/srcc/main.c:60
                i++;
   135dc:	00f14783          	lbu	a5,15(sp)
   135e0:	0785                	addi	a5,a5,1
   135e2:	0ff7f793          	andi	a5,a5,255
   135e6:	00f107a3          	sb	a5,15(sp)
F:\git\MCU-CH573\Debug/srcc/main.c:53
    while (i < size)
   135ea:	00f14783          	lbu	a5,15(sp)
   135ee:	0ff7f793          	andi	a5,a5,255
   135f2:	fc97f4e3          	bgeu	a5,s1,135ba <handle+0x9a>
F:\git\MCU-CH573\Debug/srcc/main.c:55
        switch (data[i])
   135f6:	00f14783          	lbu	a5,15(sp)
   135fa:	97a2                	add	a5,a5,s0
   135fc:	0007c783          	lbu	a5,0(a5)
   13600:	0a000713          	li	a4,160
   13604:	fce788e3          	beq	a5,a4,135d4 <handle+0xb4>
   13608:	0a100713          	li	a4,161
   1360c:	06e78563          	beq	a5,a4,13676 <handle+0x156>
F:\git\MCU-CH573\Debug/srcc/main.c:73
        if(data[i]==FrameTail) break;
   13610:	00f14783          	lbu	a5,15(sp)
   13614:	97a2                	add	a5,a5,s0
   13616:	0007c703          	lbu	a4,0(a5)
   1361a:	08100793          	li	a5,129
   1361e:	f8f70ee3          	beq	a4,a5,135ba <handle+0x9a>
F:\git\MCU-CH573\Debug/srcc/main.c:82
        type = (data[i] >> 5) & 0x7;
   13622:	00f14783          	lbu	a5,15(sp)
   13626:	97a2                	add	a5,a5,s0
   13628:	0007c783          	lbu	a5,0(a5)
   1362c:	8395                	srli	a5,a5,0x5
   1362e:	00f106a3          	sb	a5,13(sp)
F:\git\MCU-CH573\Debug/srcc/main.c:83
        pin = data[i+1] &0x7f;
   13632:	00f14783          	lbu	a5,15(sp)
   13636:	97a2                	add	a5,a5,s0
   13638:	0017c783          	lbu	a5,1(a5)
   1363c:	07f7f793          	andi	a5,a5,127
   13640:	00f10623          	sb	a5,12(sp)
F:\git\MCU-CH573\Debug/srcc/main.c:88
        switch (type)
   13644:	00d14783          	lbu	a5,13(sp)
   13648:	0ff7f793          	andi	a5,a5,255
   1364c:	4705                	li	a4,1
   1364e:	0ce78563          	beq	a5,a4,13718 <handle+0x1f8>
   13652:	01879713          	slli	a4,a5,0x18
   13656:	8761                	srai	a4,a4,0x18
   13658:	c729                	beqz	a4,136a2 <handle+0x182>
   1365a:	4709                	li	a4,2
   1365c:	18e78e63          	beq	a5,a4,137f8 <handle+0x2d8>
   13660:	470d                	li	a4,3
   13662:	20e78363          	beq	a5,a4,13868 <handle+0x348>
F:\git\MCU-CH573\Debug/srcc/main.c:159
            i++;
   13666:	00f14783          	lbu	a5,15(sp)
   1366a:	0785                	addi	a5,a5,1
   1366c:	0ff7f793          	andi	a5,a5,255
   13670:	00f107a3          	sb	a5,15(sp)
   13674:	bf9d                	j	135ea <handle+0xca>
F:\git\MCU-CH573\Debug/srcc/main.c:67
                analogOutCount = digitalOutCount = 0;
   13676:	1fff3797          	auipc	a5,0x1fff3
   1367a:	54078f23          	sb	zero,1374(a5) # 20006bd4 <digitalOutCount>
   1367e:	00098023          	sb	zero,0(s3)
F:\git\MCU-CH573\Debug/srcc/main.c:68
                i++;
   13682:	00f14783          	lbu	a5,15(sp)
   13686:	0785                	addi	a5,a5,1
   13688:	0ff7f793          	andi	a5,a5,255
   1368c:	00f107a3          	sb	a5,15(sp)
F:\git\MCU-CH573\Debug/srcc/main.c:69
                printf("clear out\n");
   13690:	00004517          	auipc	a0,0x4
   13694:	09050513          	addi	a0,a0,144 # 17720 <strlen+0x5c>
   13698:	00002097          	auipc	ra,0x2
   1369c:	1fc080e7          	jalr	508(ra) # 15894 <myprintf>
F:\git\MCU-CH573\Debug/srcc/main.c:70
                continue;
   136a0:	b7a9                	j	135ea <handle+0xca>
F:\git\MCU-CH573\Debug/srcc/main.c:93
            analogInList[analogInCount] = analogInPin[pin];
   136a2:	00c14783          	lbu	a5,12(sp)
   136a6:	00094683          	lbu	a3,0(s2)
   136aa:	00169713          	slli	a4,a3,0x1
   136ae:	1fff3697          	auipc	a3,0x1fff3
   136b2:	57e68693          	addi	a3,a3,1406 # 20006c2c <analogInList>
   136b6:	96ba                	add	a3,a3,a4
   136b8:	1fff2717          	auipc	a4,0x1fff2
   136bc:	fc870713          	addi	a4,a4,-56 # 20005680 <analogInPin>
   136c0:	0786                	slli	a5,a5,0x1
   136c2:	97ba                	add	a5,a5,a4
   136c4:	0007d783          	lhu	a5,0(a5)
   136c8:	00f69023          	sh	a5,0(a3)
F:\git\MCU-CH573\Debug/srcc/main.c:94
            LAB_ANALOG_INIT(analogInPin[pin]);
   136cc:	00c14783          	lbu	a5,12(sp)
   136d0:	0786                	slli	a5,a5,0x1
   136d2:	973e                	add	a4,a4,a5
   136d4:	4581                	li	a1,0
   136d6:	00075503          	lhu	a0,0(a4)
   136da:	00000097          	auipc	ra,0x0
   136de:	a8e080e7          	jalr	-1394(ra) # 13168 <adc_init>
F:\git\MCU-CH573\Debug/srcc/main.c:96
            analogInString[analogInCount][1] = data[i + 1] ;
   136e2:	00f14703          	lbu	a4,15(sp)
   136e6:	00094783          	lbu	a5,0(s2)
   136ea:	9722                	add	a4,a4,s0
   136ec:	00174683          	lbu	a3,1(a4)
   136f0:	00279613          	slli	a2,a5,0x2
   136f4:	1fff3717          	auipc	a4,0x1fff3
   136f8:	63070713          	addi	a4,a4,1584 # 20006d24 <analogInString>
   136fc:	9732                	add	a4,a4,a2
   136fe:	00d700a3          	sb	a3,1(a4)
F:\git\MCU-CH573\Debug/srcc/main.c:98
            analogInCount++;
   13702:	0785                	addi	a5,a5,1
   13704:	00f90023          	sb	a5,0(s2)
F:\git\MCU-CH573\Debug/srcc/main.c:103
            i += 2;
   13708:	00f14783          	lbu	a5,15(sp)
   1370c:	0789                	addi	a5,a5,2
   1370e:	0ff7f793          	andi	a5,a5,255
   13712:	00f107a3          	sb	a5,15(sp)
F:\git\MCU-CH573\Debug/srcc/main.c:104
            break;
   13716:	bdd1                	j	135ea <handle+0xca>
F:\git\MCU-CH573\Debug/srcc/main.c:108
            analogOutString[analogOutCount][0] = 0xc0 | data[i] & 0x1f;
   13718:	00f14703          	lbu	a4,15(sp)
   1371c:	0009c683          	lbu	a3,0(s3)
   13720:	00269793          	slli	a5,a3,0x2
   13724:	97e2                	add	a5,a5,s8
   13726:	9722                	add	a4,a4,s0
   13728:	00074703          	lbu	a4,0(a4)
   1372c:	8b7d                	andi	a4,a4,31
   1372e:	fc076713          	ori	a4,a4,-64
   13732:	00e78023          	sb	a4,0(a5)
F:\git\MCU-CH573\Debug/srcc/main.c:109
            analogOutString[analogOutCount][1] = data[i + 1] & 0x7f;
   13736:	00f14703          	lbu	a4,15(sp)
   1373a:	9722                	add	a4,a4,s0
   1373c:	00174703          	lbu	a4,1(a4)
   13740:	07f77713          	andi	a4,a4,127
   13744:	00e780a3          	sb	a4,1(a5)
F:\git\MCU-CH573\Debug/srcc/main.c:110
            analogOutString[analogOutCount][2] = data[i + 2] & 0x7f;
   13748:	00f14703          	lbu	a4,15(sp)
   1374c:	9722                	add	a4,a4,s0
   1374e:	00274703          	lbu	a4,2(a4)
   13752:	07f77713          	andi	a4,a4,127
   13756:	00e78123          	sb	a4,2(a5)
F:\git\MCU-CH573\Debug/srcc/main.c:112
            analogOutCount++;
   1375a:	0685                	addi	a3,a3,1
   1375c:	00d98023          	sb	a3,0(s3)
F:\git\MCU-CH573\Debug/srcc/main.c:114
            val = (data[i + 2] & 0x7f) << 5 | data[i] & 0x1f;
   13760:	00f14783          	lbu	a5,15(sp)
   13764:	00f14703          	lbu	a4,15(sp)
   13768:	97a2                	add	a5,a5,s0
   1376a:	0027c783          	lbu	a5,2(a5)
   1376e:	0796                	slli	a5,a5,0x5
   13770:	9722                	add	a4,a4,s0
   13772:	00074703          	lbu	a4,0(a4)
   13776:	8b7d                	andi	a4,a4,31
   13778:	0157f7b3          	and	a5,a5,s5
   1377c:	8fd9                	or	a5,a5,a4
   1377e:	00f11523          	sh	a5,10(sp)
F:\git\MCU-CH573\Debug/srcc/main.c:115
            LAB_ANALOG_CTRL(analogOutPin[pin],val);
   13782:	00c14c83          	lbu	s9,12(sp)
   13786:	0ffcfc93          	andi	s9,s9,255
   1378a:	00a15503          	lhu	a0,10(sp)
   1378e:	00004097          	auipc	ra,0x4
   13792:	c18080e7          	jalr	-1000(ra) # 173a6 <__floatsidf>
   13796:	000ba603          	lw	a2,0(s7)
   1379a:	004ba683          	lw	a3,4(s7)
   1379e:	00003097          	auipc	ra,0x3
   137a2:	f36080e7          	jalr	-202(ra) # 166d4 <__muldf3>
   137a6:	000b2603          	lw	a2,0(s6)
   137aa:	004b2683          	lw	a3,4(s6)
   137ae:	00003097          	auipc	ra,0x3
   137b2:	842080e7          	jalr	-1982(ra) # 15ff0 <__divdf3>
   137b6:	0c86                	slli	s9,s9,0x1
   137b8:	1fff2797          	auipc	a5,0x1fff2
   137bc:	f1878793          	addi	a5,a5,-232 # 200056d0 <analogOutPin>
   137c0:	9cbe                	add	s9,s9,a5
   137c2:	4805                	li	a6,1
   137c4:	4785                	li	a5,1
   137c6:	86aa                	mv	a3,a0
   137c8:	872e                	mv	a4,a1
   137ca:	10000613          	li	a2,256
   137ce:	00f425b7          	lui	a1,0xf42
   137d2:	40058593          	addi	a1,a1,1024 # f42400 <_data_lma+0xf2a940>
   137d6:	000cd503          	lhu	a0,0(s9)
   137da:	00001097          	auipc	ra,0x1
   137de:	a52080e7          	jalr	-1454(ra) # 1422c <pwm_init>
F:\git\MCU-CH573\Debug/srcc/main.c:117
            i += 3;
   137e2:	00f14783          	lbu	a5,15(sp)
   137e6:	078d                	addi	a5,a5,3
   137e8:	0ff7f793          	andi	a5,a5,255
   137ec:	00f107a3          	sb	a5,15(sp)
F:\git\MCU-CH573\Debug/srcc/main.c:118
            flag=1;
   137f0:	4785                	li	a5,1
   137f2:	00f10723          	sb	a5,14(sp)
F:\git\MCU-CH573\Debug/srcc/main.c:122
            break;
   137f6:	bbd5                	j	135ea <handle+0xca>
F:\git\MCU-CH573\Debug/srcc/main.c:126
            digitalInList[digitalInCount] = digitalPin[pin];
   137f8:	00c14783          	lbu	a5,12(sp)
   137fc:	000a4683          	lbu	a3,0(s4)
   13800:	00169593          	slli	a1,a3,0x1
   13804:	1fff3617          	auipc	a2,0x1fff3
   13808:	3d460613          	addi	a2,a2,980 # 20006bd8 <digitalInList>
   1380c:	962e                	add	a2,a2,a1
   1380e:	1fff2717          	auipc	a4,0x1fff2
   13812:	f1270713          	addi	a4,a4,-238 # 20005720 <digitalPin>
   13816:	0786                	slli	a5,a5,0x1
   13818:	97ba                	add	a5,a5,a4
   1381a:	0007d783          	lhu	a5,0(a5)
   1381e:	00f61023          	sh	a5,0(a2)
F:\git\MCU-CH573\Debug/srcc/main.c:128
            digitalInString[digitalInCount][1] = data[i + 1] ;
   13822:	00f14603          	lbu	a2,15(sp)
   13826:	9622                	add	a2,a2,s0
   13828:	00164603          	lbu	a2,1(a2)
   1382c:	1fff3797          	auipc	a5,0x1fff3
   13830:	5e878793          	addi	a5,a5,1512 # 20006e14 <digitalInString>
   13834:	97ae                	add	a5,a5,a1
   13836:	00c780a3          	sb	a2,1(a5)
F:\git\MCU-CH573\Debug/srcc/main.c:130
            digitalInCount++;
   1383a:	0685                	addi	a3,a3,1
   1383c:	00da0023          	sb	a3,0(s4)
F:\git\MCU-CH573\Debug/srcc/main.c:132
            LAB_DIGITAL_INIT(digitalPin[pin], GPIO_INPUT);
   13840:	00c14783          	lbu	a5,12(sp)
   13844:	0786                	slli	a5,a5,0x1
   13846:	973e                	add	a4,a4,a5
   13848:	4601                	li	a2,0
   1384a:	4581                	li	a1,0
   1384c:	00075503          	lhu	a0,0(a4)
   13850:	00001097          	auipc	ra,0x1
   13854:	8c6080e7          	jalr	-1850(ra) # 14116 <gpio_init>
F:\git\MCU-CH573\Debug/srcc/main.c:134
            i += 2;
   13858:	00f14783          	lbu	a5,15(sp)
   1385c:	0789                	addi	a5,a5,2
   1385e:	0ff7f793          	andi	a5,a5,255
   13862:	00f107a3          	sb	a5,15(sp)
F:\git\MCU-CH573\Debug/srcc/main.c:138
            break;
   13866:	b351                	j	135ea <handle+0xca>
F:\git\MCU-CH573\Debug/srcc/main.c:142
            digitalOutString[digitalOutCount][0] = 0b11100000 | data[i];
   13868:	00f14683          	lbu	a3,15(sp)
   1386c:	1fff3617          	auipc	a2,0x1fff3
   13870:	36860613          	addi	a2,a2,872 # 20006bd4 <digitalOutCount>
   13874:	00064783          	lbu	a5,0(a2)
   13878:	00179593          	slli	a1,a5,0x1
   1387c:	1fff3717          	auipc	a4,0x1fff3
   13880:	54870713          	addi	a4,a4,1352 # 20006dc4 <digitalOutString>
   13884:	972e                	add	a4,a4,a1
   13886:	96a2                	add	a3,a3,s0
   13888:	0006c683          	lbu	a3,0(a3)
   1388c:	fe06e693          	ori	a3,a3,-32
   13890:	00d70023          	sb	a3,0(a4)
F:\git\MCU-CH573\Debug/srcc/main.c:143
            digitalOutString[digitalOutCount][1] = data[i + 1];
   13894:	00f14683          	lbu	a3,15(sp)
   13898:	96a2                	add	a3,a3,s0
   1389a:	0016c683          	lbu	a3,1(a3)
   1389e:	00d700a3          	sb	a3,1(a4)
F:\git\MCU-CH573\Debug/srcc/main.c:145
            digitalOutCount++;
   138a2:	0785                	addi	a5,a5,1
   138a4:	00f60023          	sb	a5,0(a2)
F:\git\MCU-CH573\Debug/srcc/main.c:147
            val = data[i] & 0x1f;
   138a8:	00f14783          	lbu	a5,15(sp)
   138ac:	97a2                	add	a5,a5,s0
   138ae:	0007c783          	lbu	a5,0(a5)
   138b2:	8bfd                	andi	a5,a5,31
   138b4:	0ff7f793          	andi	a5,a5,255
   138b8:	00f11523          	sh	a5,10(sp)
F:\git\MCU-CH573\Debug/srcc/main.c:148
            LAB_DIGITAL_INIT(digitalPin[pin], GPIO_OUTPUT);
   138bc:	00c14783          	lbu	a5,12(sp)
   138c0:	1fff2c97          	auipc	s9,0x1fff2
   138c4:	e60c8c93          	addi	s9,s9,-416 # 20005720 <digitalPin>
   138c8:	0786                	slli	a5,a5,0x1
   138ca:	97e6                	add	a5,a5,s9
   138cc:	4601                	li	a2,0
   138ce:	4585                	li	a1,1
   138d0:	0007d503          	lhu	a0,0(a5)
   138d4:	00001097          	auipc	ra,0x1
   138d8:	842080e7          	jalr	-1982(ra) # 14116 <gpio_init>
F:\git\MCU-CH573\Debug/srcc/main.c:149
            LAB_DIGITAL_CTRL(digitalPin[pin], val? INPUT_ON : INPUT_OFF);
   138dc:	00c14783          	lbu	a5,12(sp)
   138e0:	00a15603          	lhu	a2,10(sp)
   138e4:	0642                	slli	a2,a2,0x10
   138e6:	8241                	srli	a2,a2,0x10
   138e8:	0786                	slli	a5,a5,0x1
   138ea:	9cbe                	add	s9,s9,a5
   138ec:	00c03633          	snez	a2,a2
   138f0:	4585                	li	a1,1
   138f2:	000cd503          	lhu	a0,0(s9)
   138f6:	00001097          	auipc	ra,0x1
   138fa:	820080e7          	jalr	-2016(ra) # 14116 <gpio_init>
F:\git\MCU-CH573\Debug/srcc/main.c:151
            i += 2;
   138fe:	00f14783          	lbu	a5,15(sp)
   13902:	0789                	addi	a5,a5,2
   13904:	0ff7f793          	andi	a5,a5,255
   13908:	00f107a3          	sb	a5,15(sp)
F:\git\MCU-CH573\Debug/srcc/main.c:152
            flag=1;
   1390c:	4785                	li	a5,1
   1390e:	00f10723          	sb	a5,14(sp)
F:\git\MCU-CH573\Debug/srcc/main.c:156
            break;
   13912:	b9e1                	j	135ea <handle+0xca>

00013914 <send>:
send():
F:\git\MCU-CH573\Debug/srcc/main.c:171
//函数返回：无
//参数说明：无
//功能概要：收集信息并发送给上位机
//内部调用：无
//======================================================================
void send(){
   13914:	7159                	addi	sp,sp,-112
   13916:	d686                	sw	ra,108(sp)
   13918:	d4a2                	sw	s0,104(sp)
   1391a:	d2a6                	sw	s1,100(sp)
   1391c:	d0ca                	sw	s2,96(sp)
   1391e:	cece                	sw	s3,92(sp)
   13920:	ccd2                	sw	s4,88(sp)
   13922:	cad6                	sw	s5,84(sp)
   13924:	c8da                	sw	s6,80(sp)
   13926:	c6de                	sw	s7,76(sp)
   13928:	c4e2                	sw	s8,72(sp)
F:\git\MCU-CH573\Debug/srcc/main.c:176
    uint8_t i,index,buff[50];
    uint16_t val;
    index=0;
    // （1）发送模拟监控数据
    for (i = 0; i < analogInCount; ++i)
   1392a:	1fff3417          	auipc	s0,0x1fff3
   1392e:	3f344403          	lbu	s0,1011(s0) # 20006d1d <analogInCount>
   13932:	c441                	beqz	s0,139ba <send+0xa6>
F:\git\MCU-CH573\Debug/srcc/main.c:174
    index=0;
   13934:	4401                	li	s0,0
F:\git\MCU-CH573\Debug/srcc/main.c:176
    for (i = 0; i < analogInCount; ++i)
   13936:	4481                	li	s1,0
F:\git\MCU-CH573\Debug/srcc/main.c:179
    {
        //(3.1)读取引脚电压
        val = LAB_ANALOG_AVE(analogInList[i]);
   13938:	1fff3a17          	auipc	s4,0x1fff3
   1393c:	2f4a0a13          	addi	s4,s4,756 # 20006c2c <analogInList>
F:\git\MCU-CH573\Debug/srcc/main.c:182
        //(3.2)将电压存入数据的第1 3个字节的低5 7位
        buff[index++]=0xc0|(val & 0x1f); // 0x30 start of data
        buff[index++]=analogInString[i][1];
   13940:	1fff3997          	auipc	s3,0x1fff3
   13944:	3e498993          	addi	s3,s3,996 # 20006d24 <analogInString>
F:\git\MCU-CH573\Debug/srcc/main.c:176
    for (i = 0; i < analogInCount; ++i)
   13948:	1fff3917          	auipc	s2,0x1fff3
   1394c:	3d590913          	addi	s2,s2,981 # 20006d1d <analogInCount>
F:\git\MCU-CH573\Debug/srcc/main.c:179 (discriminator 3)
        val = LAB_ANALOG_AVE(analogInList[i]);
   13950:	00149793          	slli	a5,s1,0x1
   13954:	97d2                	add	a5,a5,s4
   13956:	45a9                	li	a1,10
   13958:	0007d503          	lhu	a0,0(a5)
   1395c:	00000097          	auipc	ra,0x0
   13960:	b70080e7          	jalr	-1168(ra) # 134cc <adc_ave>
F:\git\MCU-CH573\Debug/srcc/main.c:181 (discriminator 3)
        buff[index++]=0xc0|(val & 0x1f); // 0x30 start of data
   13964:	009c                	addi	a5,sp,64
   13966:	00878733          	add	a4,a5,s0
   1396a:	01f57793          	andi	a5,a0,31
   1396e:	fc07e793          	ori	a5,a5,-64
   13972:	fcf70623          	sb	a5,-52(a4)
F:\git\MCU-CH573\Debug/srcc/main.c:182 (discriminator 3)
        buff[index++]=analogInString[i][1];
   13976:	00240793          	addi	a5,s0,2
   1397a:	0ff7f793          	andi	a5,a5,255
F:\git\MCU-CH573\Debug/srcc/main.c:181 (discriminator 3)
        buff[index++]=0xc0|(val & 0x1f); // 0x30 start of data
   1397e:	00140713          	addi	a4,s0,1
F:\git\MCU-CH573\Debug/srcc/main.c:182 (discriminator 3)
        buff[index++]=analogInString[i][1];
   13982:	0ff77713          	andi	a4,a4,255
   13986:	0094                	addi	a3,sp,64
   13988:	9736                	add	a4,a4,a3
   1398a:	00249693          	slli	a3,s1,0x2
   1398e:	96ce                	add	a3,a3,s3
   13990:	0016c683          	lbu	a3,1(a3)
   13994:	fcd70623          	sb	a3,-52(a4)
F:\git\MCU-CH573\Debug/srcc/main.c:183 (discriminator 3)
        buff[index++]=val >>5 & 0x7f;
   13998:	040d                	addi	s0,s0,3
   1399a:	0ff47413          	andi	s0,s0,255
   1399e:	0098                	addi	a4,sp,64
   139a0:	97ba                	add	a5,a5,a4
   139a2:	8115                	srli	a0,a0,0x5
   139a4:	07f57513          	andi	a0,a0,127
   139a8:	fca78623          	sb	a0,-52(a5)
F:\git\MCU-CH573\Debug/srcc/main.c:176 (discriminator 3)
    for (i = 0; i < analogInCount; ++i)
   139ac:	0485                	addi	s1,s1,1
   139ae:	0ff4f493          	andi	s1,s1,255
   139b2:	00094783          	lbu	a5,0(s2)
   139b6:	f8f4ede3          	bltu	s1,a5,13950 <send+0x3c>
F:\git\MCU-CH573\Debug/srcc/main.c:186
    }
    // （2）发送模拟输出数据
    for (i = 0; i < analogOutCount; ++i)
   139ba:	1fff3497          	auipc	s1,0x1fff3
   139be:	3624c483          	lbu	s1,866(s1) # 20006d1c <analogOutCount>
   139c2:	c4ad                	beqz	s1,13a2c <send+0x118>
   139c4:	1fff3797          	auipc	a5,0x1fff3
   139c8:	2b878793          	addi	a5,a5,696 # 20006c7c <analogOutString>
   139cc:	00149713          	slli	a4,s1,0x1
   139d0:	94ba                	add	s1,s1,a4
   139d2:	94a2                	add	s1,s1,s0
   139d4:	0ff4f493          	andi	s1,s1,255
F:\git\MCU-CH573\Debug/srcc/main.c:188 (discriminator 3)
    {
        memcpy(buff+index,analogOutString[i],3);
   139d8:	0078                	addi	a4,sp,12
   139da:	9722                	add	a4,a4,s0
   139dc:	0007c683          	lbu	a3,0(a5)
   139e0:	00d70023          	sb	a3,0(a4)
   139e4:	0017c683          	lbu	a3,1(a5)
   139e8:	00d700a3          	sb	a3,1(a4)
   139ec:	0027c683          	lbu	a3,2(a5)
   139f0:	00d70123          	sb	a3,2(a4)
F:\git\MCU-CH573\Debug/srcc/main.c:189 (discriminator 3)
        index+=3;
   139f4:	040d                	addi	s0,s0,3
   139f6:	0ff47413          	andi	s0,s0,255
   139fa:	0791                	addi	a5,a5,4
F:\git\MCU-CH573\Debug/srcc/main.c:186 (discriminator 3)
    for (i = 0; i < analogOutCount; ++i)
   139fc:	fc941ee3          	bne	s0,s1,139d8 <send+0xc4>
F:\git\MCU-CH573\Debug/srcc/main.c:192
    }
    // （3）发送数字监控数据
    for (i = 0; i < digitalInCount; ++i)
   13a00:	1fff3797          	auipc	a5,0x1fff3
   13a04:	2287c783          	lbu	a5,552(a5) # 20006c28 <digitalInCount>
   13a08:	c3d9                	beqz	a5,13a8e <send+0x17a>
   13a0a:	4401                	li	s0,0
F:\git\MCU-CH573\Debug/srcc/main.c:195
    {
        //(3.1)如果是数字监控为1，将digitalInString的第一字节的第0位置为1
        if (LAB_DIGITAL_GET(digitalInList[i]) == INPUT_ON)
   13a0c:	1fff3b17          	auipc	s6,0x1fff3
   13a10:	1ccb0b13          	addi	s6,s6,460 # 20006bd8 <digitalInList>
   13a14:	4a85                	li	s5,1
F:\git\MCU-CH573\Debug/srcc/main.c:202
            buff[index++]=0b11100001;
        }
        // (3.2)如果是数字监控为0，将digitalInString的第一字节的第3位置为0
        else
        {
            buff[index++]=0b11100000;
   13a16:	5b81                	li	s7,-32
F:\git\MCU-CH573\Debug/srcc/main.c:197
            buff[index++]=0b11100001;
   13a18:	5c05                	li	s8,-31
F:\git\MCU-CH573\Debug/srcc/main.c:204
        }
        buff[index++]=digitalInString[i][1];
   13a1a:	1fff3a17          	auipc	s4,0x1fff3
   13a1e:	3faa0a13          	addi	s4,s4,1018 # 20006e14 <digitalInString>
F:\git\MCU-CH573\Debug/srcc/main.c:192
    for (i = 0; i < digitalInCount; ++i)
   13a22:	1fff3997          	auipc	s3,0x1fff3
   13a26:	20698993          	addi	s3,s3,518 # 20006c28 <digitalInCount>
   13a2a:	a82d                	j	13a64 <send+0x150>
F:\git\MCU-CH573\Debug/srcc/main.c:186
    for (i = 0; i < analogOutCount; ++i)
   13a2c:	84a2                	mv	s1,s0
   13a2e:	bfc9                	j	13a00 <send+0xec>
F:\git\MCU-CH573\Debug/srcc/main.c:202
            buff[index++]=0b11100000;
   13a30:	00148793          	addi	a5,s1,1
   13a34:	0ff7f793          	andi	a5,a5,255
   13a38:	0098                	addi	a4,sp,64
   13a3a:	9726                	add	a4,a4,s1
   13a3c:	fd770623          	sb	s7,-52(a4)
F:\git\MCU-CH573\Debug/srcc/main.c:204 (discriminator 2)
        buff[index++]=digitalInString[i][1];
   13a40:	0489                	addi	s1,s1,2
   13a42:	0ff4f493          	andi	s1,s1,255
   13a46:	0098                	addi	a4,sp,64
   13a48:	97ba                	add	a5,a5,a4
   13a4a:	0906                	slli	s2,s2,0x1
   13a4c:	9952                	add	s2,s2,s4
   13a4e:	00194703          	lbu	a4,1(s2)
   13a52:	fce78623          	sb	a4,-52(a5)
F:\git\MCU-CH573\Debug/srcc/main.c:192 (discriminator 2)
    for (i = 0; i < digitalInCount; ++i)
   13a56:	0405                	addi	s0,s0,1
   13a58:	0ff47413          	andi	s0,s0,255
   13a5c:	0009c783          	lbu	a5,0(s3)
   13a60:	02f47763          	bgeu	s0,a5,13a8e <send+0x17a>
F:\git\MCU-CH573\Debug/srcc/main.c:195
        if (LAB_DIGITAL_GET(digitalInList[i]) == INPUT_ON)
   13a64:	8922                	mv	s2,s0
   13a66:	00141793          	slli	a5,s0,0x1
   13a6a:	97da                	add	a5,a5,s6
   13a6c:	0007d503          	lhu	a0,0(a5)
   13a70:	00000097          	auipc	ra,0x0
   13a74:	724080e7          	jalr	1828(ra) # 14194 <gpio_get>
   13a78:	fb551ce3          	bne	a0,s5,13a30 <send+0x11c>
F:\git\MCU-CH573\Debug/srcc/main.c:197
            buff[index++]=0b11100001;
   13a7c:	00148793          	addi	a5,s1,1
   13a80:	0ff7f793          	andi	a5,a5,255
   13a84:	0098                	addi	a4,sp,64
   13a86:	9726                	add	a4,a4,s1
   13a88:	fd870623          	sb	s8,-52(a4)
   13a8c:	bf55                	j	13a40 <send+0x12c>
F:\git\MCU-CH573\Debug/srcc/main.c:207
    }
    // （4）发送数字输出数据
    for (i = 0; i < digitalOutCount; ++i)
   13a8e:	1fff3517          	auipc	a0,0x1fff3
   13a92:	14654503          	lbu	a0,326(a0) # 20006bd4 <digitalOutCount>
   13a96:	c929                	beqz	a0,13ae8 <send+0x1d4>
   13a98:	1fff3597          	auipc	a1,0x1fff3
   13a9c:	32c58593          	addi	a1,a1,812 # 20006dc4 <digitalOutString>
   13aa0:	fff50613          	addi	a2,a0,-1
   13aa4:	0ff67613          	andi	a2,a2,255
   13aa8:	0606                	slli	a2,a2,0x1
   13aaa:	1fff3797          	auipc	a5,0x1fff3
   13aae:	31c78793          	addi	a5,a5,796 # 20006dc6 <digitalOutString+0x2>
   13ab2:	963e                	add	a2,a2,a5
   13ab4:	872e                	mv	a4,a1
F:\git\MCU-CH573\Debug/srcc/main.c:209
    {
        memcpy(buff+index,digitalOutString[i],2);
   13ab6:	40b485b3          	sub	a1,s1,a1
F:\git\MCU-CH573\Debug/srcc/main.c:209 (discriminator 3)
   13aba:	00e587b3          	add	a5,a1,a4
   13abe:	0ff7f793          	andi	a5,a5,255
   13ac2:	0074                	addi	a3,sp,12
   13ac4:	97b6                	add	a5,a5,a3
   13ac6:	00074683          	lbu	a3,0(a4)
   13aca:	00d78023          	sb	a3,0(a5)
   13ace:	00174683          	lbu	a3,1(a4)
   13ad2:	00d780a3          	sb	a3,1(a5)
F:\git\MCU-CH573\Debug/srcc/main.c:210 (discriminator 3)
        index+=2;
   13ad6:	0709                	addi	a4,a4,2
F:\git\MCU-CH573\Debug/srcc/main.c:207 (discriminator 3)
    for (i = 0; i < digitalOutCount; ++i)
   13ad8:	fec711e3          	bne	a4,a2,13aba <send+0x1a6>
   13adc:	f8050513          	addi	a0,a0,-128
   13ae0:	0506                	slli	a0,a0,0x1
   13ae2:	94aa                	add	s1,s1,a0
   13ae4:	0ff4f493          	andi	s1,s1,255
F:\git\MCU-CH573\Debug/srcc/main.c:212
    }
    if(index!=0)sendFrame(UART_User,index,buff);
   13ae8:	ec89                	bnez	s1,13b02 <send+0x1ee>
F:\git\MCU-CH573\Debug/srcc/main.c:213
}
   13aea:	50b6                	lw	ra,108(sp)
   13aec:	5426                	lw	s0,104(sp)
   13aee:	5496                	lw	s1,100(sp)
   13af0:	5906                	lw	s2,96(sp)
   13af2:	49f6                	lw	s3,92(sp)
   13af4:	4a66                	lw	s4,88(sp)
   13af6:	4ad6                	lw	s5,84(sp)
   13af8:	4b46                	lw	s6,80(sp)
   13afa:	4bb6                	lw	s7,76(sp)
   13afc:	4c26                	lw	s8,72(sp)
   13afe:	6165                	addi	sp,sp,112
   13b00:	8082                	ret
F:\git\MCU-CH573\Debug/srcc/main.c:212 (discriminator 1)
    if(index!=0)sendFrame(UART_User,index,buff);
   13b02:	0070                	addi	a2,sp,12
   13b04:	01049593          	slli	a1,s1,0x10
   13b08:	81c1                	srli	a1,a1,0x10
   13b0a:	4501                	li	a0,0
   13b0c:	00000097          	auipc	ra,0x0
   13b10:	312080e7          	jalr	786(ra) # 13e1e <sendFrame>
F:\git\MCU-CH573\Debug/srcc/main.c:213 (discriminator 1)
}
   13b14:	bfd9                	j	13aea <send+0x1d6>

00013b16 <main>:
main():
F:\git\MCU-CH573\Debug/srcc/main.c:219
//====


//主函数，一般情况下可以认为程序从此开始运行（实际上有启动过程）-----------
int main(void)
{
   13b16:	7139                	addi	sp,sp,-64
   13b18:	de06                	sw	ra,60(sp)
   13b1a:	dc22                	sw	s0,56(sp)
   13b1c:	da26                	sw	s1,52(sp)
   13b1e:	d84a                	sw	s2,48(sp)
   13b20:	d64e                	sw	s3,44(sp)
   13b22:	d452                	sw	s4,40(sp)
   13b24:	d256                	sw	s5,36(sp)
   13b26:	d05a                	sw	s6,32(sp)
   13b28:	ce5e                	sw	s7,28(sp)
   13b2a:	cc62                	sw	s8,24(sp)
F:\git\MCU-CH573\Debug/srcc/main.c:220
    printf("系统启动...\r\n");
   13b2c:	00004517          	auipc	a0,0x4
   13b30:	c0050513          	addi	a0,a0,-1024 # 1772c <strlen+0x68>
   13b34:	00002097          	auipc	ra,0x2
   13b38:	d60080e7          	jalr	-672(ra) # 15894 <myprintf>
F:\git\MCU-CH573\Debug/srcc/main.c:228
    char ch;
	uint16_t d1;
    uint8_t temp[MSG_SIZE];      //存放一个消息（每个消息为16个字节）
    uint8_t light_data=1;
    uint16_t light_count=0,data_length;
    digitalInCount = digitalOutCount = analogInCount = analogOutCount = 0;
   13b3c:	1fff3797          	auipc	a5,0x1fff3
   13b40:	1e078023          	sb	zero,480(a5) # 20006d1c <analogOutCount>
   13b44:	1fff3797          	auipc	a5,0x1fff3
   13b48:	1c078ca3          	sb	zero,473(a5) # 20006d1d <analogInCount>
   13b4c:	1fff3797          	auipc	a5,0x1fff3
   13b50:	08078423          	sb	zero,136(a5) # 20006bd4 <digitalOutCount>
   13b54:	1fff3797          	auipc	a5,0x1fff3
   13b58:	0c078a23          	sb	zero,212(a5) # 20006c28 <digitalInCount>
F:\git\MCU-CH573\Debug/srcc/main.c:229
    LAB_DIGITAL_CTRL(LIGHT_BLUE,light_data^=1);
   13b5c:	4601                	li	a2,0
   13b5e:	4585                	li	a1,1
   13b60:	10e00513          	li	a0,270
   13b64:	00000097          	auipc	ra,0x0
   13b68:	5b2080e7          	jalr	1458(ra) # 14116 <gpio_init>
F:\git\MCU-CH573\Debug/srcc/main.c:231

    printf("初始化...\r\n");
   13b6c:	00004517          	auipc	a0,0x4
   13b70:	bd050513          	addi	a0,a0,-1072 # 1773c <strlen+0x78>
   13b74:	00002097          	auipc	ra,0x2
   13b78:	d20080e7          	jalr	-736(ra) # 15894 <myprintf>
F:\git\MCU-CH573\Debug/srcc/main.c:232
	DISABLE_INTERRUPTS;
   13b7c:	42a1                	li	t0,8
   13b7e:	3002b073          	csrc	mstatus,t0
F:\git\MCU-CH573\Debug/srcc/main.c:233
    uart_init(UART_User,115200);
   13b82:	65f1                	lui	a1,0x1c
   13b84:	20058593          	addi	a1,a1,512 # 1c200 <_data_lma+0x4740>
   13b88:	4501                	li	a0,0
   13b8a:	00001097          	auipc	ra,0x1
   13b8e:	aec080e7          	jalr	-1300(ra) # 14676 <uart_init>
F:\git\MCU-CH573\Debug/srcc/main.c:234
    uart_enable_re_int(UART_User);
   13b92:	4501                	li	a0,0
   13b94:	00001097          	auipc	ra,0x1
   13b98:	fdc080e7          	jalr	-36(ra) # 14b70 <uart_enable_re_int>
F:\git\MCU-CH573\Debug/srcc/main.c:235
    queue_init();
   13b9c:	00000097          	auipc	ra,0x0
   13ba0:	306080e7          	jalr	774(ra) # 13ea2 <queue_init>
F:\git\MCU-CH573\Debug/srcc/main.c:236
	ENABLE_INTERRUPTS;
   13ba4:	42a1                	li	t0,8
   13ba6:	3002a073          	csrs	mstatus,t0
F:\git\MCU-CH573\Debug/srcc/main.c:238
  
    printf("------------------------------------------------------\n");
   13baa:	00004517          	auipc	a0,0x4
   13bae:	b9e50513          	addi	a0,a0,-1122 # 17748 <strlen+0x84>
   13bb2:	00002097          	auipc	ra,0x2
   13bb6:	ce2080e7          	jalr	-798(ra) # 15894 <myprintf>
F:\git\MCU-CH573\Debug/srcc/main.c:239
    printf("    金葫芦提示： GEC_LAB下位机软件v3.0 20241124         \n");
   13bba:	00004517          	auipc	a0,0x4
   13bbe:	bc650513          	addi	a0,a0,-1082 # 17780 <strlen+0xbc>
   13bc2:	00002097          	auipc	ra,0x2
   13bc6:	cd2080e7          	jalr	-814(ra) # 15894 <myprintf>
F:\git\MCU-CH573\Debug/srcc/main.c:240
    printf("    金葫芦提示： for pc 1.3.x                          \n");
   13bca:	00004517          	auipc	a0,0x4
   13bce:	bf250513          	addi	a0,a0,-1038 # 177bc <strlen+0xf8>
   13bd2:	00002097          	auipc	ra,0x2
   13bd6:	cc2080e7          	jalr	-830(ra) # 15894 <myprintf>
F:\git\MCU-CH573\Debug/srcc/main.c:241
    printf("    金葫芦提示： 无操作系统版本                          \n");
   13bda:	00004517          	auipc	a0,0x4
   13bde:	c1e50513          	addi	a0,a0,-994 # 177f8 <strlen+0x134>
   13be2:	00002097          	auipc	ra,0x2
   13be6:	cb2080e7          	jalr	-846(ra) # 15894 <myprintf>
F:\git\MCU-CH573\Debug/srcc/main.c:242
    printf("------------------------------------------------------\n");
   13bea:	00004517          	auipc	a0,0x4
   13bee:	b5e50513          	addi	a0,a0,-1186 # 17748 <strlen+0x84>
   13bf2:	00002097          	auipc	ra,0x2
   13bf6:	ca2080e7          	jalr	-862(ra) # 15894 <myprintf>
F:\git\MCU-CH573\Debug/srcc/main.c:227
    uint16_t light_count=0,data_length;
   13bfa:	4401                	li	s0,0
F:\git\MCU-CH573\Debug/srcc/main.c:229
    LAB_DIGITAL_CTRL(LIGHT_BLUE,light_data^=1);
   13bfc:	4a01                	li	s4,0
   13bfe:	0ff00913          	li	s2,255
F:\git\MCU-CH573\Debug/srcc/main.c:256
        for(data_length =0 ;data_length<0xff;++data_length) __asm("nop");
        if(data_length=queue_get(temp)){
        //（2）正常返回，有消息要处理，调用handle函数
            handle(temp,data_length);
        }
        if(light_count>800 ){
   13c02:	32000493          	li	s1,800
F:\git\MCU-CH573\Debug/srcc/main.c:258
        //（3）当没有数据传入时才改变灯状态
            if( (analogInCount | analogOutCount | digitalInCount | digitalOutCount )==0)
   13c06:	1fff3c17          	auipc	s8,0x1fff3
   13c0a:	117c0c13          	addi	s8,s8,279 # 20006d1d <analogInCount>
   13c0e:	1fff3b97          	auipc	s7,0x1fff3
   13c12:	10eb8b93          	addi	s7,s7,270 # 20006d1c <analogOutCount>
   13c16:	1fff3b17          	auipc	s6,0x1fff3
   13c1a:	012b0b13          	addi	s6,s6,18 # 20006c28 <digitalInCount>
   13c1e:	1fff3a97          	auipc	s5,0x1fff3
   13c22:	fb6a8a93          	addi	s5,s5,-74 # 20006bd4 <digitalOutCount>
F:\git\MCU-CH573\Debug/srcc/main.c:260
                LAB_DIGITAL_CTRL(LIGHT_BLUE,light_data^=1);
            light_count=0;
   13c26:	4981                	li	s3,0
   13c28:	a005                	j	13c48 <main+0x132>
F:\git\MCU-CH573\Debug/srcc/main.c:254
            handle(temp,data_length);
   13c2a:	0ff57593          	andi	a1,a0,255
   13c2e:	850a                	mv	a0,sp
   13c30:	00000097          	auipc	ra,0x0
   13c34:	8f0080e7          	jalr	-1808(ra) # 13520 <handle>
   13c38:	a025                	j	13c60 <main+0x14a>
F:\git\MCU-CH573\Debug/srcc/main.c:262
        }
        light_count++;
   13c3a:	0405                	addi	s0,s0,1
   13c3c:	0442                	slli	s0,s0,0x10
   13c3e:	8041                	srli	s0,s0,0x10
F:\git\MCU-CH573\Debug/srcc/main.c:264
        //（4）调用发送函数，每个循环都发送一次消息给上位机
        send();
   13c40:	00000097          	auipc	ra,0x0
   13c44:	cd4080e7          	jalr	-812(ra) # 13914 <send>
F:\git\MCU-CH573\Debug/srcc/main.c:229
    LAB_DIGITAL_CTRL(LIGHT_BLUE,light_data^=1);
   13c48:	87ca                	mv	a5,s2
F:\git\MCU-CH573\Debug/srcc/main.c:251 (discriminator 3)
        for(data_length =0 ;data_length<0xff;++data_length) __asm("nop");
   13c4a:	0001                	nop
   13c4c:	17fd                	addi	a5,a5,-1
   13c4e:	07c2                	slli	a5,a5,0x10
   13c50:	83c1                	srli	a5,a5,0x10
   13c52:	ffe5                	bnez	a5,13c4a <main+0x134>
F:\git\MCU-CH573\Debug/srcc/main.c:252
        if(data_length=queue_get(temp)){
   13c54:	850a                	mv	a0,sp
   13c56:	00000097          	auipc	ra,0x0
   13c5a:	272080e7          	jalr	626(ra) # 13ec8 <queue_get>
   13c5e:	f571                	bnez	a0,13c2a <main+0x114>
F:\git\MCU-CH573\Debug/srcc/main.c:256
        if(light_count>800 ){
   13c60:	fc84fde3          	bgeu	s1,s0,13c3a <main+0x124>
F:\git\MCU-CH573\Debug/srcc/main.c:258
            if( (analogInCount | analogOutCount | digitalInCount | digitalOutCount )==0)
   13c64:	000c4783          	lbu	a5,0(s8)
   13c68:	000bc703          	lbu	a4,0(s7)
   13c6c:	8fd9                	or	a5,a5,a4
   13c6e:	000b4703          	lbu	a4,0(s6)
   13c72:	8fd9                	or	a5,a5,a4
   13c74:	000ac703          	lbu	a4,0(s5)
   13c78:	8fd9                	or	a5,a5,a4
F:\git\MCU-CH573\Debug/srcc/main.c:260
            light_count=0;
   13c7a:	844e                	mv	s0,s3
F:\git\MCU-CH573\Debug/srcc/main.c:258
            if( (analogInCount | analogOutCount | digitalInCount | digitalOutCount )==0)
   13c7c:	ffdd                	bnez	a5,13c3a <main+0x124>
F:\git\MCU-CH573\Debug/srcc/main.c:259
                LAB_DIGITAL_CTRL(LIGHT_BLUE,light_data^=1);
   13c7e:	001a4a13          	xori	s4,s4,1
   13c82:	8652                	mv	a2,s4
   13c84:	4585                	li	a1,1
   13c86:	10e00513          	li	a0,270
   13c8a:	00000097          	auipc	ra,0x0
   13c8e:	48c080e7          	jalr	1164(ra) # 14116 <gpio_init>
   13c92:	b765                	j	13c3a <main+0x124>

00013c94 <flash_erase>:
flash_erase():
F:\git\MCU-CH573\Debug/srcc/flash.c:66
//函数返回：函数执行执行状态：0=正常；1=异常。
//参数说明：sect：目标扇区号（范围取决于实际芯片
//功能概要：擦除flash存储器的sect扇区
//======================================================================
uint8_t flash_erase(uint16_t sect)
{
   13c94:	1141                	addi	sp,sp,-16
   13c96:	c606                	sw	ra,12(sp)
F:\git\MCU-CH573\Debug/srcc/flash.c:70
    uint32_t StartAddr;
    uint8_t flag;
    StartAddr = (uint32_t)(sect * Flash_Sect_size + Flash_Address);
    flag = FLASH_ROM_ERASE(StartAddr,4096);
   13c98:	1fff3797          	auipc	a5,0x1fff3
   13c9c:	08878793          	addi	a5,a5,136 # 20006d20 <component_fun>
   13ca0:	439c                	lw	a5,0(a5)
   13ca2:	57fc                	lw	a5,108(a5)
   13ca4:	6685                	lui	a3,0x1
   13ca6:	4601                	li	a2,0
   13ca8:	00c51593          	slli	a1,a0,0xc
   13cac:	4505                	li	a0,1
   13cae:	9782                	jalr	a5
F:\git\MCU-CH573\Debug/srcc/flash.c:73
    return flag;

}
   13cb0:	0ff57513          	andi	a0,a0,255
   13cb4:	40b2                	lw	ra,12(sp)
   13cb6:	0141                	addi	sp,sp,16
   13cb8:	8082                	ret

00013cba <flash_Best>:
flash_Best():
F:\git\MCU-CH573\Debug/srcc/flash.c:176
//            buf:待写入数据的首地址
//功能概要：首位地址都对齐的情况下的数据写入
//编程参考：暂无
//======================================================================
uint8_t flash_Best(uint16_t sect,uint16_t offset,uint16_t N,uint8_t *buf)
{
   13cba:	1141                	addi	sp,sp,-16
   13cbc:	c606                	sw	ra,12(sp)
   13cbe:	8736                	mv	a4,a3
F:\git\MCU-CH573\Debug/srcc/flash.c:178
    uint32_t addr;
    addr = (uint32_t)(Flash_Address+sect*Flash_Sect_size+offset);
   13cc0:	0532                	slli	a0,a0,0xc
F:\git\MCU-CH573\Debug/srcc/flash.c:179
    uint8_t flag=FLASH_ROM_WRITE(addr,buf,N);
   13cc2:	1fff3797          	auipc	a5,0x1fff3
   13cc6:	05e78793          	addi	a5,a5,94 # 20006d20 <component_fun>
   13cca:	439c                	lw	a5,0(a5)
   13ccc:	57fc                	lw	a5,108(a5)
   13cce:	86b2                	mv	a3,a2
   13cd0:	863a                	mv	a2,a4
   13cd2:	95aa                	add	a1,a1,a0
   13cd4:	4509                	li	a0,2
   13cd6:	9782                	jalr	a5
F:\git\MCU-CH573\Debug/srcc/flash.c:181
    return flag;
}
   13cd8:	0ff57513          	andi	a0,a0,255
   13cdc:	40b2                	lw	ra,12(sp)
   13cde:	0141                	addi	sp,sp,16
   13ce0:	8082                	ret

00013ce2 <flash_read_logic>:
flash_read_logic():
F:\git\MCU-CH573\Debug/srcc/flash.c:198
//编程参考：暂无
//=======================================================================
void flash_read_logic(uint8_t* Buffer,uint16_t sect,uint16_t offset,uint32_t N)
{

    uint32_t i, Length = ( N + 3 ) >> 2;
   13ce2:	068d                	addi	a3,a3,3
   13ce4:	8289                	srli	a3,a3,0x2
F:\git\MCU-CH573\Debug/srcc/flash.c:199
    uint32_t* pCode = ( uint32_t* ) (sect * Flash_Sect_size + offset + Flash_Address);
   13ce6:	05b2                	slli	a1,a1,0xc
   13ce8:	962e                	add	a2,a2,a1
F:\git\MCU-CH573\Debug/srcc/flash.c:202
    uint32_t* pBuf = ( uint32_t* ) Buffer;

    for ( i = 0; i < Length; i++ )
   13cea:	ce91                	beqz	a3,13d06 <flash_read_logic+0x24>
   13cec:	068a                	slli	a3,a3,0x2
   13cee:	96aa                	add	a3,a3,a0
F:\git\MCU-CH573\Debug/srcc/flash.c:200
    uint32_t* pBuf = ( uint32_t* ) Buffer;
   13cf0:	87aa                	mv	a5,a0
   13cf2:	40a60533          	sub	a0,a2,a0
   13cf6:	00a78733          	add	a4,a5,a0
F:\git\MCU-CH573\Debug/srcc/flash.c:204 (discriminator 3)
    {
      *pBuf++ = *pCode++;
   13cfa:	0791                	addi	a5,a5,4
   13cfc:	4318                	lw	a4,0(a4)
   13cfe:	fee7ae23          	sw	a4,-4(a5)
F:\git\MCU-CH573\Debug/srcc/flash.c:202 (discriminator 3)
    for ( i = 0; i < Length; i++ )
   13d02:	fed79ae3          	bne	a5,a3,13cf6 <flash_read_logic+0x14>
F:\git\MCU-CH573\Debug/srcc/flash.c:207
    }

}
   13d06:	8082                	ret

00013d08 <flash_write>:
flash_write():
F:\git\MCU-CH573\Debug/srcc/flash.c:107
{
   13d08:	7179                	addi	sp,sp,-48
   13d0a:	d606                	sw	ra,44(sp)
   13d0c:	d422                	sw	s0,40(sp)
   13d0e:	d226                	sw	s1,36(sp)
   13d10:	d04a                	sw	s2,32(sp)
   13d12:	ce4e                	sw	s3,28(sp)
   13d14:	737d                	lui	t1,0xfffff
   13d16:	911a                	add	sp,sp,t1
   13d18:	89aa                	mv	s3,a0
   13d1a:	892e                	mv	s2,a1
   13d1c:	84b2                	mv	s1,a2
   13d1e:	8436                	mv	s0,a3
F:\git\MCU-CH573\Debug/srcc/flash.c:112
    if(offset+N>Flash_Sect_size)
   13d20:	00b60733          	add	a4,a2,a1
   13d24:	6785                	lui	a5,0x1
   13d26:	04e7d663          	bge	a5,a4,13d72 <flash_write+0x6a>
F:\git\MCU-CH573\Debug/srcc/flash.c:116
        flash_write(sect,offset,Flash_Sect_size-offset,buf);
   13d2a:	6605                	lui	a2,0x1
   13d2c:	8e0d                	sub	a2,a2,a1
   13d2e:	0642                	slli	a2,a2,0x10
   13d30:	8241                	srli	a2,a2,0x10
   13d32:	00000097          	auipc	ra,0x0
   13d36:	fd6080e7          	jalr	-42(ra) # 13d08 <flash_write>
F:\git\MCU-CH573\Debug/srcc/flash.c:118
        flash_write(sect+1,0,N-(Flash_Sect_size-offset),buf+(Flash_Sect_size-offset));
   13d3a:	6685                	lui	a3,0x1
   13d3c:	412686b3          	sub	a3,a3,s2
   13d40:	767d                	lui	a2,0xfffff
   13d42:	9626                	add	a2,a2,s1
   13d44:	964a                	add	a2,a2,s2
   13d46:	00198513          	addi	a0,s3,1
   13d4a:	96a2                	add	a3,a3,s0
   13d4c:	0642                	slli	a2,a2,0x10
   13d4e:	8241                	srli	a2,a2,0x10
   13d50:	4581                	li	a1,0
   13d52:	0542                	slli	a0,a0,0x10
   13d54:	8141                	srli	a0,a0,0x10
   13d56:	00000097          	auipc	ra,0x0
   13d5a:	fb2080e7          	jalr	-78(ra) # 13d08 <flash_write>
F:\git\MCU-CH573\Debug/srcc/flash.c:134
}
   13d5e:	4501                	li	a0,0
   13d60:	6305                	lui	t1,0x1
   13d62:	911a                	add	sp,sp,t1
   13d64:	50b2                	lw	ra,44(sp)
   13d66:	5422                	lw	s0,40(sp)
   13d68:	5492                	lw	s1,36(sp)
   13d6a:	5902                	lw	s2,32(sp)
   13d6c:	49f2                	lw	s3,28(sp)
   13d6e:	6145                	addi	sp,sp,48
   13d70:	8082                	ret
F:\git\MCU-CH573\Debug/srcc/flash.c:124
         flash_read_logic(data,sect,0,Flash_Sect_size); //将当前扇区的全部值读入数组中
   13d72:	6685                	lui	a3,0x1
   13d74:	4601                	li	a2,0
   13d76:	85aa                	mv	a1,a0
   13d78:	757d                	lui	a0,0xfffff
   13d7a:	6785                	lui	a5,0x1
   13d7c:	0818                	addi	a4,sp,16
   13d7e:	97ba                	add	a5,a5,a4
   13d80:	953e                	add	a0,a0,a5
   13d82:	00000097          	auipc	ra,0x0
   13d86:	f60080e7          	jalr	-160(ra) # 13ce2 <flash_read_logic>
F:\git\MCU-CH573\Debug/srcc/flash.c:126
         for(i = 0;i<N;i++)
   13d8a:	c885                	beqz	s1,13dba <flash_write+0xb2>
   13d8c:	87a2                	mv	a5,s0
   13d8e:	777d                	lui	a4,0xfffff
   13d90:	6685                	lui	a3,0x1
   13d92:	0810                	addi	a2,sp,16
   13d94:	96b2                	add	a3,a3,a2
   13d96:	9736                	add	a4,a4,a3
   13d98:	c63a                	sw	a4,12(sp)
   13d9a:	012705b3          	add	a1,a4,s2
   13d9e:	0405                	addi	s0,s0,1
   13da0:	fff48693          	addi	a3,s1,-1
   13da4:	06c2                	slli	a3,a3,0x10
   13da6:	82c1                	srli	a3,a3,0x10
   13da8:	96a2                	add	a3,a3,s0
F:\git\MCU-CH573\Debug/srcc/flash.c:128 (discriminator 3)
             data[offset+i] = buf[i];
   13daa:	0007c703          	lbu	a4,0(a5) # 1000 <MCU_SECTORSIZE>
   13dae:	00e58023          	sb	a4,0(a1)
   13db2:	0785                	addi	a5,a5,1
   13db4:	0585                	addi	a1,a1,1
F:\git\MCU-CH573\Debug/srcc/flash.c:126 (discriminator 3)
         for(i = 0;i<N;i++)
   13db6:	fed79ae3          	bne	a5,a3,13daa <flash_write+0xa2>
F:\git\MCU-CH573\Debug/srcc/flash.c:131
         flash_Best(sect,0,Flash_Sect_size,data);
   13dba:	76fd                	lui	a3,0xfffff
   13dbc:	6785                	lui	a5,0x1
   13dbe:	0818                	addi	a4,sp,16
   13dc0:	97ba                	add	a5,a5,a4
   13dc2:	96be                	add	a3,a3,a5
   13dc4:	6605                	lui	a2,0x1
   13dc6:	4581                	li	a1,0
   13dc8:	854e                	mv	a0,s3
   13dca:	00000097          	auipc	ra,0x0
   13dce:	ef0080e7          	jalr	-272(ra) # 13cba <flash_Best>
   13dd2:	b771                	j	13d5e <flash_write+0x56>

00013dd4 <crc16>:
crc16():
F:\git\MCU-CH573\Debug/srcc/gec_lab.c:15
uint16_t crc16(uint8_t *ptr, uint16_t len)
{
    uint16_t i, j, tmp, crc16;

    crc16 = 0xffff;
    for (i = (uint16_t)0; i < len; i++)
   13dd4:	c1b1                	beqz	a1,13e18 <crc16+0x44>
   13dd6:	862a                	mv	a2,a0
   13dd8:	0505                	addi	a0,a0,1
   13dda:	15fd                	addi	a1,a1,-1
   13ddc:	05c2                	slli	a1,a1,0x10
   13dde:	81c1                	srli	a1,a1,0x10
   13de0:	95aa                	add	a1,a1,a0
F:\git\MCU-CH573\Debug/srcc/gec_lab.c:14
    crc16 = 0xffff;
   13de2:	6541                	lui	a0,0x10
   13de4:	157d                	addi	a0,a0,-1
F:\git\MCU-CH573\Debug/srcc/gec_lab.c:17
    {
        crc16 = (uint16_t)ptr[i] ^ crc16;
   13de6:	4821                	li	a6,8
F:\git\MCU-CH573\Debug/srcc/gec_lab.c:23
        for (j = 0; j < 8; j++)
        {
            tmp = crc16 & 0x0001;
            crc16 = crc16 >> 1;
            if (tmp)
                crc16 = crc16 ^ 0xa001;
   13de8:	76e9                	lui	a3,0xffffa
   13dea:	0685                	addi	a3,a3,1
   13dec:	a005                	j	13e0c <crc16+0x38>
   13dee:	17fd                	addi	a5,a5,-1
   13df0:	07c2                	slli	a5,a5,0x10
   13df2:	83c1                	srli	a5,a5,0x10
F:\git\MCU-CH573\Debug/srcc/gec_lab.c:18 (discriminator 2)
        for (j = 0; j < 8; j++)
   13df4:	cb89                	beqz	a5,13e06 <crc16+0x32>
F:\git\MCU-CH573\Debug/srcc/gec_lab.c:20
            tmp = crc16 & 0x0001;
   13df6:	00157713          	andi	a4,a0,1
F:\git\MCU-CH573\Debug/srcc/gec_lab.c:21
            crc16 = crc16 >> 1;
   13dfa:	8105                	srli	a0,a0,0x1
F:\git\MCU-CH573\Debug/srcc/gec_lab.c:22
            if (tmp)
   13dfc:	db6d                	beqz	a4,13dee <crc16+0x1a>
F:\git\MCU-CH573\Debug/srcc/gec_lab.c:23
                crc16 = crc16 ^ 0xa001;
   13dfe:	8d35                	xor	a0,a0,a3
   13e00:	0542                	slli	a0,a0,0x10
   13e02:	8141                	srli	a0,a0,0x10
   13e04:	b7ed                	j	13dee <crc16+0x1a>
   13e06:	0605                	addi	a2,a2,1
F:\git\MCU-CH573\Debug/srcc/gec_lab.c:15 (discriminator 2)
    for (i = (uint16_t)0; i < len; i++)
   13e08:	00b60763          	beq	a2,a1,13e16 <crc16+0x42>
F:\git\MCU-CH573\Debug/srcc/gec_lab.c:17
        crc16 = (uint16_t)ptr[i] ^ crc16;
   13e0c:	00064783          	lbu	a5,0(a2) # 1000 <MCU_SECTORSIZE>
   13e10:	8d3d                	xor	a0,a0,a5
   13e12:	87c2                	mv	a5,a6
   13e14:	b7cd                	j	13df6 <crc16+0x22>
   13e16:	8082                	ret
F:\git\MCU-CH573\Debug/srcc/gec_lab.c:14
    crc16 = 0xffff;
   13e18:	6541                	lui	a0,0x10
   13e1a:	157d                	addi	a0,a0,-1
F:\git\MCU-CH573\Debug/srcc/gec_lab.c:27
        }
    }
    return crc16;
}
   13e1c:	8082                	ret

00013e1e <sendFrame>:
sendFrame():
F:\git\MCU-CH573\Debug/srcc/gec_lab.c:39
//更新记录：20180602，wb；
//=====================================================================
static uint8_t emuartFrameHead = 0x80;  //帧头
static uint8_t emuartFrameTail = 0x81;  //帧尾
void sendFrame(uint8_t UART_NO,uint16_t length,uint8_t *data)
{
   13e1e:	1101                	addi	sp,sp,-32
   13e20:	ce06                	sw	ra,28(sp)
   13e22:	cc22                	sw	s0,24(sp)
   13e24:	ca26                	sw	s1,20(sp)
   13e26:	c84a                	sw	s2,16(sp)
   13e28:	c64e                	sw	s3,12(sp)
   13e2a:	842a                	mv	s0,a0
   13e2c:	892e                	mv	s2,a1
   13e2e:	89b2                	mv	s3,a2
F:\git\MCU-CH573\Debug/srcc/gec_lab.c:42
    uint16_t crc;
    //计算得到CRC校验码
    crc = crc16(data,length);
   13e30:	8532                	mv	a0,a2
   13e32:	00000097          	auipc	ra,0x0
   13e36:	fa2080e7          	jalr	-94(ra) # 13dd4 <crc16>
   13e3a:	84aa                	mv	s1,a0
F:\git\MCU-CH573\Debug/srcc/gec_lab.c:44
    //发送帧头
    uart_send1(UART_NO,emuartFrameHead);
   13e3c:	08000593          	li	a1,128
   13e40:	8522                	mv	a0,s0
   13e42:	00001097          	auipc	ra,0x1
   13e46:	a5c080e7          	jalr	-1444(ra) # 1489e <uart_send1>
F:\git\MCU-CH573\Debug/srcc/gec_lab.c:46
    //发送帧长
    uart_send1(UART_NO,length);
   13e4a:	0ff97593          	andi	a1,s2,255
   13e4e:	8522                	mv	a0,s0
   13e50:	00001097          	auipc	ra,0x1
   13e54:	a4e080e7          	jalr	-1458(ra) # 1489e <uart_send1>
F:\git\MCU-CH573\Debug/srcc/gec_lab.c:48
    //发送帧数据
    uart_sendN(UART_NO,length,data);
   13e58:	864e                	mv	a2,s3
   13e5a:	85ca                	mv	a1,s2
   13e5c:	8522                	mv	a0,s0
   13e5e:	00001097          	auipc	ra,0x1
   13e62:	b4e080e7          	jalr	-1202(ra) # 149ac <uart_sendN>
F:\git\MCU-CH573\Debug/srcc/gec_lab.c:50
    //发送校验码
    uart_send1(UART_NO,crc>>8);
   13e66:	0084d593          	srli	a1,s1,0x8
   13e6a:	0ff5f593          	andi	a1,a1,255
   13e6e:	8522                	mv	a0,s0
   13e70:	00001097          	auipc	ra,0x1
   13e74:	a2e080e7          	jalr	-1490(ra) # 1489e <uart_send1>
F:\git\MCU-CH573\Debug/srcc/gec_lab.c:51
    uart_send1(UART_NO,crc);
   13e78:	0ff4f593          	andi	a1,s1,255
   13e7c:	8522                	mv	a0,s0
   13e7e:	00001097          	auipc	ra,0x1
   13e82:	a20080e7          	jalr	-1504(ra) # 1489e <uart_send1>
F:\git\MCU-CH573\Debug/srcc/gec_lab.c:53
    //发送帧尾
    uart_send1(UART_NO,emuartFrameTail);
   13e86:	08100593          	li	a1,129
   13e8a:	8522                	mv	a0,s0
   13e8c:	00001097          	auipc	ra,0x1
   13e90:	a12080e7          	jalr	-1518(ra) # 1489e <uart_send1>
F:\git\MCU-CH573\Debug/srcc/gec_lab.c:54
}
   13e94:	40f2                	lw	ra,28(sp)
   13e96:	4462                	lw	s0,24(sp)
   13e98:	44d2                	lw	s1,20(sp)
   13e9a:	4942                	lw	s2,16(sp)
   13e9c:	49b2                	lw	s3,12(sp)
   13e9e:	6105                	addi	sp,sp,32
   13ea0:	8082                	ret

00013ea2 <queue_init>:
queue_init():
F:\git\MCU-CH573\Debug/srcc/gec_lab.c:80
//参数说明： *data, 获取到字符
//功能概要：获取队列中的字符
//返回值： 是否有值
//=====================================================================
void queue_init(){
    __queue_front = __queue_back;
   13ea2:	1fff2797          	auipc	a5,0x1fff2
   13ea6:	8e278793          	addi	a5,a5,-1822 # 20005784 <__queue_back>
   13eaa:	439c                	lw	a5,0(a5)
   13eac:	1fff2717          	auipc	a4,0x1fff2
   13eb0:	8cf72e23          	sw	a5,-1828(a4) # 20005788 <__queue_front>
F:\git\MCU-CH573\Debug/srcc/gec_lab.c:81
    __buffer_front = __buffer_back;
   13eb4:	1fff2797          	auipc	a5,0x1fff2
   13eb8:	8c878793          	addi	a5,a5,-1848 # 2000577c <__buffer_back>
   13ebc:	439c                	lw	a5,0(a5)
   13ebe:	1fff2717          	auipc	a4,0x1fff2
   13ec2:	8cf72123          	sw	a5,-1854(a4) # 20005780 <__buffer_front>
F:\git\MCU-CH573\Debug/srcc/gec_lab.c:82
}
   13ec6:	8082                	ret

00013ec8 <queue_get>:
queue_get():
F:\git\MCU-CH573\Debug/srcc/gec_lab.c:90
//函数返回： 无
//参数说明： *data, 获取到字符串
//功能概要：获取队列中的字符
//返回值： 长度
//=====================================================================
uint16_t queue_get(char * data){
   13ec8:	86aa                	mv	a3,a0
F:\git\MCU-CH573\Debug/srcc/gec_lab.c:91
    if(queue_front==queue_back) return 0;
   13eca:	1fff2797          	auipc	a5,0x1fff2
   13ece:	8be78793          	addi	a5,a5,-1858 # 20005788 <__queue_front>
   13ed2:	4398                	lw	a4,0(a5)
   13ed4:	1fff2797          	auipc	a5,0x1fff2
   13ed8:	8b078793          	addi	a5,a5,-1872 # 20005784 <__queue_back>
   13edc:	439c                	lw	a5,0(a5)
   13ede:	8fb9                	xor	a5,a5,a4
   13ee0:	0ff7f793          	andi	a5,a5,255
   13ee4:	cbc1                	beqz	a5,13f74 <queue_get+0xac>
F:\git\MCU-CH573\Debug/srcc/gec_lab.c:92
    uint16_t length=__lens[__queue_front ++ & QUEUE_MASK];
   13ee6:	00170793          	addi	a5,a4,1
   13eea:	1fff2617          	auipc	a2,0x1fff2
   13eee:	88f62f23          	sw	a5,-1890(a2) # 20005788 <__queue_front>
   13ef2:	0ff77713          	andi	a4,a4,255
   13ef6:	070a                	slli	a4,a4,0x2
   13ef8:	1fff3797          	auipc	a5,0x1fff3
   13efc:	89c78793          	addi	a5,a5,-1892 # 20006794 <__lens>
   13f00:	973e                	add	a4,a4,a5
   13f02:	431c                	lw	a5,0(a4)
   13f04:	01079513          	slli	a0,a5,0x10
   13f08:	8141                	srli	a0,a0,0x10
F:\git\MCU-CH573\Debug/srcc/gec_lab.c:94
    uint16_t i;
    if(data!=NULL) {
   13f0a:	cab9                	beqz	a3,13f60 <queue_get+0x98>
F:\git\MCU-CH573\Debug/srcc/gec_lab.c:95
        for(i=0;i<length;++i){
   13f0c:	c52d                	beqz	a0,13f76 <queue_get+0xae>
   13f0e:	1fff2797          	auipc	a5,0x1fff2
   13f12:	87278793          	addi	a5,a5,-1934 # 20005780 <__buffer_front>
   13f16:	0007a883          	lw	a7,0(a5)
   13f1a:	fff50313          	addi	t1,a0,-1 # ffff <MCU_SECTORSIZE+0xefff>
   13f1e:	0342                	slli	t1,t1,0x10
   13f20:	01035313          	srli	t1,t1,0x10
   13f24:	00168593          	addi	a1,a3,1 # ffffa001 <_eusrstack+0xdfff2001>
   13f28:	959a                	add	a1,a1,t1
   13f2a:	8736                	mv	a4,a3
F:\git\MCU-CH573\Debug/srcc/gec_lab.c:96
            *(data+i)=__buffer[__buffer_front++ & BUFFER_MASK];
   13f2c:	1fff2817          	auipc	a6,0x1fff2
   13f30:	86880813          	addi	a6,a6,-1944 # 20005794 <__buffer>
   13f34:	40d886b3          	sub	a3,a7,a3
   13f38:	6605                	lui	a2,0x1
   13f3a:	167d                	addi	a2,a2,-1
F:\git\MCU-CH573\Debug/srcc/gec_lab.c:96 (discriminator 3)
   13f3c:	00e687b3          	add	a5,a3,a4
   13f40:	8ff1                	and	a5,a5,a2
   13f42:	97c2                	add	a5,a5,a6
   13f44:	0007c783          	lbu	a5,0(a5)
   13f48:	00f70023          	sb	a5,0(a4)
   13f4c:	0705                	addi	a4,a4,1
F:\git\MCU-CH573\Debug/srcc/gec_lab.c:95 (discriminator 3)
        for(i=0;i<length;++i){
   13f4e:	feb717e3          	bne	a4,a1,13f3c <queue_get+0x74>
   13f52:	0885                	addi	a7,a7,1
   13f54:	989a                	add	a7,a7,t1
   13f56:	1fff2797          	auipc	a5,0x1fff2
   13f5a:	8317a523          	sw	a7,-2006(a5) # 20005780 <__buffer_front>
   13f5e:	8082                	ret
F:\git\MCU-CH573\Debug/srcc/gec_lab.c:99
        }
    }else{
        __buffer_front+=length;
   13f60:	1fff2717          	auipc	a4,0x1fff2
   13f64:	82070713          	addi	a4,a4,-2016 # 20005780 <__buffer_front>
   13f68:	07c2                	slli	a5,a5,0x10
   13f6a:	83c1                	srli	a5,a5,0x10
   13f6c:	4314                	lw	a3,0(a4)
   13f6e:	97b6                	add	a5,a5,a3
   13f70:	c31c                	sw	a5,0(a4)
   13f72:	8082                	ret
F:\git\MCU-CH573\Debug/srcc/gec_lab.c:91
    if(queue_front==queue_back) return 0;
   13f74:	4501                	li	a0,0
F:\git\MCU-CH573\Debug/srcc/gec_lab.c:102
    }
    return length;
}
   13f76:	8082                	ret

00013f78 <queue_put>:
queue_put():
F:\git\MCU-CH573\Debug/srcc/gec_lab.c:111
//参数说明： 放入队列的值
//功能概要： 把字符放入队列，该函数会删除之前的值
//返回值： 是否有值,0:无值,1:有值
//=====================================================================
void queue_put(const char * data,uint16_t length){
    if(length >= BUFFER_MASK && data==NULL) return;
   13f78:	6785                	lui	a5,0x1
   13f7a:	17f9                	addi	a5,a5,-2
   13f7c:	00b7f463          	bgeu	a5,a1,13f84 <queue_put+0xc>
F:\git\MCU-CH573\Debug/srcc/gec_lab.c:111 (discriminator 1)
   13f80:	12050163          	beqz	a0,140a2 <queue_put+0x12a>
F:\git\MCU-CH573\Debug/srcc/gec_lab.c:110
void queue_put(const char * data,uint16_t length){
   13f84:	7179                	addi	sp,sp,-48
   13f86:	d606                	sw	ra,44(sp)
   13f88:	d422                	sw	s0,40(sp)
   13f8a:	d226                	sw	s1,36(sp)
   13f8c:	d04a                	sw	s2,32(sp)
   13f8e:	ce4e                	sw	s3,28(sp)
   13f90:	cc52                	sw	s4,24(sp)
   13f92:	ca56                	sw	s5,20(sp)
   13f94:	c85a                	sw	s6,16(sp)
   13f96:	c65e                	sw	s7,12(sp)
   13f98:	89ae                	mv	s3,a1
   13f9a:	8a2a                	mv	s4,a0
F:\git\MCU-CH573\Debug/srcc/gec_lab.c:113
    uint16_t i=0;
    __queue[queue_back]=__buffer_front;
   13f9c:	1fff1797          	auipc	a5,0x1fff1
   13fa0:	7e878793          	addi	a5,a5,2024 # 20005784 <__queue_back>
   13fa4:	4384                	lw	s1,0(a5)
   13fa6:	0ff4fb93          	andi	s7,s1,255
F:\git\MCU-CH573\Debug/srcc/gec_lab.c:114
    while( queue_back_off(1)==queue_front||
   13faa:	0485                	addi	s1,s1,1
   13fac:	1fff1917          	auipc	s2,0x1fff1
   13fb0:	7dc90913          	addi	s2,s2,2012 # 20005788 <__queue_front>
F:\git\MCU-CH573\Debug/srcc/gec_lab.c:115
        buffer_front < buffer_back && buffer_back_off(length) >=buffer_front && buffer_back_off(length) <buffer_back||
   13fb4:	1fff1b17          	auipc	s6,0x1fff1
   13fb8:	7ccb0b13          	addi	s6,s6,1996 # 20005780 <__buffer_front>
   13fbc:	6405                	lui	s0,0x1
   13fbe:	147d                	addi	s0,s0,-1
   13fc0:	1fff1a97          	auipc	s5,0x1fff1
   13fc4:	7bca8a93          	addi	s5,s5,1980 # 2000577c <__buffer_back>
F:\git\MCU-CH573\Debug/srcc/gec_lab.c:114
    while( queue_back_off(1)==queue_front||
   13fc8:	a025                	j	13ff0 <queue_put+0x78>
F:\git\MCU-CH573\Debug/srcc/gec_lab.c:115 (discriminator 3)
        buffer_front < buffer_back && buffer_back_off(length) >=buffer_front && buffer_back_off(length) <buffer_back||
   13fca:	04f6fb63          	bgeu	a3,a5,14020 <queue_put+0xa8>
F:\git\MCU-CH573\Debug/srcc/gec_lab.c:116
        buffer_back <buffer_front && buffer_back_off(length) >=buffer_front||
   13fce:	974e                	add	a4,a4,s3
   13fd0:	8f61                	and	a4,a4,s0
   13fd2:	00f77963          	bgeu	a4,a5,13fe4 <queue_put+0x6c>
   13fd6:	a029                	j	13fe0 <queue_put+0x68>
F:\git\MCU-CH573\Debug/srcc/gec_lab.c:115
        buffer_front < buffer_back && buffer_back_off(length) >=buffer_front && buffer_back_off(length) <buffer_back||
   13fd8:	04f6f463          	bgeu	a3,a5,14020 <queue_put+0xa8>
F:\git\MCU-CH573\Debug/srcc/gec_lab.c:116
        buffer_back <buffer_front && buffer_back_off(length) >=buffer_front||
   13fdc:	974e                	add	a4,a4,s3
   13fde:	8f61                	and	a4,a4,s0
F:\git\MCU-CH573\Debug/srcc/gec_lab.c:117
        buffer_back <buffer_front && buffer_back_off(length) <buffer_back)
   13fe0:	04d77063          	bgeu	a4,a3,14020 <queue_put+0xa8>
F:\git\MCU-CH573\Debug/srcc/gec_lab.c:118
        if(!queue_get(NULL)) break;
   13fe4:	4501                	li	a0,0
   13fe6:	00000097          	auipc	ra,0x0
   13fea:	ee2080e7          	jalr	-286(ra) # 13ec8 <queue_get>
   13fee:	c90d                	beqz	a0,14020 <queue_put+0xa8>
F:\git\MCU-CH573\Debug/srcc/gec_lab.c:114
    while( queue_back_off(1)==queue_front||
   13ff0:	00092783          	lw	a5,0(s2)
   13ff4:	8fa5                	xor	a5,a5,s1
   13ff6:	0ff7f793          	andi	a5,a5,255
   13ffa:	d7ed                	beqz	a5,13fe4 <queue_put+0x6c>
F:\git\MCU-CH573\Debug/srcc/gec_lab.c:115 (discriminator 1)
        buffer_front < buffer_back && buffer_back_off(length) >=buffer_front && buffer_back_off(length) <buffer_back||
   13ffc:	000b2783          	lw	a5,0(s6)
   14000:	8fe1                	and	a5,a5,s0
   14002:	000aa703          	lw	a4,0(s5)
   14006:	008776b3          	and	a3,a4,s0
F:\git\MCU-CH573\Debug/srcc/gec_lab.c:114 (discriminator 1)
    while( queue_back_off(1)==queue_front||
   1400a:	fcd7f0e3          	bgeu	a5,a3,13fca <queue_put+0x52>
F:\git\MCU-CH573\Debug/srcc/gec_lab.c:115
        buffer_front < buffer_back && buffer_back_off(length) >=buffer_front && buffer_back_off(length) <buffer_back||
   1400e:	00e98633          	add	a2,s3,a4
   14012:	8e61                	and	a2,a2,s0
   14014:	fcf662e3          	bltu	a2,a5,13fd8 <queue_put+0x60>
F:\git\MCU-CH573\Debug/srcc/gec_lab.c:115 (discriminator 1)
   14018:	fcd666e3          	bltu	a2,a3,13fe4 <queue_put+0x6c>
F:\git\MCU-CH573\Debug/srcc/gec_lab.c:115
   1401c:	fcf6e4e3          	bltu	a3,a5,13fe4 <queue_put+0x6c>
F:\git\MCU-CH573\Debug/srcc/gec_lab.c:120 (discriminator 1)

    for(;i<length;++i){
   14020:	04098a63          	beqz	s3,14074 <queue_put+0xfc>
   14024:	1fff1797          	auipc	a5,0x1fff1
   14028:	75878793          	addi	a5,a5,1880 # 2000577c <__buffer_back>
   1402c:	0007a803          	lw	a6,0(a5)
   14030:	fff98893          	addi	a7,s3,-1
   14034:	08c2                	slli	a7,a7,0x10
   14036:	0108d893          	srli	a7,a7,0x10
   1403a:	001a0593          	addi	a1,s4,1
   1403e:	95c6                	add	a1,a1,a7
F:\git\MCU-CH573\Debug/srcc/gec_lab.c:120
   14040:	8752                	mv	a4,s4
F:\git\MCU-CH573\Debug/srcc/gec_lab.c:121
        __buffer[ __buffer_back++ & BUFFER_MASK] = data[i];
   14042:	1fff1517          	auipc	a0,0x1fff1
   14046:	75250513          	addi	a0,a0,1874 # 20005794 <__buffer>
   1404a:	41480a33          	sub	s4,a6,s4
   1404e:	6605                	lui	a2,0x1
   14050:	167d                	addi	a2,a2,-1
F:\git\MCU-CH573\Debug/srcc/gec_lab.c:121 (discriminator 2)
   14052:	00ea07b3          	add	a5,s4,a4
   14056:	8ff1                	and	a5,a5,a2
   14058:	97aa                	add	a5,a5,a0
   1405a:	00074683          	lbu	a3,0(a4)
   1405e:	00d78023          	sb	a3,0(a5)
   14062:	0705                	addi	a4,a4,1
F:\git\MCU-CH573\Debug/srcc/gec_lab.c:120 (discriminator 2)
    for(;i<length;++i){
   14064:	feb717e3          	bne	a4,a1,14052 <queue_put+0xda>
   14068:	0805                	addi	a6,a6,1
   1406a:	9846                	add	a6,a6,a7
   1406c:	1fff1797          	auipc	a5,0x1fff1
   14070:	7107a823          	sw	a6,1808(a5) # 2000577c <__buffer_back>
F:\git\MCU-CH573\Debug/srcc/gec_lab.c:123
    }
    __lens[(__queue_back++) & QUEUE_MASK]=length;
   14074:	1fff1797          	auipc	a5,0x1fff1
   14078:	7097a823          	sw	s1,1808(a5) # 20005784 <__queue_back>
   1407c:	0b8a                	slli	s7,s7,0x2
   1407e:	1fff2797          	auipc	a5,0x1fff2
   14082:	71678793          	addi	a5,a5,1814 # 20006794 <__lens>
   14086:	9bbe                	add	s7,s7,a5
   14088:	013ba023          	sw	s3,0(s7)
F:\git\MCU-CH573\Debug/srcc/gec_lab.c:125

}
   1408c:	50b2                	lw	ra,44(sp)
   1408e:	5422                	lw	s0,40(sp)
   14090:	5492                	lw	s1,36(sp)
   14092:	5902                	lw	s2,32(sp)
   14094:	49f2                	lw	s3,28(sp)
   14096:	4a62                	lw	s4,24(sp)
   14098:	4ad2                	lw	s5,20(sp)
   1409a:	4b42                	lw	s6,16(sp)
   1409c:	4bb2                	lw	s7,12(sp)
   1409e:	6145                	addi	sp,sp,48
   140a0:	8082                	ret
   140a2:	8082                	ret

000140a4 <gpio_set>:
gpio_get_port_pin():
F:\git\MCU-CH573\Debug/srcc/gpio.c:372
//功能概要：将传进参数port_pin进行解析，得出具体端口号与引脚号，分别赋值给port与pin,返回。
//       （例：(PTB_NUM)|(9)解析为PORTB与9，并将其分别赋值给port与pin）。
//=====================================================================
void gpio_get_port_pin(uint16_t port_pin,uint8_t* port,uint8_t* pin)
{
    *port = (port_pin>>8);
   140a4:	00855793          	srli	a5,a0,0x8
F:\git\MCU-CH573\Debug/srcc/gpio.c:373
    *pin = port_pin;
   140a8:	0ff57513          	andi	a0,a0,255
gpio_set():
F:\git\MCU-CH573\Debug/srcc/gpio.c:70
   switch(port)
   140ac:	c789                	beqz	a5,140b6 <gpio_set+0x12>
   140ae:	4705                	li	a4,1
   140b0:	02e78b63          	beq	a5,a4,140e6 <gpio_set+0x42>
   140b4:	8082                	ret
F:\git\MCU-CH573\Debug/srcc/gpio.c:74
       if(1 == state)    //高电平(该引脚对应置位寄存器置1)
   140b6:	4785                	li	a5,1
   140b8:	00f58d63          	beq	a1,a5,140d2 <gpio_set+0x2e>
F:\git\MCU-CH573\Debug/srcc/gpio.c:77
           R32_PA_CLR |= (1<<pin);
   140bc:	40001737          	lui	a4,0x40001
   140c0:	0ac72683          	lw	a3,172(a4) # 400010ac <_eusrstack+0x1fff90ac>
   140c4:	4785                	li	a5,1
   140c6:	00a79533          	sll	a0,a5,a0
   140ca:	8d55                	or	a0,a0,a3
   140cc:	0aa72623          	sw	a0,172(a4)
   140d0:	8082                	ret
F:\git\MCU-CH573\Debug/srcc/gpio.c:75
           R32_PA_OUT |= (1<<pin);
   140d2:	40001737          	lui	a4,0x40001
   140d6:	0a872683          	lw	a3,168(a4) # 400010a8 <_eusrstack+0x1fff90a8>
   140da:	00a79533          	sll	a0,a5,a0
   140de:	8d55                	or	a0,a0,a3
   140e0:	0aa72423          	sw	a0,168(a4)
   140e4:	8082                	ret
F:\git\MCU-CH573\Debug/srcc/gpio.c:81
      if(1 == state)    //高电平(该引脚对应置位寄存器置1)
   140e6:	4785                	li	a5,1
   140e8:	00f58d63          	beq	a1,a5,14102 <gpio_set+0x5e>
F:\git\MCU-CH573\Debug/srcc/gpio.c:84
          R32_PB_CLR |= (1<<pin);
   140ec:	40001737          	lui	a4,0x40001
   140f0:	0cc72683          	lw	a3,204(a4) # 400010cc <_eusrstack+0x1fff90cc>
   140f4:	4785                	li	a5,1
   140f6:	00a79533          	sll	a0,a5,a0
   140fa:	8d55                	or	a0,a0,a3
   140fc:	0ca72623          	sw	a0,204(a4)
F:\git\MCU-CH573\Debug/srcc/gpio.c:88
}
   14100:	8082                	ret
F:\git\MCU-CH573\Debug/srcc/gpio.c:82
          R32_PB_OUT |= (1<<pin);
   14102:	40001737          	lui	a4,0x40001
   14106:	0c872683          	lw	a3,200(a4) # 400010c8 <_eusrstack+0x1fff90c8>
   1410a:	00a79533          	sll	a0,a5,a0
   1410e:	8d55                	or	a0,a0,a3
   14110:	0ca72423          	sw	a0,200(a4)
   14114:	8082                	ret

00014116 <gpio_init>:
gpio_init():
F:\git\MCU-CH573\Debug/srcc/gpio.c:24
{
   14116:	1141                	addi	sp,sp,-16
   14118:	c606                	sw	ra,12(sp)
gpio_get_port_pin():
F:\git\MCU-CH573\Debug/srcc/gpio.c:372
    *port = (port_pin>>8);
   1411a:	00855793          	srli	a5,a0,0x8
F:\git\MCU-CH573\Debug/srcc/gpio.c:373
    *pin = port_pin;
   1411e:	0ff57693          	andi	a3,a0,255
gpio_init():
F:\git\MCU-CH573\Debug/srcc/gpio.c:29
    switch(port)
   14122:	c799                	beqz	a5,14130 <gpio_init+0x1a>
   14124:	4705                	li	a4,1
   14126:	02e78e63          	beq	a5,a4,14162 <gpio_init+0x4c>
F:\git\MCU-CH573\Debug/srcc/gpio.c:55
}
   1412a:	40b2                	lw	ra,12(sp)
   1412c:	0141                	addi	sp,sp,16
   1412e:	8082                	ret
F:\git\MCU-CH573\Debug/srcc/gpio.c:32
        if(dir == 1)  //定义为输出引脚
   14130:	4785                	li	a5,1
   14132:	00f58963          	beq	a1,a5,14144 <gpio_init+0x2e>
F:\git\MCU-CH573\Debug/srcc/gpio.c:39
            R32_PA_DIR &=~(GPIO_INPUT << pin );
   14136:	400017b7          	lui	a5,0x40001
   1413a:	0a07a703          	lw	a4,160(a5) # 400010a0 <_eusrstack+0x1fff90a0>
   1413e:	0ae7a023          	sw	a4,160(a5)
   14142:	b7e5                	j	1412a <gpio_init+0x14>
F:\git\MCU-CH573\Debug/srcc/gpio.c:34
            R32_PA_DIR |= (GPIO_OUTPUT << pin );
   14144:	40001737          	lui	a4,0x40001
   14148:	0a072583          	lw	a1,160(a4) # 400010a0 <_eusrstack+0x1fff90a0>
   1414c:	00d796b3          	sll	a3,a5,a3
   14150:	8ecd                	or	a3,a3,a1
   14152:	0ad72023          	sw	a3,160(a4)
F:\git\MCU-CH573\Debug/srcc/gpio.c:35
            gpio_set(port_pin,state);
   14156:	85b2                	mv	a1,a2
   14158:	00000097          	auipc	ra,0x0
   1415c:	f4c080e7          	jalr	-180(ra) # 140a4 <gpio_set>
   14160:	b7e9                	j	1412a <gpio_init+0x14>
F:\git\MCU-CH573\Debug/srcc/gpio.c:43
        if(dir == 1)  //定义为输出引脚
   14162:	4785                	li	a5,1
   14164:	00f58963          	beq	a1,a5,14176 <gpio_init+0x60>
F:\git\MCU-CH573\Debug/srcc/gpio.c:50
            R32_PB_DIR &=~(GPIO_INPUT << pin );
   14168:	400017b7          	lui	a5,0x40001
   1416c:	0c07a703          	lw	a4,192(a5) # 400010c0 <_eusrstack+0x1fff90c0>
   14170:	0ce7a023          	sw	a4,192(a5)
F:\git\MCU-CH573\Debug/srcc/gpio.c:55
}
   14174:	bf5d                	j	1412a <gpio_init+0x14>
F:\git\MCU-CH573\Debug/srcc/gpio.c:45
            R32_PB_DIR |= (GPIO_OUTPUT << pin );
   14176:	40001737          	lui	a4,0x40001
   1417a:	0c072583          	lw	a1,192(a4) # 400010c0 <_eusrstack+0x1fff90c0>
   1417e:	00d796b3          	sll	a3,a5,a3
   14182:	8ecd                	or	a3,a3,a1
   14184:	0cd72023          	sw	a3,192(a4)
F:\git\MCU-CH573\Debug/srcc/gpio.c:46
            gpio_set(port_pin,state);
   14188:	85b2                	mv	a1,a2
   1418a:	00000097          	auipc	ra,0x0
   1418e:	f1a080e7          	jalr	-230(ra) # 140a4 <gpio_set>
   14192:	bf61                	j	1412a <gpio_init+0x14>

00014194 <gpio_get>:
gpio_get_port_pin():
F:\git\MCU-CH573\Debug/srcc/gpio.c:372
    *port = (port_pin>>8);
   14194:	00855713          	srli	a4,a0,0x8
F:\git\MCU-CH573\Debug/srcc/gpio.c:373
    *pin = port_pin;
   14198:	0ff57513          	andi	a0,a0,255
gpio_get():
F:\git\MCU-CH573\Debug/srcc/gpio.c:104
    tempA=R32_PA_DIR;
   1419c:	400016b7          	lui	a3,0x40001
   141a0:	0a06a603          	lw	a2,160(a3) # 400010a0 <_eusrstack+0x1fff90a0>
F:\git\MCU-CH573\Debug/srcc/gpio.c:105
    tempB=R32_PB_DIR;
   141a4:	0c06a683          	lw	a3,192(a3)
F:\git\MCU-CH573\Debug/srcc/gpio.c:106
    switch(port)
   141a8:	c711                	beqz	a4,141b4 <gpio_get+0x20>
   141aa:	4605                	li	a2,1
   141ac:	04c70263          	beq	a4,a2,141f0 <gpio_get+0x5c>
F:\git\MCU-CH573\Debug/srcc/gpio.c:146
}
   141b0:	853e                	mv	a0,a5
   141b2:	8082                	ret
F:\git\MCU-CH573\Debug/srcc/gpio.c:109
        if((tempA&(1<<pin))>>pin==1)//GPIO输出
   141b4:	4705                	li	a4,1
   141b6:	00a717b3          	sll	a5,a4,a0
   141ba:	8e7d                	and	a2,a2,a5
   141bc:	00a65633          	srl	a2,a2,a0
   141c0:	00e60d63          	beq	a2,a4,141da <gpio_get+0x46>
F:\git\MCU-CH573\Debug/srcc/gpio.c:119
            tempA=R32_PA_PIN;
   141c4:	40001737          	lui	a4,0x40001
   141c8:	0a472703          	lw	a4,164(a4) # 400010a4 <_eusrstack+0x1fff90a4>
F:\git\MCU-CH573\Debug/srcc/gpio.c:120
            if((tempA&(1<<pin))>>pin==1)
   141cc:	8ff9                	and	a5,a5,a4
   141ce:	00a7d7b3          	srl	a5,a5,a0
   141d2:	17fd                	addi	a5,a5,-1
F:\git\MCU-CH573\Debug/srcc/gpio.c:121
                value=1;
   141d4:	0017b793          	seqz	a5,a5
   141d8:	bfe1                	j	141b0 <gpio_get+0x1c>
F:\git\MCU-CH573\Debug/srcc/gpio.c:111
            tempA=R32_PA_OUT;
   141da:	40001737          	lui	a4,0x40001
   141de:	0a872703          	lw	a4,168(a4) # 400010a8 <_eusrstack+0x1fff90a8>
F:\git\MCU-CH573\Debug/srcc/gpio.c:112
            if((tempA&(1<<pin))>>pin==1)
   141e2:	8ff9                	and	a5,a5,a4
   141e4:	00a7d7b3          	srl	a5,a5,a0
   141e8:	17fd                	addi	a5,a5,-1
F:\git\MCU-CH573\Debug/srcc/gpio.c:121
                value=1;
   141ea:	0017b793          	seqz	a5,a5
   141ee:	b7c9                	j	141b0 <gpio_get+0x1c>
F:\git\MCU-CH573\Debug/srcc/gpio.c:127
        if((tempB&(1<<pin))>>pin==1)//输出
   141f0:	4705                	li	a4,1
   141f2:	00a717b3          	sll	a5,a4,a0
   141f6:	8efd                	and	a3,a3,a5
   141f8:	00a6d6b3          	srl	a3,a3,a0
   141fc:	00e68d63          	beq	a3,a4,14216 <gpio_get+0x82>
F:\git\MCU-CH573\Debug/srcc/gpio.c:137
            tempB=R32_PB_PIN;
   14200:	40001737          	lui	a4,0x40001
   14204:	0c472703          	lw	a4,196(a4) # 400010c4 <_eusrstack+0x1fff90c4>
F:\git\MCU-CH573\Debug/srcc/gpio.c:138
            if((tempB&(1<<pin))>>pin==1)
   14208:	8ff9                	and	a5,a5,a4
   1420a:	00a7d7b3          	srl	a5,a5,a0
   1420e:	17fd                	addi	a5,a5,-1
F:\git\MCU-CH573\Debug/srcc/gpio.c:121
                value=1;
   14210:	0017b793          	seqz	a5,a5
   14214:	bf71                	j	141b0 <gpio_get+0x1c>
F:\git\MCU-CH573\Debug/srcc/gpio.c:129
            tempB=R32_PB_OUT;
   14216:	40001737          	lui	a4,0x40001
   1421a:	0c872703          	lw	a4,200(a4) # 400010c8 <_eusrstack+0x1fff90c8>
F:\git\MCU-CH573\Debug/srcc/gpio.c:130
            if((tempB&(1<<pin))>>pin==1)
   1421e:	8ff9                	and	a5,a5,a4
   14220:	00a7d7b3          	srl	a5,a5,a0
   14224:	17fd                	addi	a5,a5,-1
F:\git\MCU-CH573\Debug/srcc/gpio.c:121
                value=1;
   14226:	0017b793          	seqz	a5,a5
   1422a:	b759                	j	141b0 <gpio_get+0x1c>

0001422c <pwm_init>:
pwm_init():
F:\git\MCU-CH573\Debug/srcc/pwm.c:26
//              设置的
//=====================================================================
uint16_t gc_period_minus_one=255;
void pwm_init(uint16_t pwmNo, uint32_t clockFre, uint16_t period, 
               double duty, uint8_t align, uint8_t pol)
{
   1422c:	7179                	addi	sp,sp,-48
   1422e:	d606                	sw	ra,44(sp)
   14230:	d422                	sw	s0,40(sp)
   14232:	d226                	sw	s1,36(sp)
   14234:	d04a                	sw	s2,32(sp)
   14236:	ce4e                	sw	s3,28(sp)
   14238:	cc52                	sw	s4,24(sp)
   1423a:	ca56                	sw	s5,20(sp)
   1423c:	c85a                	sw	s6,16(sp)
   1423e:	c65e                	sw	s7,12(sp)
   14240:	c462                	sw	s8,8(sp)
   14242:	c266                	sw	s9,4(sp)
   14244:	84aa                	mv	s1,a0
   14246:	8432                	mv	s0,a2
   14248:	8936                	mv	s2,a3
   1424a:	89ba                	mv	s3,a4
   1424c:	8a42                	mv	s4,a6
F:\git\MCU-CH573\Debug/srcc/pwm.c:27
    R8_PWM_CLOCK_DIV=16000000/clockFre;
   1424e:	00f427b7          	lui	a5,0xf42
   14252:	40078793          	addi	a5,a5,1024 # f42400 <_data_lma+0xf2a940>
   14256:	02b7d5b3          	divu	a1,a5,a1
   1425a:	0ff5f593          	andi	a1,a1,255
   1425e:	400057b7          	lui	a5,0x40005
   14262:	00b781a3          	sb	a1,3(a5) # 40005003 <_eusrstack+0x1fffd003>
F:\git\MCU-CH573\Debug/srcc/pwm.c:28
    switch (pwmNo)
   14266:	8aaa                	mv	s5,a0
   14268:	47a1                	li	a5,8
   1426a:	0cf50c63          	beq	a0,a5,14342 <pwm_init+0x116>
   1426e:	02a7f963          	bgeu	a5,a0,142a0 <pwm_init+0x74>
   14272:	02000793          	li	a5,32
   14276:	0cf50f63          	beq	a0,a5,14354 <pwm_init+0x128>
   1427a:	06a7ff63          	bgeu	a5,a0,142f8 <pwm_init+0xcc>
   1427e:	04000793          	li	a5,64
   14282:	0ef50263          	beq	a0,a5,14366 <pwm_init+0x13a>
   14286:	08000793          	li	a5,128
   1428a:	02f51463          	bne	a0,a5,142b2 <pwm_init+0x86>
F:\git\MCU-CH573\Debug/srcc/pwm.c:37
    case PWM_PIN2: gpio_init(PTB_NUM|0,  GPIO_OUTPUT,1);break;  // PB0 - PWM6
    case PWM_PIN3: gpio_init(PTB_NUM|4,  GPIO_OUTPUT,1);break;  // PB4 - PWM7
    case PWM_PIN4: gpio_init(PTB_NUM|6,  GPIO_OUTPUT,1);break;  // PB6 - PWM8
    case PWM_PIN5: gpio_init(PTB_NUM|7,  GPIO_OUTPUT,1);break;  // PB7 - PWM9
    case PWM_PIN6: gpio_init(PTB_NUM|14, GPIO_OUTPUT,1);break; // PB14 - PWM10
    case PWM_PIN7: gpio_init(PTB_NUM|23, GPIO_OUTPUT,1);break; // PB23 - PWM11
   1428e:	4605                	li	a2,1
   14290:	4585                	li	a1,1
   14292:	11700513          	li	a0,279
   14296:	00000097          	auipc	ra,0x0
   1429a:	e80080e7          	jalr	-384(ra) # 14116 <gpio_init>
   1429e:	a811                	j	142b2 <pwm_init+0x86>
   142a0:	4789                	li	a5,2
   142a2:	06f50f63          	beq	a0,a5,14320 <pwm_init+0xf4>
   142a6:	4791                	li	a5,4
   142a8:	08f50463          	beq	a0,a5,14330 <pwm_init+0x104>
   142ac:	4785                	li	a5,1
   142ae:	06f50163          	beq	a0,a5,14310 <pwm_init+0xe4>
F:\git\MCU-CH573\Debug/srcc/pwm.c:42
    default:
        break;
    }
    //设置周期
    switch(period)
   142b2:	04000793          	li	a5,64
   142b6:	16f40c63          	beq	s0,a5,1442e <pwm_init+0x202>
   142ba:	0a87ff63          	bgeu	a5,s0,14378 <pwm_init+0x14c>
   142be:	08000793          	li	a5,128
   142c2:	14f40563          	beq	s0,a5,1440c <pwm_init+0x1e0>
   142c6:	0e87fd63          	bgeu	a5,s0,143c0 <pwm_init+0x194>
   142ca:	0ff00793          	li	a5,255
   142ce:	10f40e63          	beq	s0,a5,143ea <pwm_init+0x1be>
   142d2:	10000793          	li	a5,256
   142d6:	0af41c63          	bne	s0,a5,1438e <pwm_init+0x162>
F:\git\MCU-CH573\Debug/srcc/pwm.c:45
    {
        case PWMX_Cycle_256:
            R8_PWM_CONFIG = R8_PWM_CONFIG & 0xf0;
   142da:	40005737          	lui	a4,0x40005
   142de:	00274783          	lbu	a5,2(a4) # 40005002 <_eusrstack+0x1fffd002>
   142e2:	0f07f793          	andi	a5,a5,240
   142e6:	00f70123          	sb	a5,2(a4)
F:\git\MCU-CH573\Debug/srcc/pwm.c:46
            gc_period_minus_one=255;
   142ea:	0ff00793          	li	a5,255
   142ee:	1fff1717          	auipc	a4,0x1fff1
   142f2:	48f71423          	sh	a5,1160(a4) # 20005776 <gc_period_minus_one>
F:\git\MCU-CH573\Debug/srcc/pwm.c:47
            break;
   142f6:	a861                	j	1438e <pwm_init+0x162>
   142f8:	47c1                	li	a5,16
   142fa:	faf51ce3          	bne	a0,a5,142b2 <pwm_init+0x86>
F:\git\MCU-CH573\Debug/srcc/pwm.c:34
    case PWM_PIN4: gpio_init(PTB_NUM|6,  GPIO_OUTPUT,1);break;  // PB6 - PWM8
   142fe:	4605                	li	a2,1
   14300:	4585                	li	a1,1
   14302:	10600513          	li	a0,262
   14306:	00000097          	auipc	ra,0x0
   1430a:	e10080e7          	jalr	-496(ra) # 14116 <gpio_init>
   1430e:	b755                	j	142b2 <pwm_init+0x86>
F:\git\MCU-CH573\Debug/srcc/pwm.c:30
    case PWM_PIN0: gpio_init(PTA_NUM|12, GPIO_OUTPUT,1);break; // PA12 - PWM4
   14310:	4605                	li	a2,1
   14312:	4585                	li	a1,1
   14314:	4531                	li	a0,12
   14316:	00000097          	auipc	ra,0x0
   1431a:	e00080e7          	jalr	-512(ra) # 14116 <gpio_init>
   1431e:	bf51                	j	142b2 <pwm_init+0x86>
F:\git\MCU-CH573\Debug/srcc/pwm.c:31
    case PWM_PIN1: gpio_init(PTA_NUM|13, GPIO_OUTPUT,1);break; // PA13 - PWM5
   14320:	4605                	li	a2,1
   14322:	4585                	li	a1,1
   14324:	4535                	li	a0,13
   14326:	00000097          	auipc	ra,0x0
   1432a:	df0080e7          	jalr	-528(ra) # 14116 <gpio_init>
   1432e:	b751                	j	142b2 <pwm_init+0x86>
F:\git\MCU-CH573\Debug/srcc/pwm.c:32
    case PWM_PIN2: gpio_init(PTB_NUM|0,  GPIO_OUTPUT,1);break;  // PB0 - PWM6
   14330:	4605                	li	a2,1
   14332:	4585                	li	a1,1
   14334:	10000513          	li	a0,256
   14338:	00000097          	auipc	ra,0x0
   1433c:	dde080e7          	jalr	-546(ra) # 14116 <gpio_init>
   14340:	bf8d                	j	142b2 <pwm_init+0x86>
F:\git\MCU-CH573\Debug/srcc/pwm.c:33
    case PWM_PIN3: gpio_init(PTB_NUM|4,  GPIO_OUTPUT,1);break;  // PB4 - PWM7
   14342:	4605                	li	a2,1
   14344:	4585                	li	a1,1
   14346:	10400513          	li	a0,260
   1434a:	00000097          	auipc	ra,0x0
   1434e:	dcc080e7          	jalr	-564(ra) # 14116 <gpio_init>
   14352:	b785                	j	142b2 <pwm_init+0x86>
F:\git\MCU-CH573\Debug/srcc/pwm.c:35
    case PWM_PIN5: gpio_init(PTB_NUM|7,  GPIO_OUTPUT,1);break;  // PB7 - PWM9
   14354:	4605                	li	a2,1
   14356:	4585                	li	a1,1
   14358:	10700513          	li	a0,263
   1435c:	00000097          	auipc	ra,0x0
   14360:	dba080e7          	jalr	-582(ra) # 14116 <gpio_init>
   14364:	b7b9                	j	142b2 <pwm_init+0x86>
F:\git\MCU-CH573\Debug/srcc/pwm.c:36
    case PWM_PIN6: gpio_init(PTB_NUM|14, GPIO_OUTPUT,1);break; // PB14 - PWM10
   14366:	4605                	li	a2,1
   14368:	4585                	li	a1,1
   1436a:	10e00513          	li	a0,270
   1436e:	00000097          	auipc	ra,0x0
   14372:	da8080e7          	jalr	-600(ra) # 14116 <gpio_init>
   14376:	bf35                	j	142b2 <pwm_init+0x86>
   14378:	02000793          	li	a5,32
   1437c:	0ef40b63          	beq	s0,a5,14472 <pwm_init+0x246>
   14380:	03f00793          	li	a5,63
   14384:	0cf40663          	beq	s0,a5,14450 <pwm_init+0x224>
   14388:	47fd                	li	a5,31
   1438a:	10f40463          	beq	s0,a5,14492 <pwm_init+0x266>
F:\git\MCU-CH573\Debug/srcc/pwm.c:89
        default:
            break;
    }
    

    (pol==PWM_PLUS) ? (R8_PWM_POLAR |= (pwmNo)) : (R8_PWM_POLAR &= ~(pwmNo));
   1438e:	120a1263          	bnez	s4,144b2 <pwm_init+0x286>
F:\git\MCU-CH573\Debug/srcc/pwm.c:89 (discriminator 1)
   14392:	40005737          	lui	a4,0x40005
   14396:	00174783          	lbu	a5,1(a4) # 40005001 <_eusrstack+0x1fffd001>
   1439a:	8fc5                	or	a5,a5,s1
   1439c:	0ff7f793          	andi	a5,a5,255
   143a0:	00f700a3          	sb	a5,1(a4)
F:\git\MCU-CH573\Debug/srcc/pwm.c:26 (discriminator 1)
{
   143a4:	4401                	li	s0,0
   143a6:	40005bb7          	lui	s7,0x40005
   143aa:	0b91                	addi	s7,s7,4
F:\git\MCU-CH573\Debug/srcc/pwm.c:94 (discriminator 1)
    for(uint8_t i = 0; i < 8; i++)
    {
        if((pwmNo >> i) & 1)
        {
            *((volatile uint8_t *)((&R8_PWM4_DATA) + i)) =(uint8_t)( gc_period_minus_one*duty/100);
   143ac:	1fff1c97          	auipc	s9,0x1fff1
   143b0:	3cac8c93          	addi	s9,s9,970 # 20005776 <gc_period_minus_one>
   143b4:	00003c17          	auipc	s8,0x3
   143b8:	364c0c13          	addi	s8,s8,868 # 17718 <strlen+0x54>
F:\git\MCU-CH573\Debug/srcc/pwm.c:90 (discriminator 1)
    for(uint8_t i = 0; i < 8; i++)
   143bc:	4b21                	li	s6,8
   143be:	a239                	j	144cc <pwm_init+0x2a0>
   143c0:	07f00793          	li	a5,127
   143c4:	fcf415e3          	bne	s0,a5,1438e <pwm_init+0x162>
F:\git\MCU-CH573\Debug/srcc/pwm.c:60
            R8_PWM_CONFIG = (R8_PWM_CONFIG & 0xf0) | (1 << 2) | 0x01;
   143c8:	40005737          	lui	a4,0x40005
   143cc:	00274783          	lbu	a5,2(a4) # 40005002 <_eusrstack+0x1fffd002>
   143d0:	0f07f793          	andi	a5,a5,240
   143d4:	0057e793          	ori	a5,a5,5
   143d8:	00f70123          	sb	a5,2(a4)
F:\git\MCU-CH573\Debug/srcc/pwm.c:61
            gc_period_minus_one=126;
   143dc:	07e00793          	li	a5,126
   143e0:	1fff1717          	auipc	a4,0x1fff1
   143e4:	38f71b23          	sh	a5,918(a4) # 20005776 <gc_period_minus_one>
F:\git\MCU-CH573\Debug/srcc/pwm.c:62
            break;
   143e8:	b75d                	j	1438e <pwm_init+0x162>
F:\git\MCU-CH573\Debug/srcc/pwm.c:50
            R8_PWM_CONFIG = (R8_PWM_CONFIG & 0xf0) | 0x01;
   143ea:	40005737          	lui	a4,0x40005
   143ee:	00274783          	lbu	a5,2(a4) # 40005002 <_eusrstack+0x1fffd002>
   143f2:	0f07f793          	andi	a5,a5,240
   143f6:	0017e793          	ori	a5,a5,1
   143fa:	00f70123          	sb	a5,2(a4)
F:\git\MCU-CH573\Debug/srcc/pwm.c:51
            gc_period_minus_one=254;
   143fe:	0fe00793          	li	a5,254
   14402:	1fff1717          	auipc	a4,0x1fff1
   14406:	36f71a23          	sh	a5,884(a4) # 20005776 <gc_period_minus_one>
F:\git\MCU-CH573\Debug/srcc/pwm.c:52
            break;
   1440a:	b751                	j	1438e <pwm_init+0x162>
F:\git\MCU-CH573\Debug/srcc/pwm.c:55
            R8_PWM_CONFIG = (R8_PWM_CONFIG & 0xf0) | (1 << 2);
   1440c:	40005737          	lui	a4,0x40005
   14410:	00274783          	lbu	a5,2(a4) # 40005002 <_eusrstack+0x1fffd002>
   14414:	0f07f793          	andi	a5,a5,240
   14418:	0047e793          	ori	a5,a5,4
   1441c:	00f70123          	sb	a5,2(a4)
F:\git\MCU-CH573\Debug/srcc/pwm.c:56
            gc_period_minus_one=127;
   14420:	07f00793          	li	a5,127
   14424:	1fff1717          	auipc	a4,0x1fff1
   14428:	34f71923          	sh	a5,850(a4) # 20005776 <gc_period_minus_one>
F:\git\MCU-CH573\Debug/srcc/pwm.c:57
            break;
   1442c:	b78d                	j	1438e <pwm_init+0x162>
F:\git\MCU-CH573\Debug/srcc/pwm.c:65
            R8_PWM_CONFIG = (R8_PWM_CONFIG & 0xf0) | (2 << 2);
   1442e:	40005737          	lui	a4,0x40005
   14432:	00274783          	lbu	a5,2(a4) # 40005002 <_eusrstack+0x1fffd002>
   14436:	0f07f793          	andi	a5,a5,240
   1443a:	0087e793          	ori	a5,a5,8
   1443e:	00f70123          	sb	a5,2(a4)
F:\git\MCU-CH573\Debug/srcc/pwm.c:66
            gc_period_minus_one=63;
   14442:	03f00793          	li	a5,63
   14446:	1fff1717          	auipc	a4,0x1fff1
   1444a:	32f71823          	sh	a5,816(a4) # 20005776 <gc_period_minus_one>
F:\git\MCU-CH573\Debug/srcc/pwm.c:67
            break;
   1444e:	b781                	j	1438e <pwm_init+0x162>
F:\git\MCU-CH573\Debug/srcc/pwm.c:70
            R8_PWM_CONFIG = (R8_PWM_CONFIG & 0xf0) | (2 << 2) | 0x01;
   14450:	40005737          	lui	a4,0x40005
   14454:	00274783          	lbu	a5,2(a4) # 40005002 <_eusrstack+0x1fffd002>
   14458:	0f07f793          	andi	a5,a5,240
   1445c:	0097e793          	ori	a5,a5,9
   14460:	00f70123          	sb	a5,2(a4)
F:\git\MCU-CH573\Debug/srcc/pwm.c:71
            gc_period_minus_one=62;
   14464:	03e00793          	li	a5,62
   14468:	1fff1717          	auipc	a4,0x1fff1
   1446c:	30f71723          	sh	a5,782(a4) # 20005776 <gc_period_minus_one>
F:\git\MCU-CH573\Debug/srcc/pwm.c:72
            break;
   14470:	bf39                	j	1438e <pwm_init+0x162>
F:\git\MCU-CH573\Debug/srcc/pwm.c:75
            R8_PWM_CONFIG = (R8_PWM_CONFIG & 0xf0) | (3 << 2);
   14472:	40005737          	lui	a4,0x40005
   14476:	00274783          	lbu	a5,2(a4) # 40005002 <_eusrstack+0x1fffd002>
   1447a:	0f07f793          	andi	a5,a5,240
   1447e:	00c7e793          	ori	a5,a5,12
   14482:	00f70123          	sb	a5,2(a4)
F:\git\MCU-CH573\Debug/srcc/pwm.c:76
            gc_period_minus_one=31;
   14486:	47fd                	li	a5,31
   14488:	1fff1717          	auipc	a4,0x1fff1
   1448c:	2ef71723          	sh	a5,750(a4) # 20005776 <gc_period_minus_one>
F:\git\MCU-CH573\Debug/srcc/pwm.c:77
            break;
   14490:	bdfd                	j	1438e <pwm_init+0x162>
F:\git\MCU-CH573\Debug/srcc/pwm.c:80
            R8_PWM_CONFIG = (R8_PWM_CONFIG & 0xf0) | (3 << 2) | 0x01;
   14492:	40005737          	lui	a4,0x40005
   14496:	00274783          	lbu	a5,2(a4) # 40005002 <_eusrstack+0x1fffd002>
   1449a:	0f07f793          	andi	a5,a5,240
   1449e:	00d7e793          	ori	a5,a5,13
   144a2:	00f70123          	sb	a5,2(a4)
F:\git\MCU-CH573\Debug/srcc/pwm.c:81
            gc_period_minus_one=30;
   144a6:	47f9                	li	a5,30
   144a8:	1fff1717          	auipc	a4,0x1fff1
   144ac:	2cf71723          	sh	a5,718(a4) # 20005776 <gc_period_minus_one>
F:\git\MCU-CH573\Debug/srcc/pwm.c:82
            break;
   144b0:	bdf9                	j	1438e <pwm_init+0x162>
F:\git\MCU-CH573\Debug/srcc/pwm.c:89 (discriminator 2)
    (pol==PWM_PLUS) ? (R8_PWM_POLAR |= (pwmNo)) : (R8_PWM_POLAR &= ~(pwmNo));
   144b2:	40005737          	lui	a4,0x40005
   144b6:	00174683          	lbu	a3,1(a4) # 40005001 <_eusrstack+0x1fffd001>
   144ba:	fff4c793          	not	a5,s1
   144be:	8ff5                	and	a5,a5,a3
   144c0:	00f700a3          	sb	a5,1(a4)
   144c4:	b5c5                	j	143a4 <pwm_init+0x178>
   144c6:	0405                	addi	s0,s0,1
F:\git\MCU-CH573\Debug/srcc/pwm.c:90 (discriminator 2)
    for(uint8_t i = 0; i < 8; i++)
   144c8:	05640563          	beq	s0,s6,14512 <pwm_init+0x2e6>
F:\git\MCU-CH573\Debug/srcc/pwm.c:92
        if((pwmNo >> i) & 1)
   144cc:	408ad7b3          	sra	a5,s5,s0
   144d0:	8b85                	andi	a5,a5,1
   144d2:	dbf5                	beqz	a5,144c6 <pwm_init+0x29a>
F:\git\MCU-CH573\Debug/srcc/pwm.c:94
            *((volatile uint8_t *)((&R8_PWM4_DATA) + i)) =(uint8_t)( gc_period_minus_one*duty/100);
   144d4:	01740a33          	add	s4,s0,s7
   144d8:	000cd503          	lhu	a0,0(s9)
   144dc:	00003097          	auipc	ra,0x3
   144e0:	eca080e7          	jalr	-310(ra) # 173a6 <__floatsidf>
   144e4:	864a                	mv	a2,s2
   144e6:	86ce                	mv	a3,s3
   144e8:	00002097          	auipc	ra,0x2
   144ec:	1ec080e7          	jalr	492(ra) # 166d4 <__muldf3>
   144f0:	000c2603          	lw	a2,0(s8)
   144f4:	004c2683          	lw	a3,4(s8)
   144f8:	00002097          	auipc	ra,0x2
   144fc:	af8080e7          	jalr	-1288(ra) # 15ff0 <__divdf3>
   14500:	00003097          	auipc	ra,0x3
   14504:	e4a080e7          	jalr	-438(ra) # 1734a <__fixunsdfsi>
   14508:	0ff57513          	andi	a0,a0,255
   1450c:	00aa0023          	sb	a0,0(s4)
   14510:	bf5d                	j	144c6 <pwm_init+0x29a>
F:\git\MCU-CH573\Debug/srcc/pwm.c:97
        }
    }
    R8_PWM_OUT_EN |= pwmNo;
   14512:	400057b7          	lui	a5,0x40005
   14516:	0007c703          	lbu	a4,0(a5) # 40005000 <_eusrstack+0x1fffd000>
   1451a:	8cd9                	or	s1,s1,a4
   1451c:	0ff4f493          	andi	s1,s1,255
   14520:	00978023          	sb	s1,0(a5)
F:\git\MCU-CH573\Debug/srcc/pwm.c:98
}
   14524:	50b2                	lw	ra,44(sp)
   14526:	5422                	lw	s0,40(sp)
   14528:	5492                	lw	s1,36(sp)
   1452a:	5902                	lw	s2,32(sp)
   1452c:	49f2                	lw	s3,28(sp)
   1452e:	4a62                	lw	s4,24(sp)
   14530:	4ad2                	lw	s5,20(sp)
   14532:	4b42                	lw	s6,16(sp)
   14534:	4bb2                	lw	s7,12(sp)
   14536:	4c22                	lw	s8,8(sp)
   14538:	4c92                	lw	s9,4(sp)
   1453a:	6145                	addi	sp,sp,48
   1453c:	8082                	ret

0001453e <IRQ_OPC_CHANGE>:
IRQ_OPC_CHANGE():
F:\git\MCU-CH573\Debug/srcc/gec.c:25
    static uint32_t opcode = 0;
    uint32_t bios_addr=0, user_addr=0;  //函数入口地址
    uint32_t user_opc=0;
    uint32_t imm1=0,imm2=0;
    uint32_t user_pc=0;
    if(IRQ_NUM == SysTick_IRQn)     //对SysTick_Handler中断进行重定向
   1453e:	47b1                	li	a5,12
   14540:	02f50563          	beq	a0,a5,1456a <IRQ_OPC_CHANGE+0x2c>
F:\git\MCU-CH573\Debug/srcc/gec.c:31
    {
        user_addr = (uint32_t)SysTick_Handler;
        bios_addr = (uint32_t)component_fun[28];
        user_opc = ((uint32_t *)user)[SysTick_IRQn+1];
    }
    else if(IRQ_NUM == SWI_IRQn)    //对SysTick_Handler中断进行重定向
   14544:	47b9                	li	a5,14
   14546:	08f50763          	beq	a0,a5,145d4 <IRQ_OPC_CHANGE+0x96>
F:\git\MCU-CH573\Debug/srcc/gec.c:37
    {
        user_addr = (uint32_t)SW_Handler;
        bios_addr = (uint32_t)component_fun[29];
        user_opc = ((uint32_t *)user)[SWI_IRQn+1];
    }
    else if(IRQ_NUM == UART1_IRQn)  //对SysTick_Handler中断进行重定向
   1454a:	476d                	li	a4,27
F:\git\MCU-CH573\Debug/srcc/gec.c:44
        user_addr = (uint32_t)UART1_IRQHandler;
        bios_addr = (uint32_t)component_fun[30];
        user_opc = ((uint32_t *)user)[UART1_IRQn+1];
    }
    else                            //仅支持SysTick_Handler、SW_Handler、UART1_IRQHandler的重定向
       return 0;
   1454c:	4781                	li	a5,0
F:\git\MCU-CH573\Debug/srcc/gec.c:37
    else if(IRQ_NUM == UART1_IRQn)  //对SysTick_Handler中断进行重定向
   1454e:	08e51163          	bne	a0,a4,145d0 <IRQ_OPC_CHANGE+0x92>
F:\git\MCU-CH573\Debug/srcc/gec.c:39
        user_addr = (uint32_t)UART1_IRQHandler;
   14552:	ffffe817          	auipc	a6,0xffffe
   14556:	b7a80813          	addi	a6,a6,-1158 # 120cc <UART1_IRQHandler>
F:\git\MCU-CH573\Debug/srcc/gec.c:40
        bios_addr = (uint32_t)component_fun[30];
   1455a:	1fff2797          	auipc	a5,0x1fff2
   1455e:	7c678793          	addi	a5,a5,1990 # 20006d20 <component_fun>
   14562:	439c                	lw	a5,0(a5)
   14564:	5fb0                	lw	a2,120(a5)
F:\git\MCU-CH573\Debug/srcc/gec.c:41
        user_opc = ((uint32_t *)user)[UART1_IRQn+1];
   14566:	59b8                	lw	a4,112(a1)
   14568:	a821                	j	14580 <IRQ_OPC_CHANGE+0x42>
F:\git\MCU-CH573\Debug/srcc/gec.c:27
        user_addr = (uint32_t)SysTick_Handler;
   1456a:	ffffe817          	auipc	a6,0xffffe
   1456e:	b3280813          	addi	a6,a6,-1230 # 1209c <SysTick_Handler>
F:\git\MCU-CH573\Debug/srcc/gec.c:28
        bios_addr = (uint32_t)component_fun[28];
   14572:	1fff2797          	auipc	a5,0x1fff2
   14576:	7ae78793          	addi	a5,a5,1966 # 20006d20 <component_fun>
   1457a:	439c                	lw	a5,0(a5)
   1457c:	5bb0                	lw	a2,112(a5)
F:\git\MCU-CH573\Debug/srcc/gec.c:29
        user_opc = ((uint32_t *)user)[SysTick_IRQn+1];
   1457e:	59d8                	lw	a4,52(a1)
F:\git\MCU-CH573\Debug/srcc/gec.c:50
    // printf("addr1:%lx\r\n", user_addr);
    // printf("addr2:%lx\r\n", bios_addr);
    // printf("opc:%lx\r\n", user_opc);

    //判断该指令是否为向前跳转，如果是向前跳转说明已经修改过了中断向量表，无需再次修改
    if((user_opc&0x80000000)) return ((uint32_t *)user)[IRQ_NUM+1];         
   14580:	06074663          	bltz	a4,145ec <IRQ_OPC_CHANGE+0xae>
F:\git\MCU-CH573\Debug/srcc/gec.c:52

    imm1 = ( ((user_opc&0x80000000)>>11) | ((user_opc&0x7FE00000)>>20) | ((user_opc&0x00100000)>>9) | ((user_opc&0x000FF000)) );
   14584:	00975793          	srli	a5,a4,0x9
   14588:	6685                	lui	a3,0x1
   1458a:	80068693          	addi	a3,a3,-2048 # 800 <GEC_USER_SECTOR_END+0x7db>
   1458e:	8ff5                	and	a5,a5,a3
   14590:	000ff6b7          	lui	a3,0xff
   14594:	00d775b3          	and	a1,a4,a3
   14598:	8fcd                	or	a5,a5,a1
   1459a:	8351                	srli	a4,a4,0x14
   1459c:	7fe77713          	andi	a4,a4,2046
   145a0:	8fd9                	or	a5,a5,a4
F:\git\MCU-CH573\Debug/srcc/gec.c:58
    if(imm1>>20==1)         //向前跳转，补符号位
        imm1 = 0xFFE00000 | imm1;
    // printf("imm1:%lx\r\n", imm1);
    user_pc = user_addr - imm1;
    // printf("pc:%lx\r\n", user_pc);
    imm2 = bios_addr - user_pc;
   145a2:	41060633          	sub	a2,a2,a6
   145a6:	97b2                	add	a5,a5,a2
F:\git\MCU-CH573\Debug/srcc/gec.c:60
    // printf("imm2:%lx\r\n", imm2);
    opcode = (((imm2&0x100000)<<11) | ((imm2&0x7FE)<<20) | ((imm2&0x800)<<9) | (imm2&0xFF000)) | (0x0) | (0x6f);
   145a8:	00b79513          	slli	a0,a5,0xb
   145ac:	80000737          	lui	a4,0x80000
   145b0:	8d79                	and	a0,a0,a4
   145b2:	00979713          	slli	a4,a5,0x9
   145b6:	00100637          	lui	a2,0x100
   145ba:	8f71                	and	a4,a4,a2
   145bc:	8d59                	or	a0,a0,a4
   145be:	8efd                	and	a3,a3,a5
   145c0:	8d55                	or	a0,a0,a3
   145c2:	07d2                	slli	a5,a5,0x14
   145c4:	7fe00737          	lui	a4,0x7fe00
   145c8:	8ff9                	and	a5,a5,a4
   145ca:	8fc9                	or	a5,a5,a0
   145cc:	06f7e793          	ori	a5,a5,111
F:\git\MCU-CH573\Debug/srcc/gec.c:63
    // printf("opcode:%lx\r\n", opcode);
    return opcode;
}
   145d0:	853e                	mv	a0,a5
   145d2:	8082                	ret
F:\git\MCU-CH573\Debug/srcc/gec.c:33
        user_addr = (uint32_t)SW_Handler;
   145d4:	ffffe817          	auipc	a6,0xffffe
   145d8:	acc80813          	addi	a6,a6,-1332 # 120a0 <SW_Handler>
F:\git\MCU-CH573\Debug/srcc/gec.c:34
        bios_addr = (uint32_t)component_fun[29];
   145dc:	1fff2797          	auipc	a5,0x1fff2
   145e0:	74478793          	addi	a5,a5,1860 # 20006d20 <component_fun>
   145e4:	439c                	lw	a5,0(a5)
   145e6:	5bf0                	lw	a2,116(a5)
F:\git\MCU-CH573\Debug/srcc/gec.c:35
        user_opc = ((uint32_t *)user)[SWI_IRQn+1];
   145e8:	5dd8                	lw	a4,60(a1)
   145ea:	bf59                	j	14580 <IRQ_OPC_CHANGE+0x42>
F:\git\MCU-CH573\Debug/srcc/gec.c:50 (discriminator 1)
    if((user_opc&0x80000000)) return ((uint32_t *)user)[IRQ_NUM+1];         
   145ec:	0505                	addi	a0,a0,1
   145ee:	050a                	slli	a0,a0,0x2
   145f0:	952e                	add	a0,a0,a1
   145f2:	411c                	lw	a5,0(a0)
   145f4:	bff1                	j	145d0 <IRQ_OPC_CHANGE+0x92>

000145f6 <Vectors_Init>:
Vectors_Init():
F:\git\MCU-CH573\Debug/srcc/gec.c:72
//参数说明：无
//功能概要：User对BIOS中断向量表的部分继承,构件库函数指针初始化
//修改信息：WYH，20200805，规范
//======================================================================
void  Vectors_Init()
{
   145f6:	716d                	addi	sp,sp,-272
   145f8:	10112623          	sw	ra,268(sp)
F:\git\MCU-CH573\Debug/srcc/gec.c:82
    // {
    //     flash_write_physical((MCU_SECTOR_NUM-1)*MCU_SECTORSIZE+
    //     MCU_FLASH_ADDR_START,24,(uint8_t *)"0123456789ABCDEF20200716");
    // }
    //（1）给component_fun赋值，SYSTEM_FUNCTION函数用
    component_fun=(void **)(MCU_FLASH_ADDR_START+GEC_COMPONENT_LST_START*MCU_SECTORSIZE);
   145fc:	67c1                	lui	a5,0x10
   145fe:	1fff2717          	auipc	a4,0x1fff2
   14602:	72f72123          	sw	a5,1826(a4) # 20006d20 <component_fun>
F:\git\MCU-CH573\Debug/srcc/gec.c:87
    
    uint8_t user[MCU_SECTORSIZE/16];                    //User向量表变量数组
    uint32_t opcode;
    //（2.1）读取User程序的中断向量表各中断处理程序首地址赋并给user数组
    flash_read_logic(user,GEC_USER_SECTOR_START,0,MCU_SECTORSIZE/16);
   14606:	10000693          	li	a3,256
   1460a:	4601                	li	a2,0
   1460c:	45c9                	li	a1,18
   1460e:	850a                	mv	a0,sp
   14610:	fffff097          	auipc	ra,0xfffff
   14614:	6d2080e7          	jalr	1746(ra) # 13ce2 <flash_read_logic>
F:\git\MCU-CH573\Debug/srcc/gec.c:89
    // （2.2）读取User程序的中断向量表各中断处理程序首地址赋并给user数组
    flash_erase(GEC_USER_SECTOR_START);
   14618:	4549                	li	a0,18
   1461a:	fffff097          	auipc	ra,0xfffff
   1461e:	67a080e7          	jalr	1658(ra) # 13c94 <flash_erase>
F:\git\MCU-CH573\Debug/srcc/gec.c:92
    //重定向 UART1_IRQHandler
    // user[112]=(uint8_t)(0x6f); user[113]=(uint8_t)(0x40); user[114]=(uint8_t)(0xaf); user[115]=(uint8_t)(0x8a);
    opcode = IRQ_OPC_CHANGE(UART1_IRQn, user);
   14622:	858a                	mv	a1,sp
   14624:	456d                	li	a0,27
   14626:	00000097          	auipc	ra,0x0
   1462a:	f18080e7          	jalr	-232(ra) # 1453e <IRQ_OPC_CHANGE>
F:\git\MCU-CH573\Debug/srcc/gec.c:93
    ((uint32_t *)user)[UART1_IRQn+1] = opcode;
   1462e:	d8aa                	sw	a0,112(sp)
F:\git\MCU-CH573\Debug/srcc/gec.c:97
    #if (RTThread_Start == 0)
        //重定向 SW_Handler
        // user[60]=(uint8_t)(0x6f); user[61]=(uint8_t)(0x40); user[62]=(uint8_t)(0x0f); user[63]=(uint8_t)(0xdb);
        opcode = IRQ_OPC_CHANGE(SWI_IRQn, user);
   14630:	858a                	mv	a1,sp
   14632:	4539                	li	a0,14
   14634:	00000097          	auipc	ra,0x0
   14638:	f0a080e7          	jalr	-246(ra) # 1453e <IRQ_OPC_CHANGE>
F:\git\MCU-CH573\Debug/srcc/gec.c:98
        ((uint32_t *)user)[SWI_IRQn+1] = opcode;
   1463c:	de2a                	sw	a0,60(sp)
F:\git\MCU-CH573\Debug/srcc/gec.c:101
        //重定向 SysTickHandler
        // user[52]=(uint8_t)(0x6f); user[53]=(uint8_t)(0x40); user[54]=(uint8_t)(0x0f); user[55]=(uint8_t)(0x86);
        opcode = IRQ_OPC_CHANGE(SysTick_IRQn, user);
   1463e:	858a                	mv	a1,sp
   14640:	4531                	li	a0,12
   14642:	00000097          	auipc	ra,0x0
   14646:	efc080e7          	jalr	-260(ra) # 1453e <IRQ_OPC_CHANGE>
F:\git\MCU-CH573\Debug/srcc/gec.c:102
        ((uint32_t *)user)[SysTick_IRQn+1] = opcode;
   1464a:	da2a                	sw	a0,52(sp)
F:\git\MCU-CH573\Debug/srcc/gec.c:105
    #endif
    //（2.3）将修改后的user数组写回User中断向量表
    flash_write(GEC_USER_SECTOR_START,0,MCU_SECTORSIZE/16,user);
   1464c:	868a                	mv	a3,sp
   1464e:	10000613          	li	a2,256
   14652:	4581                	li	a1,0
   14654:	4549                	li	a0,18
   14656:	fffff097          	auipc	ra,0xfffff
   1465a:	6b2080e7          	jalr	1714(ra) # 13d08 <flash_write>
F:\git\MCU-CH573\Debug/srcc/gec.c:108

    //（4）printf提示
    printf("  【User提示】：将进入User的main函数执行...\r\n\n");
   1465e:	00003517          	auipc	a0,0x3
   14662:	1d650513          	addi	a0,a0,470 # 17834 <strlen+0x170>
   14666:	00001097          	auipc	ra,0x1
   1466a:	22e080e7          	jalr	558(ra) # 15894 <myprintf>
F:\git\MCU-CH573\Debug/srcc/gec.c:111

    // #endif
}
   1466e:	10c12083          	lw	ra,268(sp)
   14672:	6151                	addi	sp,sp,272
   14674:	8082                	ret

00014676 <uart_init>:
uart_init():
F:\git\MCU-CH573\Debug/srcc/uart.c:31
void uart_init(uint8_t uartNo, uint32_t baud_rate)
{
    uint32_t x;

//    SetSysClock( CLK_SOURCE_PLL_60MHz );
    switch (uartNo)
   14676:	4805                	li	a6,1
   14678:	09050e63          	beq	a0,a6,14714 <uart_init+0x9e>
   1467c:	01851813          	slli	a6,a0,0x18
   14680:	41885813          	srai	a6,a6,0x18
   14684:	00080963          	beqz	a6,14696 <uart_init+0x20>
   14688:	4809                	li	a6,2
   1468a:	11050663          	beq	a0,a6,14796 <uart_init+0x120>
   1468e:	480d                	li	a6,3
   14690:	19050863          	beq	a0,a6,14820 <uart_init+0x1aa>
   14694:	8082                	ret
F:\git\MCU-CH573\Debug/srcc/uart.c:40
            //
            switch (UART0_GROUP)
            {
                case 0:

                   R32_PB_OUT |= ((uint32_t)(bTXD0));
   14696:	400017b7          	lui	a5,0x40001
   1469a:	0c87a703          	lw	a4,200(a5) # 400010c8 <_eusrstack+0x1fff90c8>
   1469e:	08076713          	ori	a4,a4,128
   146a2:	0ce7a423          	sw	a4,200(a5)
F:\git\MCU-CH573\Debug/srcc/uart.c:42
                   //PB4->RX
                   R32_PB_PD_DRV &= ~((uint32_t)(bRXD0));
   146a6:	0d47a703          	lw	a4,212(a5)
   146aa:	9b3d                	andi	a4,a4,-17
   146ac:	0ce7aa23          	sw	a4,212(a5)
F:\git\MCU-CH573\Debug/srcc/uart.c:43
                   R32_PB_PU     |= ((uint32_t)(bRXD0));
   146b0:	0d07a703          	lw	a4,208(a5)
   146b4:	01076713          	ori	a4,a4,16
   146b8:	0ce7a823          	sw	a4,208(a5)
F:\git\MCU-CH573\Debug/srcc/uart.c:44
                   R32_PB_DIR    &= ~((uint32_t)(bRXD0));
   146bc:	0c07a703          	lw	a4,192(a5)
   146c0:	9b3d                	andi	a4,a4,-17
   146c2:	0ce7a023          	sw	a4,192(a5)
F:\git\MCU-CH573\Debug/srcc/uart.c:46
                   //PB7->TX
                   R32_PB_PD_DRV &= ~((uint32_t)(bTXD0));
   146c6:	0d47a703          	lw	a4,212(a5)
   146ca:	f7f77713          	andi	a4,a4,-129
   146ce:	0ce7aa23          	sw	a4,212(a5)
F:\git\MCU-CH573\Debug/srcc/uart.c:47
                   R32_PB_DIR    |= ((uint32_t)(bTXD0));
   146d2:	0c07a703          	lw	a4,192(a5)
   146d6:	08076713          	ori	a4,a4,128
   146da:	0ce7a023          	sw	a4,192(a5)
F:\git\MCU-CH573\Debug/srcc/uart.c:50

//                   R8_UART0_FCR = (2<<6) | RB_FCR_TX_FIFO_CLR | RB_FCR_RX_FIFO_CLR | RB_FCR_FIFO_EN;     // FIFO打开，触发点4字节
                   R8_UART0_LCR = RB_LCR_WORD_SZ;
   146de:	40003737          	lui	a4,0x40003
   146e2:	478d                	li	a5,3
   146e4:	00f701a3          	sb	a5,3(a4) # 40003003 <_eusrstack+0x1fffb003>
F:\git\MCU-CH573\Debug/srcc/uart.c:51
                   R8_UART0_IER = RB_IER_TXD_EN;
   146e8:	04000793          	li	a5,64
   146ec:	00f700a3          	sb	a5,1(a4)
F:\git\MCU-CH573\Debug/srcc/uart.c:52
                   R8_UART0_DIV = 1;
   146f0:	4785                	li	a5,1
   146f2:	00f70723          	sb	a5,14(a4)
F:\git\MCU-CH573\Debug/srcc/uart.c:55

                   //配置波特率115200
                   x = 10 * (480000000/(0x08)) / 8 / baud_rate;
   146f6:	04787637          	lui	a2,0x4787
   146fa:	8c060613          	addi	a2,a2,-1856 # 47868c0 <_data_lma+0x476ee00>
   146fe:	02b657b3          	divu	a5,a2,a1
F:\git\MCU-CH573\Debug/srcc/uart.c:56
                   x = (x + 5) / 10;
   14702:	0795                	addi	a5,a5,5
   14704:	4629                	li	a2,10
   14706:	02c7d7b3          	divu	a5,a5,a2
F:\git\MCU-CH573\Debug/srcc/uart.c:57
                   R16_UART0_DL = (uint16_t)x;
   1470a:	07c2                	slli	a5,a5,0x10
   1470c:	83c1                	srli	a5,a5,0x10
   1470e:	00f71623          	sh	a5,12(a4)
F:\git\MCU-CH573\Debug/srcc/uart.c:86
                  break;
                default:
                    break;
            }
#endif
            break;
   14712:	8082                	ret
F:\git\MCU-CH573\Debug/srcc/uart.c:93
#ifdef UART1_GROUP
            //
            switch (UART1_GROUP) {
                case 0:

                    R32_PA_OUT |= ((uint32_t)(bTXD1));
   14714:	400017b7          	lui	a5,0x40001
   14718:	0a87a703          	lw	a4,168(a5) # 400010a8 <_eusrstack+0x1fff90a8>
   1471c:	20076713          	ori	a4,a4,512
   14720:	0ae7a423          	sw	a4,168(a5)
F:\git\MCU-CH573\Debug/srcc/uart.c:95
                    //PA8->RX
                    R32_PA_PD_DRV &= ~((uint32_t)(bRXD1));
   14724:	0b47a703          	lw	a4,180(a5)
   14728:	eff77713          	andi	a4,a4,-257
   1472c:	0ae7aa23          	sw	a4,180(a5)
F:\git\MCU-CH573\Debug/srcc/uart.c:96
                    R32_PA_PU     |= ((uint32_t)(bRXD1));
   14730:	0b07a703          	lw	a4,176(a5)
   14734:	10076713          	ori	a4,a4,256
   14738:	0ae7a823          	sw	a4,176(a5)
F:\git\MCU-CH573\Debug/srcc/uart.c:97
                    R32_PA_DIR    &= ~((uint32_t)(bRXD1));
   1473c:	0a07a703          	lw	a4,160(a5)
   14740:	eff77713          	andi	a4,a4,-257
   14744:	0ae7a023          	sw	a4,160(a5)
F:\git\MCU-CH573\Debug/srcc/uart.c:100

                    //PA9->TX
                    R32_PA_PD_DRV &= ~((uint32_t)(bTXD1));
   14748:	0b47a703          	lw	a4,180(a5)
   1474c:	dff77713          	andi	a4,a4,-513
   14750:	0ae7aa23          	sw	a4,180(a5)
F:\git\MCU-CH573\Debug/srcc/uart.c:101
                    R32_PA_DIR    |= ((uint32_t)(bTXD1));
   14754:	0a07a703          	lw	a4,160(a5)
   14758:	20076713          	ori	a4,a4,512
   1475c:	0ae7a023          	sw	a4,160(a5)
F:\git\MCU-CH573\Debug/srcc/uart.c:104

//                    R8_UART1_FCR = (2<<6) | RB_FCR_TX_FIFO_CLR | RB_FCR_RX_FIFO_CLR | RB_FCR_FIFO_EN;       // FIFO打开，触发点4字节
                    R8_UART1_LCR = RB_LCR_WORD_SZ;
   14760:	40003737          	lui	a4,0x40003
   14764:	478d                	li	a5,3
   14766:	40f701a3          	sb	a5,1027(a4) # 40003403 <_eusrstack+0x1fffb403>
F:\git\MCU-CH573\Debug/srcc/uart.c:105
                    R8_UART1_IER = RB_IER_TXD_EN;
   1476a:	04000793          	li	a5,64
   1476e:	40f700a3          	sb	a5,1025(a4)
F:\git\MCU-CH573\Debug/srcc/uart.c:106
                    R8_UART1_DIV = 1;
   14772:	4785                	li	a5,1
   14774:	40f70723          	sb	a5,1038(a4)
F:\git\MCU-CH573\Debug/srcc/uart.c:109

                    //配置波特率115200
                    x = 10 * (480000000/(0x08)) / 8 / baud_rate;
   14778:	047876b7          	lui	a3,0x4787
   1477c:	8c068693          	addi	a3,a3,-1856 # 47868c0 <_data_lma+0x476ee00>
   14780:	02b6d7b3          	divu	a5,a3,a1
F:\git\MCU-CH573\Debug/srcc/uart.c:110
                    x = (x + 5) / 10;
   14784:	0795                	addi	a5,a5,5
   14786:	46a9                	li	a3,10
   14788:	02d7d7b3          	divu	a5,a5,a3
F:\git\MCU-CH573\Debug/srcc/uart.c:111
                    R16_UART1_DL = (uint16_t)x;
   1478c:	07c2                	slli	a5,a5,0x10
   1478e:	83c1                	srli	a5,a5,0x10
   14790:	40f71623          	sh	a5,1036(a4)
F:\git\MCU-CH573\Debug/srcc/uart.c:140
                    break;
                default:
                    break;
            }
#endif
            break;
   14794:	8082                	ret
F:\git\MCU-CH573\Debug/srcc/uart.c:143
        case UART_2:

              R32_PB_OUT |= ((uint32_t)(bTXD2));
   14796:	400017b7          	lui	a5,0x40001
   1479a:	0c87a683          	lw	a3,200(a5) # 400010c8 <_eusrstack+0x1fff90c8>
   1479e:	00800537          	lui	a0,0x800
   147a2:	8ec9                	or	a3,a3,a0
   147a4:	0cd7a423          	sw	a3,200(a5)
F:\git\MCU-CH573\Debug/srcc/uart.c:145
              //PB22->RX
              R32_PB_PD_DRV &= ~((uint32_t)(bRXD2));
   147a8:	0d47a683          	lw	a3,212(a5)
   147ac:	ffc00737          	lui	a4,0xffc00
   147b0:	177d                	addi	a4,a4,-1
   147b2:	8ef9                	and	a3,a3,a4
   147b4:	0cd7aa23          	sw	a3,212(a5)
F:\git\MCU-CH573\Debug/srcc/uart.c:146
              R32_PB_PU     |= ((uint32_t)(bRXD2));
   147b8:	0d07a683          	lw	a3,208(a5)
   147bc:	00400637          	lui	a2,0x400
   147c0:	8ed1                	or	a3,a3,a2
   147c2:	0cd7a823          	sw	a3,208(a5)
F:\git\MCU-CH573\Debug/srcc/uart.c:147
              R32_PB_DIR    &= ~((uint32_t)(bRXD2));
   147c6:	0c07a683          	lw	a3,192(a5)
   147ca:	8f75                	and	a4,a4,a3
   147cc:	0ce7a023          	sw	a4,192(a5)
F:\git\MCU-CH573\Debug/srcc/uart.c:149
              //PB23->TX
              R32_PB_PD_DRV &= ~((uint32_t)(bTXD2));
   147d0:	0d47a683          	lw	a3,212(a5)
   147d4:	ff800637          	lui	a2,0xff800
   147d8:	167d                	addi	a2,a2,-1
   147da:	8ef1                	and	a3,a3,a2
   147dc:	0cd7aa23          	sw	a3,212(a5)
F:\git\MCU-CH573\Debug/srcc/uart.c:150
              R32_PB_DIR    |= ((uint32_t)(bTXD2));
   147e0:	0c07a703          	lw	a4,192(a5)
   147e4:	8f49                	or	a4,a4,a0
   147e6:	0ce7a023          	sw	a4,192(a5)
F:\git\MCU-CH573\Debug/srcc/uart.c:153

//              R8_UART2_FCR = (2<<6) | RB_FCR_TX_FIFO_CLR | RB_FCR_RX_FIFO_CLR | RB_FCR_FIFO_EN;      // FIFO打开，触发点4字节
              R8_UART2_LCR = RB_LCR_WORD_SZ;
   147ea:	400046b7          	lui	a3,0x40004
   147ee:	478d                	li	a5,3
   147f0:	80f681a3          	sb	a5,-2045(a3) # 40003803 <_eusrstack+0x1fffb803>
F:\git\MCU-CH573\Debug/srcc/uart.c:154
              R8_UART2_IER = RB_IER_TXD_EN;
   147f4:	04000793          	li	a5,64
   147f8:	80f680a3          	sb	a5,-2047(a3)
F:\git\MCU-CH573\Debug/srcc/uart.c:155
              R8_UART2_DIV = 1;
   147fc:	4785                	li	a5,1
   147fe:	80f68723          	sb	a5,-2034(a3)
F:\git\MCU-CH573\Debug/srcc/uart.c:158

              //配置波特率115200
              x = 10 * (480000000/(0x08)) / 8 / baud_rate;
   14802:	04787737          	lui	a4,0x4787
   14806:	8c070713          	addi	a4,a4,-1856 # 47868c0 <_data_lma+0x476ee00>
   1480a:	02b757b3          	divu	a5,a4,a1
F:\git\MCU-CH573\Debug/srcc/uart.c:159
              x = (x + 5) / 10;
   1480e:	0795                	addi	a5,a5,5
   14810:	4729                	li	a4,10
   14812:	02e7d7b3          	divu	a5,a5,a4
F:\git\MCU-CH573\Debug/srcc/uart.c:160
              R16_UART2_DL = (uint16_t)x;
   14816:	07c2                	slli	a5,a5,0x10
   14818:	83c1                	srli	a5,a5,0x10
   1481a:	80f69623          	sh	a5,-2036(a3)
F:\git\MCU-CH573\Debug/srcc/uart.c:161
              break;
   1481e:	8082                	ret
F:\git\MCU-CH573\Debug/srcc/uart.c:164
        case UART_3:

                R32_PA_OUT |= ((uint32_t)(bTXD3));
   14820:	400017b7          	lui	a5,0x40001
   14824:	0a87a703          	lw	a4,168(a5) # 400010a8 <_eusrstack+0x1fff90a8>
   14828:	02076713          	ori	a4,a4,32
   1482c:	0ae7a423          	sw	a4,168(a5)
F:\git\MCU-CH573\Debug/srcc/uart.c:166
                //PA4->RX
                R32_PA_PD_DRV &= ~((uint32_t)(bRXD3));
   14830:	0b47a703          	lw	a4,180(a5)
   14834:	9b3d                	andi	a4,a4,-17
   14836:	0ae7aa23          	sw	a4,180(a5)
F:\git\MCU-CH573\Debug/srcc/uart.c:167
                R32_PA_PU     |= ((uint32_t)(bRXD3));
   1483a:	0b07a703          	lw	a4,176(a5)
   1483e:	01076713          	ori	a4,a4,16
   14842:	0ae7a823          	sw	a4,176(a5)
F:\git\MCU-CH573\Debug/srcc/uart.c:168
                R32_PA_DIR    &= ~((uint32_t)(bRXD3));
   14846:	0a07a703          	lw	a4,160(a5)
   1484a:	9b3d                	andi	a4,a4,-17
   1484c:	0ae7a023          	sw	a4,160(a5)
F:\git\MCU-CH573\Debug/srcc/uart.c:170
                //PA5->TX
                R32_PA_PD_DRV &= ~((uint32_t)(bTXD3));
   14850:	0b47a703          	lw	a4,180(a5)
   14854:	fdf77713          	andi	a4,a4,-33
   14858:	0ae7aa23          	sw	a4,180(a5)
F:\git\MCU-CH573\Debug/srcc/uart.c:171
                R32_PA_DIR    |= ((uint32_t)(bTXD3));
   1485c:	0a07a703          	lw	a4,160(a5)
   14860:	02076713          	ori	a4,a4,32
   14864:	0ae7a023          	sw	a4,160(a5)
F:\git\MCU-CH573\Debug/srcc/uart.c:174

//                R8_UART3_FCR = (2<<6) | RB_FCR_TX_FIFO_CLR | RB_FCR_RX_FIFO_CLR | RB_FCR_FIFO_EN;       // FIFO打开，触发点4字节
                R8_UART3_LCR = RB_LCR_WORD_SZ;
   14868:	40004737          	lui	a4,0x40004
   1486c:	478d                	li	a5,3
   1486e:	c0f701a3          	sb	a5,-1021(a4) # 40003c03 <_eusrstack+0x1fffbc03>
F:\git\MCU-CH573\Debug/srcc/uart.c:175
                R8_UART3_IER = RB_IER_TXD_EN;
   14872:	04000793          	li	a5,64
   14876:	c0f700a3          	sb	a5,-1023(a4)
F:\git\MCU-CH573\Debug/srcc/uart.c:176
                R8_UART3_DIV = 1;
   1487a:	4785                	li	a5,1
   1487c:	c0f70723          	sb	a5,-1010(a4)
F:\git\MCU-CH573\Debug/srcc/uart.c:179

               //配置波特率115200
                x = 10 * (480000000/(0x08)) / 8 / baud_rate;
   14880:	047877b7          	lui	a5,0x4787
   14884:	8c078793          	addi	a5,a5,-1856 # 47868c0 <_data_lma+0x476ee00>
   14888:	02b7d7b3          	divu	a5,a5,a1
F:\git\MCU-CH573\Debug/srcc/uart.c:180
                x = (x + 5) / 10;
   1488c:	0795                	addi	a5,a5,5
   1488e:	46a9                	li	a3,10
   14890:	02d7d7b3          	divu	a5,a5,a3
F:\git\MCU-CH573\Debug/srcc/uart.c:181
                R16_UART3_DL = (uint16_t)x;
   14894:	07c2                	slli	a5,a5,0x10
   14896:	83c1                	srli	a5,a5,0x10
   14898:	c0f71623          	sh	a5,-1012(a4)
F:\git\MCU-CH573\Debug/srcc/uart.c:187
                break;
        default:
            break;
    }

}
   1489c:	8082                	ret

0001489e <uart_send1>:
uart_send1():
F:\git\MCU-CH573\Debug/srcc/uart.c:201
uint8_t uart_send1(uint8_t uartNo,uint8_t ch)
{
  uint32_t t;

    //判断传入串口号参数是否有误，有误直接退出
    if(uart_is_uartNo(uartNo)==0)
   1489e:	470d                	li	a4,3
   148a0:	10a76463          	bltu	a4,a0,149a8 <uart_send1+0x10a>
F:\git\MCU-CH573\Debug/srcc/uart.c:206
    {
        return 0;
    }
    //判断UARTx号
    switch (uartNo)
   148a4:	4705                	li	a4,1
   148a6:	06e50863          	beq	a0,a4,14916 <uart_send1+0x78>
   148aa:	01851713          	slli	a4,a0,0x18
   148ae:	8761                	srai	a4,a4,0x18
   148b0:	cb49                	beqz	a4,14942 <uart_send1+0xa4>
   148b2:	4709                	li	a4,2
   148b4:	02e50b63          	beq	a0,a4,148ea <uart_send1+0x4c>
   148b8:	470d                	li	a4,3
   148ba:	0ae51f63          	bne	a0,a4,14978 <uart_send1+0xda>
F:\git\MCU-CH573\Debug/srcc/uart.c:238
          }
            break;
        case 3:
          for (t = 0; t < 0xFBBB; t++)//查询指定次数
          {
            if(R8_UART3_LSR &RB_LSR_TX_FIFO_EMP){
   148be:	400047b7          	lui	a5,0x40004
   148c2:	c057c783          	lbu	a5,-1019(a5) # 40003c05 <_eusrstack+0x1fffbc05>
   148c6:	0207f793          	andi	a5,a5,32
   148ca:	ebe9                	bnez	a5,1499c <uart_send1+0xfe>
F:\git\MCU-CH573\Debug/srcc/uart.c:236
          for (t = 0; t < 0xFBBB; t++)//查询指定次数
   148cc:	4785                	li	a5,1
F:\git\MCU-CH573\Debug/srcc/uart.c:238
            if(R8_UART3_LSR &RB_LSR_TX_FIFO_EMP){
   148ce:	40004637          	lui	a2,0x40004
F:\git\MCU-CH573\Debug/srcc/uart.c:236
          for (t = 0; t < 0xFBBB; t++)//查询指定次数
   148d2:	66c1                	lui	a3,0x10
   148d4:	bbb68693          	addi	a3,a3,-1093 # fbbb <MCU_SECTORSIZE+0xebbb>
F:\git\MCU-CH573\Debug/srcc/uart.c:238
            if(R8_UART3_LSR &RB_LSR_TX_FIFO_EMP){
   148d8:	c0564703          	lbu	a4,-1019(a2) # 40003c05 <_eusrstack+0x1fffbc05>
   148dc:	02077713          	andi	a4,a4,32
   148e0:	ef5d                	bnez	a4,1499e <uart_send1+0x100>
F:\git\MCU-CH573\Debug/srcc/uart.c:236 (discriminator 2)
          for (t = 0; t < 0xFBBB; t++)//查询指定次数
   148e2:	0785                	addi	a5,a5,1
   148e4:	fed79ae3          	bne	a5,a3,148d8 <uart_send1+0x3a>
   148e8:	a841                	j	14978 <uart_send1+0xda>
F:\git\MCU-CH573\Debug/srcc/uart.c:229
            if(R8_UART2_LSR &RB_LSR_TX_FIFO_EMP){
   148ea:	400047b7          	lui	a5,0x40004
   148ee:	8057c783          	lbu	a5,-2043(a5) # 40003805 <_eusrstack+0x1fffb805>
   148f2:	0207f793          	andi	a5,a5,32
   148f6:	efc9                	bnez	a5,14990 <uart_send1+0xf2>
F:\git\MCU-CH573\Debug/srcc/uart.c:227
          for (t = 0; t < 0xFBBB; t++)//查询指定次数
   148f8:	4785                	li	a5,1
F:\git\MCU-CH573\Debug/srcc/uart.c:229
            if(R8_UART2_LSR &RB_LSR_TX_FIFO_EMP){
   148fa:	40004637          	lui	a2,0x40004
F:\git\MCU-CH573\Debug/srcc/uart.c:227
          for (t = 0; t < 0xFBBB; t++)//查询指定次数
   148fe:	66c1                	lui	a3,0x10
   14900:	bbb68693          	addi	a3,a3,-1093 # fbbb <MCU_SECTORSIZE+0xebbb>
F:\git\MCU-CH573\Debug/srcc/uart.c:229
            if(R8_UART2_LSR &RB_LSR_TX_FIFO_EMP){
   14904:	80564703          	lbu	a4,-2043(a2) # 40003805 <_eusrstack+0x1fffb805>
   14908:	02077713          	andi	a4,a4,32
   1490c:	e359                	bnez	a4,14992 <uart_send1+0xf4>
F:\git\MCU-CH573\Debug/srcc/uart.c:227 (discriminator 2)
          for (t = 0; t < 0xFBBB; t++)//查询指定次数
   1490e:	0785                	addi	a5,a5,1
   14910:	fed79ae3          	bne	a5,a3,14904 <uart_send1+0x66>
   14914:	a095                	j	14978 <uart_send1+0xda>
F:\git\MCU-CH573\Debug/srcc/uart.c:220
            if(R8_UART1_LSR &RB_LSR_TX_FIFO_EMP){
   14916:	400037b7          	lui	a5,0x40003
   1491a:	4057c783          	lbu	a5,1029(a5) # 40003405 <_eusrstack+0x1fffb405>
   1491e:	0207f793          	andi	a5,a5,32
   14922:	e3ad                	bnez	a5,14984 <uart_send1+0xe6>
F:\git\MCU-CH573\Debug/srcc/uart.c:218
          for (t = 0; t < 0xFBBB; t++)//查询指定次数
   14924:	4785                	li	a5,1
F:\git\MCU-CH573\Debug/srcc/uart.c:220
            if(R8_UART1_LSR &RB_LSR_TX_FIFO_EMP){
   14926:	40003637          	lui	a2,0x40003
F:\git\MCU-CH573\Debug/srcc/uart.c:218
          for (t = 0; t < 0xFBBB; t++)//查询指定次数
   1492a:	66c1                	lui	a3,0x10
   1492c:	bbb68693          	addi	a3,a3,-1093 # fbbb <MCU_SECTORSIZE+0xebbb>
F:\git\MCU-CH573\Debug/srcc/uart.c:220
            if(R8_UART1_LSR &RB_LSR_TX_FIFO_EMP){
   14930:	40564703          	lbu	a4,1029(a2) # 40003405 <_eusrstack+0x1fffb405>
   14934:	02077713          	andi	a4,a4,32
   14938:	e739                	bnez	a4,14986 <uart_send1+0xe8>
F:\git\MCU-CH573\Debug/srcc/uart.c:218 (discriminator 2)
          for (t = 0; t < 0xFBBB; t++)//查询指定次数
   1493a:	0785                	addi	a5,a5,1
   1493c:	fed79ae3          	bne	a5,a3,14930 <uart_send1+0x92>
   14940:	a825                	j	14978 <uart_send1+0xda>
F:\git\MCU-CH573\Debug/srcc/uart.c:211
            if(R8_UART0_LSR &RB_LSR_TX_FIFO_EMP){
   14942:	400037b7          	lui	a5,0x40003
   14946:	0057c783          	lbu	a5,5(a5) # 40003005 <_eusrstack+0x1fffb005>
   1494a:	0207f793          	andi	a5,a5,32
   1494e:	e385                	bnez	a5,1496e <uart_send1+0xd0>
F:\git\MCU-CH573\Debug/srcc/uart.c:209
          for (t = 0; t < 0xFBBB; t++)//查询指定次数
   14950:	4785                	li	a5,1
F:\git\MCU-CH573\Debug/srcc/uart.c:211
            if(R8_UART0_LSR &RB_LSR_TX_FIFO_EMP){
   14952:	40003637          	lui	a2,0x40003
F:\git\MCU-CH573\Debug/srcc/uart.c:209
          for (t = 0; t < 0xFBBB; t++)//查询指定次数
   14956:	66c1                	lui	a3,0x10
   14958:	bbb68693          	addi	a3,a3,-1093 # fbbb <MCU_SECTORSIZE+0xebbb>
F:\git\MCU-CH573\Debug/srcc/uart.c:211
            if(R8_UART0_LSR &RB_LSR_TX_FIFO_EMP){
   1495c:	00564703          	lbu	a4,5(a2) # 40003005 <_eusrstack+0x1fffb005>
   14960:	02077713          	andi	a4,a4,32
   14964:	e711                	bnez	a4,14970 <uart_send1+0xd2>
F:\git\MCU-CH573\Debug/srcc/uart.c:209 (discriminator 2)
          for (t = 0; t < 0xFBBB; t++)//查询指定次数
   14966:	0785                	addi	a5,a5,1
   14968:	fed79ae3          	bne	a5,a3,1495c <uart_send1+0xbe>
   1496c:	a031                	j	14978 <uart_send1+0xda>
F:\git\MCU-CH573\Debug/srcc/uart.c:209
   1496e:	4781                	li	a5,0
F:\git\MCU-CH573\Debug/srcc/uart.c:212
              R8_UART0_THR = ch;
   14970:	40003737          	lui	a4,0x40003
   14974:	00b70423          	sb	a1,8(a4) # 40003008 <_eusrstack+0x1fffb008>
F:\git\MCU-CH573\Debug/srcc/uart.c:203
        return 0;
   14978:	6541                	lui	a0,0x10
   1497a:	bbb50513          	addi	a0,a0,-1093 # fbbb <MCU_SECTORSIZE+0xebbb>
   1497e:	00a7b533          	sltu	a0,a5,a0
   14982:	8082                	ret
F:\git\MCU-CH573\Debug/srcc/uart.c:218
          for (t = 0; t < 0xFBBB; t++)//查询指定次数
   14984:	4781                	li	a5,0
F:\git\MCU-CH573\Debug/srcc/uart.c:221
              R8_UART1_THR = ch;
   14986:	40003737          	lui	a4,0x40003
   1498a:	40b70423          	sb	a1,1032(a4) # 40003408 <_eusrstack+0x1fffb408>
F:\git\MCU-CH573\Debug/srcc/uart.c:222
              break;
   1498e:	b7ed                	j	14978 <uart_send1+0xda>
F:\git\MCU-CH573\Debug/srcc/uart.c:227
          for (t = 0; t < 0xFBBB; t++)//查询指定次数
   14990:	4781                	li	a5,0
F:\git\MCU-CH573\Debug/srcc/uart.c:230
              R8_UART2_THR = ch;
   14992:	40004737          	lui	a4,0x40004
   14996:	80b70423          	sb	a1,-2040(a4) # 40003808 <_eusrstack+0x1fffb808>
F:\git\MCU-CH573\Debug/srcc/uart.c:231
              break;
   1499a:	bff9                	j	14978 <uart_send1+0xda>
F:\git\MCU-CH573\Debug/srcc/uart.c:236
          for (t = 0; t < 0xFBBB; t++)//查询指定次数
   1499c:	4781                	li	a5,0
F:\git\MCU-CH573\Debug/srcc/uart.c:239
              R8_UART3_THR = ch;
   1499e:	40004737          	lui	a4,0x40004
   149a2:	c0b70423          	sb	a1,-1016(a4) # 40003c08 <_eusrstack+0x1fffbc08>
F:\git\MCU-CH573\Debug/srcc/uart.c:240
              break;
   149a6:	bfc9                	j	14978 <uart_send1+0xda>
F:\git\MCU-CH573\Debug/srcc/uart.c:203
        return 0;
   149a8:	4501                	li	a0,0
F:\git\MCU-CH573\Debug/srcc/uart.c:252

    if (t >= 0xFBBB)
        return 0; //发送超时，发送失败
    else
        return 1; //成功发送
}
   149aa:	8082                	ret

000149ac <uart_sendN>:
uart_sendN():
F:\git\MCU-CH573\Debug/srcc/uart.c:266
//======================================================================
uint8_t uart_sendN(uint8_t uartNo ,uint16_t len ,uint8_t* buff)
{
    uint16_t i;
    //判断串口号参数是否有误，有误直接退出
    if(!uart_is_uartNo(uartNo))
   149ac:	478d                	li	a5,3
   149ae:	12a7ea63          	bltu	a5,a0,14ae2 <uart_sendN+0x136>
F:\git\MCU-CH573\Debug/srcc/uart.c:271
    {
        return 0;
    }

    switch (uartNo)
   149b2:	4785                	li	a5,1
F:\git\MCU-CH573\Debug/srcc/uart.c:289

            break;
        case 1:
            while(len)
            {
               if(R8_UART1_TFC != UART_FIFO_SIZE)
   149b4:	40003737          	lui	a4,0x40003
   149b8:	46a1                	li	a3,8
   149ba:	0af50f63          	beq	a0,a5,14a78 <uart_sendN+0xcc>
   149be:	01851793          	slli	a5,a0,0x18
   149c2:	87e1                	srai	a5,a5,0x18
F:\git\MCU-CH573\Debug/srcc/uart.c:276
                if(R8_UART0_TFC != UART_FIFO_SIZE)
   149c4:	40003737          	lui	a4,0x40003
   149c8:	46a1                	li	a3,8
   149ca:	cbb5                	beqz	a5,14a3e <uart_sendN+0x92>
   149cc:	4789                	li	a5,2
F:\git\MCU-CH573\Debug/srcc/uart.c:302

         break;
        case 2:
            while(len)
            {
                if(R8_UART2_TFC != UART_FIFO_SIZE)
   149ce:	40004737          	lui	a4,0x40004
   149d2:	46a1                	li	a3,8
   149d4:	0ef50163          	beq	a0,a5,14ab6 <uart_sendN+0x10a>
   149d8:	478d                	li	a5,3
   149da:	10f51163          	bne	a0,a5,14adc <uart_sendN+0x130>
F:\git\MCU-CH573\Debug/srcc/uart.c:315

            break;
        case 3:
            while(len)
            {
                if(R8_UART3_TFC != UART_FIFO_SIZE)
   149de:	40004737          	lui	a4,0x40004
   149e2:	46a1                	li	a3,8
F:\git\MCU-CH573\Debug/srcc/uart.c:313
            while(len)
   149e4:	10058563          	beqz	a1,14aee <uart_sendN+0x142>
F:\git\MCU-CH573\Debug/srcc/uart.c:315
                if(R8_UART3_TFC != UART_FIFO_SIZE)
   149e8:	c0b74783          	lbu	a5,-1013(a4) # 40003c0b <_eusrstack+0x1fffbc0b>
   149ec:	0ff7f793          	andi	a5,a5,255
   149f0:	0ed79363          	bne	a5,a3,14ad6 <uart_sendN+0x12a>
   149f4:	c0b74783          	lbu	a5,-1013(a4)
   149f8:	0ff7f793          	andi	a5,a5,255
   149fc:	fed78ce3          	beq	a5,a3,149f4 <uart_sendN+0x48>
   14a00:	0c800793          	li	a5,200
F:\git\MCU-CH573\Debug/srcc/uart.c:317 (discriminator 3)
                {
                    for(int j = 0; j < 200; j++) __asm("nop");
   14a04:	0001                	nop
   14a06:	17fd                	addi	a5,a5,-1
   14a08:	fff5                	bnez	a5,14a04 <uart_sendN+0x58>
F:\git\MCU-CH573\Debug/srcc/uart.c:318
                    R8_UART3_THR = *buff++;
   14a0a:	0605                	addi	a2,a2,1
   14a0c:	fff64783          	lbu	a5,-1(a2)
   14a10:	c0f70423          	sb	a5,-1016(a4)
F:\git\MCU-CH573\Debug/srcc/uart.c:319
                    len--;
   14a14:	fff58513          	addi	a0,a1,-1
   14a18:	01051593          	slli	a1,a0,0x10
   14a1c:	81c1                	srli	a1,a1,0x10
   14a1e:	b7d9                	j	149e4 <uart_sendN+0x38>
F:\git\MCU-CH573\Debug/srcc/uart.c:276
                if(R8_UART0_TFC != UART_FIFO_SIZE)
   14a20:	0c800793          	li	a5,200
F:\git\MCU-CH573\Debug/srcc/uart.c:278 (discriminator 3)
                    for(int j = 0; j < 200; j++) __asm("nop");
   14a24:	0001                	nop
   14a26:	17fd                	addi	a5,a5,-1
   14a28:	fff5                	bnez	a5,14a24 <uart_sendN+0x78>
F:\git\MCU-CH573\Debug/srcc/uart.c:279
                    R8_UART0_THR = *buff++;
   14a2a:	0605                	addi	a2,a2,1
   14a2c:	fff64783          	lbu	a5,-1(a2)
   14a30:	00f70423          	sb	a5,8(a4)
F:\git\MCU-CH573\Debug/srcc/uart.c:280
                    len--;
   14a34:	fff58513          	addi	a0,a1,-1
   14a38:	01051593          	slli	a1,a0,0x10
   14a3c:	81c1                	srli	a1,a1,0x10
F:\git\MCU-CH573\Debug/srcc/uart.c:274
            while(len)
   14a3e:	c5c5                	beqz	a1,14ae6 <uart_sendN+0x13a>
F:\git\MCU-CH573\Debug/srcc/uart.c:276
                if(R8_UART0_TFC != UART_FIFO_SIZE)
   14a40:	00b74783          	lbu	a5,11(a4)
   14a44:	0ff7f793          	andi	a5,a5,255
   14a48:	fcd79ce3          	bne	a5,a3,14a20 <uart_sendN+0x74>
   14a4c:	00b74783          	lbu	a5,11(a4)
   14a50:	0ff7f793          	andi	a5,a5,255
   14a54:	fed78ce3          	beq	a5,a3,14a4c <uart_sendN+0xa0>
   14a58:	0c800793          	li	a5,200
   14a5c:	b7e1                	j	14a24 <uart_sendN+0x78>
F:\git\MCU-CH573\Debug/srcc/uart.c:289
               if(R8_UART1_TFC != UART_FIFO_SIZE)
   14a5e:	0c800793          	li	a5,200
F:\git\MCU-CH573\Debug/srcc/uart.c:291 (discriminator 3)
                  for(int j = 0; j < 200; j++) __asm("nop");
   14a62:	0001                	nop
   14a64:	17fd                	addi	a5,a5,-1
   14a66:	fff5                	bnez	a5,14a62 <uart_sendN+0xb6>
F:\git\MCU-CH573\Debug/srcc/uart.c:292
                  R8_UART1_THR = *buff++;
   14a68:	0605                	addi	a2,a2,1
   14a6a:	fff64783          	lbu	a5,-1(a2)
   14a6e:	40f70423          	sb	a5,1032(a4)
F:\git\MCU-CH573\Debug/srcc/uart.c:293
                  len--;
   14a72:	15fd                	addi	a1,a1,-1
   14a74:	05c2                	slli	a1,a1,0x10
   14a76:	81c1                	srli	a1,a1,0x10
F:\git\MCU-CH573\Debug/srcc/uart.c:287
            while(len)
   14a78:	cda5                	beqz	a1,14af0 <uart_sendN+0x144>
F:\git\MCU-CH573\Debug/srcc/uart.c:289
               if(R8_UART1_TFC != UART_FIFO_SIZE)
   14a7a:	40b74783          	lbu	a5,1035(a4)
   14a7e:	0ff7f793          	andi	a5,a5,255
   14a82:	fcd79ee3          	bne	a5,a3,14a5e <uart_sendN+0xb2>
   14a86:	40b74783          	lbu	a5,1035(a4)
   14a8a:	0ff7f793          	andi	a5,a5,255
   14a8e:	fed78ce3          	beq	a5,a3,14a86 <uart_sendN+0xda>
   14a92:	0c800793          	li	a5,200
   14a96:	b7f1                	j	14a62 <uart_sendN+0xb6>
F:\git\MCU-CH573\Debug/srcc/uart.c:302
                if(R8_UART2_TFC != UART_FIFO_SIZE)
   14a98:	0c800793          	li	a5,200
F:\git\MCU-CH573\Debug/srcc/uart.c:304 (discriminator 3)
                    for(int j = 0; j < 200; j++) __asm("nop");
   14a9c:	0001                	nop
   14a9e:	17fd                	addi	a5,a5,-1
   14aa0:	fff5                	bnez	a5,14a9c <uart_sendN+0xf0>
F:\git\MCU-CH573\Debug/srcc/uart.c:305
                    R8_UART2_THR = *buff++;
   14aa2:	0605                	addi	a2,a2,1
   14aa4:	fff64783          	lbu	a5,-1(a2)
   14aa8:	80f70423          	sb	a5,-2040(a4)
F:\git\MCU-CH573\Debug/srcc/uart.c:306
                    len--;
   14aac:	fff58513          	addi	a0,a1,-1
   14ab0:	01051593          	slli	a1,a0,0x10
   14ab4:	81c1                	srli	a1,a1,0x10
F:\git\MCU-CH573\Debug/srcc/uart.c:300
            while(len)
   14ab6:	c995                	beqz	a1,14aea <uart_sendN+0x13e>
F:\git\MCU-CH573\Debug/srcc/uart.c:302
                if(R8_UART2_TFC != UART_FIFO_SIZE)
   14ab8:	80b74783          	lbu	a5,-2037(a4)
   14abc:	0ff7f793          	andi	a5,a5,255
   14ac0:	fcd79ce3          	bne	a5,a3,14a98 <uart_sendN+0xec>
   14ac4:	80b74783          	lbu	a5,-2037(a4)
   14ac8:	0ff7f793          	andi	a5,a5,255
   14acc:	fed78ce3          	beq	a5,a3,14ac4 <uart_sendN+0x118>
   14ad0:	0c800793          	li	a5,200
   14ad4:	b7e1                	j	14a9c <uart_sendN+0xf0>
F:\git\MCU-CH573\Debug/srcc/uart.c:315
                if(R8_UART3_TFC != UART_FIFO_SIZE)
   14ad6:	0c800793          	li	a5,200
   14ada:	b72d                	j	14a04 <uart_sendN+0x58>
F:\git\MCU-CH573\Debug/srcc/uart.c:268
        return 0;
   14adc:	0015b513          	seqz	a0,a1
   14ae0:	8082                	ret
   14ae2:	4501                	li	a0,0
   14ae4:	8082                	ret
F:\git\MCU-CH573\Debug/srcc/uart.c:283
           return 1;
   14ae6:	4505                	li	a0,1
   14ae8:	8082                	ret
F:\git\MCU-CH573\Debug/srcc/uart.c:309
            return 1;
   14aea:	4505                	li	a0,1
   14aec:	8082                	ret
F:\git\MCU-CH573\Debug/srcc/uart.c:322
                }
            }
            return 1;
   14aee:	4505                	li	a0,1
F:\git\MCU-CH573\Debug/srcc/uart.c:337
    }
    else
        return 1;  //发送成功


}
   14af0:	8082                	ret

00014af2 <uart_re1>:
uart_re1():
F:\git\MCU-CH573\Debug/srcc/uart.c:428
//======================================================================
uint8_t uart_re1(uint8_t uartNo,uint8_t *fp)
{
    uint8_t dat;
    uint8_t flag;
    switch (uartNo)
   14af2:	4705                	li	a4,1
   14af4:	02e50a63          	beq	a0,a4,14b28 <uart_re1+0x36>
   14af8:	01851713          	slli	a4,a0,0x18
   14afc:	8761                	srai	a4,a4,0x18
   14afe:	cb09                	beqz	a4,14b10 <uart_re1+0x1e>
   14b00:	4709                	li	a4,2
   14b02:	02e50f63          	beq	a0,a4,14b40 <uart_re1+0x4e>
   14b06:	470d                	li	a4,3
   14b08:	04e50863          	beq	a0,a4,14b58 <uart_re1+0x66>
F:\git\MCU-CH573\Debug/srcc/uart.c:454
            break;
        default:
            break;
    }
    return (dat);
}
   14b0c:	853e                	mv	a0,a5
   14b0e:	8082                	ret
F:\git\MCU-CH573\Debug/srcc/uart.c:431
            *fp =1;
   14b10:	4785                	li	a5,1
   14b12:	00f58023          	sb	a5,0(a1)
F:\git\MCU-CH573\Debug/srcc/uart.c:432
            flag = R8_UART0_LSR;
   14b16:	400037b7          	lui	a5,0x40003
   14b1a:	0057c703          	lbu	a4,5(a5) # 40003005 <_eusrstack+0x1fffb005>
F:\git\MCU-CH573\Debug/srcc/uart.c:433
            return R8_UART0_RBR;
   14b1e:	0087c783          	lbu	a5,8(a5)
   14b22:	0ff7f793          	andi	a5,a5,255
   14b26:	b7dd                	j	14b0c <uart_re1+0x1a>
F:\git\MCU-CH573\Debug/srcc/uart.c:436
            *fp =1;
   14b28:	4785                	li	a5,1
   14b2a:	00f58023          	sb	a5,0(a1)
F:\git\MCU-CH573\Debug/srcc/uart.c:437
            flag = R8_UART1_LSR;
   14b2e:	400037b7          	lui	a5,0x40003
   14b32:	4057c703          	lbu	a4,1029(a5) # 40003405 <_eusrstack+0x1fffb405>
F:\git\MCU-CH573\Debug/srcc/uart.c:438
            dat = R8_UART1_RBR;
   14b36:	4087c783          	lbu	a5,1032(a5)
   14b3a:	0ff7f793          	andi	a5,a5,255
F:\git\MCU-CH573\Debug/srcc/uart.c:439
            break;
   14b3e:	b7f9                	j	14b0c <uart_re1+0x1a>
F:\git\MCU-CH573\Debug/srcc/uart.c:441
            *fp =1;
   14b40:	4785                	li	a5,1
   14b42:	00f58023          	sb	a5,0(a1)
F:\git\MCU-CH573\Debug/srcc/uart.c:442
            flag = R8_UART2_LSR;
   14b46:	400047b7          	lui	a5,0x40004
   14b4a:	8057c703          	lbu	a4,-2043(a5) # 40003805 <_eusrstack+0x1fffb805>
F:\git\MCU-CH573\Debug/srcc/uart.c:443
            dat = R8_UART2_RBR;
   14b4e:	8087c783          	lbu	a5,-2040(a5)
   14b52:	0ff7f793          	andi	a5,a5,255
F:\git\MCU-CH573\Debug/srcc/uart.c:444
            break;
   14b56:	bf5d                	j	14b0c <uart_re1+0x1a>
F:\git\MCU-CH573\Debug/srcc/uart.c:446
            *fp =1;
   14b58:	4785                	li	a5,1
   14b5a:	00f58023          	sb	a5,0(a1)
F:\git\MCU-CH573\Debug/srcc/uart.c:447
            flag = R8_UART3_LSR;
   14b5e:	400047b7          	lui	a5,0x40004
   14b62:	c057c703          	lbu	a4,-1019(a5) # 40003c05 <_eusrstack+0x1fffbc05>
F:\git\MCU-CH573\Debug/srcc/uart.c:448
            dat = R8_UART3_RBR;
   14b66:	c087c783          	lbu	a5,-1016(a5)
   14b6a:	0ff7f793          	andi	a5,a5,255
F:\git\MCU-CH573\Debug/srcc/uart.c:449
            break;
   14b6e:	bf79                	j	14b0c <uart_re1+0x1a>

00014b70 <uart_enable_re_int>:
uart_enable_re_int():
F:\git\MCU-CH573\Debug/srcc/uart.c:497
//功能概要：开串口接收中断
//======================================================================
void uart_enable_re_int(uint8_t uartNo)
{
    //判断传入串口号参数是否有误，有误直接退出
    if(!uart_is_uartNo(uartNo))
   14b70:	478d                	li	a5,3
   14b72:	0ca7e163          	bltu	a5,a0,14c34 <uart_enable_re_int+0xc4>
F:\git\MCU-CH573\Debug/srcc/uart.c:502
    {
        return;
    }

    switch (uartNo)
   14b76:	4785                	li	a5,1
   14b78:	04f50263          	beq	a0,a5,14bbc <uart_enable_re_int+0x4c>
   14b7c:	01851793          	slli	a5,a0,0x18
   14b80:	87e1                	srai	a5,a5,0x18
   14b82:	cb81                	beqz	a5,14b92 <uart_enable_re_int+0x22>
   14b84:	4789                	li	a5,2
   14b86:	06f50063          	beq	a0,a5,14be6 <uart_enable_re_int+0x76>
   14b8a:	478d                	li	a5,3
   14b8c:	08f50163          	beq	a0,a5,14c0e <uart_enable_re_int+0x9e>
   14b90:	8082                	ret
F:\git\MCU-CH573\Debug/srcc/uart.c:507
    {
        case 0:
//            R8_UART0_FCR = (R8_UART0_FCR&~RB_FCR_FIFO_TRIG)|(3<<6);
//            R8_UART0_IER |= (RB_IER_RECV_RDY|RB_IER_LINE_STAT);
            R8_UART0_IER |= RB_IER_RECV_RDY;
   14b92:	400037b7          	lui	a5,0x40003
   14b96:	0017c703          	lbu	a4,1(a5) # 40003001 <_eusrstack+0x1fffb001>
   14b9a:	00176713          	ori	a4,a4,1
   14b9e:	00e780a3          	sb	a4,1(a5)
F:\git\MCU-CH573\Debug/srcc/uart.c:508
            R8_UART0_MCR |= RB_MCR_INT_OE;
   14ba2:	0007c703          	lbu	a4,0(a5)
   14ba6:	00876713          	ori	a4,a4,8
   14baa:	00e78023          	sb	a4,0(a5)
PFIC_EnableIRQ():
f:\git\MCU-CH573\02_CPU/core_riscv.h:87
* Description    : Enable Interrupt
* Input          : IRQn: Interrupt Numbers
* Return         : None
*******************************************************************************/
RV_STATIC_INLINE void PFIC_EnableIRQ(IRQn_Type IRQn){
    PFIC->IENR[((UINT32)(IRQn) >> 5)] = (1 << ((UINT32)(IRQn) & 0x1F));
   14bae:	e000e7b7          	lui	a5,0xe000e
   14bb2:	04000737          	lui	a4,0x4000
   14bb6:	10e7a023          	sw	a4,256(a5) # e000e100 <_eusrstack+0xc0006100>
   14bba:	8082                	ret
uart_enable_re_int():
F:\git\MCU-CH573\Debug/srcc/uart.c:515
            break;
        case 1:
//            R8_UART1_FCR = (R8_UART1_FCR&~RB_FCR_FIFO_TRIG)|(3<<6);

//            R8_UART1_IER |= (RB_IER_RECV_RDY|RB_IER_LINE_STAT);
            R8_UART1_IER |= RB_IER_RECV_RDY;
   14bbc:	400037b7          	lui	a5,0x40003
   14bc0:	4017c703          	lbu	a4,1025(a5) # 40003401 <_eusrstack+0x1fffb401>
   14bc4:	00176713          	ori	a4,a4,1
   14bc8:	40e780a3          	sb	a4,1025(a5)
F:\git\MCU-CH573\Debug/srcc/uart.c:516
            R8_UART1_MCR |= RB_MCR_INT_OE;
   14bcc:	4007c703          	lbu	a4,1024(a5)
   14bd0:	00876713          	ori	a4,a4,8
   14bd4:	40e78023          	sb	a4,1024(a5)
PFIC_EnableIRQ():
f:\git\MCU-CH573\02_CPU/core_riscv.h:87
   14bd8:	e000e7b7          	lui	a5,0xe000e
   14bdc:	08000737          	lui	a4,0x8000
   14be0:	10e7a023          	sw	a4,256(a5) # e000e100 <_eusrstack+0xc0006100>
   14be4:	8082                	ret
uart_enable_re_int():
F:\git\MCU-CH573\Debug/srcc/uart.c:521
            PFIC_EnableIRQ( UART1_IRQn );
            break;
        case 2:
//            R8_UART2_IER |= (RB_IER_RECV_RDY|RB_IER_LINE_STAT);
            R8_UART2_IER |= RB_IER_RECV_RDY;
   14be6:	400047b7          	lui	a5,0x40004
   14bea:	8017c703          	lbu	a4,-2047(a5) # 40003801 <_eusrstack+0x1fffb801>
   14bee:	00176713          	ori	a4,a4,1
   14bf2:	80e780a3          	sb	a4,-2047(a5)
F:\git\MCU-CH573\Debug/srcc/uart.c:522
            R8_UART2_MCR |= RB_MCR_INT_OE;
   14bf6:	8007c703          	lbu	a4,-2048(a5)
   14bfa:	00876713          	ori	a4,a4,8
   14bfe:	80e78023          	sb	a4,-2048(a5)
PFIC_EnableIRQ():
f:\git\MCU-CH573\02_CPU/core_riscv.h:87
   14c02:	e000e7b7          	lui	a5,0xe000e
   14c06:	4709                	li	a4,2
   14c08:	10e7a223          	sw	a4,260(a5) # e000e104 <_eusrstack+0xc0006104>
   14c0c:	8082                	ret
uart_enable_re_int():
F:\git\MCU-CH573\Debug/srcc/uart.c:527
            PFIC_EnableIRQ( UART2_IRQn );
            break;
        case 3:
//            R8_UART3_IER |= (RB_IER_RECV_RDY|RB_IER_LINE_STAT);
            R8_UART3_IER |= RB_IER_RECV_RDY;
   14c0e:	400047b7          	lui	a5,0x40004
   14c12:	c017c703          	lbu	a4,-1023(a5) # 40003c01 <_eusrstack+0x1fffbc01>
   14c16:	00176713          	ori	a4,a4,1
   14c1a:	c0e780a3          	sb	a4,-1023(a5)
F:\git\MCU-CH573\Debug/srcc/uart.c:528
            R8_UART3_MCR |= RB_MCR_INT_OE;
   14c1e:	c007c703          	lbu	a4,-1024(a5)
   14c22:	00876713          	ori	a4,a4,8
   14c26:	c0e78023          	sb	a4,-1024(a5)
PFIC_EnableIRQ():
f:\git\MCU-CH573\02_CPU/core_riscv.h:87
   14c2a:	e000e7b7          	lui	a5,0xe000e
   14c2e:	4711                	li	a4,4
   14c30:	10e7a223          	sw	a4,260(a5) # e000e104 <_eusrstack+0xc0006104>
uart_enable_re_int():
F:\git\MCU-CH573\Debug/srcc/uart.c:536

        default:
            break;
    }

}
   14c34:	8082                	ret

00014c36 <emuart_frame>:
emuart_frame():
F:\git\MCU-CH573\Debug/srcc/isr.c:76
    static uint16_t length = 0;
    uint16_t ret_val;
    uint16_t i;
    uint16_t crc;
    // （1）若未接收到数据或者未遇到帧头，则退出并返回0  帧头长度为1个字节
    if (index == 0 && ch != FrameHead)
   14c36:	1fff1797          	auipc	a5,0x1fff1
   14c3a:	b587d783          	lhu	a5,-1192(a5) # 2000578e <index.3215>
   14c3e:	ef91                	bnez	a5,14c5a <emuart_frame+0x24>
F:\git\MCU-CH573\Debug/srcc/isr.c:76 (discriminator 1)
   14c40:	08000793          	li	a5,128
   14c44:	0ef59263          	bne	a1,a5,14d28 <emuart_frame+0xf2>
F:\git\MCU-CH573\Debug/srcc/isr.c:82 (discriminator 1)
    {
        goto uecom_recv_err;
    }
    if (ch == FrameHead) index = 0;
    // （2）正确接收到了帧头，继续执行，将数据存入data数组
    data[(index++)] = ch;
   14c48:	4785                	li	a5,1
   14c4a:	1fff1717          	auipc	a4,0x1fff1
   14c4e:	b4f71223          	sh	a5,-1212(a4) # 2000578e <index.3215>
   14c52:	00b60023          	sb	a1,0(a2)
F:\git\MCU-CH573\Debug/srcc/isr.c:105 (discriminator 1)

        ret_val = length; // 返回有效数据长度
        index=length = 0;             // 令有效数据长度为0
        goto uecom_recv_exit;
    }
    ret_val = 0;
   14c56:	4501                	li	a0,0
   14c58:	8082                	ret
F:\git\MCU-CH573\Debug/srcc/isr.c:80
    if (ch == FrameHead) index = 0;
   14c5a:	08000713          	li	a4,128
   14c5e:	fee585e3          	beq	a1,a4,14c48 <emuart_frame+0x12>
F:\git\MCU-CH573\Debug/srcc/isr.c:82
    data[(index++)] = ch;
   14c62:	00178713          	addi	a4,a5,1
   14c66:	0742                	slli	a4,a4,0x10
   14c68:	8341                	srli	a4,a4,0x10
   14c6a:	1fff1697          	auipc	a3,0x1fff1
   14c6e:	b2e69223          	sh	a4,-1244(a3) # 2000578e <index.3215>
   14c72:	97b2                	add	a5,a5,a2
   14c74:	00b78023          	sb	a1,0(a5)
F:\git\MCU-CH573\Debug/srcc/isr.c:85
    if (index == 2) length = data[1];
   14c78:	4789                	li	a5,2
   14c7a:	00f71a63          	bne	a4,a5,14c8e <emuart_frame+0x58>
F:\git\MCU-CH573\Debug/srcc/isr.c:85 (discriminator 1)
   14c7e:	00164783          	lbu	a5,1(a2)
   14c82:	1fff1717          	auipc	a4,0x1fff1
   14c86:	b0f71723          	sh	a5,-1266(a4) # 20005790 <length.3216>
F:\git\MCU-CH573\Debug/srcc/isr.c:105 (discriminator 1)
    ret_val = 0;
   14c8a:	4501                	li	a0,0
   14c8c:	8082                	ret
F:\git\MCU-CH573\Debug/srcc/isr.c:88
    if (length != 0 && index > length + 4)
   14c8e:	1fff1517          	auipc	a0,0x1fff1
   14c92:	b0255503          	lhu	a0,-1278(a0) # 20005790 <length.3216>
   14c96:	c155                	beqz	a0,14d3a <emuart_frame+0x104>
F:\git\MCU-CH573\Debug/srcc/isr.c:88 (discriminator 1)
   14c98:	00450793          	addi	a5,a0,4
   14c9c:	08e7d463          	bge	a5,a4,14d24 <emuart_frame+0xee>
F:\git\MCU-CH573\Debug/srcc/isr.c:69
{
   14ca0:	1141                	addi	sp,sp,-16
   14ca2:	c606                	sw	ra,12(sp)
   14ca4:	c422                	sw	s0,8(sp)
   14ca6:	8432                	mv	s0,a2
F:\git\MCU-CH573\Debug/srcc/isr.c:91
        crc = crc16((data + 2), length);
   14ca8:	85aa                	mv	a1,a0
   14caa:	00260513          	addi	a0,a2,2
   14cae:	fffff097          	auipc	ra,0xfffff
   14cb2:	126080e7          	jalr	294(ra) # 13dd4 <crc16>
F:\git\MCU-CH573\Debug/srcc/isr.c:93
        if (data[index-1] != FrameTail || (crc >> 8) != data[index - 3] || (crc & 0xff) != data[index - 2]) 
   14cb6:	1fff1617          	auipc	a2,0x1fff1
   14cba:	ad865603          	lhu	a2,-1320(a2) # 2000578e <index.3215>
   14cbe:	00c407b3          	add	a5,s0,a2
   14cc2:	fff7c703          	lbu	a4,-1(a5)
   14cc6:	08100793          	li	a5,129
   14cca:	02f71363          	bne	a4,a5,14cf0 <emuart_frame+0xba>
F:\git\MCU-CH573\Debug/srcc/isr.c:93 (discriminator 1)
   14cce:	00855793          	srli	a5,a0,0x8
   14cd2:	00c40733          	add	a4,s0,a2
   14cd6:	ffd74703          	lbu	a4,-3(a4)
   14cda:	07c2                	slli	a5,a5,0x10
   14cdc:	83c1                	srli	a5,a5,0x10
   14cde:	00f71963          	bne	a4,a5,14cf0 <emuart_frame+0xba>
F:\git\MCU-CH573\Debug/srcc/isr.c:93 (discriminator 2)
   14ce2:	9622                	add	a2,a2,s0
   14ce4:	ffe64783          	lbu	a5,-2(a2)
   14ce8:	0ff57513          	andi	a0,a0,255
   14cec:	00a78f63          	beq	a5,a0,14d0a <emuart_frame+0xd4>
F:\git\MCU-CH573\Debug/srcc/isr.c:112
uecom_recv_exit:

    return ret_val;

uecom_recv_err:
    index = 0;
   14cf0:	1fff1797          	auipc	a5,0x1fff1
   14cf4:	a8079f23          	sh	zero,-1378(a5) # 2000578e <index.3215>
F:\git\MCU-CH573\Debug/srcc/isr.c:113
    length = 0;
   14cf8:	1fff1797          	auipc	a5,0x1fff1
   14cfc:	a8079c23          	sh	zero,-1384(a5) # 20005790 <length.3216>
F:\git\MCU-CH573\Debug/srcc/isr.c:114
    return 0;
   14d00:	4501                	li	a0,0
F:\git\MCU-CH573\Debug/srcc/isr.c:115
}
   14d02:	40b2                	lw	ra,12(sp)
   14d04:	4422                	lw	s0,8(sp)
   14d06:	0141                	addi	sp,sp,16
   14d08:	8082                	ret
F:\git\MCU-CH573\Debug/srcc/isr.c:101
        ret_val = length; // 返回有效数据长度
   14d0a:	1fff1797          	auipc	a5,0x1fff1
   14d0e:	a8678793          	addi	a5,a5,-1402 # 20005790 <length.3216>
   14d12:	0007d503          	lhu	a0,0(a5)
F:\git\MCU-CH573\Debug/srcc/isr.c:102
        index=length = 0;             // 令有效数据长度为0
   14d16:	00079023          	sh	zero,0(a5)
   14d1a:	1fff1797          	auipc	a5,0x1fff1
   14d1e:	a6079a23          	sh	zero,-1420(a5) # 2000578e <index.3215>
F:\git\MCU-CH573\Debug/srcc/isr.c:103
        goto uecom_recv_exit;
   14d22:	b7c5                	j	14d02 <emuart_frame+0xcc>
F:\git\MCU-CH573\Debug/srcc/isr.c:105
    ret_val = 0;
   14d24:	4501                	li	a0,0
   14d26:	8082                	ret
F:\git\MCU-CH573\Debug/srcc/isr.c:112
    index = 0;
   14d28:	1fff1797          	auipc	a5,0x1fff1
   14d2c:	a6079323          	sh	zero,-1434(a5) # 2000578e <index.3215>
F:\git\MCU-CH573\Debug/srcc/isr.c:113
    length = 0;
   14d30:	1fff1797          	auipc	a5,0x1fff1
   14d34:	a6079023          	sh	zero,-1440(a5) # 20005790 <length.3216>
F:\git\MCU-CH573\Debug/srcc/isr.c:114
    return 0;
   14d38:	4501                	li	a0,0
F:\git\MCU-CH573\Debug/srcc/isr.c:115
}
   14d3a:	8082                	ret

00014d3c <UART0_IRQHandler>:
UART0_IRQHandler():
F:\git\MCU-CH573\Debug/srcc/isr.c:22
{
   14d3c:	1141                	addi	sp,sp,-16
F:\git\MCU-CH573\Debug/srcc/isr.c:30
	DISABLE_INTERRUPTS;      //关总中断
   14d3e:	42a1                	li	t0,8
   14d40:	3002b073          	csrc	mstatus,t0
F:\git\MCU-CH573\Debug/srcc/isr.c:33
	ch = uart_re1(UART_User,&flag);
   14d44:	00f10593          	addi	a1,sp,15
   14d48:	4501                	li	a0,0
   14d4a:	00000097          	auipc	ra,0x0
   14d4e:	da8080e7          	jalr	-600(ra) # 14af2 <uart_re1>
F:\git\MCU-CH573\Debug/srcc/isr.c:34
	if(flag)
   14d52:	00f14783          	lbu	a5,15(sp)
   14d56:	cb99                	beqz	a5,14d6c <UART0_IRQHandler+0x30>
F:\git\MCU-CH573\Debug/srcc/isr.c:38
        if (gcRecvLen == 0){
   14d58:	1fff1797          	auipc	a5,0x1fff1
   14d5c:	a347d783          	lhu	a5,-1484(a5) # 2000578c <gcRecvLen.3209>
   14d60:	cf81                	beqz	a5,14d78 <UART0_IRQHandler+0x3c>
F:\git\MCU-CH573\Debug/srcc/isr.c:41
        if(gcRecvLen){
   14d62:	1fff1797          	auipc	a5,0x1fff1
   14d66:	a2a7d783          	lhu	a5,-1494(a5) # 2000578c <gcRecvLen.3209>
   14d6a:	e795                	bnez	a5,14d96 <UART0_IRQHandler+0x5a>
F:\git\MCU-CH573\Debug/srcc/isr.c:47
	ENABLE_INTERRUPTS;       //开总中断
   14d6c:	42a1                	li	t0,8
   14d6e:	3002a073          	csrs	mstatus,t0
F:\git\MCU-CH573\Debug/srcc/isr.c:48
}
   14d72:	0141                	addi	sp,sp,16
   14d74:	30200073          	mret
F:\git\MCU-CH573\Debug/srcc/isr.c:39
            gcRecvLen = emuart_frame(UART_User, ch, (uint8_t *)recv_data);
   14d78:	1fff2617          	auipc	a2,0x1fff2
   14d7c:	e1c60613          	addi	a2,a2,-484 # 20006b94 <recv_data.3208>
   14d80:	85aa                	mv	a1,a0
   14d82:	4501                	li	a0,0
   14d84:	00000097          	auipc	ra,0x0
   14d88:	eb2080e7          	jalr	-334(ra) # 14c36 <emuart_frame>
   14d8c:	1fff1797          	auipc	a5,0x1fff1
   14d90:	a0a79023          	sh	a0,-1536(a5) # 2000578c <gcRecvLen.3209>
   14d94:	b7f9                	j	14d62 <UART0_IRQHandler+0x26>
F:\git\MCU-CH573\Debug/srcc/isr.c:42
            queue_put(recv_data+2,gcRecvLen);
   14d96:	1fff1597          	auipc	a1,0x1fff1
   14d9a:	9f65d583          	lhu	a1,-1546(a1) # 2000578c <gcRecvLen.3209>
   14d9e:	1fff2517          	auipc	a0,0x1fff2
   14da2:	df850513          	addi	a0,a0,-520 # 20006b96 <recv_data.3208+0x2>
   14da6:	fffff097          	auipc	ra,0xfffff
   14daa:	1d2080e7          	jalr	466(ra) # 13f78 <queue_put>
F:\git\MCU-CH573\Debug/srcc/isr.c:43
            gcRecvLen=0;
   14dae:	1fff1797          	auipc	a5,0x1fff1
   14db2:	9c079f23          	sh	zero,-1570(a5) # 2000578c <gcRecvLen.3209>
   14db6:	bf5d                	j	14d6c <UART0_IRQHandler+0x30>

00014db8 <printk_putc>:
printk_putc():
F:\git\MCU-CH573\Debug/srcc/printf.c:28
//功能概要：通过串口打出一个字符
//参数说明：data:数据：通过串口发送的一字节数据
//函数返回：无
//======================================================================
static void printk_putc(int c, int *count, PRINTK_INFO *info)
{
   14db8:	1141                	addi	sp,sp,-16
   14dba:	c606                	sw	ra,12(sp)
   14dbc:	c422                	sw	s0,8(sp)
   14dbe:	842e                	mv	s0,a1
F:\git\MCU-CH573\Debug/srcc/printf.c:29
	switch (info->dest) {
   14dc0:	421c                	lw	a5,0(a2)
   14dc2:	4705                	li	a4,1
   14dc4:	00e78c63          	beq	a5,a4,14ddc <printk_putc+0x24>
   14dc8:	4709                	li	a4,2
   14dca:	00e78e63          	beq	a5,a4,14de6 <printk_putc+0x2e>
F:\git\MCU-CH573\Debug/srcc/printf.c:40
		++(info->loc);
		break;
	default:
		break;
	}
	*count += 1;
   14dce:	401c                	lw	a5,0(s0)
   14dd0:	0785                	addi	a5,a5,1
   14dd2:	c01c                	sw	a5,0(s0)
F:\git\MCU-CH573\Debug/srcc/printf.c:41
}
   14dd4:	40b2                	lw	ra,12(sp)
   14dd6:	4422                	lw	s0,8(sp)
   14dd8:	0141                	addi	sp,sp,16
   14dda:	8082                	ret
F:\git\MCU-CH573\Debug/srcc/printf.c:31
		info->func((char) c);
   14ddc:	425c                	lw	a5,4(a2)
   14dde:	0562                	slli	a0,a0,0x18
   14de0:	8561                	srai	a0,a0,0x18
   14de2:	9782                	jalr	a5
F:\git\MCU-CH573\Debug/srcc/printf.c:32
		break;
   14de4:	b7ed                	j	14dce <printk_putc+0x16>
F:\git\MCU-CH573\Debug/srcc/printf.c:34
		*(info->loc) = (unsigned char) c;
   14de6:	461c                	lw	a5,8(a2)
   14de8:	00a78023          	sb	a0,0(a5)
F:\git\MCU-CH573\Debug/srcc/printf.c:35
		++(info->loc);
   14dec:	461c                	lw	a5,8(a2)
   14dee:	0785                	addi	a5,a5,1
   14df0:	c61c                	sw	a5,8(a2)
F:\git\MCU-CH573\Debug/srcc/printf.c:36
		break;
   14df2:	bff1                	j	14dce <printk_putc+0x16>

00014df4 <printk_mknumstr>:
printk_mknumstr():
F:\git\MCU-CH573\Debug/srcc/printf.c:131
	int nlen;
	char *nstrp;

	nlen = 0;
	nstrp = numstr;
	*nstrp++ = '\0';
   14df4:	00150793          	addi	a5,a0,1
   14df8:	00050023          	sb	zero,0(a0)
F:\git\MCU-CH573\Debug/srcc/printf.c:133

	if (neg) {
   14dfc:	ce1d                	beqz	a2,14e3a <printk_mknumstr+0x46>
F:\git\MCU-CH573\Debug/srcc/printf.c:134
		a = *(int *) nump;
   14dfe:	4198                	lw	a4,0(a1)
F:\git\MCU-CH573\Debug/srcc/printf.c:144
		}
		while (a != 0) {
			b = (int) a / (int) radix;
			c = (int) a - ((int) b * (int) radix);
			if (c < 0) {
				c = ~c + 1 + '0';
   14e00:	03000813          	li	a6,48
F:\git\MCU-CH573\Debug/srcc/printf.c:135
		if (a == 0) {
   14e04:	e315                	bnez	a4,14e28 <printk_mknumstr+0x34>
F:\git\MCU-CH573\Debug/srcc/printf.c:136
			*nstrp = '0';
   14e06:	03000793          	li	a5,48
   14e0a:	00f500a3          	sb	a5,1(a0)
F:\git\MCU-CH573\Debug/srcc/printf.c:137
			++nlen;
   14e0e:	4605                	li	a2,1
F:\git\MCU-CH573\Debug/srcc/printf.c:173
			*nstrp++ = (char) uc;
			++nlen;
		}
	}
	done: return nlen;
}
   14e10:	8532                	mv	a0,a2
   14e12:	8082                	ret
F:\git\MCU-CH573\Debug/srcc/printf.c:144
				c = ~c + 1 + '0';
   14e14:	40e80633          	sub	a2,a6,a4
F:\git\MCU-CH573\Debug/srcc/printf.c:149
			*nstrp++ = (char) c;
   14e18:	0785                	addi	a5,a5,1
   14e1a:	fec78fa3          	sb	a2,-1(a5)
F:\git\MCU-CH573\Debug/srcc/printf.c:150
			++nlen;
   14e1e:	fff78613          	addi	a2,a5,-1
   14e22:	8e09                	sub	a2,a2,a0
F:\git\MCU-CH573\Debug/srcc/printf.c:148
			a = b;
   14e24:	872e                	mv	a4,a1
F:\git\MCU-CH573\Debug/srcc/printf.c:140
		while (a != 0) {
   14e26:	d5ed                	beqz	a1,14e10 <printk_mknumstr+0x1c>
F:\git\MCU-CH573\Debug/srcc/printf.c:141
			b = (int) a / (int) radix;
   14e28:	02d745b3          	div	a1,a4,a3
F:\git\MCU-CH573\Debug/srcc/printf.c:142
			c = (int) a - ((int) b * (int) radix);
   14e2c:	02d76733          	rem	a4,a4,a3
F:\git\MCU-CH573\Debug/srcc/printf.c:146
				c = c + '0';
   14e30:	03070613          	addi	a2,a4,48
F:\git\MCU-CH573\Debug/srcc/printf.c:143
			if (c < 0) {
   14e34:	fe0752e3          	bgez	a4,14e18 <printk_mknumstr+0x24>
   14e38:	bff1                	j	14e14 <printk_mknumstr+0x20>
F:\git\MCU-CH573\Debug/srcc/printf.c:153
		ua = *(unsigned int *) nump;
   14e3a:	4198                	lw	a4,0(a1)
F:\git\MCU-CH573\Debug/srcc/printf.c:160
			ub = (unsigned int) ua / (unsigned int) radix;
   14e3c:	8336                	mv	t1,a3
F:\git\MCU-CH573\Debug/srcc/printf.c:162
			if (uc < 10) {
   14e3e:	48a5                	li	a7,9
F:\git\MCU-CH573\Debug/srcc/printf.c:154
		if (ua == 0) {
   14e40:	e305                	bnez	a4,14e60 <printk_mknumstr+0x6c>
F:\git\MCU-CH573\Debug/srcc/printf.c:155
			*nstrp = '0';
   14e42:	03000793          	li	a5,48
   14e46:	00f500a3          	sb	a5,1(a0)
F:\git\MCU-CH573\Debug/srcc/printf.c:156
			++nlen;
   14e4a:	4605                	li	a2,1
F:\git\MCU-CH573\Debug/srcc/printf.c:157
			goto done;
   14e4c:	b7d1                	j	14e10 <printk_mknumstr+0x1c>
F:\git\MCU-CH573\Debug/srcc/printf.c:168
			*nstrp++ = (char) uc;
   14e4e:	0785                	addi	a5,a5,1
   14e50:	feb78fa3          	sb	a1,-1(a5)
F:\git\MCU-CH573\Debug/srcc/printf.c:169
			++nlen;
   14e54:	fff78613          	addi	a2,a5,-1
   14e58:	8e09                	sub	a2,a2,a0
F:\git\MCU-CH573\Debug/srcc/printf.c:159
		while (ua != 0) {
   14e5a:	fa676be3          	bltu	a4,t1,14e10 <printk_mknumstr+0x1c>
F:\git\MCU-CH573\Debug/srcc/printf.c:167
			ua = ub;
   14e5e:	8742                	mv	a4,a6
F:\git\MCU-CH573\Debug/srcc/printf.c:160
			ub = (unsigned int) ua / (unsigned int) radix;
   14e60:	02d75833          	divu	a6,a4,a3
F:\git\MCU-CH573\Debug/srcc/printf.c:161
			uc = (unsigned int) ua - ((unsigned int) ub * (unsigned int) radix);
   14e64:	02d77633          	remu	a2,a4,a3
F:\git\MCU-CH573\Debug/srcc/printf.c:165
				uc = uc - 10 + 'A';
   14e68:	03760593          	addi	a1,a2,55
F:\git\MCU-CH573\Debug/srcc/printf.c:162
			if (uc < 10) {
   14e6c:	fec8e1e3          	bltu	a7,a2,14e4e <printk_mknumstr+0x5a>
F:\git\MCU-CH573\Debug/srcc/printf.c:163
				uc = uc + '0';
   14e70:	03060593          	addi	a1,a2,48
   14e74:	bfe9                	j	14e4e <printk_mknumstr+0x5a>

00014e76 <printk_pad_space>:
printk_pad_space():
F:\git\MCU-CH573\Debug/srcc/printf.c:186
	}
}

/********************************************************************/
static void printk_pad_space(int curlen, int field_width, int *count,
		PRINTK_INFO *info) {
   14e76:	1101                	addi	sp,sp,-32
   14e78:	ce06                	sw	ra,28(sp)
   14e7a:	cc22                	sw	s0,24(sp)
   14e7c:	ca26                	sw	s1,20(sp)
   14e7e:	c84a                	sw	s2,16(sp)
   14e80:	c64e                	sw	s3,12(sp)
   14e82:	842a                	mv	s0,a0
   14e84:	84ae                	mv	s1,a1
   14e86:	89b2                	mv	s3,a2
   14e88:	8936                	mv	s2,a3
F:\git\MCU-CH573\Debug/srcc/printf.c:189
	int i;

	for (i = curlen; i < field_width; i++) {
   14e8a:	00b55d63          	bge	a0,a1,14ea4 <printk_pad_space+0x2e>
F:\git\MCU-CH573\Debug/srcc/printf.c:190 (discriminator 3)
		printk_putc(' ', count, info);
   14e8e:	864a                	mv	a2,s2
   14e90:	85ce                	mv	a1,s3
   14e92:	02000513          	li	a0,32
   14e96:	00000097          	auipc	ra,0x0
   14e9a:	f22080e7          	jalr	-222(ra) # 14db8 <printk_putc>
F:\git\MCU-CH573\Debug/srcc/printf.c:189 (discriminator 3)
	for (i = curlen; i < field_width; i++) {
   14e9e:	0405                	addi	s0,s0,1
   14ea0:	fe8497e3          	bne	s1,s0,14e8e <printk_pad_space+0x18>
F:\git\MCU-CH573\Debug/srcc/printf.c:192
	}
}
   14ea4:	40f2                	lw	ra,28(sp)
   14ea6:	4462                	lw	s0,24(sp)
   14ea8:	44d2                	lw	s1,20(sp)
   14eaa:	4942                	lw	s2,16(sp)
   14eac:	49b2                	lw	s3,12(sp)
   14eae:	6105                	addi	sp,sp,32
   14eb0:	8082                	ret

00014eb2 <out_char>:
out_char():
F:\git\MCU-CH573\Debug/srcc/printf.c:18
void out_char(char data) {
   14eb2:	1141                	addi	sp,sp,-16
   14eb4:	c606                	sw	ra,12(sp)
F:\git\MCU-CH573\Debug/srcc/printf.c:19
	uart_send1(UART_printf, data);
   14eb6:	0ff57593          	andi	a1,a0,255
   14eba:	4505                	li	a0,1
   14ebc:	00000097          	auipc	ra,0x0
   14ec0:	9e2080e7          	jalr	-1566(ra) # 1489e <uart_send1>
F:\git\MCU-CH573\Debug/srcc/printf.c:20
}
   14ec4:	40b2                	lw	ra,12(sp)
   14ec6:	0141                	addi	sp,sp,16
   14ec8:	8082                	ret

00014eca <printk_mkfloatstr>:
printk_mkfloatstr():
F:\git\MCU-CH573\Debug/srcc/printf.c:50
{
   14eca:	c8010113          	addi	sp,sp,-896
   14ece:	36112e23          	sw	ra,892(sp)
   14ed2:	36812c23          	sw	s0,888(sp)
   14ed6:	36912a23          	sw	s1,884(sp)
   14eda:	37212823          	sw	s2,880(sp)
   14ede:	37312623          	sw	s3,876(sp)
   14ee2:	37412423          	sw	s4,872(sp)
   14ee6:	37512223          	sw	s5,868(sp)
   14eea:	37612023          	sw	s6,864(sp)
   14eee:	35712e23          	sw	s7,860(sp)
   14ef2:	35812c23          	sw	s8,856(sp)
   14ef6:	35912a23          	sw	s9,852(sp)
   14efa:	35a12823          	sw	s10,848(sp)
   14efe:	35b12623          	sw	s11,844(sp)
   14f02:	842a                	mv	s0,a0
   14f04:	8b2e                	mv	s6,a1
   14f06:	8c32                	mv	s8,a2
F:\git\MCU-CH573\Debug/srcc/printf.c:52
	uint32_t i=0,j=0,k=0,a[100]={0},b[100]={0};
   14f08:	19000613          	li	a2,400
   14f0c:	4581                	li	a1,0
   14f0e:	1b08                	addi	a0,sp,432
   14f10:	ffffe097          	auipc	ra,0xffffe
   14f14:	1b0080e7          	jalr	432(ra) # 130c0 <memset>
   14f18:	19000613          	li	a2,400
   14f1c:	4581                	li	a1,0
   14f1e:	1008                	addi	a0,sp,32
   14f20:	ffffe097          	auipc	ra,0xffffe
   14f24:	1a0080e7          	jalr	416(ra) # 130c0 <memset>
F:\git\MCU-CH573\Debug/srcc/printf.c:59
	p=(uint64_t)*f;//整数部分
   14f28:	4044                	lw	s1,4(s0)
   14f2a:	4000                	lw	s0,0(s0)
   14f2c:	8522                	mv	a0,s0
   14f2e:	85a6                	mv	a1,s1
   14f30:	00002097          	auipc	ra,0x2
   14f34:	4ec080e7          	jalr	1260(ra) # 1741c <__fixunsdfdi>
   14f38:	8caa                	mv	s9,a0
   14f3a:	8bae                	mv	s7,a1
   14f3c:	8aaa                	mv	s5,a0
   14f3e:	8a2e                	mv	s4,a1
F:\git\MCU-CH573\Debug/srcc/printf.c:60
	tempf=(*f-p);
   14f40:	00002097          	auipc	ra,0x2
   14f44:	57a080e7          	jalr	1402(ra) # 174ba <__floatundidf>
   14f48:	862a                	mv	a2,a0
   14f4a:	86ae                	mv	a3,a1
   14f4c:	8522                	mv	a0,s0
   14f4e:	85a6                	mv	a1,s1
   14f50:	00002097          	auipc	ra,0x2
   14f54:	c4c080e7          	jalr	-948(ra) # 16b9c <__subdf3>
   14f58:	842a                	mv	s0,a0
   14f5a:	84ae                	mv	s1,a1
F:\git\MCU-CH573\Debug/srcc/printf.c:61
	while(precision_width--)    tempf*=10;
   14f5c:	020c0663          	beqz	s8,14f88 <printk_mkfloatstr+0xbe>
   14f60:	fffc0d13          	addi	s10,s8,-1
   14f64:	00003797          	auipc	a5,0x3
   14f68:	9cc78793          	addi	a5,a5,-1588 # 17930 <strlen+0x26c>
   14f6c:	0007a903          	lw	s2,0(a5)
   14f70:	0047a983          	lw	s3,4(a5)
   14f74:	5dfd                	li	s11,-1
F:\git\MCU-CH573\Debug/srcc/printf.c:61 (discriminator 2)
   14f76:	864a                	mv	a2,s2
   14f78:	86ce                	mv	a3,s3
   14f7a:	00001097          	auipc	ra,0x1
   14f7e:	75a080e7          	jalr	1882(ra) # 166d4 <__muldf3>
   14f82:	1d7d                	addi	s10,s10,-1
   14f84:	ffbd19e3          	bne	s10,s11,14f76 <printk_mkfloatstr+0xac>
F:\git\MCU-CH573\Debug/srcc/printf.c:62
    q=tempf;
   14f88:	00002097          	auipc	ra,0x2
   14f8c:	494080e7          	jalr	1172(ra) # 1741c <__fixunsdfdi>
   14f90:	ce2a                	sw	a0,28(sp)
   14f92:	8dae                	mv	s11,a1
   14f94:	8d2a                	mv	s10,a0
   14f96:	89ae                	mv	s3,a1
F:\git\MCU-CH573\Debug/srcc/printf.c:66
	while(tempf<0.1&&tempf!=0)    //【20201119】-2/3   原为while(m<1)
   14f98:	00003797          	auipc	a5,0x3
   14f9c:	9a078793          	addi	a5,a5,-1632 # 17938 <strlen+0x274>
   14fa0:	4390                	lw	a2,0(a5)
   14fa2:	43d4                	lw	a3,4(a5)
   14fa4:	8522                	mv	a0,s0
   14fa6:	85a6                	mv	a1,s1
   14fa8:	00001097          	auipc	ra,0x1
   14fac:	676080e7          	jalr	1654(ra) # 1661e <__ledf2>
   14fb0:	0e055e63          	bgez	a0,150ac <printk_mkfloatstr+0x1e2>
   14fb4:	4601                	li	a2,0
   14fb6:	4681                	li	a3,0
   14fb8:	8522                	mv	a0,s0
   14fba:	85a6                	mv	a1,s1
   14fbc:	00001097          	auipc	ra,0x1
   14fc0:	5f8080e7          	jalr	1528(ra) # 165b4 <__eqdf2>
F:\git\MCU-CH573\Debug/srcc/printf.c:52
	uint32_t i=0,j=0,k=0,a[100]={0},b[100]={0};
   14fc4:	4901                	li	s2,0
F:\git\MCU-CH573\Debug/srcc/printf.c:66
	while(tempf<0.1&&tempf!=0)    //【20201119】-2/3   原为while(m<1)
   14fc6:	c56d                	beqz	a0,150b0 <printk_mkfloatstr+0x1e6>
F:\git\MCU-CH573\Debug/srcc/printf.c:68
		tempf=tempf*10;
   14fc8:	00003797          	auipc	a5,0x3
   14fcc:	96878793          	addi	a5,a5,-1688 # 17930 <strlen+0x26c>
   14fd0:	0047a803          	lw	a6,4(a5)
   14fd4:	439c                	lw	a5,0(a5)
   14fd6:	c83e                	sw	a5,16(sp)
   14fd8:	ca42                	sw	a6,20(sp)
F:\git\MCU-CH573\Debug/srcc/printf.c:66
	while(tempf<0.1&&tempf!=0)    //【20201119】-2/3   原为while(m<1)
   14fda:	00003797          	auipc	a5,0x3
   14fde:	95e78793          	addi	a5,a5,-1698 # 17938 <strlen+0x274>
   14fe2:	0047a803          	lw	a6,4(a5)
   14fe6:	439c                	lw	a5,0(a5)
   14fe8:	c43e                	sw	a5,8(sp)
   14fea:	c642                	sw	a6,12(sp)
F:\git\MCU-CH573\Debug/srcc/printf.c:68
		tempf=tempf*10;
   14fec:	4642                	lw	a2,16(sp)
   14fee:	46d2                	lw	a3,20(sp)
   14ff0:	8522                	mv	a0,s0
   14ff2:	85a6                	mv	a1,s1
   14ff4:	00001097          	auipc	ra,0x1
   14ff8:	6e0080e7          	jalr	1760(ra) # 166d4 <__muldf3>
   14ffc:	842a                	mv	s0,a0
   14ffe:	84ae                	mv	s1,a1
F:\git\MCU-CH573\Debug/srcc/printf.c:69
		k++;			
   15000:	0905                	addi	s2,s2,1
F:\git\MCU-CH573\Debug/srcc/printf.c:66
	while(tempf<0.1&&tempf!=0)    //【20201119】-2/3   原为while(m<1)
   15002:	4622                	lw	a2,8(sp)
   15004:	46b2                	lw	a3,12(sp)
   15006:	00001097          	auipc	ra,0x1
   1500a:	618080e7          	jalr	1560(ra) # 1661e <__ledf2>
   1500e:	00055b63          	bgez	a0,15024 <printk_mkfloatstr+0x15a>
F:\git\MCU-CH573\Debug/srcc/printf.c:66 (discriminator 1)
   15012:	4601                	li	a2,0
   15014:	4681                	li	a3,0
   15016:	8522                	mv	a0,s0
   15018:	85a6                	mv	a1,s1
   1501a:	00001097          	auipc	ra,0x1
   1501e:	59a080e7          	jalr	1434(ra) # 165b4 <__eqdf2>
   15022:	f569                	bnez	a0,14fec <printk_mkfloatstr+0x122>
F:\git\MCU-CH573\Debug/srcc/printf.c:72
	if(p==0)//整数部分为0
   15024:	019bebb3          	or	s7,s7,s9
   15028:	080b9663          	bnez	s7,150b4 <printk_mkfloatstr+0x1ea>
F:\git\MCU-CH573\Debug/srcc/printf.c:73
		c[i++]='0';
   1502c:	03000793          	li	a5,48
   15030:	00fb0023          	sb	a5,0(s6)
   15034:	4485                	li	s1,1
F:\git\MCU-CH573\Debug/srcc/printf.c:87
	c[i++]='.';   //小数点
   15036:	00148413          	addi	s0,s1,1
   1503a:	009b07b3          	add	a5,s6,s1
   1503e:	02e00713          	li	a4,46
   15042:	00e78023          	sb	a4,0(a5)
F:\git\MCU-CH573\Debug/srcc/printf.c:88
	if(q==0)     //小数部分为0
   15046:	4772                	lw	a4,28(sp)
   15048:	00ededb3          	or	s11,s11,a4
   1504c:	0c0d9a63          	bnez	s11,15120 <printk_mkfloatstr+0x256>
F:\git\MCU-CH573\Debug/srcc/printf.c:89
		while(zeroNum--) c[i++]='0';     //【20201119】-3/3   原为 c[i++]='0';
   15050:	000c0d63          	beqz	s8,1506a <printk_mkfloatstr+0x1a0>
   15054:	018b0733          	add	a4,s6,s8
   15058:	94ba                	add	s1,s1,a4
   1505a:	03000713          	li	a4,48
F:\git\MCU-CH573\Debug/srcc/printf.c:89 (discriminator 2)
   1505e:	00e780a3          	sb	a4,1(a5)
   15062:	0785                	addi	a5,a5,1
   15064:	fef49de3          	bne	s1,a5,1505e <printk_mkfloatstr+0x194>
   15068:	9462                	add	s0,s0,s8
F:\git\MCU-CH573\Debug/srcc/printf.c:109
	c[i]='\0';
   1506a:	9b22                	add	s6,s6,s0
   1506c:	000b0023          	sb	zero,0(s6)
F:\git\MCU-CH573\Debug/srcc/printf.c:111
}
   15070:	8522                	mv	a0,s0
   15072:	37c12083          	lw	ra,892(sp)
   15076:	37812403          	lw	s0,888(sp)
   1507a:	37412483          	lw	s1,884(sp)
   1507e:	37012903          	lw	s2,880(sp)
   15082:	36c12983          	lw	s3,876(sp)
   15086:	36812a03          	lw	s4,872(sp)
   1508a:	36412a83          	lw	s5,868(sp)
   1508e:	36012b03          	lw	s6,864(sp)
   15092:	35c12b83          	lw	s7,860(sp)
   15096:	35812c03          	lw	s8,856(sp)
   1509a:	35412c83          	lw	s9,852(sp)
   1509e:	35012d03          	lw	s10,848(sp)
   150a2:	34c12d83          	lw	s11,844(sp)
   150a6:	38010113          	addi	sp,sp,896
   150aa:	8082                	ret
F:\git\MCU-CH573\Debug/srcc/printf.c:52
	uint32_t i=0,j=0,k=0,a[100]={0},b[100]={0};
   150ac:	4901                	li	s2,0
   150ae:	bf9d                	j	15024 <printk_mkfloatstr+0x15a>
   150b0:	4901                	li	s2,0
   150b2:	bf8d                	j	15024 <printk_mkfloatstr+0x15a>
   150b4:	1b010c93          	addi	s9,sp,432
F:\git\MCU-CH573\Debug/srcc/printf.c:72
	if(p==0)//整数部分为0
   150b8:	8466                	mv	s0,s9
F:\git\MCU-CH573\Debug/srcc/printf.c:52
	uint32_t i=0,j=0,k=0,a[100]={0},b[100]={0};
   150ba:	4b81                	li	s7,0
   150bc:	a021                	j	150c4 <printk_mkfloatstr+0x1fa>
F:\git\MCU-CH573\Debug/srcc/printf.c:79
			p/=10;
   150be:	8aaa                	mv	s5,a0
   150c0:	8a2e                	mv	s4,a1
F:\git\MCU-CH573\Debug/srcc/printf.c:78
			a[j++]=p%10;
   150c2:	8ba6                	mv	s7,s1
   150c4:	001b8493          	addi	s1,s7,1 # 40005001 <_eusrstack+0x1fffd001>
   150c8:	4629                	li	a2,10
   150ca:	4681                	li	a3,0
   150cc:	8556                	mv	a0,s5
   150ce:	85d2                	mv	a1,s4
   150d0:	00001097          	auipc	ra,0x1
   150d4:	b92080e7          	jalr	-1134(ra) # 15c62 <__umoddi3>
   150d8:	c008                	sw	a0,0(s0)
F:\git\MCU-CH573\Debug/srcc/printf.c:79
			p/=10;
   150da:	4629                	li	a2,10
   150dc:	4681                	li	a3,0
   150de:	8556                	mv	a0,s5
   150e0:	85d2                	mv	a1,s4
   150e2:	00000097          	auipc	ra,0x0
   150e6:	7e8080e7          	jalr	2024(ra) # 158ca <__udivdi3>
   150ea:	0411                	addi	s0,s0,4
F:\git\MCU-CH573\Debug/srcc/printf.c:76
		while(p!=0)//倒序的数字
   150ec:	fc0a19e3          	bnez	s4,150be <printk_mkfloatstr+0x1f4>
   150f0:	000a1563          	bnez	s4,150fa <printk_mkfloatstr+0x230>
   150f4:	47a5                	li	a5,9
   150f6:	fd57e4e3          	bltu	a5,s5,150be <printk_mkfloatstr+0x1f4>
F:\git\MCU-CH573\Debug/srcc/printf.c:81
		while(j>0)//将倒序数字转为正序，并转换为对应的字符形式
   150fa:	dc95                	beqz	s1,15036 <printk_mkfloatstr+0x16c>
   150fc:	0b8a                	slli	s7,s7,0x2
   150fe:	1b1c                	addi	a5,sp,432
   15100:	9bbe                	add	s7,s7,a5
   15102:	875a                	mv	a4,s6
   15104:	a011                	j	15108 <printk_mkfloatstr+0x23e>
   15106:	8bbe                	mv	s7,a5
F:\git\MCU-CH573\Debug/srcc/printf.c:83
			c[i++]=a[j-1]+'0';
   15108:	000ba783          	lw	a5,0(s7)
   1510c:	03078793          	addi	a5,a5,48
   15110:	00f70023          	sb	a5,0(a4)
F:\git\MCU-CH573\Debug/srcc/printf.c:84
			j--;
   15114:	ffcb8793          	addi	a5,s7,-4
   15118:	0705                	addi	a4,a4,1
F:\git\MCU-CH573\Debug/srcc/printf.c:81
		while(j>0)//将倒序数字转为正序，并转换为对应的字符形式
   1511a:	ff9b96e3          	bne	s7,s9,15106 <printk_mkfloatstr+0x23c>
   1511e:	bf21                	j	15036 <printk_mkfloatstr+0x16c>
   15120:	02010a13          	addi	s4,sp,32
F:\git\MCU-CH573\Debug/srcc/printf.c:88
	if(q==0)     //小数部分为0
   15124:	8ad2                	mv	s5,s4
F:\git\MCU-CH573\Debug/srcc/printf.c:92
		j=0;
   15126:	4481                	li	s1,0
F:\git\MCU-CH573\Debug/srcc/printf.c:93
		while(q!=0)//倒序的数字
   15128:	4ba5                	li	s7,9
   1512a:	a019                	j	15130 <printk_mkfloatstr+0x266>
F:\git\MCU-CH573\Debug/srcc/printf.c:96
			q/=10;
   1512c:	8d2a                	mv	s10,a0
   1512e:	89ae                	mv	s3,a1
F:\git\MCU-CH573\Debug/srcc/printf.c:95
			b[j++]=q%10;
   15130:	0485                	addi	s1,s1,1
   15132:	4629                	li	a2,10
   15134:	4681                	li	a3,0
   15136:	856a                	mv	a0,s10
   15138:	85ce                	mv	a1,s3
   1513a:	00001097          	auipc	ra,0x1
   1513e:	b28080e7          	jalr	-1240(ra) # 15c62 <__umoddi3>
   15142:	00aaa023          	sw	a0,0(s5)
F:\git\MCU-CH573\Debug/srcc/printf.c:96
			q/=10;
   15146:	4629                	li	a2,10
   15148:	4681                	li	a3,0
   1514a:	856a                	mv	a0,s10
   1514c:	85ce                	mv	a1,s3
   1514e:	00000097          	auipc	ra,0x0
   15152:	77c080e7          	jalr	1916(ra) # 158ca <__udivdi3>
   15156:	0a91                	addi	s5,s5,4
F:\git\MCU-CH573\Debug/srcc/printf.c:93
		while(q!=0)//倒序的数字
   15158:	fc099ae3          	bnez	s3,1512c <printk_mkfloatstr+0x262>
   1515c:	00099463          	bnez	s3,15164 <printk_mkfloatstr+0x29a>
   15160:	fdabe6e3          	bltu	s7,s10,1512c <printk_mkfloatstr+0x262>
F:\git\MCU-CH573\Debug/srcc/printf.c:98
		while(k!=0)
   15164:	00090f63          	beqz	s2,15182 <printk_mkfloatstr+0x2b8>
   15168:	00249793          	slli	a5,s1,0x2
   1516c:	1018                	addi	a4,sp,32
   1516e:	97ba                	add	a5,a5,a4
   15170:	94ca                	add	s1,s1,s2
   15172:	00249713          	slli	a4,s1,0x2
   15176:	9752                	add	a4,a4,s4
F:\git\MCU-CH573\Debug/srcc/printf.c:100
			b[j++]=0;
   15178:	0007a023          	sw	zero,0(a5)
F:\git\MCU-CH573\Debug/srcc/printf.c:101
			k--;
   1517c:	0791                	addi	a5,a5,4
F:\git\MCU-CH573\Debug/srcc/printf.c:98
		while(k!=0)
   1517e:	fee79de3          	bne	a5,a4,15178 <printk_mkfloatstr+0x2ae>
F:\git\MCU-CH573\Debug/srcc/printf.c:103
		while(j>0)//将倒序数字转为正序，并转换为对应的字符形式
   15182:	ee0484e3          	beqz	s1,1506a <printk_mkfloatstr+0x1a0>
   15186:	00249793          	slli	a5,s1,0x2
   1518a:	0698                	addi	a4,sp,832
   1518c:	97ba                	add	a5,a5,a4
   1518e:	cdc78793          	addi	a5,a5,-804
   15192:	008b06b3          	add	a3,s6,s0
   15196:	a011                	j	1519a <printk_mkfloatstr+0x2d0>
   15198:	87ba                	mv	a5,a4
F:\git\MCU-CH573\Debug/srcc/printf.c:105
			c[i++]=b[j-1]+'0';
   1519a:	4398                	lw	a4,0(a5)
   1519c:	03070713          	addi	a4,a4,48
   151a0:	00e68023          	sb	a4,0(a3)
F:\git\MCU-CH573\Debug/srcc/printf.c:106
			j--;
   151a4:	ffc78713          	addi	a4,a5,-4
   151a8:	0685                	addi	a3,a3,1
F:\git\MCU-CH573\Debug/srcc/printf.c:103
		while(j>0)//将倒序数字转为正序，并转换为对应的字符形式
   151aa:	fefa17e3          	bne	s4,a5,15198 <printk_mkfloatstr+0x2ce>
   151ae:	9426                	add	s0,s0,s1
   151b0:	bd6d                	j	1506a <printk_mkfloatstr+0x1a0>

000151b2 <printk>:
printk():
F:\git\MCU-CH573\Debug/srcc/printf.c:202
//       fmt:输出格式信息
//       ap:va_list指针指向格式信息输出
//函数返回：无
//======================================================================
int printk(PRINTK_INFO *info, const char *fmt, char * ap)
{
   151b2:	7175                	addi	sp,sp,-144
   151b4:	c706                	sw	ra,140(sp)
   151b6:	c522                	sw	s0,136(sp)
   151b8:	c326                	sw	s1,132(sp)
   151ba:	c14a                	sw	s2,128(sp)
   151bc:	dece                	sw	s3,124(sp)
   151be:	dcd2                	sw	s4,120(sp)
   151c0:	dad6                	sw	s5,116(sp)
   151c2:	d8da                	sw	s6,112(sp)
   151c4:	d6de                	sw	s7,108(sp)
   151c6:	d4e2                	sw	s8,104(sp)
   151c8:	d2e6                	sw	s9,100(sp)
   151ca:	d0ea                	sw	s10,96(sp)
   151cc:	ceee                	sw	s11,92(sp)
   151ce:	8a2a                	mv	s4,a0
F:\git\MCU-CH573\Debug/srcc/printf.c:226

	}un1;*/
	char *p;
	int c;
	//char temp1;
	char vstr[33]={'0'};
   151d0:	d602                	sw	zero,44(sp)
   151d2:	d802                	sw	zero,48(sp)
   151d4:	da02                	sw	zero,52(sp)
   151d6:	dc02                	sw	zero,56(sp)
   151d8:	de02                	sw	zero,60(sp)
   151da:	c082                	sw	zero,64(sp)
   151dc:	c282                	sw	zero,68(sp)
   151de:	c482                	sw	zero,72(sp)
   151e0:	04010623          	sb	zero,76(sp)
   151e4:	03000793          	li	a5,48
   151e8:	02f10623          	sb	a5,44(sp)
F:\git\MCU-CH573\Debug/srcc/printf.c:247
	int *ivalp;
	char *sval;
	int cval;
	unsigned int uval;

	count = 0;
   151ec:	d402                	sw	zero,40(sp)
F:\git\MCU-CH573\Debug/srcc/printf.c:251
	length_modifier=0;
	precision_used=TRUE;
	//从格式字符串第一个字符开始格式化输出数据
	for (p = (char *) fmt; (c = *p) != 0; p++)
   151ee:	00058503          	lb	a0,0(a1)
   151f2:	68050163          	beqz	a0,15874 <printk+0x6c2>
   151f6:	8b2e                	mv	s6,a1
   151f8:	8bb2                	mv	s7,a2
F:\git\MCU-CH573\Debug/srcc/printf.c:249
	precision_used=TRUE;
   151fa:	4d05                	li	s10,1
F:\git\MCU-CH573\Debug/srcc/printf.c:248
	length_modifier=0;
   151fc:	4c81                	li	s9,0
F:\git\MCU-CH573\Debug/srcc/printf.c:279
		//此时字符为%  查看百分号后的第一个格式字符，对输出格式字符并做出相应输出判断
		//检查相应的修改标志
		flags_used = 0;
		done = FALSE;
		while (!done) {
			switch (/* c = */*++p) {
   151fe:	00002417          	auipc	s0,0x2
   15202:	66640413          	addi	s0,s0,1638 # 17864 <strlen+0x1a0>
F:\git\MCU-CH573\Debug/srcc/printf.c:387
			--p;
			break;
		}

		//p为格式字符串的首地址
		switch (c = *++p) {
   15206:	00002c17          	auipc	s8,0x2
   1520a:	6a2c0c13          	addi	s8,s8,1698 # 178a8 <strlen+0x1e4>
   1520e:	a035                	j	1523a <printk+0x88>
F:\git\MCU-CH573\Debug/srcc/printf.c:263
				printk_putc(0x0D /* CR */, &count, info);
   15210:	8652                	mv	a2,s4
   15212:	102c                	addi	a1,sp,40
   15214:	4535                	li	a0,13
   15216:	00000097          	auipc	ra,0x0
   1521a:	ba2080e7          	jalr	-1118(ra) # 14db8 <printk_putc>
F:\git\MCU-CH573\Debug/srcc/printf.c:264
				printk_putc(0x0A /* LF */, &count, info);
   1521e:	8652                	mv	a2,s4
   15220:	102c                	addi	a1,sp,40
   15222:	4529                	li	a0,10
   15224:	00000097          	auipc	ra,0x0
   15228:	b94080e7          	jalr	-1132(ra) # 14db8 <printk_putc>
   1522c:	8ada                	mv	s5,s6
F:\git\MCU-CH573\Debug/srcc/printf.c:251 (discriminator 2)
	for (p = (char *) fmt; (c = *p) != 0; p++)
   1522e:	001a8b13          	addi	s6,s5,1
   15232:	001a8503          	lb	a0,1(s5)
   15236:	62050f63          	beqz	a0,15874 <printk+0x6c2>
F:\git\MCU-CH573\Debug/srcc/printf.c:254
		if (c != '%')
   1523a:	02500793          	li	a5,37
   1523e:	00f50d63          	beq	a0,a5,15258 <printk+0xa6>
F:\git\MCU-CH573\Debug/srcc/printf.c:258
			if (c != '\n') {
   15242:	47a9                	li	a5,10
   15244:	fcf506e3          	beq	a0,a5,15210 <printk+0x5e>
F:\git\MCU-CH573\Debug/srcc/printf.c:259
				printk_putc(c, &count, info);
   15248:	8652                	mv	a2,s4
   1524a:	102c                	addi	a1,sp,40
   1524c:	00000097          	auipc	ra,0x0
   15250:	b6c080e7          	jalr	-1172(ra) # 14db8 <printk_putc>
   15254:	8ada                	mv	s5,s6
   15256:	bfe1                	j	1522e <printk+0x7c>
F:\git\MCU-CH573\Debug/srcc/printf.c:276
		flags_used = 0;
   15258:	4481                	li	s1,0
F:\git\MCU-CH573\Debug/srcc/printf.c:279
			switch (/* c = */*++p) {
   1525a:	4641                	li	a2,16
   1525c:	a021                	j	15264 <printk+0xb2>
F:\git\MCU-CH573\Debug/srcc/printf.c:281
				flags_used |= FLAGS_MINUS;
   1525e:	0014e493          	ori	s1,s1,1
F:\git\MCU-CH573\Debug/srcc/printf.c:282
				break;
   15262:	8b36                	mv	s6,a3
F:\git\MCU-CH573\Debug/srcc/printf.c:279
			switch (/* c = */*++p) {
   15264:	001b0693          	addi	a3,s6,1
   15268:	001b4783          	lbu	a5,1(s6)
   1526c:	1781                	addi	a5,a5,-32
   1526e:	0ff7f713          	andi	a4,a5,255
   15272:	08e66c63          	bltu	a2,a4,1530a <printk+0x158>
   15276:	00271793          	slli	a5,a4,0x2
   1527a:	97a2                	add	a5,a5,s0
   1527c:	439c                	lw	a5,0(a5)
   1527e:	97a2                	add	a5,a5,s0
   15280:	8782                	jr	a5
F:\git\MCU-CH573\Debug/srcc/printf.c:284
				flags_used |= FLAGS_PLUS;
   15282:	0024e493          	ori	s1,s1,2
F:\git\MCU-CH573\Debug/srcc/printf.c:285
				break;
   15286:	bff1                	j	15262 <printk+0xb0>
F:\git\MCU-CH573\Debug/srcc/printf.c:287
				flags_used |= FLAGS_SPACE;
   15288:	0044e493          	ori	s1,s1,4
F:\git\MCU-CH573\Debug/srcc/printf.c:288
				break;
   1528c:	bfd9                	j	15262 <printk+0xb0>
F:\git\MCU-CH573\Debug/srcc/printf.c:290
				flags_used |= FLAGS_ZERO;
   1528e:	0084e493          	ori	s1,s1,8
F:\git\MCU-CH573\Debug/srcc/printf.c:291
				break;
   15292:	bfc1                	j	15262 <printk+0xb0>
F:\git\MCU-CH573\Debug/srcc/printf.c:293
				flags_used |= FLAGS_POUND;
   15294:	0104e493          	ori	s1,s1,16
F:\git\MCU-CH573\Debug/srcc/printf.c:294
				break;
   15298:	b7e9                	j	15262 <printk+0xb0>
F:\git\MCU-CH573\Debug/srcc/printf.c:319
				field_width = (field_width * 10) + (c - '0');
   1529a:	00291793          	slli	a5,s2,0x2
   1529e:	993e                	add	s2,s2,a5
   152a0:	0906                	slli	s2,s2,0x1
   152a2:	993a                	add	s2,s2,a4
   152a4:	8b36                	mv	s6,a3
F:\git\MCU-CH573\Debug/srcc/printf.c:308
			switch (c = *++p) {
   152a6:	001b0693          	addi	a3,s6,1
   152aa:	001b0703          	lb	a4,1(s6)
   152ae:	fd070713          	addi	a4,a4,-48
   152b2:	fee674e3          	bgeu	a2,a4,1529a <printk+0xe8>
F:\git\MCU-CH573\Debug/srcc/printf.c:329
		if (/* (c = *++p) */*++p == '.') {
   152b6:	001b0703          	lb	a4,1(s6)
   152ba:	02e00793          	li	a5,46
   152be:	04f70963          	beq	a4,a5,15310 <printk+0x15e>
F:\git\MCU-CH573\Debug/srcc/printf.c:366
			precision_width = 0;
   152c2:	4981                	li	s3,0
F:\git\MCU-CH573\Debug/srcc/printf.c:365
			precision_used = FALSE;
   152c4:	4d01                	li	s10,0
F:\git\MCU-CH573\Debug/srcc/printf.c:370
		switch (/* c = */*++p) {
   152c6:	001b0693          	addi	a3,s6,1
   152ca:	001b0783          	lb	a5,1(s6)
   152ce:	06800713          	li	a4,104
   152d2:	06e78a63          	beq	a5,a4,15346 <printk+0x194>
   152d6:	06c00713          	li	a4,108
   152da:	04e78e63          	beq	a5,a4,15336 <printk+0x184>
   152de:	04c00713          	li	a4,76
   152e2:	04e78e63          	beq	a5,a4,1533e <printk+0x18c>
F:\git\MCU-CH573\Debug/srcc/printf.c:387
		switch (c = *++p) {
   152e6:	001b0a93          	addi	s5,s6,1
   152ea:	001b0503          	lb	a0,1(s6)
   152ee:	fa850793          	addi	a5,a0,-88
   152f2:	0ff7f693          	andi	a3,a5,255
   152f6:	02000713          	li	a4,32
   152fa:	4cd76763          	bltu	a4,a3,157c8 <printk+0x616>
   152fe:	00269793          	slli	a5,a3,0x2
   15302:	97e2                	add	a5,a5,s8
   15304:	439c                	lw	a5,0(a5)
   15306:	97e2                	add	a5,a5,s8
   15308:	8782                	jr	a5
F:\git\MCU-CH573\Debug/srcc/printf.c:305
		field_width = 0;
   1530a:	4901                	li	s2,0
F:\git\MCU-CH573\Debug/srcc/printf.c:308
			switch (c = *++p) {
   1530c:	4625                	li	a2,9
   1530e:	bf61                	j	152a6 <printk+0xf4>
F:\git\MCU-CH573\Debug/srcc/printf.c:329
		if (/* (c = *++p) */*++p == '.') {
   15310:	8b36                	mv	s6,a3
F:\git\MCU-CH573\Debug/srcc/printf.c:335
			precision_width = 0;
   15312:	4981                	li	s3,0
F:\git\MCU-CH573\Debug/srcc/printf.c:338
				switch ( c = *++p) {
   15314:	4625                	li	a2,9
   15316:	a039                	j	15324 <printk+0x172>
F:\git\MCU-CH573\Debug/srcc/printf.c:350
				precision_width = (precision_width * 10) +	(c - '0');
   15318:	00299793          	slli	a5,s3,0x2
   1531c:	99be                	add	s3,s3,a5
   1531e:	0986                	slli	s3,s3,0x1
   15320:	99ba                	add	s3,s3,a4
   15322:	8b36                	mv	s6,a3
F:\git\MCU-CH573\Debug/srcc/printf.c:338
				switch ( c = *++p) {
   15324:	001b0693          	addi	a3,s6,1
   15328:	001b0703          	lb	a4,1(s6)
   1532c:	fd070713          	addi	a4,a4,-48
   15330:	fee674e3          	bgeu	a2,a4,15318 <printk+0x166>
   15334:	bf49                	j	152c6 <printk+0x114>
F:\git\MCU-CH573\Debug/srcc/printf.c:375
			 length_modifier |= LENMOD_l;
   15336:	001cec93          	ori	s9,s9,1
F:\git\MCU-CH573\Debug/srcc/printf.c:370
		switch (/* c = */*++p) {
   1533a:	8b36                	mv	s6,a3
F:\git\MCU-CH573\Debug/srcc/printf.c:376
			break;
   1533c:	b76d                	j	152e6 <printk+0x134>
F:\git\MCU-CH573\Debug/srcc/printf.c:378
			 length_modifier |= LENMOD_L;
   1533e:	002cec93          	ori	s9,s9,2
F:\git\MCU-CH573\Debug/srcc/printf.c:370
		switch (/* c = */*++p) {
   15342:	8b36                	mv	s6,a3
F:\git\MCU-CH573\Debug/srcc/printf.c:379
			break;
   15344:	b74d                	j	152e6 <printk+0x134>
F:\git\MCU-CH573\Debug/srcc/printf.c:370
		switch (/* c = */*++p) {
   15346:	8b36                	mv	s6,a3
   15348:	bf79                	j	152e6 <printk+0x134>
F:\git\MCU-CH573\Debug/srcc/printf.c:391
		case 'd':
		case 'i':
			 //此时ap为指向可变参数列表的第一个参数
			ival = (int) va_arg1(ap, int);  //返回当前参数，并将ap指向下一个参数
   1534a:	004b8793          	addi	a5,s7,4
   1534e:	c63e                	sw	a5,12(sp)
   15350:	000ba783          	lw	a5,0(s7)
   15354:	d23e                	sw	a5,36(sp)
F:\git\MCU-CH573\Debug/srcc/printf.c:392
			vlen = printk_mknumstr(vstr, &ival, TRUE, 10);//将整型转换成字符型保存在vstr中，返回字符数vlen
   15356:	46a9                	li	a3,10
   15358:	4605                	li	a2,1
   1535a:	104c                	addi	a1,sp,36
   1535c:	1068                	addi	a0,sp,44
   1535e:	00000097          	auipc	ra,0x0
   15362:	a96080e7          	jalr	-1386(ra) # 14df4 <printk_mknumstr>
   15366:	8b2a                	mv	s6,a0
F:\git\MCU-CH573\Debug/srcc/printf.c:393
			vstrp = &vstr[vlen];  //指向转换后的最后一个字符
   15368:	107c                	addi	a5,sp,44
   1536a:	00a789b3          	add	s3,a5,a0
F:\git\MCU-CH573\Debug/srcc/printf.c:396

			//若参数小于0，添加'-'号，并将字符长度加1
			if (ival < 0) {
   1536e:	5792                	lw	a5,36(sp)
   15370:	0007ca63          	bltz	a5,15384 <printk+0x1d2>
F:\git\MCU-CH573\Debug/srcc/printf.c:402
				schar = '-';
				++vlen;
			}
			//若参数不小于0，添加‘+’号或者‘ ’或者为0，并将字符长度加1
			else {
				if (IS_FLAG_PLUS(flags_used)) {
   15374:	0024f793          	andi	a5,s1,2
   15378:	cf8d                	beqz	a5,153b2 <printk+0x200>
F:\git\MCU-CH573\Debug/srcc/printf.c:404
					schar = '+';
					++vlen;
   1537a:	00150b13          	addi	s6,a0,1
F:\git\MCU-CH573\Debug/srcc/printf.c:403
					schar = '+';
   1537e:	02b00d93          	li	s11,43
   15382:	a029                	j	1538c <printk+0x1da>
F:\git\MCU-CH573\Debug/srcc/printf.c:398
				++vlen;
   15384:	00150b13          	addi	s6,a0,1
F:\git\MCU-CH573\Debug/srcc/printf.c:397
				schar = '-';
   15388:	02d00d93          	li	s11,45
F:\git\MCU-CH573\Debug/srcc/printf.c:419
			dschar = FALSE;

			/*
			 * do the ZERO pad.
			 */
			if (IS_FLAG_ZERO(flags_used)) {
   1538c:	0084f793          	andi	a5,s1,8
   15390:	eb95                	bnez	a5,153c4 <printk+0x212>
F:\git\MCU-CH573\Debug/srcc/printf.c:426
					printk_putc(schar, &count, info);  //输出符号
				dschar = TRUE;
				printk_pad_zero(vlen, field_width, &count, info);
				vlen = field_width;
			} else {
				if (!IS_FLAG_MINUS(flags_used)) {
   15392:	0014f793          	andi	a5,s1,1
   15396:	4a078e63          	beqz	a5,15852 <printk+0x6a0>
F:\git\MCU-CH573\Debug/srcc/printf.c:391
			ival = (int) va_arg1(ap, int);  //返回当前参数，并将ap指向下一个参数
   1539a:	4bb2                	lw	s7,12(sp)
F:\git\MCU-CH573\Debug/srcc/printf.c:437
				}
			}

			/* the string was built in reverse order, now display in */
			/* correct order */
			if (!dschar && schar) {
   1539c:	280d8d63          	beqz	s11,15636 <printk+0x484>
F:\git\MCU-CH573\Debug/srcc/printf.c:438
				printk_putc(schar, &count, info);
   153a0:	8652                	mv	a2,s4
   153a2:	102c                	addi	a1,sp,40
   153a4:	856e                	mv	a0,s11
   153a6:	00000097          	auipc	ra,0x0
   153aa:	a12080e7          	jalr	-1518(ra) # 14db8 <printk_putc>
F:\git\MCU-CH573\Debug/srcc/printf.c:391
			ival = (int) va_arg1(ap, int);  //返回当前参数，并将ap指向下一个参数
   153ae:	4bb2                	lw	s7,12(sp)
   153b0:	a459                	j	15636 <printk+0x484>
F:\git\MCU-CH573\Debug/srcc/printf.c:406
					if (IS_FLAG_SPACE(flags_used)) {
   153b2:	0044f793          	andi	a5,s1,4
   153b6:	46078663          	beqz	a5,15822 <printk+0x670>
F:\git\MCU-CH573\Debug/srcc/printf.c:408
						++vlen;
   153ba:	00150b13          	addi	s6,a0,1
F:\git\MCU-CH573\Debug/srcc/printf.c:407
						schar = ' ';
   153be:	02000d93          	li	s11,32
   153c2:	b7e9                	j	1538c <printk+0x1da>
F:\git\MCU-CH573\Debug/srcc/printf.c:421
					printk_putc(schar, &count, info);  //输出符号
   153c4:	8652                	mv	a2,s4
   153c6:	102c                	addi	a1,sp,40
   153c8:	856e                	mv	a0,s11
   153ca:	00000097          	auipc	ra,0x0
   153ce:	9ee080e7          	jalr	-1554(ra) # 14db8 <printk_putc>
printk_pad_zero():
F:\git\MCU-CH573\Debug/srcc/printf.c:179
	for (i = curlen; i < field_width; i++) {
   153d2:	332b5963          	bge	s6,s2,15704 <printk+0x552>
F:\git\MCU-CH573\Debug/srcc/printf.c:180
		printk_putc('0', count, info);
   153d6:	8652                	mv	a2,s4
   153d8:	102c                	addi	a1,sp,40
   153da:	03000513          	li	a0,48
   153de:	00000097          	auipc	ra,0x0
   153e2:	9da080e7          	jalr	-1574(ra) # 14db8 <printk_putc>
F:\git\MCU-CH573\Debug/srcc/printf.c:179
	for (i = curlen; i < field_width; i++) {
   153e6:	0b05                	addi	s6,s6,1
   153e8:	ff2b17e3          	bne	s6,s2,153d6 <printk+0x224>
   153ec:	8b4a                	mv	s6,s2
printk():
F:\git\MCU-CH573\Debug/srcc/printf.c:391
			ival = (int) va_arg1(ap, int);  //返回当前参数，并将ap指向下一个参数
   153ee:	4bb2                	lw	s7,12(sp)
   153f0:	a4e9                	j	156ba <printk+0x508>
F:\git\MCU-CH573\Debug/srcc/printf.c:452
			//实际传入变参数 函数后 浮点数变为:0x6000000040091EB8 实际是将其转化为double型数据
			//但是顺序反了，我们要做的是将后四字节提前，然后把0x60移到紧接着前四个字节后的位置。
			
			//【20200816】  XSX，解决浮点数不优化问题
			ap=ap+4;
			fval= (double)va_arg1(ap,double);
   153f2:	00cb8b13          	addi	s6,s7,12
   153f6:	004bad83          	lw	s11,4(s7)
   153fa:	008bab83          	lw	s7,8(s7)
   153fe:	cc6e                	sw	s11,24(sp)
   15400:	ce5e                	sw	s7,28(sp)
F:\git\MCU-CH573\Debug/srcc/printf.c:456
			
			//【20200816】  XSX，解决负数的浮点数输出问题
			//若参数小于0，添加'-'号，并将字符长度加1
			if (fval < 0) {
   15402:	4601                	li	a2,0
   15404:	4681                	li	a3,0
   15406:	856e                	mv	a0,s11
   15408:	85de                	mv	a1,s7
   1540a:	00001097          	auipc	ra,0x1
   1540e:	214080e7          	jalr	532(ra) # 1661e <__ledf2>
   15412:	00054e63          	bltz	a0,1542e <printk+0x27c>
F:\git\MCU-CH573\Debug/srcc/printf.c:463
				fval = -fval;				//负数取它的正数
				++vlen;
			}
			//若参数不小于0，添加‘+’号或者‘ ’或者为0，并将字符长度加1
			else {
				if (IS_FLAG_PLUS(flags_used)) {
   15416:	0024f793          	andi	a5,s1,2
F:\git\MCU-CH573\Debug/srcc/printf.c:464
					schar = '+';
   1541a:	02b00b93          	li	s7,43
F:\git\MCU-CH573\Debug/srcc/printf.c:463
				if (IS_FLAG_PLUS(flags_used)) {
   1541e:	e385                	bnez	a5,1543e <printk+0x28c>
F:\git\MCU-CH573\Debug/srcc/printf.c:467
					++vlen;
				} else {
					if (IS_FLAG_SPACE(flags_used)) {
   15420:	0044fb93          	andi	s7,s1,4
   15424:	000b8d63          	beqz	s7,1543e <printk+0x28c>
F:\git\MCU-CH573\Debug/srcc/printf.c:468
						schar = ' ';
   15428:	02000b93          	li	s7,32
   1542c:	a809                	j	1543e <printk+0x28c>
F:\git\MCU-CH573\Debug/srcc/printf.c:458
				fval = -fval;				//负数取它的正数
   1542e:	cc6e                	sw	s11,24(sp)
   15430:	800007b7          	lui	a5,0x80000
   15434:	0177c7b3          	xor	a5,a5,s7
   15438:	ce3e                	sw	a5,28(sp)
F:\git\MCU-CH573\Debug/srcc/printf.c:457
				schar = '-';
   1543a:	02d00b93          	li	s7,45
F:\git\MCU-CH573\Debug/srcc/printf.c:478
				}
			}
			dschar = FALSE;
			
			//确定是否使用小数点精度数值
			if(precision_used)
   1543e:	060d1c63          	bnez	s10,154b6 <printk+0x304>
F:\git\MCU-CH573\Debug/srcc/printf.c:485
				vlen = printk_mkfloatstr(&fval,vstr,precision_width);//将整型转换成字符型保存在vstr中，返回字符数vlen
				vstrp = &vstr[0];  //指向转换后的第一个字符
			}
			else
			{
				if(length_modifier==0)   //浮点型精度到小数点后8位
   15442:	080c9363          	bnez	s9,154c8 <printk+0x316>
F:\git\MCU-CH573\Debug/srcc/printf.c:487
				{
					vlen = printk_mkfloatstr(&fval,vstr,6);//将整型转换成字符型保存在vstr中，返回字符数vlen
   15446:	4619                	li	a2,6
   15448:	106c                	addi	a1,sp,44
   1544a:	0828                	addi	a0,sp,24
   1544c:	00000097          	auipc	ra,0x0
   15450:	a7e080e7          	jalr	-1410(ra) # 14eca <printk_mkfloatstr>
   15454:	89aa                	mv	s3,a0
F:\git\MCU-CH573\Debug/srcc/printf.c:503
			

			/*
			 * do the ZERO pad.
			 */
			if (IS_FLAG_ZERO(flags_used)) {
   15456:	0084f793          	andi	a5,s1,8
   1545a:	cbc1                	beqz	a5,154ea <printk+0x338>
F:\git\MCU-CH573\Debug/srcc/printf.c:504
				if (schar)
   1545c:	060b9f63          	bnez	s7,154da <printk+0x328>
printk_pad_zero():
F:\git\MCU-CH573\Debug/srcc/printf.c:179
	for (i = curlen; i < field_width; i++) {
   15460:	0129dd63          	bge	s3,s2,1547a <printk+0x2c8>
F:\git\MCU-CH573\Debug/srcc/printf.c:180
		printk_putc('0', count, info);
   15464:	8652                	mv	a2,s4
   15466:	102c                	addi	a1,sp,40
   15468:	03000513          	li	a0,48
   1546c:	00000097          	auipc	ra,0x0
   15470:	94c080e7          	jalr	-1716(ra) # 14db8 <printk_putc>
F:\git\MCU-CH573\Debug/srcc/printf.c:179
	for (i = curlen; i < field_width; i++) {
   15474:	0985                	addi	s3,s3,1
   15476:	ff2997e3          	bne	s3,s2,15464 <printk+0x2b2>
printk():
F:\git\MCU-CH573\Debug/srcc/printf.c:524
			/* the string was built in reverse order, now display in */
			/* correct order */
			if (!dschar && schar) {
				printk_putc(schar, &count, info);
			}
			while (*vstrp)
   1547a:	02c10503          	lb	a0,44(sp)
   1547e:	89ca                	mv	s3,s2
   15480:	cd09                	beqz	a0,1549a <printk+0x2e8>
   15482:	02c10b93          	addi	s7,sp,44
F:\git\MCU-CH573\Debug/srcc/printf.c:525
				printk_putc(*vstrp++, &count, info);
   15486:	0b85                	addi	s7,s7,1
   15488:	8652                	mv	a2,s4
   1548a:	102c                	addi	a1,sp,40
   1548c:	00000097          	auipc	ra,0x0
   15490:	92c080e7          	jalr	-1748(ra) # 14db8 <printk_putc>
F:\git\MCU-CH573\Debug/srcc/printf.c:524
			while (*vstrp)
   15494:	000b8503          	lb	a0,0(s7)
   15498:	f57d                	bnez	a0,15486 <printk+0x2d4>
F:\git\MCU-CH573\Debug/srcc/printf.c:526
			if (IS_FLAG_MINUS(flags_used)) {
   1549a:	8885                	andi	s1,s1,1
F:\git\MCU-CH573\Debug/srcc/printf.c:452
			fval= (double)va_arg1(ap,double);
   1549c:	8bda                	mv	s7,s6
F:\git\MCU-CH573\Debug/srcc/printf.c:526
			if (IS_FLAG_MINUS(flags_used)) {
   1549e:	d80488e3          	beqz	s1,1522e <printk+0x7c>
F:\git\MCU-CH573\Debug/srcc/printf.c:527
				printk_pad_space(vlen, field_width, &count, info);
   154a2:	86d2                	mv	a3,s4
   154a4:	1030                	addi	a2,sp,40
   154a6:	85ca                	mv	a1,s2
   154a8:	854e                	mv	a0,s3
   154aa:	00000097          	auipc	ra,0x0
   154ae:	9cc080e7          	jalr	-1588(ra) # 14e76 <printk_pad_space>
F:\git\MCU-CH573\Debug/srcc/printf.c:452
			fval= (double)va_arg1(ap,double);
   154b2:	8bda                	mv	s7,s6
   154b4:	bbad                	j	1522e <printk+0x7c>
F:\git\MCU-CH573\Debug/srcc/printf.c:480
				vlen = printk_mkfloatstr(&fval,vstr,precision_width);//将整型转换成字符型保存在vstr中，返回字符数vlen
   154b6:	864e                	mv	a2,s3
   154b8:	106c                	addi	a1,sp,44
   154ba:	0828                	addi	a0,sp,24
   154bc:	00000097          	auipc	ra,0x0
   154c0:	a0e080e7          	jalr	-1522(ra) # 14eca <printk_mkfloatstr>
   154c4:	89aa                	mv	s3,a0
F:\git\MCU-CH573\Debug/srcc/printf.c:481
				vstrp = &vstr[0];  //指向转换后的第一个字符
   154c6:	bf41                	j	15456 <printk+0x2a4>
F:\git\MCU-CH573\Debug/srcc/printf.c:492
					vlen = printk_mkfloatstr(&fval,vstr,6);//将整型转换成字符型保存在vstr中，返回字符数vlen
   154c8:	4619                	li	a2,6
   154ca:	106c                	addi	a1,sp,44
   154cc:	0828                	addi	a0,sp,24
   154ce:	00000097          	auipc	ra,0x0
   154d2:	9fc080e7          	jalr	-1540(ra) # 14eca <printk_mkfloatstr>
   154d6:	89aa                	mv	s3,a0
F:\git\MCU-CH573\Debug/srcc/printf.c:493
					vstrp = &vstr[0];  //指向转换后的第一个字符
   154d8:	bfbd                	j	15456 <printk+0x2a4>
F:\git\MCU-CH573\Debug/srcc/printf.c:505
					printk_putc(schar, &count, info);  //输出符号
   154da:	8652                	mv	a2,s4
   154dc:	102c                	addi	a1,sp,40
   154de:	855e                	mv	a0,s7
   154e0:	00000097          	auipc	ra,0x0
   154e4:	8d8080e7          	jalr	-1832(ra) # 14db8 <printk_putc>
   154e8:	bfa5                	j	15460 <printk+0x2ae>
F:\git\MCU-CH573\Debug/srcc/printf.c:510
				if (!IS_FLAG_MINUS(flags_used)) {
   154ea:	0014f793          	andi	a5,s1,1
   154ee:	c799                	beqz	a5,154fc <printk+0x34a>
F:\git\MCU-CH573\Debug/srcc/printf.c:521
			if (!dschar && schar) {
   154f0:	020b9d63          	bnez	s7,1552a <printk+0x378>
F:\git\MCU-CH573\Debug/srcc/printf.c:524
			while (*vstrp)
   154f4:	02c10503          	lb	a0,44(sp)
   154f8:	f549                	bnez	a0,15482 <printk+0x2d0>
   154fa:	b765                	j	154a2 <printk+0x2f0>
F:\git\MCU-CH573\Debug/srcc/printf.c:511
					printk_pad_space(vlen, field_width, &count, info);  //输出空格
   154fc:	86d2                	mv	a3,s4
   154fe:	1030                	addi	a2,sp,40
   15500:	85ca                	mv	a1,s2
   15502:	854e                	mv	a0,s3
   15504:	00000097          	auipc	ra,0x0
   15508:	972080e7          	jalr	-1678(ra) # 14e76 <printk_pad_space>
F:\git\MCU-CH573\Debug/srcc/printf.c:513
					if (schar)
   1550c:	000b9763          	bnez	s7,1551a <printk+0x368>
F:\git\MCU-CH573\Debug/srcc/printf.c:524
			while (*vstrp)
   15510:	02c10503          	lb	a0,44(sp)
F:\git\MCU-CH573\Debug/srcc/printf.c:452
			fval= (double)va_arg1(ap,double);
   15514:	8bda                	mv	s7,s6
F:\git\MCU-CH573\Debug/srcc/printf.c:524
			while (*vstrp)
   15516:	f535                	bnez	a0,15482 <printk+0x2d0>
   15518:	bb19                	j	1522e <printk+0x7c>
F:\git\MCU-CH573\Debug/srcc/printf.c:514
						printk_putc(schar, &count, info);
   1551a:	8652                	mv	a2,s4
   1551c:	102c                	addi	a1,sp,40
   1551e:	855e                	mv	a0,s7
   15520:	00000097          	auipc	ra,0x0
   15524:	898080e7          	jalr	-1896(ra) # 14db8 <printk_putc>
   15528:	b7e5                	j	15510 <printk+0x35e>
F:\git\MCU-CH573\Debug/srcc/printf.c:522
				printk_putc(schar, &count, info);
   1552a:	8652                	mv	a2,s4
   1552c:	102c                	addi	a1,sp,40
   1552e:	855e                	mv	a0,s7
   15530:	00000097          	auipc	ra,0x0
   15534:	888080e7          	jalr	-1912(ra) # 14db8 <printk_putc>
   15538:	bf75                	j	154f4 <printk+0x342>
F:\git\MCU-CH573\Debug/srcc/printf.c:533
			}
            break;
        //以下是16进制整形输出
		case 'x':
		case 'X':
			uval = (unsigned int) va_arg1(ap, unsigned int);
   1553a:	004b8d93          	addi	s11,s7,4
   1553e:	000ba783          	lw	a5,0(s7)
   15542:	ca3e                	sw	a5,20(sp)
F:\git\MCU-CH573\Debug/srcc/printf.c:534
			vlen = printk_mknumstr(vstr, &uval, FALSE, 16);
   15544:	46c1                	li	a3,16
   15546:	4601                	li	a2,0
   15548:	084c                	addi	a1,sp,20
   1554a:	1068                	addi	a0,sp,44
   1554c:	00000097          	auipc	ra,0x0
   15550:	8a8080e7          	jalr	-1880(ra) # 14df4 <printk_mknumstr>
   15554:	8b2a                	mv	s6,a0
F:\git\MCU-CH573\Debug/srcc/printf.c:535
			vstrp = &vstr[vlen];
   15556:	107c                	addi	a5,sp,44
   15558:	00a789b3          	add	s3,a5,a0
F:\git\MCU-CH573\Debug/srcc/printf.c:538

			dschar = FALSE;
			if (IS_FLAG_ZERO(flags_used)) {
   1555c:	0084f793          	andi	a5,s1,8
   15560:	c3a5                	beqz	a5,155c0 <printk+0x40e>
F:\git\MCU-CH573\Debug/srcc/printf.c:539
				if (IS_FLAG_POUND(flags_used)) {
   15562:	0104fb93          	andi	s7,s1,16
   15566:	020b9863          	bnez	s7,15596 <printk+0x3e4>
F:\git\MCU-CH573\Debug/srcc/printf.c:537
			dschar = FALSE;
   1556a:	c65e                	sw	s7,12(sp)
printk_pad_zero():
F:\git\MCU-CH573\Debug/srcc/printf.c:179
	for (i = curlen; i < field_width; i++) {
   1556c:	29255b63          	bge	a0,s2,15802 <printk+0x650>
F:\git\MCU-CH573\Debug/srcc/printf.c:180
		printk_putc('0', count, info);
   15570:	8652                	mv	a2,s4
   15572:	102c                	addi	a1,sp,40
   15574:	03000513          	li	a0,48
   15578:	00000097          	auipc	ra,0x0
   1557c:	840080e7          	jalr	-1984(ra) # 14db8 <printk_putc>
F:\git\MCU-CH573\Debug/srcc/printf.c:179
	for (i = curlen; i < field_width; i++) {
   15580:	0b05                	addi	s6,s6,1
   15582:	ff2b47e3          	blt	s6,s2,15570 <printk+0x3be>
printk():
F:\git\MCU-CH573\Debug/srcc/printf.c:561
						dschar = TRUE;
					}
				}
			}

			if ((IS_FLAG_POUND(flags_used)) && !dschar) {
   15586:	180b8563          	beqz	s7,15710 <printk+0x55e>
   1558a:	8b4a                	mv	s6,s2
F:\git\MCU-CH573\Debug/srcc/printf.c:533 (discriminator 1)
			uval = (unsigned int) va_arg1(ap, unsigned int);
   1558c:	8bee                	mv	s7,s11
F:\git\MCU-CH573\Debug/srcc/printf.c:561 (discriminator 1)
			if ((IS_FLAG_POUND(flags_used)) && !dschar) {
   1558e:	47b2                	lw	a5,12(sp)
   15590:	12079563          	bnez	a5,156ba <printk+0x508>
   15594:	a4a1                	j	157dc <printk+0x62a>
F:\git\MCU-CH573\Debug/srcc/printf.c:540
					printk_putc('0', &count, info);
   15596:	8652                	mv	a2,s4
   15598:	102c                	addi	a1,sp,40
   1559a:	03000513          	li	a0,48
   1559e:	00000097          	auipc	ra,0x0
   155a2:	81a080e7          	jalr	-2022(ra) # 14db8 <printk_putc>
F:\git\MCU-CH573\Debug/srcc/printf.c:541
					printk_putc('x', &count, info);
   155a6:	8652                	mv	a2,s4
   155a8:	102c                	addi	a1,sp,40
   155aa:	07800513          	li	a0,120
   155ae:	00000097          	auipc	ra,0x0
   155b2:	80a080e7          	jalr	-2038(ra) # 14db8 <printk_putc>
printk_pad_zero():
F:\git\MCU-CH573\Debug/srcc/printf.c:179
	for (i = curlen; i < field_width; i++) {
   155b6:	152b5a63          	bge	s6,s2,1570a <printk+0x558>
printk():
F:\git\MCU-CH573\Debug/srcc/printf.c:543
					dschar = TRUE;
   155ba:	4785                	li	a5,1
   155bc:	c63e                	sw	a5,12(sp)
   155be:	bf4d                	j	15570 <printk+0x3be>
F:\git\MCU-CH573\Debug/srcc/printf.c:548
				if (!IS_FLAG_MINUS(flags_used)) {
   155c0:	0014f793          	andi	a5,s1,1
   155c4:	20079963          	bnez	a5,157d6 <printk+0x624>
F:\git\MCU-CH573\Debug/srcc/printf.c:549
					if (IS_FLAG_POUND(flags_used)) {
   155c8:	0104f793          	andi	a5,s1,16
   155cc:	22078e63          	beqz	a5,15808 <printk+0x656>
F:\git\MCU-CH573\Debug/srcc/printf.c:550
						vlen += 2;
   155d0:	00250b13          	addi	s6,a0,2
F:\git\MCU-CH573\Debug/srcc/printf.c:552
					printk_pad_space(vlen, field_width, &count, info);
   155d4:	86d2                	mv	a3,s4
   155d6:	1030                	addi	a2,sp,40
   155d8:	85ca                	mv	a1,s2
   155da:	855a                	mv	a0,s6
   155dc:	00000097          	auipc	ra,0x0
   155e0:	89a080e7          	jalr	-1894(ra) # 14e76 <printk_pad_space>
F:\git\MCU-CH573\Debug/srcc/printf.c:554
						printk_putc('0', &count, info);
   155e4:	8652                	mv	a2,s4
   155e6:	102c                	addi	a1,sp,40
   155e8:	03000513          	li	a0,48
   155ec:	fffff097          	auipc	ra,0xfffff
   155f0:	7cc080e7          	jalr	1996(ra) # 14db8 <printk_putc>
F:\git\MCU-CH573\Debug/srcc/printf.c:555
						printk_putc('x', &count, info);
   155f4:	8652                	mv	a2,s4
   155f6:	102c                	addi	a1,sp,40
   155f8:	07800513          	li	a0,120
   155fc:	fffff097          	auipc	ra,0xfffff
   15600:	7bc080e7          	jalr	1980(ra) # 14db8 <printk_putc>
F:\git\MCU-CH573\Debug/srcc/printf.c:561
			if ((IS_FLAG_POUND(flags_used)) && !dschar) {
   15604:	ac09                	j	15816 <printk+0x664>
F:\git\MCU-CH573\Debug/srcc/printf.c:569
				vlen += 2;
			}
			goto cont_xd;
		//无符号以八进制表示的整数输出
		case 'o':
			uval = (unsigned int) va_arg1(ap, unsigned int);
   15606:	004b8993          	addi	s3,s7,4
   1560a:	000ba783          	lw	a5,0(s7)
   1560e:	ca3e                	sw	a5,20(sp)
F:\git\MCU-CH573\Debug/srcc/printf.c:570
			vlen = printk_mknumstr(vstr, &uval, FALSE, 8);
   15610:	46a1                	li	a3,8
   15612:	4601                	li	a2,0
   15614:	084c                	addi	a1,sp,20
   15616:	1068                	addi	a0,sp,44
   15618:	fffff097          	auipc	ra,0xfffff
   1561c:	7dc080e7          	jalr	2012(ra) # 14df4 <printk_mknumstr>
   15620:	8b2a                	mv	s6,a0
F:\git\MCU-CH573\Debug/srcc/printf.c:569
			uval = (unsigned int) va_arg1(ap, unsigned int);
   15622:	8bce                	mv	s7,s3
F:\git\MCU-CH573\Debug/srcc/printf.c:586
			goto cont_u;
		case 'u':
			uval = (unsigned int) va_arg1(ap, unsigned int);
			vlen = printk_mknumstr(vstr, &uval, FALSE, 10);

			cont_u: vstrp = &vstr[vlen];
   15624:	107c                	addi	a5,sp,44
   15626:	016789b3          	add	s3,a5,s6
F:\git\MCU-CH573\Debug/srcc/printf.c:588

			if (IS_FLAG_ZERO(flags_used)) {
   1562a:	0084f793          	andi	a5,s1,8
   1562e:	eba5                	bnez	a5,1569e <printk+0x4ec>
F:\git\MCU-CH573\Debug/srcc/printf.c:592
				printk_pad_zero(vlen, field_width, &count, info);
				vlen = field_width;
			} else {
				if (!IS_FLAG_MINUS(flags_used)) {
   15630:	0014f793          	andi	a5,s1,1
   15634:	cfc5                	beqz	a5,156ec <printk+0x53a>
F:\git\MCU-CH573\Debug/srcc/printf.c:597
					printk_pad_space(vlen, field_width, &count, info);
				}
			}

			cont_xd: while (*vstrp)
   15636:	00098503          	lb	a0,0(s3)
   1563a:	e159                	bnez	a0,156c0 <printk+0x50e>
   1563c:	a879                	j	156da <printk+0x528>
F:\git\MCU-CH573\Debug/srcc/printf.c:574
			uval = (unsigned int) va_arg1(ap, unsigned int);
   1563e:	004b8993          	addi	s3,s7,4
   15642:	000ba783          	lw	a5,0(s7)
   15646:	ca3e                	sw	a5,20(sp)
F:\git\MCU-CH573\Debug/srcc/printf.c:575
			vlen = printk_mknumstr(vstr, &uval, FALSE, 2);
   15648:	4689                	li	a3,2
   1564a:	4601                	li	a2,0
   1564c:	084c                	addi	a1,sp,20
   1564e:	1068                	addi	a0,sp,44
   15650:	fffff097          	auipc	ra,0xfffff
   15654:	7a4080e7          	jalr	1956(ra) # 14df4 <printk_mknumstr>
   15658:	8b2a                	mv	s6,a0
F:\git\MCU-CH573\Debug/srcc/printf.c:574
			uval = (unsigned int) va_arg1(ap, unsigned int);
   1565a:	8bce                	mv	s7,s3
F:\git\MCU-CH573\Debug/srcc/printf.c:576
			goto cont_u;
   1565c:	b7e1                	j	15624 <printk+0x472>
F:\git\MCU-CH573\Debug/srcc/printf.c:579
			uval = (unsigned int) va_arg1(ap, void *);
   1565e:	004b8993          	addi	s3,s7,4
   15662:	000ba783          	lw	a5,0(s7)
   15666:	ca3e                	sw	a5,20(sp)
F:\git\MCU-CH573\Debug/srcc/printf.c:580
			vlen = printk_mknumstr(vstr, &uval, FALSE, 16);
   15668:	46c1                	li	a3,16
   1566a:	4601                	li	a2,0
   1566c:	084c                	addi	a1,sp,20
   1566e:	1068                	addi	a0,sp,44
   15670:	fffff097          	auipc	ra,0xfffff
   15674:	784080e7          	jalr	1924(ra) # 14df4 <printk_mknumstr>
   15678:	8b2a                	mv	s6,a0
F:\git\MCU-CH573\Debug/srcc/printf.c:579
			uval = (unsigned int) va_arg1(ap, void *);
   1567a:	8bce                	mv	s7,s3
F:\git\MCU-CH573\Debug/srcc/printf.c:581
			goto cont_u;
   1567c:	b765                	j	15624 <printk+0x472>
F:\git\MCU-CH573\Debug/srcc/printf.c:583
			uval = (unsigned int) va_arg1(ap, unsigned int);
   1567e:	004b8993          	addi	s3,s7,4
   15682:	000ba783          	lw	a5,0(s7)
   15686:	ca3e                	sw	a5,20(sp)
F:\git\MCU-CH573\Debug/srcc/printf.c:584
			vlen = printk_mknumstr(vstr, &uval, FALSE, 10);
   15688:	46a9                	li	a3,10
   1568a:	4601                	li	a2,0
   1568c:	084c                	addi	a1,sp,20
   1568e:	1068                	addi	a0,sp,44
   15690:	fffff097          	auipc	ra,0xfffff
   15694:	764080e7          	jalr	1892(ra) # 14df4 <printk_mknumstr>
   15698:	8b2a                	mv	s6,a0
F:\git\MCU-CH573\Debug/srcc/printf.c:583
			uval = (unsigned int) va_arg1(ap, unsigned int);
   1569a:	8bce                	mv	s7,s3
   1569c:	b761                	j	15624 <printk+0x472>
printk_pad_zero():
F:\git\MCU-CH573\Debug/srcc/printf.c:179
	for (i = curlen; i < field_width; i++) {
   1569e:	072b5c63          	bge	s6,s2,15716 <printk+0x564>
F:\git\MCU-CH573\Debug/srcc/printf.c:180
		printk_putc('0', count, info);
   156a2:	8652                	mv	a2,s4
   156a4:	102c                	addi	a1,sp,40
   156a6:	03000513          	li	a0,48
   156aa:	fffff097          	auipc	ra,0xfffff
   156ae:	70e080e7          	jalr	1806(ra) # 14db8 <printk_putc>
F:\git\MCU-CH573\Debug/srcc/printf.c:179
	for (i = curlen; i < field_width; i++) {
   156b2:	0b05                	addi	s6,s6,1
   156b4:	ff2b17e3          	bne	s6,s2,156a2 <printk+0x4f0>
   156b8:	8b4a                	mv	s6,s2
printk():
F:\git\MCU-CH573\Debug/srcc/printf.c:597 (discriminator 1)
			cont_xd: while (*vstrp)
   156ba:	00098503          	lb	a0,0(s3)
   156be:	c919                	beqz	a0,156d4 <printk+0x522>
F:\git\MCU-CH573\Debug/srcc/printf.c:598
				printk_putc(*vstrp--, &count, info);
   156c0:	19fd                	addi	s3,s3,-1
   156c2:	8652                	mv	a2,s4
   156c4:	102c                	addi	a1,sp,40
   156c6:	fffff097          	auipc	ra,0xfffff
   156ca:	6f2080e7          	jalr	1778(ra) # 14db8 <printk_putc>
F:\git\MCU-CH573\Debug/srcc/printf.c:597
			cont_xd: while (*vstrp)
   156ce:	00098503          	lb	a0,0(s3)
   156d2:	f57d                	bnez	a0,156c0 <printk+0x50e>
F:\git\MCU-CH573\Debug/srcc/printf.c:600

			if (IS_FLAG_MINUS(flags_used)) {
   156d4:	8885                	andi	s1,s1,1
   156d6:	b4048ce3          	beqz	s1,1522e <printk+0x7c>
F:\git\MCU-CH573\Debug/srcc/printf.c:601
				printk_pad_space(vlen, field_width, &count, info);
   156da:	86d2                	mv	a3,s4
   156dc:	1030                	addi	a2,sp,40
   156de:	85ca                	mv	a1,s2
   156e0:	855a                	mv	a0,s6
   156e2:	fffff097          	auipc	ra,0xfffff
   156e6:	794080e7          	jalr	1940(ra) # 14e76 <printk_pad_space>
   156ea:	b691                	j	1522e <printk+0x7c>
F:\git\MCU-CH573\Debug/srcc/printf.c:593
					printk_pad_space(vlen, field_width, &count, info);
   156ec:	86d2                	mv	a3,s4
   156ee:	1030                	addi	a2,sp,40
   156f0:	85ca                	mv	a1,s2
   156f2:	855a                	mv	a0,s6
   156f4:	fffff097          	auipc	ra,0xfffff
   156f8:	782080e7          	jalr	1922(ra) # 14e76 <printk_pad_space>
F:\git\MCU-CH573\Debug/srcc/printf.c:597
			cont_xd: while (*vstrp)
   156fc:	00098503          	lb	a0,0(s3)
   15700:	f161                	bnez	a0,156c0 <printk+0x50e>
   15702:	b635                	j	1522e <printk+0x7c>
printk_pad_zero():
F:\git\MCU-CH573\Debug/srcc/printf.c:179
	for (i = curlen; i < field_width; i++) {
   15704:	8b4a                	mv	s6,s2
printk():
F:\git\MCU-CH573\Debug/srcc/printf.c:391
			ival = (int) va_arg1(ap, int);  //返回当前参数，并将ap指向下一个参数
   15706:	4bb2                	lw	s7,12(sp)
   15708:	bf4d                	j	156ba <printk+0x508>
printk_pad_zero():
F:\git\MCU-CH573\Debug/srcc/printf.c:179
	for (i = curlen; i < field_width; i++) {
   1570a:	8b4a                	mv	s6,s2
printk():
F:\git\MCU-CH573\Debug/srcc/printf.c:533
			uval = (unsigned int) va_arg1(ap, unsigned int);
   1570c:	8bee                	mv	s7,s11
   1570e:	b775                	j	156ba <printk+0x508>
   15710:	8b4a                	mv	s6,s2
   15712:	8bee                	mv	s7,s11
   15714:	b75d                	j	156ba <printk+0x508>
printk_pad_zero():
F:\git\MCU-CH573\Debug/srcc/printf.c:179
	for (i = curlen; i < field_width; i++) {
   15716:	8b4a                	mv	s6,s2
   15718:	b74d                	j	156ba <printk+0x508>
printk():
F:\git\MCU-CH573\Debug/srcc/printf.c:607
			}

			break;
        //字符型输出
		case 'c':
			cval = (char) va_arg1(ap, unsigned int);
   1571a:	004b8493          	addi	s1,s7,4
F:\git\MCU-CH573\Debug/srcc/printf.c:608
			printk_putc(cval, &count, info);
   1571e:	8652                	mv	a2,s4
   15720:	102c                	addi	a1,sp,40
   15722:	000b8503          	lb	a0,0(s7)
   15726:	fffff097          	auipc	ra,0xfffff
   1572a:	692080e7          	jalr	1682(ra) # 14db8 <printk_putc>
F:\git\MCU-CH573\Debug/srcc/printf.c:607
			cval = (char) va_arg1(ap, unsigned int);
   1572e:	8ba6                	mv	s7,s1
F:\git\MCU-CH573\Debug/srcc/printf.c:609
			break;
   15730:	bcfd                	j	1522e <printk+0x7c>
F:\git\MCU-CH573\Debug/srcc/printf.c:611
		case 's':
			sval = (char *) va_arg1(ap, char *);
   15732:	004b8d93          	addi	s11,s7,4
   15736:	000bab03          	lw	s6,0(s7)
   1573a:	8bee                	mv	s7,s11
F:\git\MCU-CH573\Debug/srcc/printf.c:612
			if (sval) {
   1573c:	ae0b09e3          	beqz	s6,1522e <printk+0x7c>
F:\git\MCU-CH573\Debug/srcc/printf.c:613
				vlen = strlen(sval);
   15740:	855a                	mv	a0,s6
   15742:	00002097          	auipc	ra,0x2
   15746:	f82080e7          	jalr	-126(ra) # 176c4 <strlen>
   1574a:	c62a                	sw	a0,12(sp)
F:\git\MCU-CH573\Debug/srcc/printf.c:614
				if (!IS_FLAG_MINUS(flags_used)) {
   1574c:	8885                	andi	s1,s1,1
   1574e:	cc85                	beqz	s1,15786 <printk+0x5d4>
F:\git\MCU-CH573\Debug/srcc/printf.c:617
					printk_pad_space(vlen, field_width, &count, info);
				}
				if(precision_width!=0)
   15750:	04099363          	bnez	s3,15796 <printk+0x5e4>
F:\git\MCU-CH573\Debug/srcc/printf.c:628
							printk_putc(*sval++, &count, info);					
					}
				}
				else    //precision_width=0情况
				{
					while (*sval)
   15754:	000b0503          	lb	a0,0(s6)
   15758:	c919                	beqz	a0,1576e <printk+0x5bc>
F:\git\MCU-CH573\Debug/srcc/printf.c:629
					   printk_putc(*sval++, &count, info);
   1575a:	0b05                	addi	s6,s6,1
   1575c:	8652                	mv	a2,s4
   1575e:	102c                	addi	a1,sp,40
   15760:	fffff097          	auipc	ra,0xfffff
   15764:	658080e7          	jalr	1624(ra) # 14db8 <printk_putc>
F:\git\MCU-CH573\Debug/srcc/printf.c:628
					while (*sval)
   15768:	000b0503          	lb	a0,0(s6)
   1576c:	f57d                	bnez	a0,1575a <printk+0x5a8>
F:\git\MCU-CH573\Debug/srcc/printf.c:611
			sval = (char *) va_arg1(ap, char *);
   1576e:	8bee                	mv	s7,s11
F:\git\MCU-CH573\Debug/srcc/printf.c:631
				}
				if (IS_FLAG_MINUS(flags_used)) {
   15770:	aa048fe3          	beqz	s1,1522e <printk+0x7c>
F:\git\MCU-CH573\Debug/srcc/printf.c:632
					printk_pad_space(vlen, field_width, &count, info);
   15774:	86d2                	mv	a3,s4
   15776:	1030                	addi	a2,sp,40
   15778:	85ca                	mv	a1,s2
   1577a:	4532                	lw	a0,12(sp)
   1577c:	fffff097          	auipc	ra,0xfffff
   15780:	6fa080e7          	jalr	1786(ra) # 14e76 <printk_pad_space>
   15784:	b46d                	j	1522e <printk+0x7c>
F:\git\MCU-CH573\Debug/srcc/printf.c:615
					printk_pad_space(vlen, field_width, &count, info);
   15786:	86d2                	mv	a3,s4
   15788:	1030                	addi	a2,sp,40
   1578a:	85ca                	mv	a1,s2
   1578c:	fffff097          	auipc	ra,0xfffff
   15790:	6ea080e7          	jalr	1770(ra) # 14e76 <printk_pad_space>
   15794:	bf75                	j	15750 <printk+0x59e>
F:\git\MCU-CH573\Debug/srcc/printf.c:620
					while (precision_width>=1&&*sval)
   15796:	fd305ce3          	blez	s3,1576e <printk+0x5bc>
   1579a:	000b0503          	lb	a0,0(s6)
   1579e:	d961                	beqz	a0,1576e <printk+0x5bc>
   157a0:	99da                	add	s3,s3,s6
F:\git\MCU-CH573\Debug/srcc/printf.c:623
							printk_putc(*sval++, &count, info);					
   157a2:	0b05                	addi	s6,s6,1
   157a4:	8652                	mv	a2,s4
   157a6:	102c                	addi	a1,sp,40
   157a8:	fffff097          	auipc	ra,0xfffff
   157ac:	610080e7          	jalr	1552(ra) # 14db8 <printk_putc>
F:\git\MCU-CH573\Debug/srcc/printf.c:620
					while (precision_width>=1&&*sval)
   157b0:	fb3b0fe3          	beq	s6,s3,1576e <printk+0x5bc>
F:\git\MCU-CH573\Debug/srcc/printf.c:620 (discriminator 1)
   157b4:	000b0503          	lb	a0,0(s6)
   157b8:	f56d                	bnez	a0,157a2 <printk+0x5f0>
   157ba:	bf55                	j	1576e <printk+0x5bc>
F:\git\MCU-CH573\Debug/srcc/printf.c:637
				}
			}
			break;
		case 'n':
			ivalp = (int *) va_arg1(ap, int *);
   157bc:	000ba783          	lw	a5,0(s7)
F:\git\MCU-CH573\Debug/srcc/printf.c:638
			*ivalp = count;
   157c0:	5722                	lw	a4,40(sp)
   157c2:	c398                	sw	a4,0(a5)
F:\git\MCU-CH573\Debug/srcc/printf.c:637
			ivalp = (int *) va_arg1(ap, int *);
   157c4:	0b91                	addi	s7,s7,4
F:\git\MCU-CH573\Debug/srcc/printf.c:639
			break;
   157c6:	b4a5                	j	1522e <printk+0x7c>
F:\git\MCU-CH573\Debug/srcc/printf.c:642

		default:
			printk_putc(c, &count, info);
   157c8:	8652                	mv	a2,s4
   157ca:	102c                	addi	a1,sp,40
   157cc:	fffff097          	auipc	ra,0xfffff
   157d0:	5ec080e7          	jalr	1516(ra) # 14db8 <printk_putc>
F:\git\MCU-CH573\Debug/srcc/printf.c:643
			break;
   157d4:	bca9                	j	1522e <printk+0x7c>
F:\git\MCU-CH573\Debug/srcc/printf.c:561
			if ((IS_FLAG_POUND(flags_used)) && !dschar) {
   157d6:	0104f793          	andi	a5,s1,16
   157da:	c7b5                	beqz	a5,15846 <printk+0x694>
F:\git\MCU-CH573\Debug/srcc/printf.c:562
				printk_putc('0', &count, info);
   157dc:	8652                	mv	a2,s4
   157de:	102c                	addi	a1,sp,40
   157e0:	03000513          	li	a0,48
   157e4:	fffff097          	auipc	ra,0xfffff
   157e8:	5d4080e7          	jalr	1492(ra) # 14db8 <printk_putc>
F:\git\MCU-CH573\Debug/srcc/printf.c:563
				printk_putc('x', &count, info);
   157ec:	8652                	mv	a2,s4
   157ee:	102c                	addi	a1,sp,40
   157f0:	07800513          	li	a0,120
   157f4:	fffff097          	auipc	ra,0xfffff
   157f8:	5c4080e7          	jalr	1476(ra) # 14db8 <printk_putc>
F:\git\MCU-CH573\Debug/srcc/printf.c:564
				vlen += 2;
   157fc:	0b09                	addi	s6,s6,2
F:\git\MCU-CH573\Debug/srcc/printf.c:533
			uval = (unsigned int) va_arg1(ap, unsigned int);
   157fe:	8bee                	mv	s7,s11
   15800:	bd6d                	j	156ba <printk+0x508>
printk_pad_zero():
F:\git\MCU-CH573\Debug/srcc/printf.c:179
	for (i = curlen; i < field_width; i++) {
   15802:	8b4a                	mv	s6,s2
printk():
F:\git\MCU-CH573\Debug/srcc/printf.c:533
			uval = (unsigned int) va_arg1(ap, unsigned int);
   15804:	8bee                	mv	s7,s11
   15806:	bd55                	j	156ba <printk+0x508>
F:\git\MCU-CH573\Debug/srcc/printf.c:552
					printk_pad_space(vlen, field_width, &count, info);
   15808:	86d2                	mv	a3,s4
   1580a:	1030                	addi	a2,sp,40
   1580c:	85ca                	mv	a1,s2
   1580e:	fffff097          	auipc	ra,0xfffff
   15812:	668080e7          	jalr	1640(ra) # 14e76 <printk_pad_space>
F:\git\MCU-CH573\Debug/srcc/printf.c:597
			cont_xd: while (*vstrp)
   15816:	00098503          	lb	a0,0(s3)
   1581a:	8bee                	mv	s7,s11
   1581c:	ea0512e3          	bnez	a0,156c0 <printk+0x50e>
   15820:	b439                	j	1522e <printk+0x7c>
F:\git\MCU-CH573\Debug/srcc/printf.c:419
			if (IS_FLAG_ZERO(flags_used)) {
   15822:	0084fd93          	andi	s11,s1,8
   15826:	ba0d96e3          	bnez	s11,153d2 <printk+0x220>
F:\git\MCU-CH573\Debug/srcc/printf.c:426
				if (!IS_FLAG_MINUS(flags_used)) {
   1582a:	0014f793          	andi	a5,s1,1
   1582e:	b60796e3          	bnez	a5,1539a <printk+0x1e8>
F:\git\MCU-CH573\Debug/srcc/printf.c:427
					printk_pad_space(vlen, field_width, &count, info);  //输出空格
   15832:	86d2                	mv	a3,s4
   15834:	1030                	addi	a2,sp,40
   15836:	85ca                	mv	a1,s2
   15838:	855a                	mv	a0,s6
   1583a:	fffff097          	auipc	ra,0xfffff
   1583e:	63c080e7          	jalr	1596(ra) # 14e76 <printk_pad_space>
F:\git\MCU-CH573\Debug/srcc/printf.c:391
			ival = (int) va_arg1(ap, int);  //返回当前参数，并将ap指向下一个参数
   15842:	4bb2                	lw	s7,12(sp)
   15844:	bd65                	j	156fc <printk+0x54a>
F:\git\MCU-CH573\Debug/srcc/printf.c:597
			cont_xd: while (*vstrp)
   15846:	00098503          	lb	a0,0(s3)
F:\git\MCU-CH573\Debug/srcc/printf.c:533
			uval = (unsigned int) va_arg1(ap, unsigned int);
   1584a:	8bee                	mv	s7,s11
F:\git\MCU-CH573\Debug/srcc/printf.c:597
			cont_xd: while (*vstrp)
   1584c:	e6051ae3          	bnez	a0,156c0 <printk+0x50e>
   15850:	b569                	j	156da <printk+0x528>
F:\git\MCU-CH573\Debug/srcc/printf.c:427
					printk_pad_space(vlen, field_width, &count, info);  //输出空格
   15852:	86d2                	mv	a3,s4
   15854:	1030                	addi	a2,sp,40
   15856:	85ca                	mv	a1,s2
   15858:	855a                	mv	a0,s6
   1585a:	fffff097          	auipc	ra,0xfffff
   1585e:	61c080e7          	jalr	1564(ra) # 14e76 <printk_pad_space>
F:\git\MCU-CH573\Debug/srcc/printf.c:430
						printk_putc(schar, &count, info);
   15862:	8652                	mv	a2,s4
   15864:	102c                	addi	a1,sp,40
   15866:	856e                	mv	a0,s11
   15868:	fffff097          	auipc	ra,0xfffff
   1586c:	550080e7          	jalr	1360(ra) # 14db8 <printk_putc>
F:\git\MCU-CH573\Debug/srcc/printf.c:391
			ival = (int) va_arg1(ap, int);  //返回当前参数，并将ap指向下一个参数
   15870:	4bb2                	lw	s7,12(sp)
   15872:	b569                	j	156fc <printk+0x54a>
F:\git\MCU-CH573\Debug/srcc/printf.c:646
		}
	}
	return count;
   15874:	5522                	lw	a0,40(sp)
F:\git\MCU-CH573\Debug/srcc/printf.c:647
}
   15876:	40ba                	lw	ra,140(sp)
   15878:	442a                	lw	s0,136(sp)
   1587a:	449a                	lw	s1,132(sp)
   1587c:	490a                	lw	s2,128(sp)
   1587e:	59f6                	lw	s3,124(sp)
   15880:	5a66                	lw	s4,120(sp)
   15882:	5ad6                	lw	s5,116(sp)
   15884:	5b46                	lw	s6,112(sp)
   15886:	5bb6                	lw	s7,108(sp)
   15888:	5c26                	lw	s8,104(sp)
   1588a:	5c96                	lw	s9,100(sp)
   1588c:	5d06                	lw	s10,96(sp)
   1588e:	4df6                	lw	s11,92(sp)
   15890:	6149                	addi	sp,sp,144
   15892:	8082                	ret

00015894 <myprintf>:
myprintf():
F:\git\MCU-CH573\Debug/srcc/printf.c:656
//参数说明：const char *:打印参数字符串：对输入的字符串进行解析并按格式输出
//       例如： printf("c=%c\n",c); 将c按char型进行输出
//函数返回：字符串长度
//======================================================================
int myprintf(const char *fmt, ...)
{
   15894:	7139                	addi	sp,sp,-64
   15896:	ce06                	sw	ra,28(sp)
   15898:	d22e                	sw	a1,36(sp)
   1589a:	d432                	sw	a2,40(sp)
   1589c:	d636                	sw	a3,44(sp)
   1589e:	d83a                	sw	a4,48(sp)
   158a0:	da3e                	sw	a5,52(sp)
   158a2:	dc42                	sw	a6,56(sp)
   158a4:	de46                	sw	a7,60(sp)
F:\git\MCU-CH573\Debug/srcc/printf.c:662
	//char * ap;
  va_list ap;
	char c;
	int rvalue;
	PRINTK_INFO info;
	info.dest = DEST_CONSOLE;  //宏定义为1
   158a6:	4785                	li	a5,1
   158a8:	c03e                	sw	a5,0(sp)
F:\git\MCU-CH573\Debug/srcc/printf.c:663
	info.func = &out_char;     //调用的串口输出函数
   158aa:	fffff797          	auipc	a5,0xfffff
   158ae:	60878793          	addi	a5,a5,1544 # 14eb2 <out_char>
   158b2:	c23e                	sw	a5,4(sp)
F:\git\MCU-CH573\Debug/srcc/printf.c:664
	va_start(ap, fmt);  //对ap 进行初始化，让它指向可变参数表里面的第一个参数
   158b4:	1050                	addi	a2,sp,36
   158b6:	c632                	sw	a2,12(sp)
F:\git\MCU-CH573\Debug/srcc/printf.c:665
	rvalue = printk(&info, fmt, ap);
   158b8:	85aa                	mv	a1,a0
   158ba:	850a                	mv	a0,sp
   158bc:	00000097          	auipc	ra,0x0
   158c0:	8f6080e7          	jalr	-1802(ra) # 151b2 <printk>
F:\git\MCU-CH573\Debug/srcc/printf.c:670
    
	va_end(ap);

	return rvalue;
}
   158c4:	40f2                	lw	ra,28(sp)
   158c6:	6121                	addi	sp,sp,64
   158c8:	8082                	ret

000158ca <__udivdi3>:
__udivdi3():
   158ca:	87b6                	mv	a5,a3
   158cc:	88b2                	mv	a7,a2
   158ce:	832a                	mv	t1,a0
   158d0:	882e                	mv	a6,a1
   158d2:	14069d63          	bnez	a3,15a2c <__udivdi3+0x162>
   158d6:	0ac5f963          	bgeu	a1,a2,15988 <__udivdi3+0xbe>
   158da:	6741                	lui	a4,0x10
   158dc:	1ae66e63          	bltu	a2,a4,15a98 <__udivdi3+0x1ce>
   158e0:	010007b7          	lui	a5,0x1000
   158e4:	34f66363          	bltu	a2,a5,15c2a <__udivdi3+0x360>
   158e8:	01865693          	srli	a3,a2,0x18
   158ec:	47e1                	li	a5,24
   158ee:	00002717          	auipc	a4,0x2
   158f2:	0d270713          	addi	a4,a4,210 # 179c0 <__clz_tab>
   158f6:	9736                	add	a4,a4,a3
   158f8:	00074703          	lbu	a4,0(a4)
   158fc:	97ba                	add	a5,a5,a4
   158fe:	02000713          	li	a4,32
   15902:	8f1d                	sub	a4,a4,a5
   15904:	cb19                	beqz	a4,1591a <__udivdi3+0x50>
   15906:	00e59833          	sll	a6,a1,a4
   1590a:	00f557b3          	srl	a5,a0,a5
   1590e:	00e618b3          	sll	a7,a2,a4
   15912:	0107e833          	or	a6,a5,a6
   15916:	00e51333          	sll	t1,a0,a4
   1591a:	0108d613          	srli	a2,a7,0x10
   1591e:	02c85533          	divu	a0,a6,a2
   15922:	01089693          	slli	a3,a7,0x10
   15926:	82c1                	srli	a3,a3,0x10
   15928:	01035793          	srli	a5,t1,0x10
   1592c:	02c87733          	remu	a4,a6,a2
   15930:	02a685b3          	mul	a1,a3,a0
   15934:	0742                	slli	a4,a4,0x10
   15936:	00f76833          	or	a6,a4,a5
   1593a:	00b87a63          	bgeu	a6,a1,1594e <__udivdi3+0x84>
   1593e:	9846                	add	a6,a6,a7
   15940:	fff50793          	addi	a5,a0,-1
   15944:	01186463          	bltu	a6,a7,1594c <__udivdi3+0x82>
   15948:	30b86763          	bltu	a6,a1,15c56 <__udivdi3+0x38c>
   1594c:	853e                	mv	a0,a5
   1594e:	40b80833          	sub	a6,a6,a1
   15952:	02c85733          	divu	a4,a6,a2
   15956:	0342                	slli	t1,t1,0x10
   15958:	01035313          	srli	t1,t1,0x10
   1595c:	02c87833          	remu	a6,a6,a2
   15960:	02e686b3          	mul	a3,a3,a4
   15964:	0842                	slli	a6,a6,0x10
   15966:	00686833          	or	a6,a6,t1
   1596a:	00d87b63          	bgeu	a6,a3,15980 <__udivdi3+0xb6>
   1596e:	9846                	add	a6,a6,a7
   15970:	fff70793          	addi	a5,a4,-1
   15974:	01186563          	bltu	a6,a7,1597e <__udivdi3+0xb4>
   15978:	1779                	addi	a4,a4,-2
   1597a:	00d86363          	bltu	a6,a3,15980 <__udivdi3+0xb6>
   1597e:	873e                	mv	a4,a5
   15980:	0542                	slli	a0,a0,0x10
   15982:	8d59                	or	a0,a0,a4
   15984:	4581                	li	a1,0
   15986:	8082                	ret
   15988:	e601                	bnez	a2,15990 <__udivdi3+0xc6>
   1598a:	4705                	li	a4,1
   1598c:	02c758b3          	divu	a7,a4,a2
   15990:	6741                	lui	a4,0x10
   15992:	0ee8ea63          	bltu	a7,a4,15a86 <__udivdi3+0x1bc>
   15996:	010007b7          	lui	a5,0x1000
   1599a:	28f8ec63          	bltu	a7,a5,15c32 <__udivdi3+0x368>
   1599e:	0188d693          	srli	a3,a7,0x18
   159a2:	47e1                	li	a5,24
   159a4:	00002717          	auipc	a4,0x2
   159a8:	01c70713          	addi	a4,a4,28 # 179c0 <__clz_tab>
   159ac:	9736                	add	a4,a4,a3
   159ae:	00074683          	lbu	a3,0(a4)
   159b2:	96be                	add	a3,a3,a5
   159b4:	02000793          	li	a5,32
   159b8:	8f95                	sub	a5,a5,a3
   159ba:	ebe5                	bnez	a5,15aaa <__udivdi3+0x1e0>
   159bc:	01089e93          	slli	t4,a7,0x10
   159c0:	41158733          	sub	a4,a1,a7
   159c4:	0108df13          	srli	t5,a7,0x10
   159c8:	010ede93          	srli	t4,t4,0x10
   159cc:	4585                	li	a1,1
   159ce:	01035793          	srli	a5,t1,0x10
   159d2:	03e75533          	divu	a0,a4,t5
   159d6:	03e77733          	remu	a4,a4,t5
   159da:	03d506b3          	mul	a3,a0,t4
   159de:	0742                	slli	a4,a4,0x10
   159e0:	8fd9                	or	a5,a5,a4
   159e2:	00d7fa63          	bgeu	a5,a3,159f6 <__udivdi3+0x12c>
   159e6:	97c6                	add	a5,a5,a7
   159e8:	fff50713          	addi	a4,a0,-1
   159ec:	0117e463          	bltu	a5,a7,159f4 <__udivdi3+0x12a>
   159f0:	26d7e663          	bltu	a5,a3,15c5c <__udivdi3+0x392>
   159f4:	853a                	mv	a0,a4
   159f6:	8f95                	sub	a5,a5,a3
   159f8:	03e7d733          	divu	a4,a5,t5
   159fc:	0342                	slli	t1,t1,0x10
   159fe:	01035313          	srli	t1,t1,0x10
   15a02:	03e7f7b3          	remu	a5,a5,t5
   15a06:	03d70eb3          	mul	t4,a4,t4
   15a0a:	07c2                	slli	a5,a5,0x10
   15a0c:	0067e7b3          	or	a5,a5,t1
   15a10:	01d7fb63          	bgeu	a5,t4,15a26 <__udivdi3+0x15c>
   15a14:	97c6                	add	a5,a5,a7
   15a16:	fff70693          	addi	a3,a4,-1
   15a1a:	0117e563          	bltu	a5,a7,15a24 <__udivdi3+0x15a>
   15a1e:	1779                	addi	a4,a4,-2
   15a20:	01d7e363          	bltu	a5,t4,15a26 <__udivdi3+0x15c>
   15a24:	8736                	mv	a4,a3
   15a26:	0542                	slli	a0,a0,0x10
   15a28:	8d59                	or	a0,a0,a4
   15a2a:	8082                	ret
   15a2c:	04d5e263          	bltu	a1,a3,15a70 <__udivdi3+0x1a6>
   15a30:	67c1                	lui	a5,0x10
   15a32:	04f6e263          	bltu	a3,a5,15a76 <__udivdi3+0x1ac>
   15a36:	010007b7          	lui	a5,0x1000
   15a3a:	1ef6e463          	bltu	a3,a5,15c22 <__udivdi3+0x358>
   15a3e:	0186d713          	srli	a4,a3,0x18
   15a42:	4861                	li	a6,24
   15a44:	00002797          	auipc	a5,0x2
   15a48:	f7c78793          	addi	a5,a5,-132 # 179c0 <__clz_tab>
   15a4c:	97ba                	add	a5,a5,a4
   15a4e:	0007c703          	lbu	a4,0(a5)
   15a52:	02000e13          	li	t3,32
   15a56:	9742                	add	a4,a4,a6
   15a58:	40ee0e33          	sub	t3,t3,a4
   15a5c:	0c0e1a63          	bnez	t3,15b30 <__udivdi3+0x266>
   15a60:	1cb6ed63          	bltu	a3,a1,15c3a <__udivdi3+0x370>
   15a64:	00c53533          	sltu	a0,a0,a2
   15a68:	00154513          	xori	a0,a0,1
   15a6c:	4581                	li	a1,0
   15a6e:	8082                	ret
   15a70:	4581                	li	a1,0
   15a72:	4501                	li	a0,0
   15a74:	8082                	ret
   15a76:	0ff00793          	li	a5,255
   15a7a:	1cd7f363          	bgeu	a5,a3,15c40 <__udivdi3+0x376>
   15a7e:	0086d713          	srli	a4,a3,0x8
   15a82:	4821                	li	a6,8
   15a84:	b7c1                	j	15a44 <__udivdi3+0x17a>
   15a86:	0ff00713          	li	a4,255
   15a8a:	86c6                	mv	a3,a7
   15a8c:	f1177ce3          	bgeu	a4,a7,159a4 <__udivdi3+0xda>
   15a90:	0088d693          	srli	a3,a7,0x8
   15a94:	47a1                	li	a5,8
   15a96:	b739                	j	159a4 <__udivdi3+0xda>
   15a98:	0ff00713          	li	a4,255
   15a9c:	86b2                	mv	a3,a2
   15a9e:	e4c778e3          	bgeu	a4,a2,158ee <__udivdi3+0x24>
   15aa2:	00865693          	srli	a3,a2,0x8
   15aa6:	47a1                	li	a5,8
   15aa8:	b599                	j	158ee <__udivdi3+0x24>
   15aaa:	00f898b3          	sll	a7,a7,a5
   15aae:	00d5d633          	srl	a2,a1,a3
   15ab2:	0108df13          	srli	t5,a7,0x10
   15ab6:	03e65e33          	divu	t3,a2,t5
   15aba:	00f59733          	sll	a4,a1,a5
   15abe:	00d556b3          	srl	a3,a0,a3
   15ac2:	8f55                	or	a4,a4,a3
   15ac4:	01089e93          	slli	t4,a7,0x10
   15ac8:	010ede93          	srli	t4,t4,0x10
   15acc:	00f51333          	sll	t1,a0,a5
   15ad0:	01075593          	srli	a1,a4,0x10
   15ad4:	03e676b3          	remu	a3,a2,t5
   15ad8:	03ce87b3          	mul	a5,t4,t3
   15adc:	06c2                	slli	a3,a3,0x10
   15ade:	8ecd                	or	a3,a3,a1
   15ae0:	00f6fb63          	bgeu	a3,a5,15af6 <__udivdi3+0x22c>
   15ae4:	96c6                	add	a3,a3,a7
   15ae6:	fffe0613          	addi	a2,t3,-1
   15aea:	1716e463          	bltu	a3,a7,15c52 <__udivdi3+0x388>
   15aee:	16f6f263          	bgeu	a3,a5,15c52 <__udivdi3+0x388>
   15af2:	1e79                	addi	t3,t3,-2
   15af4:	96c6                	add	a3,a3,a7
   15af6:	8e9d                	sub	a3,a3,a5
   15af8:	03e6d633          	divu	a2,a3,t5
   15afc:	01071793          	slli	a5,a4,0x10
   15b00:	83c1                	srli	a5,a5,0x10
   15b02:	03e6f6b3          	remu	a3,a3,t5
   15b06:	02ce8533          	mul	a0,t4,a2
   15b0a:	01069713          	slli	a4,a3,0x10
   15b0e:	8f5d                	or	a4,a4,a5
   15b10:	00a77b63          	bgeu	a4,a0,15b26 <__udivdi3+0x25c>
   15b14:	9746                	add	a4,a4,a7
   15b16:	fff60793          	addi	a5,a2,-1
   15b1a:	13176863          	bltu	a4,a7,15c4a <__udivdi3+0x380>
   15b1e:	12a77663          	bgeu	a4,a0,15c4a <__udivdi3+0x380>
   15b22:	1679                	addi	a2,a2,-2
   15b24:	9746                	add	a4,a4,a7
   15b26:	010e1593          	slli	a1,t3,0x10
   15b2a:	8f09                	sub	a4,a4,a0
   15b2c:	8dd1                	or	a1,a1,a2
   15b2e:	b545                	j	159ce <__udivdi3+0x104>
   15b30:	00e657b3          	srl	a5,a2,a4
   15b34:	01c696b3          	sll	a3,a3,t3
   15b38:	8edd                	or	a3,a3,a5
   15b3a:	00e5d333          	srl	t1,a1,a4
   15b3e:	0106df13          	srli	t5,a3,0x10
   15b42:	03e357b3          	divu	a5,t1,t5
   15b46:	01069e93          	slli	t4,a3,0x10
   15b4a:	010ede93          	srli	t4,t4,0x10
   15b4e:	01c59833          	sll	a6,a1,t3
   15b52:	00e55733          	srl	a4,a0,a4
   15b56:	01076833          	or	a6,a4,a6
   15b5a:	01085893          	srli	a7,a6,0x10
   15b5e:	01c61633          	sll	a2,a2,t3
   15b62:	03e37333          	remu	t1,t1,t5
   15b66:	02fe85b3          	mul	a1,t4,a5
   15b6a:	0342                	slli	t1,t1,0x10
   15b6c:	011368b3          	or	a7,t1,a7
   15b70:	00b8fb63          	bgeu	a7,a1,15b86 <__udivdi3+0x2bc>
   15b74:	98b6                	add	a7,a7,a3
   15b76:	fff78713          	addi	a4,a5,-1
   15b7a:	0cd8ea63          	bltu	a7,a3,15c4e <__udivdi3+0x384>
   15b7e:	0cb8f863          	bgeu	a7,a1,15c4e <__udivdi3+0x384>
   15b82:	17f9                	addi	a5,a5,-2
   15b84:	98b6                	add	a7,a7,a3
   15b86:	40b888b3          	sub	a7,a7,a1
   15b8a:	03e8d733          	divu	a4,a7,t5
   15b8e:	0842                	slli	a6,a6,0x10
   15b90:	01085813          	srli	a6,a6,0x10
   15b94:	03e8f8b3          	remu	a7,a7,t5
   15b98:	02ee8333          	mul	t1,t4,a4
   15b9c:	08c2                	slli	a7,a7,0x10
   15b9e:	0108e5b3          	or	a1,a7,a6
   15ba2:	0065fb63          	bgeu	a1,t1,15bb8 <__udivdi3+0x2ee>
   15ba6:	95b6                	add	a1,a1,a3
   15ba8:	fff70813          	addi	a6,a4,-1
   15bac:	08d5ed63          	bltu	a1,a3,15c46 <__udivdi3+0x37c>
   15bb0:	0865fb63          	bgeu	a1,t1,15c46 <__udivdi3+0x37c>
   15bb4:	1779                	addi	a4,a4,-2
   15bb6:	95b6                	add	a1,a1,a3
   15bb8:	07c2                	slli	a5,a5,0x10
   15bba:	6f41                	lui	t5,0x10
   15bbc:	8fd9                	or	a5,a5,a4
   15bbe:	ffff0713          	addi	a4,t5,-1 # ffff <MCU_SECTORSIZE+0xefff>
   15bc2:	00e7f6b3          	and	a3,a5,a4
   15bc6:	0107d893          	srli	a7,a5,0x10
   15bca:	8f71                	and	a4,a4,a2
   15bcc:	8241                	srli	a2,a2,0x10
   15bce:	02e68eb3          	mul	t4,a3,a4
   15bd2:	406585b3          	sub	a1,a1,t1
   15bd6:	02c686b3          	mul	a3,a3,a2
   15bda:	010ed813          	srli	a6,t4,0x10
   15bde:	02e88733          	mul	a4,a7,a4
   15be2:	96ba                	add	a3,a3,a4
   15be4:	96c2                	add	a3,a3,a6
   15be6:	02c88633          	mul	a2,a7,a2
   15bea:	00e6f363          	bgeu	a3,a4,15bf0 <__udivdi3+0x326>
   15bee:	967a                	add	a2,a2,t5
   15bf0:	0106d893          	srli	a7,a3,0x10
   15bf4:	9646                	add	a2,a2,a7
   15bf6:	02c5e263          	bltu	a1,a2,15c1a <__udivdi3+0x350>
   15bfa:	00c58563          	beq	a1,a2,15c04 <__udivdi3+0x33a>
   15bfe:	853e                	mv	a0,a5
   15c00:	4581                	li	a1,0
   15c02:	8082                	ret
   15c04:	6741                	lui	a4,0x10
   15c06:	177d                	addi	a4,a4,-1
   15c08:	8ef9                	and	a3,a3,a4
   15c0a:	06c2                	slli	a3,a3,0x10
   15c0c:	00eefeb3          	and	t4,t4,a4
   15c10:	01c51533          	sll	a0,a0,t3
   15c14:	96f6                	add	a3,a3,t4
   15c16:	fed574e3          	bgeu	a0,a3,15bfe <__udivdi3+0x334>
   15c1a:	fff78513          	addi	a0,a5,-1
   15c1e:	4581                	li	a1,0
   15c20:	8082                	ret
   15c22:	0106d713          	srli	a4,a3,0x10
   15c26:	4841                	li	a6,16
   15c28:	bd31                	j	15a44 <__udivdi3+0x17a>
   15c2a:	01065693          	srli	a3,a2,0x10
   15c2e:	47c1                	li	a5,16
   15c30:	b97d                	j	158ee <__udivdi3+0x24>
   15c32:	0108d693          	srli	a3,a7,0x10
   15c36:	47c1                	li	a5,16
   15c38:	b3b5                	j	159a4 <__udivdi3+0xda>
   15c3a:	4581                	li	a1,0
   15c3c:	4505                	li	a0,1
   15c3e:	8082                	ret
   15c40:	8736                	mv	a4,a3
   15c42:	4801                	li	a6,0
   15c44:	b501                	j	15a44 <__udivdi3+0x17a>
   15c46:	8742                	mv	a4,a6
   15c48:	bf85                	j	15bb8 <__udivdi3+0x2ee>
   15c4a:	863e                	mv	a2,a5
   15c4c:	bde9                	j	15b26 <__udivdi3+0x25c>
   15c4e:	87ba                	mv	a5,a4
   15c50:	bf1d                	j	15b86 <__udivdi3+0x2bc>
   15c52:	8e32                	mv	t3,a2
   15c54:	b54d                	j	15af6 <__udivdi3+0x22c>
   15c56:	1579                	addi	a0,a0,-2
   15c58:	9846                	add	a6,a6,a7
   15c5a:	b9d5                	j	1594e <__udivdi3+0x84>
   15c5c:	1579                	addi	a0,a0,-2
   15c5e:	97c6                	add	a5,a5,a7
   15c60:	bb59                	j	159f6 <__udivdi3+0x12c>

00015c62 <__umoddi3>:
__umoddi3():
   15c62:	87b6                	mv	a5,a3
   15c64:	8832                	mv	a6,a2
   15c66:	832a                	mv	t1,a0
   15c68:	872e                	mv	a4,a1
   15c6a:	8e2e                	mv	t3,a1
   15c6c:	14069363          	bnez	a3,15db2 <__umoddi3+0x150>
   15c70:	0ac5f163          	bgeu	a1,a2,15d12 <__umoddi3+0xb0>
   15c74:	6741                	lui	a4,0x10
   15c76:	1ae67863          	bgeu	a2,a4,15e26 <__umoddi3+0x1c4>
   15c7a:	0ff00713          	li	a4,255
   15c7e:	86b2                	mv	a3,a2
   15c80:	00c77563          	bgeu	a4,a2,15c8a <__umoddi3+0x28>
   15c84:	00865693          	srli	a3,a2,0x8
   15c88:	47a1                	li	a5,8
   15c8a:	00002717          	auipc	a4,0x2
   15c8e:	d3670713          	addi	a4,a4,-714 # 179c0 <__clz_tab>
   15c92:	9736                	add	a4,a4,a3
   15c94:	00074703          	lbu	a4,0(a4)
   15c98:	02000893          	li	a7,32
   15c9c:	97ba                	add	a5,a5,a4
   15c9e:	40f888b3          	sub	a7,a7,a5
   15ca2:	00088c63          	beqz	a7,15cba <__umoddi3+0x58>
   15ca6:	011595b3          	sll	a1,a1,a7
   15caa:	00f557b3          	srl	a5,a0,a5
   15cae:	01161833          	sll	a6,a2,a7
   15cb2:	00b7ee33          	or	t3,a5,a1
   15cb6:	01151333          	sll	t1,a0,a7
   15cba:	01085613          	srli	a2,a6,0x10
   15cbe:	02ce57b3          	divu	a5,t3,a2
   15cc2:	01081513          	slli	a0,a6,0x10
   15cc6:	8141                	srli	a0,a0,0x10
   15cc8:	01035693          	srli	a3,t1,0x10
   15ccc:	02ce7e33          	remu	t3,t3,a2
   15cd0:	02f507b3          	mul	a5,a0,a5
   15cd4:	0e42                	slli	t3,t3,0x10
   15cd6:	00de6733          	or	a4,t3,a3
   15cda:	00f77863          	bgeu	a4,a5,15cea <__umoddi3+0x88>
   15cde:	9742                	add	a4,a4,a6
   15ce0:	01076563          	bltu	a4,a6,15cea <__umoddi3+0x88>
   15ce4:	00f77363          	bgeu	a4,a5,15cea <__umoddi3+0x88>
   15ce8:	9742                	add	a4,a4,a6
   15cea:	8f1d                	sub	a4,a4,a5
   15cec:	02c756b3          	divu	a3,a4,a2
   15cf0:	01031793          	slli	a5,t1,0x10
   15cf4:	83c1                	srli	a5,a5,0x10
   15cf6:	02c77733          	remu	a4,a4,a2
   15cfa:	02d50533          	mul	a0,a0,a3
   15cfe:	0742                	slli	a4,a4,0x10
   15d00:	8fd9                	or	a5,a5,a4
   15d02:	08a7ec63          	bltu	a5,a0,15d9a <__umoddi3+0x138>
   15d06:	40a78533          	sub	a0,a5,a0
   15d0a:	01155533          	srl	a0,a0,a7
   15d0e:	4581                	li	a1,0
   15d10:	8082                	ret
   15d12:	e601                	bnez	a2,15d1a <__umoddi3+0xb8>
   15d14:	4705                	li	a4,1
   15d16:	02c75833          	divu	a6,a4,a2
   15d1a:	6741                	lui	a4,0x10
   15d1c:	0ee86c63          	bltu	a6,a4,15e14 <__umoddi3+0x1b2>
   15d20:	010007b7          	lui	a5,0x1000
   15d24:	2af86563          	bltu	a6,a5,15fce <__umoddi3+0x36c>
   15d28:	01885693          	srli	a3,a6,0x18
   15d2c:	47e1                	li	a5,24
   15d2e:	00002717          	auipc	a4,0x2
   15d32:	c9270713          	addi	a4,a4,-878 # 179c0 <__clz_tab>
   15d36:	9736                	add	a4,a4,a3
   15d38:	00074703          	lbu	a4,0(a4)
   15d3c:	02000893          	li	a7,32
   15d40:	97ba                	add	a5,a5,a4
   15d42:	40f888b3          	sub	a7,a7,a5
   15d46:	1e089a63          	bnez	a7,15f3a <__umoddi3+0x2d8>
   15d4a:	01081e13          	slli	t3,a6,0x10
   15d4e:	410585b3          	sub	a1,a1,a6
   15d52:	01085613          	srli	a2,a6,0x10
   15d56:	010e5e13          	srli	t3,t3,0x10
   15d5a:	01035713          	srli	a4,t1,0x10
   15d5e:	02c5d6b3          	divu	a3,a1,a2
   15d62:	02c5f5b3          	remu	a1,a1,a2
   15d66:	03c686b3          	mul	a3,a3,t3
   15d6a:	05c2                	slli	a1,a1,0x10
   15d6c:	8f4d                	or	a4,a4,a1
   15d6e:	00d77763          	bgeu	a4,a3,15d7c <__umoddi3+0x11a>
   15d72:	9742                	add	a4,a4,a6
   15d74:	01076463          	bltu	a4,a6,15d7c <__umoddi3+0x11a>
   15d78:	26d76a63          	bltu	a4,a3,15fec <__umoddi3+0x38a>
   15d7c:	8f15                	sub	a4,a4,a3
   15d7e:	02c75533          	divu	a0,a4,a2
   15d82:	0342                	slli	t1,t1,0x10
   15d84:	01035313          	srli	t1,t1,0x10
   15d88:	02c77733          	remu	a4,a4,a2
   15d8c:	03c50533          	mul	a0,a0,t3
   15d90:	0742                	slli	a4,a4,0x10
   15d92:	006767b3          	or	a5,a4,t1
   15d96:	00a7f863          	bgeu	a5,a0,15da6 <__umoddi3+0x144>
   15d9a:	97c2                	add	a5,a5,a6
   15d9c:	0107e563          	bltu	a5,a6,15da6 <__umoddi3+0x144>
   15da0:	00a7f363          	bgeu	a5,a0,15da6 <__umoddi3+0x144>
   15da4:	97c2                	add	a5,a5,a6
   15da6:	40a78533          	sub	a0,a5,a0
   15daa:	01155533          	srl	a0,a0,a7
   15dae:	4581                	li	a1,0
   15db0:	8082                	ret
   15db2:	882a                	mv	a6,a0
   15db4:	f4d5eee3          	bltu	a1,a3,15d10 <__umoddi3+0xae>
   15db8:	67c1                	lui	a5,0x10
   15dba:	04f6e563          	bltu	a3,a5,15e04 <__umoddi3+0x1a2>
   15dbe:	010007b7          	lui	a5,0x1000
   15dc2:	20f6e263          	bltu	a3,a5,15fc6 <__umoddi3+0x364>
   15dc6:	0186d313          	srli	t1,a3,0x18
   15dca:	48e1                	li	a7,24
   15dcc:	00002797          	auipc	a5,0x2
   15dd0:	bf478793          	addi	a5,a5,-1036 # 179c0 <__clz_tab>
   15dd4:	979a                	add	a5,a5,t1
   15dd6:	0007ce03          	lbu	t3,0(a5)
   15dda:	02000313          	li	t1,32
   15dde:	9e46                	add	t3,t3,a7
   15de0:	41c30333          	sub	t1,t1,t3
   15de4:	04031963          	bnez	t1,15e36 <__umoddi3+0x1d4>
   15de8:	00b6e463          	bltu	a3,a1,15df0 <__umoddi3+0x18e>
   15dec:	00c56963          	bltu	a0,a2,15dfe <__umoddi3+0x19c>
   15df0:	40c50833          	sub	a6,a0,a2
   15df4:	8d95                	sub	a1,a1,a3
   15df6:	01053733          	sltu	a4,a0,a6
   15dfa:	40e58733          	sub	a4,a1,a4
   15dfe:	8542                	mv	a0,a6
   15e00:	85ba                	mv	a1,a4
   15e02:	8082                	ret
   15e04:	0ff00793          	li	a5,255
   15e08:	1cd7fb63          	bgeu	a5,a3,15fde <__umoddi3+0x37c>
   15e0c:	0086d313          	srli	t1,a3,0x8
   15e10:	48a1                	li	a7,8
   15e12:	bf6d                	j	15dcc <__umoddi3+0x16a>
   15e14:	0ff00713          	li	a4,255
   15e18:	86c2                	mv	a3,a6
   15e1a:	f1077ae3          	bgeu	a4,a6,15d2e <__umoddi3+0xcc>
   15e1e:	00885693          	srli	a3,a6,0x8
   15e22:	47a1                	li	a5,8
   15e24:	b729                	j	15d2e <__umoddi3+0xcc>
   15e26:	010007b7          	lui	a5,0x1000
   15e2a:	1af66663          	bltu	a2,a5,15fd6 <__umoddi3+0x374>
   15e2e:	01865693          	srli	a3,a2,0x18
   15e32:	47e1                	li	a5,24
   15e34:	bd99                	j	15c8a <__umoddi3+0x28>
   15e36:	01c657b3          	srl	a5,a2,t3
   15e3a:	006696b3          	sll	a3,a3,t1
   15e3e:	8edd                	or	a3,a3,a5
   15e40:	01c5d8b3          	srl	a7,a1,t3
   15e44:	0106d713          	srli	a4,a3,0x10
   15e48:	02e8deb3          	divu	t4,a7,a4
   15e4c:	01069f13          	slli	t5,a3,0x10
   15e50:	01c557b3          	srl	a5,a0,t3
   15e54:	010f5f13          	srli	t5,t5,0x10
   15e58:	006595b3          	sll	a1,a1,t1
   15e5c:	8ddd                	or	a1,a1,a5
   15e5e:	0105d813          	srli	a6,a1,0x10
   15e62:	00661633          	sll	a2,a2,t1
   15e66:	00651533          	sll	a0,a0,t1
   15e6a:	02e8f8b3          	remu	a7,a7,a4
   15e6e:	03df07b3          	mul	a5,t5,t4
   15e72:	08c2                	slli	a7,a7,0x10
   15e74:	0108e833          	or	a6,a7,a6
   15e78:	00f87b63          	bgeu	a6,a5,15e8e <__umoddi3+0x22c>
   15e7c:	9836                	add	a6,a6,a3
   15e7e:	fffe8893          	addi	a7,t4,-1
   15e82:	16d86363          	bltu	a6,a3,15fe8 <__umoddi3+0x386>
   15e86:	16f87163          	bgeu	a6,a5,15fe8 <__umoddi3+0x386>
   15e8a:	1ef9                	addi	t4,t4,-2
   15e8c:	9836                	add	a6,a6,a3
   15e8e:	40f80833          	sub	a6,a6,a5
   15e92:	02e857b3          	divu	a5,a6,a4
   15e96:	05c2                	slli	a1,a1,0x10
   15e98:	81c1                	srli	a1,a1,0x10
   15e9a:	02e87833          	remu	a6,a6,a4
   15e9e:	02ff0f33          	mul	t5,t5,a5
   15ea2:	01081713          	slli	a4,a6,0x10
   15ea6:	8f4d                	or	a4,a4,a1
   15ea8:	01e77b63          	bgeu	a4,t5,15ebe <__umoddi3+0x25c>
   15eac:	9736                	add	a4,a4,a3
   15eae:	fff78593          	addi	a1,a5,-1 # ffffff <_data_lma+0xfe853f>
   15eb2:	12d76963          	bltu	a4,a3,15fe4 <__umoddi3+0x382>
   15eb6:	13e77763          	bgeu	a4,t5,15fe4 <__umoddi3+0x382>
   15eba:	17f9                	addi	a5,a5,-2
   15ebc:	9736                	add	a4,a4,a3
   15ebe:	0ec2                	slli	t4,t4,0x10
   15ec0:	62c1                	lui	t0,0x10
   15ec2:	00feeeb3          	or	t4,t4,a5
   15ec6:	fff28813          	addi	a6,t0,-1 # ffff <MCU_SECTORSIZE+0xefff>
   15eca:	010ef8b3          	and	a7,t4,a6
   15ece:	01065593          	srli	a1,a2,0x10
   15ed2:	010ede93          	srli	t4,t4,0x10
   15ed6:	01067833          	and	a6,a2,a6
   15eda:	03088fb3          	mul	t6,a7,a6
   15ede:	41e70733          	sub	a4,a4,t5
   15ee2:	030e8833          	mul	a6,t4,a6
   15ee6:	010fd793          	srli	a5,t6,0x10
   15eea:	02b888b3          	mul	a7,a7,a1
   15eee:	98c2                	add	a7,a7,a6
   15ef0:	97c6                	add	a5,a5,a7
   15ef2:	02be8eb3          	mul	t4,t4,a1
   15ef6:	0107f363          	bgeu	a5,a6,15efc <__umoddi3+0x29a>
   15efa:	9e96                	add	t4,t4,t0
   15efc:	6841                	lui	a6,0x10
   15efe:	187d                	addi	a6,a6,-1
   15f00:	0107d593          	srli	a1,a5,0x10
   15f04:	0107f7b3          	and	a5,a5,a6
   15f08:	07c2                	slli	a5,a5,0x10
   15f0a:	010fffb3          	and	t6,t6,a6
   15f0e:	95f6                	add	a1,a1,t4
   15f10:	97fe                	add	a5,a5,t6
   15f12:	0ab76263          	bltu	a4,a1,15fb6 <__umoddi3+0x354>
   15f16:	08b70e63          	beq	a4,a1,15fb2 <__umoddi3+0x350>
   15f1a:	40f507b3          	sub	a5,a0,a5
   15f1e:	00f53533          	sltu	a0,a0,a5
   15f22:	40b705b3          	sub	a1,a4,a1
   15f26:	8d89                	sub	a1,a1,a0
   15f28:	01c59e33          	sll	t3,a1,t3
   15f2c:	0067d533          	srl	a0,a5,t1
   15f30:	00ae6533          	or	a0,t3,a0
   15f34:	0065d5b3          	srl	a1,a1,t1
   15f38:	8082                	ret
   15f3a:	01181833          	sll	a6,a6,a7
   15f3e:	00f5d733          	srl	a4,a1,a5
   15f42:	01085613          	srli	a2,a6,0x10
   15f46:	02c756b3          	divu	a3,a4,a2
   15f4a:	01081e13          	slli	t3,a6,0x10
   15f4e:	00f557b3          	srl	a5,a0,a5
   15f52:	010e5e13          	srli	t3,t3,0x10
   15f56:	011595b3          	sll	a1,a1,a7
   15f5a:	8ddd                	or	a1,a1,a5
   15f5c:	0105de93          	srli	t4,a1,0x10
   15f60:	01151333          	sll	t1,a0,a7
   15f64:	02c77733          	remu	a4,a4,a2
   15f68:	02de07b3          	mul	a5,t3,a3
   15f6c:	01071693          	slli	a3,a4,0x10
   15f70:	01d6e6b3          	or	a3,a3,t4
   15f74:	00f6f863          	bgeu	a3,a5,15f84 <__umoddi3+0x322>
   15f78:	96c2                	add	a3,a3,a6
   15f7a:	0106e563          	bltu	a3,a6,15f84 <__umoddi3+0x322>
   15f7e:	00f6f363          	bgeu	a3,a5,15f84 <__umoddi3+0x322>
   15f82:	96c2                	add	a3,a3,a6
   15f84:	8e9d                	sub	a3,a3,a5
   15f86:	02c6d733          	divu	a4,a3,a2
   15f8a:	01059793          	slli	a5,a1,0x10
   15f8e:	83c1                	srli	a5,a5,0x10
   15f90:	02c6f6b3          	remu	a3,a3,a2
   15f94:	02ee0733          	mul	a4,t3,a4
   15f98:	01069593          	slli	a1,a3,0x10
   15f9c:	8ddd                	or	a1,a1,a5
   15f9e:	00e5f863          	bgeu	a1,a4,15fae <__umoddi3+0x34c>
   15fa2:	95c2                	add	a1,a1,a6
   15fa4:	0105e563          	bltu	a1,a6,15fae <__umoddi3+0x34c>
   15fa8:	00e5f363          	bgeu	a1,a4,15fae <__umoddi3+0x34c>
   15fac:	95c2                	add	a1,a1,a6
   15fae:	8d99                	sub	a1,a1,a4
   15fb0:	b36d                	j	15d5a <__umoddi3+0xf8>
   15fb2:	f6f574e3          	bgeu	a0,a5,15f1a <__umoddi3+0x2b8>
   15fb6:	40c78633          	sub	a2,a5,a2
   15fba:	00c7b7b3          	sltu	a5,a5,a2
   15fbe:	97b6                	add	a5,a5,a3
   15fc0:	8d9d                	sub	a1,a1,a5
   15fc2:	87b2                	mv	a5,a2
   15fc4:	bf99                	j	15f1a <__umoddi3+0x2b8>
   15fc6:	0106d313          	srli	t1,a3,0x10
   15fca:	48c1                	li	a7,16
   15fcc:	b501                	j	15dcc <__umoddi3+0x16a>
   15fce:	01085693          	srli	a3,a6,0x10
   15fd2:	47c1                	li	a5,16
   15fd4:	bba9                	j	15d2e <__umoddi3+0xcc>
   15fd6:	01065693          	srli	a3,a2,0x10
   15fda:	47c1                	li	a5,16
   15fdc:	b17d                	j	15c8a <__umoddi3+0x28>
   15fde:	8336                	mv	t1,a3
   15fe0:	4881                	li	a7,0
   15fe2:	b3ed                	j	15dcc <__umoddi3+0x16a>
   15fe4:	87ae                	mv	a5,a1
   15fe6:	bde1                	j	15ebe <__umoddi3+0x25c>
   15fe8:	8ec6                	mv	t4,a7
   15fea:	b555                	j	15e8e <__umoddi3+0x22c>
   15fec:	9742                	add	a4,a4,a6
   15fee:	b379                	j	15d7c <__umoddi3+0x11a>

00015ff0 <__divdf3>:
__divdf3():
   15ff0:	7139                	addi	sp,sp,-64
   15ff2:	0145d793          	srli	a5,a1,0x14
   15ff6:	dc22                	sw	s0,56(sp)
   15ff8:	d84a                	sw	s2,48(sp)
   15ffa:	d256                	sw	s5,36(sp)
   15ffc:	892a                	mv	s2,a0
   15ffe:	00c59413          	slli	s0,a1,0xc
   16002:	de06                	sw	ra,60(sp)
   16004:	da26                	sw	s1,52(sp)
   16006:	d64e                	sw	s3,44(sp)
   16008:	d452                	sw	s4,40(sp)
   1600a:	d05a                	sw	s6,32(sp)
   1600c:	ce5e                	sw	s7,28(sp)
   1600e:	7ff7f513          	andi	a0,a5,2047
   16012:	8031                	srli	s0,s0,0xc
   16014:	01f5da93          	srli	s5,a1,0x1f
   16018:	10050d63          	beqz	a0,16132 <__divdf3+0x142>
   1601c:	7ff00793          	li	a5,2047
   16020:	14f50f63          	beq	a0,a5,1617e <__divdf3+0x18e>
   16024:	01d95a13          	srli	s4,s2,0x1d
   16028:	040e                	slli	s0,s0,0x3
   1602a:	008a6433          	or	s0,s4,s0
   1602e:	00800a37          	lui	s4,0x800
   16032:	01446a33          	or	s4,s0,s4
   16036:	00391b13          	slli	s6,s2,0x3
   1603a:	c0150493          	addi	s1,a0,-1023
   1603e:	4401                	li	s0,0
   16040:	4b81                	li	s7,0
   16042:	0146d813          	srli	a6,a3,0x14
   16046:	00c69913          	slli	s2,a3,0xc
   1604a:	7ff87813          	andi	a6,a6,2047
   1604e:	88b2                	mv	a7,a2
   16050:	00c95913          	srli	s2,s2,0xc
   16054:	01f6d993          	srli	s3,a3,0x1f
   16058:	08080e63          	beqz	a6,160f4 <__divdf3+0x104>
   1605c:	7ff00793          	li	a5,2047
   16060:	04f80063          	beq	a6,a5,160a0 <__divdf3+0xb0>
   16064:	01d65713          	srli	a4,a2,0x1d
   16068:	090e                	slli	s2,s2,0x3
   1606a:	01276933          	or	s2,a4,s2
   1606e:	c0180813          	addi	a6,a6,-1023 # fc01 <MCU_SECTORSIZE+0xec01>
   16072:	008007b7          	lui	a5,0x800
   16076:	00f96733          	or	a4,s2,a5
   1607a:	00361893          	slli	a7,a2,0x3
   1607e:	410484b3          	sub	s1,s1,a6
   16082:	4581                	li	a1,0
   16084:	47bd                	li	a5,15
   16086:	013ac833          	xor	a6,s5,s3
   1608a:	1a87e863          	bltu	a5,s0,1623a <__divdf3+0x24a>
   1608e:	00002797          	auipc	a5,0x2
   16092:	8b278793          	addi	a5,a5,-1870 # 17940 <strlen+0x27c>
   16096:	040a                	slli	s0,s0,0x2
   16098:	943e                	add	s0,s0,a5
   1609a:	4010                	lw	a2,0(s0)
   1609c:	963e                	add	a2,a2,a5
   1609e:	8602                	jr	a2
   160a0:	00c96733          	or	a4,s2,a2
   160a4:	80148493          	addi	s1,s1,-2047
   160a8:	10071663          	bnez	a4,161b4 <__divdf3+0x1c4>
   160ac:	00246413          	ori	s0,s0,2
   160b0:	4881                	li	a7,0
   160b2:	4589                	li	a1,2
   160b4:	bfc1                	j	16084 <__divdf3+0x94>
   160b6:	7ff00613          	li	a2,2047
   160ba:	4781                	li	a5,0
   160bc:	4701                	li	a4,0
   160be:	07b2                	slli	a5,a5,0xc
   160c0:	50f2                	lw	ra,60(sp)
   160c2:	5462                	lw	s0,56(sp)
   160c4:	0652                	slli	a2,a2,0x14
   160c6:	83b1                	srli	a5,a5,0xc
   160c8:	087e                	slli	a6,a6,0x1f
   160ca:	8fd1                	or	a5,a5,a2
   160cc:	0107e7b3          	or	a5,a5,a6
   160d0:	54d2                	lw	s1,52(sp)
   160d2:	5942                	lw	s2,48(sp)
   160d4:	59b2                	lw	s3,44(sp)
   160d6:	5a22                	lw	s4,40(sp)
   160d8:	5a92                	lw	s5,36(sp)
   160da:	5b02                	lw	s6,32(sp)
   160dc:	4bf2                	lw	s7,28(sp)
   160de:	853a                	mv	a0,a4
   160e0:	85be                	mv	a1,a5
   160e2:	6121                	addi	sp,sp,64
   160e4:	8082                	ret
   160e6:	4801                	li	a6,0
   160e8:	7ff00613          	li	a2,2047
   160ec:	000807b7          	lui	a5,0x80
   160f0:	4701                	li	a4,0
   160f2:	b7f1                	j	160be <__divdf3+0xce>
   160f4:	00c96733          	or	a4,s2,a2
   160f8:	cb4d                	beqz	a4,161aa <__divdf3+0x1ba>
   160fa:	30090e63          	beqz	s2,16416 <__divdf3+0x426>
   160fe:	854a                	mv	a0,s2
   16100:	c432                	sw	a2,8(sp)
   16102:	00001097          	auipc	ra,0x1
   16106:	54c080e7          	jalr	1356(ra) # 1764e <__clzsi2>
   1610a:	4622                	lw	a2,8(sp)
   1610c:	ff550713          	addi	a4,a0,-11
   16110:	47f5                	li	a5,29
   16112:	ff850693          	addi	a3,a0,-8
   16116:	8f99                	sub	a5,a5,a4
   16118:	00d91933          	sll	s2,s2,a3
   1611c:	00f657b3          	srl	a5,a2,a5
   16120:	0127e733          	or	a4,a5,s2
   16124:	00d618b3          	sll	a7,a2,a3
   16128:	9526                	add	a0,a0,s1
   1612a:	3f350493          	addi	s1,a0,1011
   1612e:	4581                	li	a1,0
   16130:	bf91                	j	16084 <__divdf3+0x94>
   16132:	01246a33          	or	s4,s0,s2
   16136:	060a0563          	beqz	s4,161a0 <__divdf3+0x1b0>
   1613a:	c636                	sw	a3,12(sp)
   1613c:	c432                	sw	a2,8(sp)
   1613e:	2a040863          	beqz	s0,163ee <__divdf3+0x3fe>
   16142:	8522                	mv	a0,s0
   16144:	00001097          	auipc	ra,0x1
   16148:	50a080e7          	jalr	1290(ra) # 1764e <__clzsi2>
   1614c:	4622                	lw	a2,8(sp)
   1614e:	46b2                	lw	a3,12(sp)
   16150:	84aa                	mv	s1,a0
   16152:	ff550713          	addi	a4,a0,-11
   16156:	4a75                	li	s4,29
   16158:	ff848b13          	addi	s6,s1,-8
   1615c:	40ea0a33          	sub	s4,s4,a4
   16160:	01641433          	sll	s0,s0,s6
   16164:	01495a33          	srl	s4,s2,s4
   16168:	008a6a33          	or	s4,s4,s0
   1616c:	01691b33          	sll	s6,s2,s6
   16170:	c0d00513          	li	a0,-1011
   16174:	409504b3          	sub	s1,a0,s1
   16178:	4401                	li	s0,0
   1617a:	4b81                	li	s7,0
   1617c:	b5d9                	j	16042 <__divdf3+0x52>
   1617e:	01246a33          	or	s4,s0,s2
   16182:	000a1863          	bnez	s4,16192 <__divdf3+0x1a2>
   16186:	4421                	li	s0,8
   16188:	4b01                	li	s6,0
   1618a:	7ff00493          	li	s1,2047
   1618e:	4b89                	li	s7,2
   16190:	bd4d                	j	16042 <__divdf3+0x52>
   16192:	8a22                	mv	s4,s0
   16194:	8b4a                	mv	s6,s2
   16196:	4431                	li	s0,12
   16198:	7ff00493          	li	s1,2047
   1619c:	4b8d                	li	s7,3
   1619e:	b555                	j	16042 <__divdf3+0x52>
   161a0:	4411                	li	s0,4
   161a2:	4b01                	li	s6,0
   161a4:	4481                	li	s1,0
   161a6:	4b85                	li	s7,1
   161a8:	bd69                	j	16042 <__divdf3+0x52>
   161aa:	00146413          	ori	s0,s0,1
   161ae:	4881                	li	a7,0
   161b0:	4585                	li	a1,1
   161b2:	bdc9                	j	16084 <__divdf3+0x94>
   161b4:	00346413          	ori	s0,s0,3
   161b8:	874a                	mv	a4,s2
   161ba:	458d                	li	a1,3
   161bc:	b5e1                	j	16084 <__divdf3+0x94>
   161be:	2e050e63          	beqz	a0,164ba <__divdf3+0x4ca>
   161c2:	4785                	li	a5,1
   161c4:	8f89                	sub	a5,a5,a0
   161c6:	03800693          	li	a3,56
   161ca:	34f6d163          	bge	a3,a5,1650c <__divdf3+0x51c>
   161ce:	4601                	li	a2,0
   161d0:	4781                	li	a5,0
   161d2:	4701                	li	a4,0
   161d4:	b5ed                	j	160be <__divdf3+0xce>
   161d6:	86ce                	mv	a3,s3
   161d8:	4789                	li	a5,2
   161da:	3cf58163          	beq	a1,a5,1659c <__divdf3+0x5ac>
   161de:	478d                	li	a5,3
   161e0:	f0f583e3          	beq	a1,a5,160e6 <__divdf3+0xf6>
   161e4:	4785                	li	a5,1
   161e6:	8836                	mv	a6,a3
   161e8:	fef583e3          	beq	a1,a5,161ce <__divdf3+0x1de>
   161ec:	3ff48513          	addi	a0,s1,1023
   161f0:	fca057e3          	blez	a0,161be <__divdf3+0x1ce>
   161f4:	0078f793          	andi	a5,a7,7
   161f8:	28079a63          	bnez	a5,1648c <__divdf3+0x49c>
   161fc:	0038d693          	srli	a3,a7,0x3
   16200:	00771793          	slli	a5,a4,0x7
   16204:	0007d863          	bgez	a5,16214 <__divdf3+0x224>
   16208:	ff0007b7          	lui	a5,0xff000
   1620c:	17fd                	addi	a5,a5,-1
   1620e:	8f7d                	and	a4,a4,a5
   16210:	40048513          	addi	a0,s1,1024
   16214:	7fe00793          	li	a5,2046
   16218:	e8a7cfe3          	blt	a5,a0,160b6 <__divdf3+0xc6>
   1621c:	01d71613          	slli	a2,a4,0x1d
   16220:	00971793          	slli	a5,a4,0x9
   16224:	83b1                	srli	a5,a5,0xc
   16226:	00d66733          	or	a4,a2,a3
   1622a:	7ff57613          	andi	a2,a0,2047
   1622e:	bd41                	j	160be <__divdf3+0xce>
   16230:	86d6                	mv	a3,s5
   16232:	8752                	mv	a4,s4
   16234:	88da                	mv	a7,s6
   16236:	85de                	mv	a1,s7
   16238:	b745                	j	161d8 <__divdf3+0x1e8>
   1623a:	23476563          	bltu	a4,s4,16464 <__divdf3+0x474>
   1623e:	22ea0163          	beq	s4,a4,16460 <__divdf3+0x470>
   16242:	86da                	mv	a3,s6
   16244:	14fd                	addi	s1,s1,-1
   16246:	8452                	mv	s0,s4
   16248:	4b01                	li	s6,0
   1624a:	00871793          	slli	a5,a4,0x8
   1624e:	0188d313          	srli	t1,a7,0x18
   16252:	00f36333          	or	t1,t1,a5
   16256:	01035e93          	srli	t4,t1,0x10
   1625a:	03d457b3          	divu	a5,s0,t4
   1625e:	01031f13          	slli	t5,t1,0x10
   16262:	010f5f13          	srli	t5,t5,0x10
   16266:	0106d593          	srli	a1,a3,0x10
   1626a:	00889e13          	slli	t3,a7,0x8
   1626e:	03d47433          	remu	s0,s0,t4
   16272:	02ff0733          	mul	a4,t5,a5
   16276:	0442                	slli	s0,s0,0x10
   16278:	8dc1                	or	a1,a1,s0
   1627a:	00e5fb63          	bgeu	a1,a4,16290 <__divdf3+0x2a0>
   1627e:	959a                	add	a1,a1,t1
   16280:	fff78613          	addi	a2,a5,-1 # feffffff <_eusrstack+0xdeff7fff>
   16284:	2865e263          	bltu	a1,t1,16508 <__divdf3+0x518>
   16288:	28e5f063          	bgeu	a1,a4,16508 <__divdf3+0x518>
   1628c:	17f9                	addi	a5,a5,-2
   1628e:	959a                	add	a1,a1,t1
   16290:	8d99                	sub	a1,a1,a4
   16292:	03d5d733          	divu	a4,a1,t4
   16296:	06c2                	slli	a3,a3,0x10
   16298:	82c1                	srli	a3,a3,0x10
   1629a:	03d5f5b3          	remu	a1,a1,t4
   1629e:	02ef0633          	mul	a2,t5,a4
   162a2:	05c2                	slli	a1,a1,0x10
   162a4:	8dd5                	or	a1,a1,a3
   162a6:	00c5fb63          	bgeu	a1,a2,162bc <__divdf3+0x2cc>
   162aa:	959a                	add	a1,a1,t1
   162ac:	fff70693          	addi	a3,a4,-1
   162b0:	2465ea63          	bltu	a1,t1,16504 <__divdf3+0x514>
   162b4:	24c5f863          	bgeu	a1,a2,16504 <__divdf3+0x514>
   162b8:	1779                	addi	a4,a4,-2
   162ba:	959a                	add	a1,a1,t1
   162bc:	07c2                	slli	a5,a5,0x10
   162be:	6441                	lui	s0,0x10
   162c0:	8f5d                	or	a4,a4,a5
   162c2:	fff40793          	addi	a5,s0,-1 # ffff <MCU_SECTORSIZE+0xefff>
   162c6:	00f77533          	and	a0,a4,a5
   162ca:	01075893          	srli	a7,a4,0x10
   162ce:	010e5f93          	srli	t6,t3,0x10
   162d2:	00fe77b3          	and	a5,t3,a5
   162d6:	02f502b3          	mul	t0,a0,a5
   162da:	40c586b3          	sub	a3,a1,a2
   162de:	02f883b3          	mul	t2,a7,a5
   162e2:	0102d593          	srli	a1,t0,0x10
   162e6:	02af8633          	mul	a2,t6,a0
   162ea:	961e                	add	a2,a2,t2
   162ec:	962e                	add	a2,a2,a1
   162ee:	03f88533          	mul	a0,a7,t6
   162f2:	00767363          	bgeu	a2,t2,162f8 <__divdf3+0x308>
   162f6:	9522                	add	a0,a0,s0
   162f8:	68c1                	lui	a7,0x10
   162fa:	18fd                	addi	a7,a7,-1
   162fc:	01065593          	srli	a1,a2,0x10
   16300:	01167633          	and	a2,a2,a7
   16304:	0642                	slli	a2,a2,0x10
   16306:	0112f8b3          	and	a7,t0,a7
   1630a:	95aa                	add	a1,a1,a0
   1630c:	9646                	add	a2,a2,a7
   1630e:	12b6ea63          	bltu	a3,a1,16442 <__divdf3+0x452>
   16312:	12b68663          	beq	a3,a1,1643e <__divdf3+0x44e>
   16316:	40cb0633          	sub	a2,s6,a2
   1631a:	8e8d                	sub	a3,a3,a1
   1631c:	00cb3b33          	sltu	s6,s6,a2
   16320:	41668b33          	sub	s6,a3,s6
   16324:	3ff48513          	addi	a0,s1,1023
   16328:	19630063          	beq	t1,s6,164a8 <__divdf3+0x4b8>
   1632c:	03db58b3          	divu	a7,s6,t4
   16330:	01065593          	srli	a1,a2,0x10
   16334:	03db7b33          	remu	s6,s6,t4
   16338:	031f06b3          	mul	a3,t5,a7
   1633c:	0b42                	slli	s6,s6,0x10
   1633e:	0165eb33          	or	s6,a1,s6
   16342:	00db7b63          	bgeu	s6,a3,16358 <__divdf3+0x368>
   16346:	9b1a                	add	s6,s6,t1
   16348:	fff88593          	addi	a1,a7,-1 # ffff <MCU_SECTORSIZE+0xefff>
   1634c:	226b6163          	bltu	s6,t1,1656e <__divdf3+0x57e>
   16350:	20db7f63          	bgeu	s6,a3,1656e <__divdf3+0x57e>
   16354:	18f9                	addi	a7,a7,-2
   16356:	9b1a                	add	s6,s6,t1
   16358:	40db0b33          	sub	s6,s6,a3
   1635c:	03db56b3          	divu	a3,s6,t4
   16360:	0642                	slli	a2,a2,0x10
   16362:	8241                	srli	a2,a2,0x10
   16364:	03db7b33          	remu	s6,s6,t4
   16368:	02df0f33          	mul	t5,t5,a3
   1636c:	0b42                	slli	s6,s6,0x10
   1636e:	01666633          	or	a2,a2,s6
   16372:	01e67b63          	bgeu	a2,t5,16388 <__divdf3+0x398>
   16376:	961a                	add	a2,a2,t1
   16378:	fff68593          	addi	a1,a3,-1
   1637c:	1e666b63          	bltu	a2,t1,16572 <__divdf3+0x582>
   16380:	1fe67963          	bgeu	a2,t5,16572 <__divdf3+0x582>
   16384:	16f9                	addi	a3,a3,-2
   16386:	961a                	add	a2,a2,t1
   16388:	08c2                	slli	a7,a7,0x10
   1638a:	00d8e8b3          	or	a7,a7,a3
   1638e:	01089593          	slli	a1,a7,0x10
   16392:	0108d293          	srli	t0,a7,0x10
   16396:	81c1                	srli	a1,a1,0x10
   16398:	02f58eb3          	mul	t4,a1,a5
   1639c:	41e60633          	sub	a2,a2,t5
   163a0:	02bf85b3          	mul	a1,t6,a1
   163a4:	010ed693          	srli	a3,t4,0x10
   163a8:	02f287b3          	mul	a5,t0,a5
   163ac:	95be                	add	a1,a1,a5
   163ae:	96ae                	add	a3,a3,a1
   163b0:	025f8fb3          	mul	t6,t6,t0
   163b4:	00f6f463          	bgeu	a3,a5,163bc <__divdf3+0x3cc>
   163b8:	67c1                	lui	a5,0x10
   163ba:	9fbe                	add	t6,t6,a5
   163bc:	65c1                	lui	a1,0x10
   163be:	15fd                	addi	a1,a1,-1
   163c0:	0106d793          	srli	a5,a3,0x10
   163c4:	8eed                	and	a3,a3,a1
   163c6:	06c2                	slli	a3,a3,0x10
   163c8:	00befeb3          	and	t4,t4,a1
   163cc:	9fbe                	add	t6,t6,a5
   163ce:	96f6                	add	a3,a3,t4
   163d0:	0bf67363          	bgeu	a2,t6,16476 <__divdf3+0x486>
   163d4:	961a                	add	a2,a2,t1
   163d6:	fff88793          	addi	a5,a7,-1
   163da:	1a666d63          	bltu	a2,t1,16594 <__divdf3+0x5a4>
   163de:	19f66c63          	bltu	a2,t6,16576 <__divdf3+0x586>
   163e2:	1df60363          	beq	a2,t6,165a8 <__divdf3+0x5b8>
   163e6:	88be                	mv	a7,a5
   163e8:	0018e893          	ori	a7,a7,1
   163ec:	b511                	j	161f0 <__divdf3+0x200>
   163ee:	854a                	mv	a0,s2
   163f0:	00001097          	auipc	ra,0x1
   163f4:	25e080e7          	jalr	606(ra) # 1764e <__clzsi2>
   163f8:	01550713          	addi	a4,a0,21
   163fc:	45f1                	li	a1,28
   163fe:	02050493          	addi	s1,a0,32
   16402:	4622                	lw	a2,8(sp)
   16404:	46b2                	lw	a3,12(sp)
   16406:	d4e5d8e3          	bge	a1,a4,16156 <__divdf3+0x166>
   1640a:	ff850413          	addi	s0,a0,-8
   1640e:	00891a33          	sll	s4,s2,s0
   16412:	4b01                	li	s6,0
   16414:	bbb1                	j	16170 <__divdf3+0x180>
   16416:	8532                	mv	a0,a2
   16418:	c432                	sw	a2,8(sp)
   1641a:	00001097          	auipc	ra,0x1
   1641e:	234080e7          	jalr	564(ra) # 1764e <__clzsi2>
   16422:	01550713          	addi	a4,a0,21
   16426:	46f1                	li	a3,28
   16428:	87aa                	mv	a5,a0
   1642a:	4622                	lw	a2,8(sp)
   1642c:	02050513          	addi	a0,a0,32
   16430:	cee6d0e3          	bge	a3,a4,16110 <__divdf3+0x120>
   16434:	17e1                	addi	a5,a5,-8
   16436:	00f61733          	sll	a4,a2,a5
   1643a:	4881                	li	a7,0
   1643c:	b1f5                	j	16128 <__divdf3+0x138>
   1643e:	eccb7ce3          	bgeu	s6,a2,16316 <__divdf3+0x326>
   16442:	9b72                	add	s6,s6,t3
   16444:	01cb3533          	sltu	a0,s6,t3
   16448:	951a                	add	a0,a0,t1
   1644a:	96aa                	add	a3,a3,a0
   1644c:	fff70513          	addi	a0,a4,-1
   16450:	02d37863          	bgeu	t1,a3,16480 <__divdf3+0x490>
   16454:	10b6e663          	bltu	a3,a1,16560 <__divdf3+0x570>
   16458:	10d58263          	beq	a1,a3,1655c <__divdf3+0x56c>
   1645c:	872a                	mv	a4,a0
   1645e:	bd65                	j	16316 <__divdf3+0x326>
   16460:	df1b61e3          	bltu	s6,a7,16242 <__divdf3+0x252>
   16464:	001b5593          	srli	a1,s6,0x1
   16468:	01fa1693          	slli	a3,s4,0x1f
   1646c:	001a5413          	srli	s0,s4,0x1
   16470:	8ecd                	or	a3,a3,a1
   16472:	0b7e                	slli	s6,s6,0x1f
   16474:	bbd9                	j	1624a <__divdf3+0x25a>
   16476:	f7f619e3          	bne	a2,t6,163e8 <__divdf3+0x3f8>
   1647a:	d6068be3          	beqz	a3,161f0 <__divdf3+0x200>
   1647e:	bf99                	j	163d4 <__divdf3+0x3e4>
   16480:	fcd31ee3          	bne	t1,a3,1645c <__divdf3+0x46c>
   16484:	fdcb78e3          	bgeu	s6,t3,16454 <__divdf3+0x464>
   16488:	872a                	mv	a4,a0
   1648a:	b571                	j	16316 <__divdf3+0x326>
   1648c:	00f8f793          	andi	a5,a7,15
   16490:	4691                	li	a3,4
   16492:	d6d785e3          	beq	a5,a3,161fc <__divdf3+0x20c>
   16496:	ffc8b793          	sltiu	a5,a7,-4
   1649a:	00488693          	addi	a3,a7,4
   1649e:	0017c793          	xori	a5,a5,1
   164a2:	828d                	srli	a3,a3,0x3
   164a4:	973e                	add	a4,a4,a5
   164a6:	bba9                	j	16200 <__divdf3+0x210>
   164a8:	4681                	li	a3,0
   164aa:	4785                	li	a5,1
   164ac:	fea04ce3          	bgtz	a0,164a4 <__divdf3+0x4b4>
   164b0:	58fd                	li	a7,-1
   164b2:	d00518e3          	bnez	a0,161c2 <__divdf3+0x1d2>
   164b6:	c0100493          	li	s1,-1023
   164ba:	4785                	li	a5,1
   164bc:	41e48513          	addi	a0,s1,1054
   164c0:	00a716b3          	sll	a3,a4,a0
   164c4:	00f8d633          	srl	a2,a7,a5
   164c8:	00a89533          	sll	a0,a7,a0
   164cc:	8ed1                	or	a3,a3,a2
   164ce:	00a03533          	snez	a0,a0
   164d2:	8ec9                	or	a3,a3,a0
   164d4:	0076f613          	andi	a2,a3,7
   164d8:	00f75733          	srl	a4,a4,a5
   164dc:	ce01                	beqz	a2,164f4 <__divdf3+0x504>
   164de:	00f6f793          	andi	a5,a3,15
   164e2:	4611                	li	a2,4
   164e4:	00c78863          	beq	a5,a2,164f4 <__divdf3+0x504>
   164e8:	00468793          	addi	a5,a3,4
   164ec:	00d7b6b3          	sltu	a3,a5,a3
   164f0:	9736                	add	a4,a4,a3
   164f2:	86be                	mv	a3,a5
   164f4:	00871793          	slli	a5,a4,0x8
   164f8:	0407d863          	bgez	a5,16548 <__divdf3+0x558>
   164fc:	4605                	li	a2,1
   164fe:	4781                	li	a5,0
   16500:	4701                	li	a4,0
   16502:	be75                	j	160be <__divdf3+0xce>
   16504:	8736                	mv	a4,a3
   16506:	bb5d                	j	162bc <__divdf3+0x2cc>
   16508:	87b2                	mv	a5,a2
   1650a:	b359                	j	16290 <__divdf3+0x2a0>
   1650c:	46fd                	li	a3,31
   1650e:	faf6d7e3          	bge	a3,a5,164bc <__divdf3+0x4cc>
   16512:	5605                	li	a2,-31
   16514:	8e09                	sub	a2,a2,a0
   16516:	02000693          	li	a3,32
   1651a:	00c75633          	srl	a2,a4,a2
   1651e:	00d78863          	beq	a5,a3,1652e <__divdf3+0x53e>
   16522:	43e48793          	addi	a5,s1,1086
   16526:	00f717b3          	sll	a5,a4,a5
   1652a:	00f8e8b3          	or	a7,a7,a5
   1652e:	011036b3          	snez	a3,a7
   16532:	8ed1                	or	a3,a3,a2
   16534:	0076f613          	andi	a2,a3,7
   16538:	4781                	li	a5,0
   1653a:	ce01                	beqz	a2,16552 <__divdf3+0x562>
   1653c:	00f6f793          	andi	a5,a3,15
   16540:	4611                	li	a2,4
   16542:	4701                	li	a4,0
   16544:	fac792e3          	bne	a5,a2,164e8 <__divdf3+0x4f8>
   16548:	00971793          	slli	a5,a4,0x9
   1654c:	01d71613          	slli	a2,a4,0x1d
   16550:	83b1                	srli	a5,a5,0xc
   16552:	0036d713          	srli	a4,a3,0x3
   16556:	8f51                	or	a4,a4,a2
   16558:	4601                	li	a2,0
   1655a:	b695                	j	160be <__divdf3+0xce>
   1655c:	f0cb70e3          	bgeu	s6,a2,1645c <__divdf3+0x46c>
   16560:	9b72                	add	s6,s6,t3
   16562:	01cb3533          	sltu	a0,s6,t3
   16566:	951a                	add	a0,a0,t1
   16568:	1779                	addi	a4,a4,-2
   1656a:	96aa                	add	a3,a3,a0
   1656c:	b36d                	j	16316 <__divdf3+0x326>
   1656e:	88ae                	mv	a7,a1
   16570:	b3e5                	j	16358 <__divdf3+0x368>
   16572:	86ae                	mv	a3,a1
   16574:	bd11                	j	16388 <__divdf3+0x398>
   16576:	001e1793          	slli	a5,t3,0x1
   1657a:	01c7be33          	sltu	t3,a5,t3
   1657e:	9372                	add	t1,t1,t3
   16580:	961a                	add	a2,a2,t1
   16582:	18f9                	addi	a7,a7,-2
   16584:	8e3e                	mv	t3,a5
   16586:	e7f611e3          	bne	a2,t6,163e8 <__divdf3+0x3f8>
   1658a:	c6de03e3          	beq	t3,a3,161f0 <__divdf3+0x200>
   1658e:	0018e893          	ori	a7,a7,1
   16592:	b9b9                	j	161f0 <__divdf3+0x200>
   16594:	88be                	mv	a7,a5
   16596:	fff60ae3          	beq	a2,t6,1658a <__divdf3+0x59a>
   1659a:	b5b9                	j	163e8 <__divdf3+0x3f8>
   1659c:	8836                	mv	a6,a3
   1659e:	7ff00613          	li	a2,2047
   165a2:	4781                	li	a5,0
   165a4:	4701                	li	a4,0
   165a6:	be21                	j	160be <__divdf3+0xce>
   165a8:	fcde67e3          	bltu	t3,a3,16576 <__divdf3+0x586>
   165ac:	88be                	mv	a7,a5
   165ae:	fede10e3          	bne	t3,a3,1658e <__divdf3+0x59e>
   165b2:	b93d                	j	161f0 <__divdf3+0x200>

000165b4 <__eqdf2>:
__eqdf2():
   165b4:	0145d713          	srli	a4,a1,0x14
   165b8:	001007b7          	lui	a5,0x100
   165bc:	17fd                	addi	a5,a5,-1
   165be:	0146d813          	srli	a6,a3,0x14
   165c2:	7ff77713          	andi	a4,a4,2047
   165c6:	7ff00893          	li	a7,2047
   165ca:	00b7fe33          	and	t3,a5,a1
   165ce:	8eaa                	mv	t4,a0
   165d0:	8ff5                	and	a5,a5,a3
   165d2:	81fd                	srli	a1,a1,0x1f
   165d4:	8f32                	mv	t5,a2
   165d6:	7ff87813          	andi	a6,a6,2047
   165da:	82fd                	srli	a3,a3,0x1f
   165dc:	01170b63          	beq	a4,a7,165f2 <__eqdf2+0x3e>
   165e0:	4305                	li	t1,1
   165e2:	01180663          	beq	a6,a7,165ee <__eqdf2+0x3a>
   165e6:	01071463          	bne	a4,a6,165ee <__eqdf2+0x3a>
   165ea:	00fe0d63          	beq	t3,a5,16604 <__eqdf2+0x50>
   165ee:	851a                	mv	a0,t1
   165f0:	8082                	ret
   165f2:	00ae68b3          	or	a7,t3,a0
   165f6:	4305                	li	t1,1
   165f8:	fe089be3          	bnez	a7,165ee <__eqdf2+0x3a>
   165fc:	fee819e3          	bne	a6,a4,165ee <__eqdf2+0x3a>
   16600:	8fd1                	or	a5,a5,a2
   16602:	f7f5                	bnez	a5,165ee <__eqdf2+0x3a>
   16604:	4305                	li	t1,1
   16606:	ffee94e3          	bne	t4,t5,165ee <__eqdf2+0x3a>
   1660a:	4301                	li	t1,0
   1660c:	fed581e3          	beq	a1,a3,165ee <__eqdf2+0x3a>
   16610:	4305                	li	t1,1
   16612:	ff71                	bnez	a4,165ee <__eqdf2+0x3a>
   16614:	00ae6533          	or	a0,t3,a0
   16618:	00a03333          	snez	t1,a0
   1661c:	bfc9                	j	165ee <__eqdf2+0x3a>

0001661e <__ledf2>:
__ltdf2():
   1661e:	0145d713          	srli	a4,a1,0x14
   16622:	001007b7          	lui	a5,0x100
   16626:	17fd                	addi	a5,a5,-1
   16628:	0146d813          	srli	a6,a3,0x14
   1662c:	7ff77713          	andi	a4,a4,2047
   16630:	7ff00893          	li	a7,2047
   16634:	00b7fe33          	and	t3,a5,a1
   16638:	8eaa                	mv	t4,a0
   1663a:	8ff5                	and	a5,a5,a3
   1663c:	81fd                	srli	a1,a1,0x1f
   1663e:	8f32                	mv	t5,a2
   16640:	7ff87813          	andi	a6,a6,2047
   16644:	82fd                	srli	a3,a3,0x1f
   16646:	03170e63          	beq	a4,a7,16682 <__ledf2+0x64>
   1664a:	01180d63          	beq	a6,a7,16664 <__ledf2+0x46>
   1664e:	e329                	bnez	a4,16690 <__ledf2+0x72>
   16650:	00ae68b3          	or	a7,t3,a0
   16654:	00081f63          	bnez	a6,16672 <__ledf2+0x54>
   16658:	8e5d                	or	a2,a2,a5
   1665a:	ee01                	bnez	a2,16672 <__ledf2+0x54>
   1665c:	4301                	li	t1,0
   1665e:	04088c63          	beqz	a7,166b6 <__ledf2+0x98>
   16662:	a821                	j	1667a <__ledf2+0x5c>
   16664:	00c7e8b3          	or	a7,a5,a2
   16668:	4309                	li	t1,2
   1666a:	04089663          	bnez	a7,166b6 <__ledf2+0x98>
   1666e:	d36d                	beqz	a4,16650 <__ledf2+0x32>
   16670:	a005                	j	16690 <__ledf2+0x72>
   16672:	04088463          	beqz	a7,166ba <__ledf2+0x9c>
   16676:	02d58563          	beq	a1,a3,166a0 <__ledf2+0x82>
   1667a:	4305                	li	t1,1
   1667c:	cd8d                	beqz	a1,166b6 <__ledf2+0x98>
   1667e:	537d                	li	t1,-1
   16680:	a81d                	j	166b6 <__ledf2+0x98>
   16682:	00ae68b3          	or	a7,t3,a0
   16686:	4309                	li	t1,2
   16688:	02089763          	bnez	a7,166b6 <__ledf2+0x98>
   1668c:	02e80a63          	beq	a6,a4,166c0 <__ledf2+0xa2>
   16690:	00081463          	bnez	a6,16698 <__ledf2+0x7a>
   16694:	8e5d                	or	a2,a2,a5
   16696:	d275                	beqz	a2,1667a <__ledf2+0x5c>
   16698:	fed591e3          	bne	a1,a3,1667a <__ledf2+0x5c>
   1669c:	fce84fe3          	blt	a6,a4,1667a <__ledf2+0x5c>
   166a0:	01074963          	blt	a4,a6,166b2 <__ledf2+0x94>
   166a4:	fdc7ebe3          	bltu	a5,t3,1667a <__ledf2+0x5c>
   166a8:	00fe0f63          	beq	t3,a5,166c6 <__ledf2+0xa8>
   166ac:	4301                	li	t1,0
   166ae:	00fe7463          	bgeu	t3,a5,166b6 <__ledf2+0x98>
   166b2:	d5f1                	beqz	a1,1667e <__ledf2+0x60>
   166b4:	4305                	li	t1,1
   166b6:	851a                	mv	a0,t1
   166b8:	8082                	ret
   166ba:	feed                	bnez	a3,166b4 <__ledf2+0x96>
   166bc:	537d                	li	t1,-1
   166be:	bfe5                	j	166b6 <__ledf2+0x98>
   166c0:	8e5d                	or	a2,a2,a5
   166c2:	da79                	beqz	a2,16698 <__ledf2+0x7a>
   166c4:	bfcd                	j	166b6 <__ledf2+0x98>
   166c6:	fbdf6ae3          	bltu	t5,t4,1667a <__ledf2+0x5c>
   166ca:	4301                	li	t1,0
   166cc:	ffeef5e3          	bgeu	t4,t5,166b6 <__ledf2+0x98>
   166d0:	f1f5                	bnez	a1,166b4 <__ledf2+0x96>
   166d2:	b775                	j	1667e <__ledf2+0x60>

000166d4 <__muldf3>:
__muldf3():
   166d4:	7139                	addi	sp,sp,-64
   166d6:	d84a                	sw	s2,48(sp)
   166d8:	0145d913          	srli	s2,a1,0x14
   166dc:	d64e                	sw	s3,44(sp)
   166de:	d452                	sw	s4,40(sp)
   166e0:	d256                	sw	s5,36(sp)
   166e2:	00c59993          	slli	s3,a1,0xc
   166e6:	de06                	sw	ra,60(sp)
   166e8:	dc22                	sw	s0,56(sp)
   166ea:	da26                	sw	s1,52(sp)
   166ec:	d05a                	sw	s6,32(sp)
   166ee:	ce5e                	sw	s7,28(sp)
   166f0:	7ff97913          	andi	s2,s2,2047
   166f4:	8a2a                	mv	s4,a0
   166f6:	00c9d993          	srli	s3,s3,0xc
   166fa:	01f5da93          	srli	s5,a1,0x1f
   166fe:	0e090d63          	beqz	s2,167f8 <__muldf3+0x124>
   16702:	7ff00793          	li	a5,2047
   16706:	18f90a63          	beq	s2,a5,1689a <__muldf3+0x1c6>
   1670a:	01d55413          	srli	s0,a0,0x1d
   1670e:	098e                	slli	s3,s3,0x3
   16710:	013469b3          	or	s3,s0,s3
   16714:	00800437          	lui	s0,0x800
   16718:	0089e433          	or	s0,s3,s0
   1671c:	00351493          	slli	s1,a0,0x3
   16720:	c0190913          	addi	s2,s2,-1023
   16724:	4981                	li	s3,0
   16726:	4b81                	li	s7,0
   16728:	0146d713          	srli	a4,a3,0x14
   1672c:	00c69a13          	slli	s4,a3,0xc
   16730:	7ff77713          	andi	a4,a4,2047
   16734:	85b2                	mv	a1,a2
   16736:	00ca5a13          	srli	s4,s4,0xc
   1673a:	01f6db13          	srli	s6,a3,0x1f
   1673e:	10070d63          	beqz	a4,16858 <__muldf3+0x184>
   16742:	7ff00793          	li	a5,2047
   16746:	04f70363          	beq	a4,a5,1678c <__muldf3+0xb8>
   1674a:	01d65793          	srli	a5,a2,0x1d
   1674e:	0a0e                	slli	s4,s4,0x3
   16750:	0147ea33          	or	s4,a5,s4
   16754:	c0170713          	addi	a4,a4,-1023
   16758:	008007b7          	lui	a5,0x800
   1675c:	00fa67b3          	or	a5,s4,a5
   16760:	00361593          	slli	a1,a2,0x3
   16764:	993a                	add	s2,s2,a4
   16766:	4881                	li	a7,0
   16768:	016ac733          	xor	a4,s5,s6
   1676c:	46bd                	li	a3,15
   1676e:	853a                	mv	a0,a4
   16770:	00190813          	addi	a6,s2,1
   16774:	1736ec63          	bltu	a3,s3,168ec <__muldf3+0x218>
   16778:	00001617          	auipc	a2,0x1
   1677c:	20860613          	addi	a2,a2,520 # 17980 <strlen+0x2bc>
   16780:	098a                	slli	s3,s3,0x2
   16782:	99b2                	add	s3,s3,a2
   16784:	0009a683          	lw	a3,0(s3)
   16788:	96b2                	add	a3,a3,a2
   1678a:	8682                	jr	a3
   1678c:	00ca67b3          	or	a5,s4,a2
   16790:	7ff90913          	addi	s2,s2,2047
   16794:	12079d63          	bnez	a5,168ce <__muldf3+0x1fa>
   16798:	0029e993          	ori	s3,s3,2
   1679c:	4581                	li	a1,0
   1679e:	4889                	li	a7,2
   167a0:	b7e1                	j	16768 <__muldf3+0x94>
   167a2:	4701                	li	a4,0
   167a4:	7ff00793          	li	a5,2047
   167a8:	00080437          	lui	s0,0x80
   167ac:	4481                	li	s1,0
   167ae:	0432                	slli	s0,s0,0xc
   167b0:	07d2                	slli	a5,a5,0x14
   167b2:	8031                	srli	s0,s0,0xc
   167b4:	077e                	slli	a4,a4,0x1f
   167b6:	8c5d                	or	s0,s0,a5
   167b8:	8c59                	or	s0,s0,a4
   167ba:	85a2                	mv	a1,s0
   167bc:	50f2                	lw	ra,60(sp)
   167be:	5462                	lw	s0,56(sp)
   167c0:	8526                	mv	a0,s1
   167c2:	5942                	lw	s2,48(sp)
   167c4:	54d2                	lw	s1,52(sp)
   167c6:	59b2                	lw	s3,44(sp)
   167c8:	5a22                	lw	s4,40(sp)
   167ca:	5a92                	lw	s5,36(sp)
   167cc:	5b02                	lw	s6,32(sp)
   167ce:	4bf2                	lw	s7,28(sp)
   167d0:	6121                	addi	sp,sp,64
   167d2:	8082                	ret
   167d4:	855a                	mv	a0,s6
   167d6:	843e                	mv	s0,a5
   167d8:	84ae                	mv	s1,a1
   167da:	8bc6                	mv	s7,a7
   167dc:	4789                	li	a5,2
   167de:	10fb8163          	beq	s7,a5,168e0 <__muldf3+0x20c>
   167e2:	478d                	li	a5,3
   167e4:	fafb8fe3          	beq	s7,a5,167a2 <__muldf3+0xce>
   167e8:	4785                	li	a5,1
   167ea:	872a                	mv	a4,a0
   167ec:	3afb9663          	bne	s7,a5,16b98 <__muldf3+0x4c4>
   167f0:	4781                	li	a5,0
   167f2:	4401                	li	s0,0
   167f4:	4481                	li	s1,0
   167f6:	bf65                	j	167ae <__muldf3+0xda>
   167f8:	00a9e433          	or	s0,s3,a0
   167fc:	c461                	beqz	s0,168c4 <__muldf3+0x1f0>
   167fe:	c636                	sw	a3,12(sp)
   16800:	c432                	sw	a2,8(sp)
   16802:	2c098263          	beqz	s3,16ac6 <__muldf3+0x3f2>
   16806:	854e                	mv	a0,s3
   16808:	00001097          	auipc	ra,0x1
   1680c:	e46080e7          	jalr	-442(ra) # 1764e <__clzsi2>
   16810:	4622                	lw	a2,8(sp)
   16812:	46b2                	lw	a3,12(sp)
   16814:	87aa                	mv	a5,a0
   16816:	ff550713          	addi	a4,a0,-11
   1681a:	4475                	li	s0,29
   1681c:	ff878493          	addi	s1,a5,-8 # 7ffff8 <_data_lma+0x7e8538>
   16820:	8c19                	sub	s0,s0,a4
   16822:	009999b3          	sll	s3,s3,s1
   16826:	008a5433          	srl	s0,s4,s0
   1682a:	01346433          	or	s0,s0,s3
   1682e:	009a14b3          	sll	s1,s4,s1
   16832:	0146d713          	srli	a4,a3,0x14
   16836:	c0d00913          	li	s2,-1011
   1683a:	00c69a13          	slli	s4,a3,0xc
   1683e:	7ff77713          	andi	a4,a4,2047
   16842:	40f90933          	sub	s2,s2,a5
   16846:	4981                	li	s3,0
   16848:	4b81                	li	s7,0
   1684a:	85b2                	mv	a1,a2
   1684c:	00ca5a13          	srli	s4,s4,0xc
   16850:	01f6db13          	srli	s6,a3,0x1f
   16854:	ee0717e3          	bnez	a4,16742 <__muldf3+0x6e>
   16858:	00ca67b3          	or	a5,s4,a2
   1685c:	cba1                	beqz	a5,168ac <__muldf3+0x1d8>
   1685e:	240a0163          	beqz	s4,16aa0 <__muldf3+0x3cc>
   16862:	8552                	mv	a0,s4
   16864:	c432                	sw	a2,8(sp)
   16866:	00001097          	auipc	ra,0x1
   1686a:	de8080e7          	jalr	-536(ra) # 1764e <__clzsi2>
   1686e:	4622                	lw	a2,8(sp)
   16870:	872a                	mv	a4,a0
   16872:	ff550693          	addi	a3,a0,-11
   16876:	47f5                	li	a5,29
   16878:	ff870593          	addi	a1,a4,-8
   1687c:	8f95                	sub	a5,a5,a3
   1687e:	00ba1a33          	sll	s4,s4,a1
   16882:	00f657b3          	srl	a5,a2,a5
   16886:	0147e7b3          	or	a5,a5,s4
   1688a:	00b615b3          	sll	a1,a2,a1
   1688e:	40e90933          	sub	s2,s2,a4
   16892:	c0d90913          	addi	s2,s2,-1011
   16896:	4881                	li	a7,0
   16898:	bdc1                	j	16768 <__muldf3+0x94>
   1689a:	00a9e433          	or	s0,s3,a0
   1689e:	ec01                	bnez	s0,168b6 <__muldf3+0x1e2>
   168a0:	49a1                	li	s3,8
   168a2:	4481                	li	s1,0
   168a4:	7ff00913          	li	s2,2047
   168a8:	4b89                	li	s7,2
   168aa:	bdbd                	j	16728 <__muldf3+0x54>
   168ac:	0019e993          	ori	s3,s3,1
   168b0:	4581                	li	a1,0
   168b2:	4885                	li	a7,1
   168b4:	bd55                	j	16768 <__muldf3+0x94>
   168b6:	844e                	mv	s0,s3
   168b8:	84aa                	mv	s1,a0
   168ba:	49b1                	li	s3,12
   168bc:	7ff00913          	li	s2,2047
   168c0:	4b8d                	li	s7,3
   168c2:	b59d                	j	16728 <__muldf3+0x54>
   168c4:	4991                	li	s3,4
   168c6:	4481                	li	s1,0
   168c8:	4901                	li	s2,0
   168ca:	4b85                	li	s7,1
   168cc:	bdb1                	j	16728 <__muldf3+0x54>
   168ce:	0039e993          	ori	s3,s3,3
   168d2:	87d2                	mv	a5,s4
   168d4:	488d                	li	a7,3
   168d6:	bd49                	j	16768 <__muldf3+0x94>
   168d8:	4789                	li	a5,2
   168da:	8556                	mv	a0,s5
   168dc:	f0fb93e3          	bne	s7,a5,167e2 <__muldf3+0x10e>
   168e0:	872a                	mv	a4,a0
   168e2:	7ff00793          	li	a5,2047
   168e6:	4401                	li	s0,0
   168e8:	4481                	li	s1,0
   168ea:	b5d1                	j	167ae <__muldf3+0xda>
   168ec:	6ec1                	lui	t4,0x10
   168ee:	fffe8613          	addi	a2,t4,-1 # ffff <MCU_SECTORSIZE+0xefff>
   168f2:	0104d693          	srli	a3,s1,0x10
   168f6:	0105de13          	srli	t3,a1,0x10
   168fa:	8cf1                	and	s1,s1,a2
   168fc:	8df1                	and	a1,a1,a2
   168fe:	02958633          	mul	a2,a1,s1
   16902:	02b68333          	mul	t1,a3,a1
   16906:	01065893          	srli	a7,a2,0x10
   1690a:	029e0533          	mul	a0,t3,s1
   1690e:	951a                	add	a0,a0,t1
   16910:	98aa                	add	a7,a7,a0
   16912:	03c682b3          	mul	t0,a3,t3
   16916:	0068f363          	bgeu	a7,t1,1691c <__muldf3+0x248>
   1691a:	92f6                	add	t0,t0,t4
   1691c:	6fc1                	lui	t6,0x10
   1691e:	ffff8313          	addi	t1,t6,-1 # ffff <MCU_SECTORSIZE+0xefff>
   16922:	0067f533          	and	a0,a5,t1
   16926:	0107d393          	srli	t2,a5,0x10
   1692a:	0068f7b3          	and	a5,a7,t1
   1692e:	07c2                	slli	a5,a5,0x10
   16930:	00667333          	and	t1,a2,t1
   16934:	933e                	add	t1,t1,a5
   16936:	02950633          	mul	a2,a0,s1
   1693a:	0108d893          	srli	a7,a7,0x10
   1693e:	02a687b3          	mul	a5,a3,a0
   16942:	01065f13          	srli	t5,a2,0x10
   16946:	029384b3          	mul	s1,t2,s1
   1694a:	94be                	add	s1,s1,a5
   1694c:	94fa                	add	s1,s1,t5
   1694e:	02768eb3          	mul	t4,a3,t2
   16952:	00f4f363          	bgeu	s1,a5,16958 <__muldf3+0x284>
   16956:	9efe                	add	t4,t4,t6
   16958:	6a41                	lui	s4,0x10
   1695a:	fffa0793          	addi	a5,s4,-1 # ffff <MCU_SECTORSIZE+0xefff>
   1695e:	01045f93          	srli	t6,s0,0x10
   16962:	00f476b3          	and	a3,s0,a5
   16966:	00f4f9b3          	and	s3,s1,a5
   1696a:	8e7d                	and	a2,a2,a5
   1696c:	80c1                	srli	s1,s1,0x10
   1696e:	02d58433          	mul	s0,a1,a3
   16972:	09c2                	slli	s3,s3,0x10
   16974:	01d48f33          	add	t5,s1,t4
   16978:	99b2                	add	s3,s3,a2
   1697a:	98ce                	add	a7,a7,s3
   1697c:	02de07b3          	mul	a5,t3,a3
   16980:	01045e93          	srli	t4,s0,0x10
   16984:	02bf85b3          	mul	a1,t6,a1
   16988:	97ae                	add	a5,a5,a1
   1698a:	9ebe                	add	t4,t4,a5
   1698c:	03fe0e33          	mul	t3,t3,t6
   16990:	00bef363          	bgeu	t4,a1,16996 <__muldf3+0x2c2>
   16994:	9e52                	add	t3,t3,s4
   16996:	67c1                	lui	a5,0x10
   16998:	fff78593          	addi	a1,a5,-1 # ffff <MCU_SECTORSIZE+0xefff>
   1699c:	00bef633          	and	a2,t4,a1
   169a0:	8c6d                	and	s0,s0,a1
   169a2:	0642                	slli	a2,a2,0x10
   169a4:	9622                	add	a2,a2,s0
   169a6:	010ede93          	srli	t4,t4,0x10
   169aa:	02d505b3          	mul	a1,a0,a3
   169ae:	9e76                	add	t3,t3,t4
   169b0:	02af8533          	mul	a0,t6,a0
   169b4:	0105d413          	srli	s0,a1,0x10
   169b8:	02d386b3          	mul	a3,t2,a3
   169bc:	96aa                	add	a3,a3,a0
   169be:	96a2                	add	a3,a3,s0
   169c0:	03f38fb3          	mul	t6,t2,t6
   169c4:	00a6f363          	bgeu	a3,a0,169ca <__muldf3+0x2f6>
   169c8:	9fbe                	add	t6,t6,a5
   169ca:	6541                	lui	a0,0x10
   169cc:	157d                	addi	a0,a0,-1
   169ce:	00a6f7b3          	and	a5,a3,a0
   169d2:	07c2                	slli	a5,a5,0x10
   169d4:	8d6d                	and	a0,a0,a1
   169d6:	97aa                	add	a5,a5,a0
   169d8:	005885b3          	add	a1,a7,t0
   169dc:	0135b9b3          	sltu	s3,a1,s3
   169e0:	97fa                	add	a5,a5,t5
   169e2:	95b2                	add	a1,a1,a2
   169e4:	01378433          	add	s0,a5,s3
   169e8:	00c5b633          	sltu	a2,a1,a2
   169ec:	01c40eb3          	add	t4,s0,t3
   169f0:	00ce8533          	add	a0,t4,a2
   169f4:	01343433          	sltu	s0,s0,s3
   169f8:	01e7b7b3          	sltu	a5,a5,t5
   169fc:	8fc1                	or	a5,a5,s0
   169fe:	01cebe33          	sltu	t3,t4,t3
   16a02:	0106d413          	srli	s0,a3,0x10
   16a06:	00c53633          	sltu	a2,a0,a2
   16a0a:	943e                	add	s0,s0,a5
   16a0c:	00ce6633          	or	a2,t3,a2
   16a10:	00959493          	slli	s1,a1,0x9
   16a14:	9432                	add	s0,s0,a2
   16a16:	947e                	add	s0,s0,t6
   16a18:	0064e4b3          	or	s1,s1,t1
   16a1c:	0426                	slli	s0,s0,0x9
   16a1e:	01755693          	srli	a3,a0,0x17
   16a22:	009034b3          	snez	s1,s1
   16a26:	81dd                	srli	a1,a1,0x17
   16a28:	00951793          	slli	a5,a0,0x9
   16a2c:	8ccd                	or	s1,s1,a1
   16a2e:	8c55                	or	s0,s0,a3
   16a30:	8cdd                	or	s1,s1,a5
   16a32:	00741793          	slli	a5,s0,0x7
   16a36:	0007db63          	bgez	a5,16a4c <__muldf3+0x378>
   16a3a:	0014d793          	srli	a5,s1,0x1
   16a3e:	8885                	andi	s1,s1,1
   16a40:	01f41693          	slli	a3,s0,0x1f
   16a44:	8cdd                	or	s1,s1,a5
   16a46:	8cd5                	or	s1,s1,a3
   16a48:	8005                	srli	s0,s0,0x1
   16a4a:	8942                	mv	s2,a6
   16a4c:	3ff90793          	addi	a5,s2,1023
   16a50:	08f05d63          	blez	a5,16aea <__muldf3+0x416>
   16a54:	0074f693          	andi	a3,s1,7
   16a58:	ce81                	beqz	a3,16a70 <__muldf3+0x39c>
   16a5a:	00f4f693          	andi	a3,s1,15
   16a5e:	4611                	li	a2,4
   16a60:	00c68863          	beq	a3,a2,16a70 <__muldf3+0x39c>
   16a64:	00448693          	addi	a3,s1,4
   16a68:	0096b4b3          	sltu	s1,a3,s1
   16a6c:	9426                	add	s0,s0,s1
   16a6e:	84b6                	mv	s1,a3
   16a70:	00741693          	slli	a3,s0,0x7
   16a74:	0006d863          	bgez	a3,16a84 <__muldf3+0x3b0>
   16a78:	ff0007b7          	lui	a5,0xff000
   16a7c:	17fd                	addi	a5,a5,-1
   16a7e:	8c7d                	and	s0,s0,a5
   16a80:	40090793          	addi	a5,s2,1024
   16a84:	7fe00693          	li	a3,2046
   16a88:	10f6c363          	blt	a3,a5,16b8e <__muldf3+0x4ba>
   16a8c:	0034d693          	srli	a3,s1,0x3
   16a90:	01d41493          	slli	s1,s0,0x1d
   16a94:	0426                	slli	s0,s0,0x9
   16a96:	8cd5                	or	s1,s1,a3
   16a98:	8031                	srli	s0,s0,0xc
   16a9a:	7ff7f793          	andi	a5,a5,2047
   16a9e:	bb01                	j	167ae <__muldf3+0xda>
   16aa0:	8532                	mv	a0,a2
   16aa2:	c432                	sw	a2,8(sp)
   16aa4:	00001097          	auipc	ra,0x1
   16aa8:	baa080e7          	jalr	-1110(ra) # 1764e <__clzsi2>
   16aac:	01550693          	addi	a3,a0,21 # 10015 <MCU_SECTORSIZE+0xf015>
   16ab0:	47f1                	li	a5,28
   16ab2:	02050713          	addi	a4,a0,32
   16ab6:	4622                	lw	a2,8(sp)
   16ab8:	dad7dfe3          	bge	a5,a3,16876 <__muldf3+0x1a2>
   16abc:	1561                	addi	a0,a0,-8
   16abe:	00a617b3          	sll	a5,a2,a0
   16ac2:	4581                	li	a1,0
   16ac4:	b3e9                	j	1688e <__muldf3+0x1ba>
   16ac6:	00001097          	auipc	ra,0x1
   16aca:	b88080e7          	jalr	-1144(ra) # 1764e <__clzsi2>
   16ace:	01550713          	addi	a4,a0,21
   16ad2:	45f1                	li	a1,28
   16ad4:	02050793          	addi	a5,a0,32
   16ad8:	4622                	lw	a2,8(sp)
   16ada:	46b2                	lw	a3,12(sp)
   16adc:	d2e5dfe3          	bge	a1,a4,1681a <__muldf3+0x146>
   16ae0:	1561                	addi	a0,a0,-8
   16ae2:	00aa1433          	sll	s0,s4,a0
   16ae6:	4481                	li	s1,0
   16ae8:	b3a9                	j	16832 <__muldf3+0x15e>
   16aea:	4685                	li	a3,1
   16aec:	8e9d                	sub	a3,a3,a5
   16aee:	e7b1                	bnez	a5,16b3a <__muldf3+0x466>
   16af0:	41e90913          	addi	s2,s2,1054
   16af4:	012497b3          	sll	a5,s1,s2
   16af8:	00d4d4b3          	srl	s1,s1,a3
   16afc:	01241933          	sll	s2,s0,s2
   16b00:	00f037b3          	snez	a5,a5
   16b04:	009964b3          	or	s1,s2,s1
   16b08:	8cdd                	or	s1,s1,a5
   16b0a:	0074f793          	andi	a5,s1,7
   16b0e:	00d456b3          	srl	a3,s0,a3
   16b12:	cf81                	beqz	a5,16b2a <__muldf3+0x456>
   16b14:	00f4f793          	andi	a5,s1,15
   16b18:	4611                	li	a2,4
   16b1a:	00c78863          	beq	a5,a2,16b2a <__muldf3+0x456>
   16b1e:	00448793          	addi	a5,s1,4
   16b22:	0097b4b3          	sltu	s1,a5,s1
   16b26:	96a6                	add	a3,a3,s1
   16b28:	84be                	mv	s1,a5
   16b2a:	00869793          	slli	a5,a3,0x8
   16b2e:	0407d863          	bgez	a5,16b7e <__muldf3+0x4aa>
   16b32:	4785                	li	a5,1
   16b34:	4401                	li	s0,0
   16b36:	4481                	li	s1,0
   16b38:	b99d                	j	167ae <__muldf3+0xda>
   16b3a:	03800613          	li	a2,56
   16b3e:	cad649e3          	blt	a2,a3,167f0 <__muldf3+0x11c>
   16b42:	467d                	li	a2,31
   16b44:	fad656e3          	bge	a2,a3,16af0 <__muldf3+0x41c>
   16b48:	5605                	li	a2,-31
   16b4a:	40f607b3          	sub	a5,a2,a5
   16b4e:	02000593          	li	a1,32
   16b52:	00f45633          	srl	a2,s0,a5
   16b56:	00b68763          	beq	a3,a1,16b64 <__muldf3+0x490>
   16b5a:	43e90913          	addi	s2,s2,1086
   16b5e:	012417b3          	sll	a5,s0,s2
   16b62:	8cdd                	or	s1,s1,a5
   16b64:	009034b3          	snez	s1,s1
   16b68:	8cd1                	or	s1,s1,a2
   16b6a:	0074f693          	andi	a3,s1,7
   16b6e:	4401                	li	s0,0
   16b70:	ca99                	beqz	a3,16b86 <__muldf3+0x4b2>
   16b72:	00f4f793          	andi	a5,s1,15
   16b76:	4611                	li	a2,4
   16b78:	4681                	li	a3,0
   16b7a:	fac792e3          	bne	a5,a2,16b1e <__muldf3+0x44a>
   16b7e:	00969413          	slli	s0,a3,0x9
   16b82:	8031                	srli	s0,s0,0xc
   16b84:	06f6                	slli	a3,a3,0x1d
   16b86:	808d                	srli	s1,s1,0x3
   16b88:	8cd5                	or	s1,s1,a3
   16b8a:	4781                	li	a5,0
   16b8c:	b10d                	j	167ae <__muldf3+0xda>
   16b8e:	7ff00793          	li	a5,2047
   16b92:	4401                	li	s0,0
   16b94:	4481                	li	s1,0
   16b96:	b921                	j	167ae <__muldf3+0xda>
   16b98:	8942                	mv	s2,a6
   16b9a:	bd4d                	j	16a4c <__muldf3+0x378>

00016b9c <__subdf3>:
__subdf3():
   16b9c:	00100737          	lui	a4,0x100
   16ba0:	177d                	addi	a4,a4,-1
   16ba2:	1101                	addi	sp,sp,-32
   16ba4:	00b77333          	and	t1,a4,a1
   16ba8:	0146d893          	srli	a7,a3,0x14
   16bac:	8f75                	and	a4,a4,a3
   16bae:	01d65e93          	srli	t4,a2,0x1d
   16bb2:	cc22                	sw	s0,24(sp)
   16bb4:	ca26                	sw	s1,20(sp)
   16bb6:	030e                	slli	t1,t1,0x3
   16bb8:	0145d493          	srli	s1,a1,0x14
   16bbc:	01d55793          	srli	a5,a0,0x1d
   16bc0:	070e                	slli	a4,a4,0x3
   16bc2:	ce06                	sw	ra,28(sp)
   16bc4:	c84a                	sw	s2,16(sp)
   16bc6:	c64e                	sw	s3,12(sp)
   16bc8:	7ff8f893          	andi	a7,a7,2047
   16bcc:	7ff00e13          	li	t3,2047
   16bd0:	00eee733          	or	a4,t4,a4
   16bd4:	7ff4f493          	andi	s1,s1,2047
   16bd8:	01f5d413          	srli	s0,a1,0x1f
   16bdc:	0067e333          	or	t1,a5,t1
   16be0:	00351f13          	slli	t5,a0,0x3
   16be4:	82fd                	srli	a3,a3,0x1f
   16be6:	00361e93          	slli	t4,a2,0x3
   16bea:	19c88263          	beq	a7,t3,16d6e <__subdf3+0x1d2>
   16bee:	0016c693          	xori	a3,a3,1
   16bf2:	411485b3          	sub	a1,s1,a7
   16bf6:	12d40763          	beq	s0,a3,16d24 <__subdf3+0x188>
   16bfa:	18b05363          	blez	a1,16d80 <__subdf3+0x1e4>
   16bfe:	1a088d63          	beqz	a7,16db8 <__subdf3+0x21c>
   16c02:	008007b7          	lui	a5,0x800
   16c06:	8f5d                	or	a4,a4,a5
   16c08:	59c48563          	beq	s1,t3,17192 <__subdf3+0x5f6>
   16c0c:	03800793          	li	a5,56
   16c10:	34b7c863          	blt	a5,a1,16f60 <__subdf3+0x3c4>
   16c14:	47fd                	li	a5,31
   16c16:	48b7c963          	blt	a5,a1,170a8 <__subdf3+0x50c>
   16c1a:	02000793          	li	a5,32
   16c1e:	8f8d                	sub	a5,a5,a1
   16c20:	00bed9b3          	srl	s3,t4,a1
   16c24:	00f71833          	sll	a6,a4,a5
   16c28:	00fe9eb3          	sll	t4,t4,a5
   16c2c:	01386833          	or	a6,a6,s3
   16c30:	00b75733          	srl	a4,a4,a1
   16c34:	01d039b3          	snez	s3,t4
   16c38:	01386833          	or	a6,a6,s3
   16c3c:	40e30333          	sub	t1,t1,a4
   16c40:	410f09b3          	sub	s3,t5,a6
   16c44:	013f37b3          	sltu	a5,t5,s3
   16c48:	40f30633          	sub	a2,t1,a5
   16c4c:	00861793          	slli	a5,a2,0x8
   16c50:	2407d563          	bgez	a5,16e9a <__subdf3+0x2fe>
   16c54:	00800937          	lui	s2,0x800
   16c58:	197d                	addi	s2,s2,-1
   16c5a:	01267933          	and	s2,a2,s2
   16c5e:	2e090163          	beqz	s2,16f40 <__subdf3+0x3a4>
   16c62:	854a                	mv	a0,s2
   16c64:	00001097          	auipc	ra,0x1
   16c68:	9ea080e7          	jalr	-1558(ra) # 1764e <__clzsi2>
   16c6c:	ff850713          	addi	a4,a0,-8
   16c70:	02000793          	li	a5,32
   16c74:	8f99                	sub	a5,a5,a4
   16c76:	00f9d7b3          	srl	a5,s3,a5
   16c7a:	00e91633          	sll	a2,s2,a4
   16c7e:	8fd1                	or	a5,a5,a2
   16c80:	00e999b3          	sll	s3,s3,a4
   16c84:	2a974463          	blt	a4,s1,16f2c <__subdf3+0x390>
   16c88:	8f05                	sub	a4,a4,s1
   16c8a:	00170613          	addi	a2,a4,1 # 100001 <_data_lma+0xe8541>
   16c8e:	46fd                	li	a3,31
   16c90:	3ac6c763          	blt	a3,a2,1703e <__subdf3+0x4a2>
   16c94:	02000713          	li	a4,32
   16c98:	8f11                	sub	a4,a4,a2
   16c9a:	00c9d6b3          	srl	a3,s3,a2
   16c9e:	00e99833          	sll	a6,s3,a4
   16ca2:	00e79733          	sll	a4,a5,a4
   16ca6:	8f55                	or	a4,a4,a3
   16ca8:	01003833          	snez	a6,a6
   16cac:	010769b3          	or	s3,a4,a6
   16cb0:	00c7d633          	srl	a2,a5,a2
   16cb4:	4481                	li	s1,0
   16cb6:	0079f793          	andi	a5,s3,7
   16cba:	cf81                	beqz	a5,16cd2 <__subdf3+0x136>
   16cbc:	00f9f693          	andi	a3,s3,15
   16cc0:	4791                	li	a5,4
   16cc2:	00f68863          	beq	a3,a5,16cd2 <__subdf3+0x136>
   16cc6:	00498693          	addi	a3,s3,4
   16cca:	0136b833          	sltu	a6,a3,s3
   16cce:	9642                	add	a2,a2,a6
   16cd0:	89b6                	mv	s3,a3
   16cd2:	00861793          	slli	a5,a2,0x8
   16cd6:	1c07d663          	bgez	a5,16ea2 <__subdf3+0x306>
   16cda:	00148713          	addi	a4,s1,1
   16cde:	7ff00793          	li	a5,2047
   16ce2:	8805                	andi	s0,s0,1
   16ce4:	20f70663          	beq	a4,a5,16ef0 <__subdf3+0x354>
   16ce8:	ff8007b7          	lui	a5,0xff800
   16cec:	17fd                	addi	a5,a5,-1
   16cee:	8ff1                	and	a5,a5,a2
   16cf0:	01d79813          	slli	a6,a5,0x1d
   16cf4:	0039d993          	srli	s3,s3,0x3
   16cf8:	07a6                	slli	a5,a5,0x9
   16cfa:	01386833          	or	a6,a6,s3
   16cfe:	83b1                	srli	a5,a5,0xc
   16d00:	7ff77713          	andi	a4,a4,2047
   16d04:	00c79693          	slli	a3,a5,0xc
   16d08:	0752                	slli	a4,a4,0x14
   16d0a:	82b1                	srli	a3,a3,0xc
   16d0c:	047e                	slli	s0,s0,0x1f
   16d0e:	8ed9                	or	a3,a3,a4
   16d10:	8ec1                	or	a3,a3,s0
   16d12:	40f2                	lw	ra,28(sp)
   16d14:	4462                	lw	s0,24(sp)
   16d16:	44d2                	lw	s1,20(sp)
   16d18:	4942                	lw	s2,16(sp)
   16d1a:	49b2                	lw	s3,12(sp)
   16d1c:	8542                	mv	a0,a6
   16d1e:	85b6                	mv	a1,a3
   16d20:	6105                	addi	sp,sp,32
   16d22:	8082                	ret
   16d24:	0ab05663          	blez	a1,16dd0 <__subdf3+0x234>
   16d28:	12088a63          	beqz	a7,16e5c <__subdf3+0x2c0>
   16d2c:	008007b7          	lui	a5,0x800
   16d30:	8f5d                	or	a4,a4,a5
   16d32:	2dc48963          	beq	s1,t3,17004 <__subdf3+0x468>
   16d36:	03800793          	li	a5,56
   16d3a:	18b7c763          	blt	a5,a1,16ec8 <__subdf3+0x32c>
   16d3e:	47fd                	li	a5,31
   16d40:	3cb7d463          	bge	a5,a1,17108 <__subdf3+0x56c>
   16d44:	fe058813          	addi	a6,a1,-32 # ffe0 <MCU_SECTORSIZE+0xefe0>
   16d48:	02000793          	li	a5,32
   16d4c:	010759b3          	srl	s3,a4,a6
   16d50:	00f58a63          	beq	a1,a5,16d64 <__subdf3+0x1c8>
   16d54:	04000793          	li	a5,64
   16d58:	40b785b3          	sub	a1,a5,a1
   16d5c:	00b71733          	sll	a4,a4,a1
   16d60:	00eeeeb3          	or	t4,t4,a4
   16d64:	01d03833          	snez	a6,t4
   16d68:	01386833          	or	a6,a6,s3
   16d6c:	a295                	j	16ed0 <__subdf3+0x334>
   16d6e:	01d767b3          	or	a5,a4,t4
   16d72:	80148593          	addi	a1,s1,-2047
   16d76:	e399                	bnez	a5,16d7c <__subdf3+0x1e0>
   16d78:	0016c693          	xori	a3,a3,1
   16d7c:	04d40a63          	beq	s0,a3,16dd0 <__subdf3+0x234>
   16d80:	e1d1                	bnez	a1,16e04 <__subdf3+0x268>
   16d82:	00148793          	addi	a5,s1,1
   16d86:	7fe7f793          	andi	a5,a5,2046
   16d8a:	1e079b63          	bnez	a5,16f80 <__subdf3+0x3e4>
   16d8e:	01e367b3          	or	a5,t1,t5
   16d92:	01d76833          	or	a6,a4,t4
   16d96:	16049263          	bnez	s1,16efa <__subdf3+0x35e>
   16d9a:	3c078463          	beqz	a5,17162 <__subdf3+0x5c6>
   16d9e:	42081863          	bnez	a6,171ce <__subdf3+0x632>
   16da2:	00351813          	slli	a6,a0,0x3
   16da6:	01d31693          	slli	a3,t1,0x1d
   16daa:	00385813          	srli	a6,a6,0x3
   16dae:	0106e833          	or	a6,a3,a6
   16db2:	00335793          	srli	a5,t1,0x3
   16db6:	a219                	j	16ebc <__subdf3+0x320>
   16db8:	01d767b3          	or	a5,a4,t4
   16dbc:	1a078763          	beqz	a5,16f6a <__subdf3+0x3ce>
   16dc0:	fff58793          	addi	a5,a1,-1
   16dc4:	3a078d63          	beqz	a5,1717e <__subdf3+0x5e2>
   16dc8:	23c58e63          	beq	a1,t3,17004 <__subdf3+0x468>
   16dcc:	85be                	mv	a1,a5
   16dce:	bd3d                	j	16c0c <__subdf3+0x70>
   16dd0:	1c059b63          	bnez	a1,16fa6 <__subdf3+0x40a>
   16dd4:	00148693          	addi	a3,s1,1
   16dd8:	7fe6f793          	andi	a5,a3,2046
   16ddc:	efc1                	bnez	a5,16e74 <__subdf3+0x2d8>
   16dde:	01e367b3          	or	a5,t1,t5
   16de2:	36049263          	bnez	s1,17146 <__subdf3+0x5aa>
   16de6:	44078f63          	beqz	a5,17244 <__subdf3+0x6a8>
   16dea:	01d767b3          	or	a5,a4,t4
   16dee:	46079663          	bnez	a5,1725a <__subdf3+0x6be>
   16df2:	050e                	slli	a0,a0,0x3
   16df4:	01d31813          	slli	a6,t1,0x1d
   16df8:	810d                	srli	a0,a0,0x3
   16dfa:	00a86833          	or	a6,a6,a0
   16dfe:	00335793          	srli	a5,t1,0x3
   16e02:	a86d                	j	16ebc <__subdf3+0x320>
   16e04:	409885b3          	sub	a1,a7,s1
   16e08:	20049963          	bnez	s1,1701a <__subdf3+0x47e>
   16e0c:	01e367b3          	or	a5,t1,t5
   16e10:	30078f63          	beqz	a5,1712e <__subdf3+0x592>
   16e14:	fff58793          	addi	a5,a1,-1
   16e18:	40078b63          	beqz	a5,1722e <__subdf3+0x692>
   16e1c:	7ff00513          	li	a0,2047
   16e20:	20a58563          	beq	a1,a0,1702a <__subdf3+0x48e>
   16e24:	85be                	mv	a1,a5
   16e26:	03800793          	li	a5,56
   16e2a:	2ab7c463          	blt	a5,a1,170d2 <__subdf3+0x536>
   16e2e:	47fd                	li	a5,31
   16e30:	3cb7ca63          	blt	a5,a1,17204 <__subdf3+0x668>
   16e34:	02000793          	li	a5,32
   16e38:	8f8d                	sub	a5,a5,a1
   16e3a:	00f31833          	sll	a6,t1,a5
   16e3e:	00bf5633          	srl	a2,t5,a1
   16e42:	00ff17b3          	sll	a5,t5,a5
   16e46:	00c86833          	or	a6,a6,a2
   16e4a:	00f039b3          	snez	s3,a5
   16e4e:	00b35333          	srl	t1,t1,a1
   16e52:	01386833          	or	a6,a6,s3
   16e56:	40670733          	sub	a4,a4,t1
   16e5a:	a441                	j	170da <__subdf3+0x53e>
   16e5c:	01d767b3          	or	a5,a4,t4
   16e60:	10078563          	beqz	a5,16f6a <__subdf3+0x3ce>
   16e64:	fff58793          	addi	a5,a1,-1
   16e68:	20078163          	beqz	a5,1706a <__subdf3+0x4ce>
   16e6c:	2fc58263          	beq	a1,t3,17150 <__subdf3+0x5b4>
   16e70:	85be                	mv	a1,a5
   16e72:	b5d1                	j	16d36 <__subdf3+0x19a>
   16e74:	7ff00793          	li	a5,2047
   16e78:	06f68b63          	beq	a3,a5,16eee <__subdf3+0x352>
   16e7c:	9efa                	add	t4,t4,t5
   16e7e:	01eeb633          	sltu	a2,t4,t5
   16e82:	00e307b3          	add	a5,t1,a4
   16e86:	97b2                	add	a5,a5,a2
   16e88:	01f79813          	slli	a6,a5,0x1f
   16e8c:	001ede93          	srli	t4,t4,0x1
   16e90:	01d869b3          	or	s3,a6,t4
   16e94:	0017d613          	srli	a2,a5,0x1
   16e98:	84b6                	mv	s1,a3
   16e9a:	0079f793          	andi	a5,s3,7
   16e9e:	e0079fe3          	bnez	a5,16cbc <__subdf3+0x120>
   16ea2:	01d61793          	slli	a5,a2,0x1d
   16ea6:	0039d813          	srli	a6,s3,0x3
   16eaa:	00f86833          	or	a6,a6,a5
   16eae:	85a6                	mv	a1,s1
   16eb0:	00365793          	srli	a5,a2,0x3
   16eb4:	7ff00713          	li	a4,2047
   16eb8:	06e58063          	beq	a1,a4,16f18 <__subdf3+0x37c>
   16ebc:	07b2                	slli	a5,a5,0xc
   16ebe:	83b1                	srli	a5,a5,0xc
   16ec0:	7ff5f713          	andi	a4,a1,2047
   16ec4:	8805                	andi	s0,s0,1
   16ec6:	bd3d                	j	16d04 <__subdf3+0x168>
   16ec8:	01d76733          	or	a4,a4,t4
   16ecc:	00e03833          	snez	a6,a4
   16ed0:	01e809b3          	add	s3,a6,t5
   16ed4:	01e9b7b3          	sltu	a5,s3,t5
   16ed8:	00678633          	add	a2,a5,t1
   16edc:	00861793          	slli	a5,a2,0x8
   16ee0:	fa07dde3          	bgez	a5,16e9a <__subdf3+0x2fe>
   16ee4:	0485                	addi	s1,s1,1
   16ee6:	7ff00793          	li	a5,2047
   16eea:	18f49e63          	bne	s1,a5,17086 <__subdf3+0x4ea>
   16eee:	8805                	andi	s0,s0,1
   16ef0:	7ff00713          	li	a4,2047
   16ef4:	4781                	li	a5,0
   16ef6:	4801                	li	a6,0
   16ef8:	b531                	j	16d04 <__subdf3+0x168>
   16efa:	10079363          	bnez	a5,17000 <__subdf3+0x464>
   16efe:	3c080363          	beqz	a6,172c4 <__subdf3+0x728>
   16f02:	00361813          	slli	a6,a2,0x3
   16f06:	01d71793          	slli	a5,a4,0x1d
   16f0a:	00385813          	srli	a6,a6,0x3
   16f0e:	00f86833          	or	a6,a6,a5
   16f12:	8436                	mv	s0,a3
   16f14:	00375793          	srli	a5,a4,0x3
   16f18:	00f867b3          	or	a5,a6,a5
   16f1c:	dbe9                	beqz	a5,16eee <__subdf3+0x352>
   16f1e:	4401                	li	s0,0
   16f20:	7ff00713          	li	a4,2047
   16f24:	000807b7          	lui	a5,0x80
   16f28:	4801                	li	a6,0
   16f2a:	bbe9                	j	16d04 <__subdf3+0x168>
   16f2c:	ff800637          	lui	a2,0xff800
   16f30:	167d                	addi	a2,a2,-1
   16f32:	8e7d                	and	a2,a2,a5
   16f34:	0079f793          	andi	a5,s3,7
   16f38:	8c99                	sub	s1,s1,a4
   16f3a:	d80791e3          	bnez	a5,16cbc <__subdf3+0x120>
   16f3e:	b795                	j	16ea2 <__subdf3+0x306>
   16f40:	854e                	mv	a0,s3
   16f42:	00000097          	auipc	ra,0x0
   16f46:	70c080e7          	jalr	1804(ra) # 1764e <__clzsi2>
   16f4a:	01850713          	addi	a4,a0,24
   16f4e:	47fd                	li	a5,31
   16f50:	d2e7d0e3          	bge	a5,a4,16c70 <__subdf3+0xd4>
   16f54:	ff850613          	addi	a2,a0,-8
   16f58:	00c997b3          	sll	a5,s3,a2
   16f5c:	4981                	li	s3,0
   16f5e:	b31d                	j	16c84 <__subdf3+0xe8>
   16f60:	01d76833          	or	a6,a4,t4
   16f64:	01003833          	snez	a6,a6
   16f68:	b9e1                	j	16c40 <__subdf3+0xa4>
   16f6a:	00351813          	slli	a6,a0,0x3
   16f6e:	01d31793          	slli	a5,t1,0x1d
   16f72:	00385813          	srli	a6,a6,0x3
   16f76:	00f86833          	or	a6,a6,a5
   16f7a:	00335793          	srli	a5,t1,0x3
   16f7e:	bf1d                	j	16eb4 <__subdf3+0x318>
   16f80:	41df09b3          	sub	s3,t5,t4
   16f84:	40e30933          	sub	s2,t1,a4
   16f88:	013f3633          	sltu	a2,t5,s3
   16f8c:	40c90933          	sub	s2,s2,a2
   16f90:	00891793          	slli	a5,s2,0x8
   16f94:	2007ca63          	bltz	a5,171a8 <__subdf3+0x60c>
   16f98:	0129e833          	or	a6,s3,s2
   16f9c:	cc0811e3          	bnez	a6,16c5e <__subdf3+0xc2>
   16fa0:	4781                	li	a5,0
   16fa2:	4401                	li	s0,0
   16fa4:	bf21                	j	16ebc <__subdf3+0x320>
   16fa6:	409885b3          	sub	a1,a7,s1
   16faa:	14048163          	beqz	s1,170ec <__subdf3+0x550>
   16fae:	008006b7          	lui	a3,0x800
   16fb2:	7ff00793          	li	a5,2047
   16fb6:	00d36333          	or	t1,t1,a3
   16fba:	20f88163          	beq	a7,a5,171bc <__subdf3+0x620>
   16fbe:	03800793          	li	a5,56
   16fc2:	22b7cc63          	blt	a5,a1,171fa <__subdf3+0x65e>
   16fc6:	47fd                	li	a5,31
   16fc8:	2cb7c963          	blt	a5,a1,1729a <__subdf3+0x6fe>
   16fcc:	02000793          	li	a5,32
   16fd0:	8f8d                	sub	a5,a5,a1
   16fd2:	00f31833          	sll	a6,t1,a5
   16fd6:	00bf56b3          	srl	a3,t5,a1
   16fda:	00ff17b3          	sll	a5,t5,a5
   16fde:	00d86833          	or	a6,a6,a3
   16fe2:	00f039b3          	snez	s3,a5
   16fe6:	00b35333          	srl	t1,t1,a1
   16fea:	01386833          	or	a6,a6,s3
   16fee:	971a                	add	a4,a4,t1
   16ff0:	01d809b3          	add	s3,a6,t4
   16ff4:	01d9b7b3          	sltu	a5,s3,t4
   16ff8:	00e78633          	add	a2,a5,a4
   16ffc:	84c6                	mv	s1,a7
   16ffe:	bdf9                	j	16edc <__subdf3+0x340>
   17000:	f0081fe3          	bnez	a6,16f1e <__subdf3+0x382>
   17004:	00351813          	slli	a6,a0,0x3
   17008:	01d31793          	slli	a5,t1,0x1d
   1700c:	00385813          	srli	a6,a6,0x3
   17010:	00f86833          	or	a6,a6,a5
   17014:	00335793          	srli	a5,t1,0x3
   17018:	b701                	j	16f18 <__subdf3+0x37c>
   1701a:	00800537          	lui	a0,0x800
   1701e:	7ff00793          	li	a5,2047
   17022:	00a36333          	or	t1,t1,a0
   17026:	e0f890e3          	bne	a7,a5,16e26 <__subdf3+0x28a>
   1702a:	060e                	slli	a2,a2,0x3
   1702c:	01d71813          	slli	a6,a4,0x1d
   17030:	820d                	srli	a2,a2,0x3
   17032:	00c86833          	or	a6,a6,a2
   17036:	00375793          	srli	a5,a4,0x3
   1703a:	8436                	mv	s0,a3
   1703c:	bdf1                	j	16f18 <__subdf3+0x37c>
   1703e:	1705                	addi	a4,a4,-31
   17040:	02000693          	li	a3,32
   17044:	00e7d733          	srl	a4,a5,a4
   17048:	00d60a63          	beq	a2,a3,1705c <__subdf3+0x4c0>
   1704c:	04000693          	li	a3,64
   17050:	40c68633          	sub	a2,a3,a2
   17054:	00c79633          	sll	a2,a5,a2
   17058:	00c9e9b3          	or	s3,s3,a2
   1705c:	01303833          	snez	a6,s3
   17060:	00e869b3          	or	s3,a6,a4
   17064:	4601                	li	a2,0
   17066:	4481                	li	s1,0
   17068:	bd0d                	j	16e9a <__subdf3+0x2fe>
   1706a:	01df09b3          	add	s3,t5,t4
   1706e:	00e307b3          	add	a5,t1,a4
   17072:	01e9bf33          	sltu	t5,s3,t5
   17076:	01e78633          	add	a2,a5,t5
   1707a:	00861793          	slli	a5,a2,0x8
   1707e:	4485                	li	s1,1
   17080:	e007dde3          	bgez	a5,16e9a <__subdf3+0x2fe>
   17084:	4489                	li	s1,2
   17086:	ff8007b7          	lui	a5,0xff800
   1708a:	17fd                	addi	a5,a5,-1
   1708c:	8ff1                	and	a5,a5,a2
   1708e:	0019d713          	srli	a4,s3,0x1
   17092:	0019f813          	andi	a6,s3,1
   17096:	01076833          	or	a6,a4,a6
   1709a:	01f79993          	slli	s3,a5,0x1f
   1709e:	0109e9b3          	or	s3,s3,a6
   170a2:	0017d613          	srli	a2,a5,0x1
   170a6:	b901                	j	16cb6 <__subdf3+0x11a>
   170a8:	fe058813          	addi	a6,a1,-32
   170ac:	02000793          	li	a5,32
   170b0:	010759b3          	srl	s3,a4,a6
   170b4:	00f58a63          	beq	a1,a5,170c8 <__subdf3+0x52c>
   170b8:	04000793          	li	a5,64
   170bc:	40b785b3          	sub	a1,a5,a1
   170c0:	00b71733          	sll	a4,a4,a1
   170c4:	00eeeeb3          	or	t4,t4,a4
   170c8:	01d03833          	snez	a6,t4
   170cc:	01386833          	or	a6,a6,s3
   170d0:	be85                	j	16c40 <__subdf3+0xa4>
   170d2:	01e36333          	or	t1,t1,t5
   170d6:	00603833          	snez	a6,t1
   170da:	410e89b3          	sub	s3,t4,a6
   170de:	013eb7b3          	sltu	a5,t4,s3
   170e2:	40f70633          	sub	a2,a4,a5
   170e6:	84c6                	mv	s1,a7
   170e8:	8436                	mv	s0,a3
   170ea:	b68d                	j	16c4c <__subdf3+0xb0>
   170ec:	01e367b3          	or	a5,t1,t5
   170f0:	18078763          	beqz	a5,1727e <__subdf3+0x6e2>
   170f4:	fff58793          	addi	a5,a1,-1
   170f8:	1c078c63          	beqz	a5,172d0 <__subdf3+0x734>
   170fc:	7ff00693          	li	a3,2047
   17100:	0ad58e63          	beq	a1,a3,171bc <__subdf3+0x620>
   17104:	85be                	mv	a1,a5
   17106:	bd65                	j	16fbe <__subdf3+0x422>
   17108:	02000793          	li	a5,32
   1710c:	8f8d                	sub	a5,a5,a1
   1710e:	00bed9b3          	srl	s3,t4,a1
   17112:	00f71833          	sll	a6,a4,a5
   17116:	00fe9eb3          	sll	t4,t4,a5
   1711a:	01386833          	or	a6,a6,s3
   1711e:	00b75733          	srl	a4,a4,a1
   17122:	01d039b3          	snez	s3,t4
   17126:	01386833          	or	a6,a6,s3
   1712a:	933a                	add	t1,t1,a4
   1712c:	b355                	j	16ed0 <__subdf3+0x334>
   1712e:	00361813          	slli	a6,a2,0x3
   17132:	01d71793          	slli	a5,a4,0x1d
   17136:	00385813          	srli	a6,a6,0x3
   1713a:	0107e833          	or	a6,a5,a6
   1713e:	8436                	mv	s0,a3
   17140:	00375793          	srli	a5,a4,0x3
   17144:	bb85                	j	16eb4 <__subdf3+0x318>
   17146:	cbbd                	beqz	a5,171bc <__subdf3+0x620>
   17148:	01d76733          	or	a4,a4,t4
   1714c:	dc0719e3          	bnez	a4,16f1e <__subdf3+0x382>
   17150:	050e                	slli	a0,a0,0x3
   17152:	01d31813          	slli	a6,t1,0x1d
   17156:	810d                	srli	a0,a0,0x3
   17158:	00a86833          	or	a6,a6,a0
   1715c:	00335793          	srli	a5,t1,0x3
   17160:	bb65                	j	16f18 <__subdf3+0x37c>
   17162:	e2080fe3          	beqz	a6,16fa0 <__subdf3+0x404>
   17166:	00361813          	slli	a6,a2,0x3
   1716a:	01d71793          	slli	a5,a4,0x1d
   1716e:	00385813          	srli	a6,a6,0x3
   17172:	00f86833          	or	a6,a6,a5
   17176:	8436                	mv	s0,a3
   17178:	00375793          	srli	a5,a4,0x3
   1717c:	b381                	j	16ebc <__subdf3+0x320>
   1717e:	41df09b3          	sub	s3,t5,t4
   17182:	40e307b3          	sub	a5,t1,a4
   17186:	013f3f33          	sltu	t5,t5,s3
   1718a:	41e78633          	sub	a2,a5,t5
   1718e:	4485                	li	s1,1
   17190:	bc75                	j	16c4c <__subdf3+0xb0>
   17192:	00351813          	slli	a6,a0,0x3
   17196:	01d31693          	slli	a3,t1,0x1d
   1719a:	00385813          	srli	a6,a6,0x3
   1719e:	0106e833          	or	a6,a3,a6
   171a2:	00335793          	srli	a5,t1,0x3
   171a6:	bb8d                	j	16f18 <__subdf3+0x37c>
   171a8:	41ee89b3          	sub	s3,t4,t5
   171ac:	40670633          	sub	a2,a4,t1
   171b0:	013eb933          	sltu	s2,t4,s3
   171b4:	41260933          	sub	s2,a2,s2
   171b8:	8436                	mv	s0,a3
   171ba:	b455                	j	16c5e <__subdf3+0xc2>
   171bc:	060e                	slli	a2,a2,0x3
   171be:	01d71813          	slli	a6,a4,0x1d
   171c2:	820d                	srli	a2,a2,0x3
   171c4:	00c86833          	or	a6,a6,a2
   171c8:	00375793          	srli	a5,a4,0x3
   171cc:	b3b1                	j	16f18 <__subdf3+0x37c>
   171ce:	41df09b3          	sub	s3,t5,t4
   171d2:	40e307b3          	sub	a5,t1,a4
   171d6:	013f3633          	sltu	a2,t5,s3
   171da:	40c78633          	sub	a2,a5,a2
   171de:	00861793          	slli	a5,a2,0x8
   171e2:	0a07d763          	bgez	a5,17290 <__subdf3+0x6f4>
   171e6:	41ee89b3          	sub	s3,t4,t5
   171ea:	406707b3          	sub	a5,a4,t1
   171ee:	013ebeb3          	sltu	t4,t4,s3
   171f2:	41d78633          	sub	a2,a5,t4
   171f6:	8436                	mv	s0,a3
   171f8:	bc7d                	j	16cb6 <__subdf3+0x11a>
   171fa:	01e36333          	or	t1,t1,t5
   171fe:	00603833          	snez	a6,t1
   17202:	b3fd                	j	16ff0 <__subdf3+0x454>
   17204:	fe058813          	addi	a6,a1,-32
   17208:	02000793          	li	a5,32
   1720c:	010359b3          	srl	s3,t1,a6
   17210:	00f58a63          	beq	a1,a5,17224 <__subdf3+0x688>
   17214:	04000793          	li	a5,64
   17218:	40b785b3          	sub	a1,a5,a1
   1721c:	00b31333          	sll	t1,t1,a1
   17220:	006f6f33          	or	t5,t5,t1
   17224:	01e03833          	snez	a6,t5
   17228:	01386833          	or	a6,a6,s3
   1722c:	b57d                	j	170da <__subdf3+0x53e>
   1722e:	41ee89b3          	sub	s3,t4,t5
   17232:	406707b3          	sub	a5,a4,t1
   17236:	013ebeb3          	sltu	t4,t4,s3
   1723a:	41d78633          	sub	a2,a5,t4
   1723e:	8436                	mv	s0,a3
   17240:	4485                	li	s1,1
   17242:	b429                	j	16c4c <__subdf3+0xb0>
   17244:	00361813          	slli	a6,a2,0x3
   17248:	01d71793          	slli	a5,a4,0x1d
   1724c:	00385813          	srli	a6,a6,0x3
   17250:	00f86833          	or	a6,a6,a5
   17254:	00375793          	srli	a5,a4,0x3
   17258:	b195                	j	16ebc <__subdf3+0x320>
   1725a:	01df09b3          	add	s3,t5,t4
   1725e:	00e307b3          	add	a5,t1,a4
   17262:	01e9bf33          	sltu	t5,s3,t5
   17266:	01e78633          	add	a2,a5,t5
   1726a:	00861793          	slli	a5,a2,0x8
   1726e:	c207d6e3          	bgez	a5,16e9a <__subdf3+0x2fe>
   17272:	ff8007b7          	lui	a5,0xff800
   17276:	17fd                	addi	a5,a5,-1
   17278:	8e7d                	and	a2,a2,a5
   1727a:	4485                	li	s1,1
   1727c:	b939                	j	16e9a <__subdf3+0x2fe>
   1727e:	060e                	slli	a2,a2,0x3
   17280:	01d71813          	slli	a6,a4,0x1d
   17284:	820d                	srli	a2,a2,0x3
   17286:	00c86833          	or	a6,a6,a2
   1728a:	00375793          	srli	a5,a4,0x3
   1728e:	b11d                	j	16eb4 <__subdf3+0x318>
   17290:	00c9e833          	or	a6,s3,a2
   17294:	d00806e3          	beqz	a6,16fa0 <__subdf3+0x404>
   17298:	b109                	j	16e9a <__subdf3+0x2fe>
   1729a:	fe058813          	addi	a6,a1,-32
   1729e:	02000793          	li	a5,32
   172a2:	010359b3          	srl	s3,t1,a6
   172a6:	00f58a63          	beq	a1,a5,172ba <__subdf3+0x71e>
   172aa:	04000793          	li	a5,64
   172ae:	40b785b3          	sub	a1,a5,a1
   172b2:	00b31333          	sll	t1,t1,a1
   172b6:	006f6f33          	or	t5,t5,t1
   172ba:	01e03833          	snez	a6,t5
   172be:	01386833          	or	a6,a6,s3
   172c2:	b33d                	j	16ff0 <__subdf3+0x454>
   172c4:	4401                	li	s0,0
   172c6:	7ff00713          	li	a4,2047
   172ca:	000807b7          	lui	a5,0x80
   172ce:	bc1d                	j	16d04 <__subdf3+0x168>
   172d0:	01df09b3          	add	s3,t5,t4
   172d4:	00e307b3          	add	a5,t1,a4
   172d8:	01d9beb3          	sltu	t4,s3,t4
   172dc:	01d78633          	add	a2,a5,t4
   172e0:	bb69                	j	1707a <__subdf3+0x4de>

000172e2 <__fixdfsi>:
__fixdfsi():
   172e2:	0145d793          	srli	a5,a1,0x14
   172e6:	001006b7          	lui	a3,0x100
   172ea:	fff68713          	addi	a4,a3,-1 # fffff <_data_lma+0xe853f>
   172ee:	7ff7f793          	andi	a5,a5,2047
   172f2:	3fe00613          	li	a2,1022
   172f6:	8f6d                	and	a4,a4,a1
   172f8:	81fd                	srli	a1,a1,0x1f
   172fa:	00f65c63          	bge	a2,a5,17312 <__fixdfsi+0x30>
   172fe:	41d00613          	li	a2,1053
   17302:	00f65a63          	bge	a2,a5,17316 <__fixdfsi+0x34>
   17306:	80000537          	lui	a0,0x80000
   1730a:	fff54513          	not	a0,a0
   1730e:	952e                	add	a0,a0,a1
   17310:	8082                	ret
   17312:	4501                	li	a0,0
   17314:	8082                	ret
   17316:	43300613          	li	a2,1075
   1731a:	8e1d                	sub	a2,a2,a5
   1731c:	487d                	li	a6,31
   1731e:	8f55                	or	a4,a4,a3
   17320:	00c85d63          	bge	a6,a2,1733a <__fixdfsi+0x58>
   17324:	41300693          	li	a3,1043
   17328:	40f687b3          	sub	a5,a3,a5
   1732c:	00f757b3          	srl	a5,a4,a5
   17330:	40f00533          	neg	a0,a5
   17334:	f1e5                	bnez	a1,17314 <__fixdfsi+0x32>
   17336:	853e                	mv	a0,a5
   17338:	8082                	ret
   1733a:	bed78793          	addi	a5,a5,-1043 # 7fbed <_data_lma+0x6812d>
   1733e:	00f717b3          	sll	a5,a4,a5
   17342:	00c55533          	srl	a0,a0,a2
   17346:	8fc9                	or	a5,a5,a0
   17348:	b7e5                	j	17330 <__fixdfsi+0x4e>

0001734a <__fixunsdfsi>:
__fixunsdfsi():
   1734a:	0145d793          	srli	a5,a1,0x14
   1734e:	001006b7          	lui	a3,0x100
   17352:	fff68713          	addi	a4,a3,-1 # fffff <_data_lma+0xe853f>
   17356:	7ff7f793          	andi	a5,a5,2047
   1735a:	3fe00613          	li	a2,1022
   1735e:	882a                	mv	a6,a0
   17360:	8f6d                	and	a4,a4,a1
   17362:	4501                	li	a0,0
   17364:	81fd                	srli	a1,a1,0x1f
   17366:	00f65463          	bge	a2,a5,1736e <__fixunsdfsi+0x24>
   1736a:	c199                	beqz	a1,17370 <__fixunsdfsi+0x26>
   1736c:	8082                	ret
   1736e:	8082                	ret
   17370:	41e00613          	li	a2,1054
   17374:	557d                	li	a0,-1
   17376:	fef64be3          	blt	a2,a5,1736c <__fixunsdfsi+0x22>
   1737a:	43300513          	li	a0,1075
   1737e:	8d1d                	sub	a0,a0,a5
   17380:	467d                	li	a2,31
   17382:	8f55                	or	a4,a4,a3
   17384:	00a64a63          	blt	a2,a0,17398 <__fixunsdfsi+0x4e>
   17388:	bed78793          	addi	a5,a5,-1043
   1738c:	00f71733          	sll	a4,a4,a5
   17390:	00a85533          	srl	a0,a6,a0
   17394:	8d59                	or	a0,a0,a4
   17396:	8082                	ret
   17398:	41300513          	li	a0,1043
   1739c:	40f507b3          	sub	a5,a0,a5
   173a0:	00f75533          	srl	a0,a4,a5
   173a4:	8082                	ret

000173a6 <__floatsidf>:
__floatsidf():
   173a6:	1141                	addi	sp,sp,-16
   173a8:	c606                	sw	ra,12(sp)
   173aa:	c422                	sw	s0,8(sp)
   173ac:	c226                	sw	s1,4(sp)
   173ae:	cd1d                	beqz	a0,173ec <__floatsidf+0x46>
   173b0:	41f55793          	srai	a5,a0,0x1f
   173b4:	00a7c4b3          	xor	s1,a5,a0
   173b8:	8c9d                	sub	s1,s1,a5
   173ba:	842a                	mv	s0,a0
   173bc:	8526                	mv	a0,s1
   173be:	00000097          	auipc	ra,0x0
   173c2:	290080e7          	jalr	656(ra) # 1764e <__clzsi2>
   173c6:	41e00693          	li	a3,1054
   173ca:	8e89                	sub	a3,a3,a0
   173cc:	47a9                	li	a5,10
   173ce:	807d                	srli	s0,s0,0x1f
   173d0:	7ff6f693          	andi	a3,a3,2047
   173d4:	02a7cd63          	blt	a5,a0,1740e <__floatsidf+0x68>
   173d8:	472d                	li	a4,11
   173da:	8f09                	sub	a4,a4,a0
   173dc:	00e4d7b3          	srl	a5,s1,a4
   173e0:	0555                	addi	a0,a0,21
   173e2:	07b2                	slli	a5,a5,0xc
   173e4:	00a494b3          	sll	s1,s1,a0
   173e8:	83b1                	srli	a5,a5,0xc
   173ea:	a029                	j	173f4 <__floatsidf+0x4e>
   173ec:	4401                	li	s0,0
   173ee:	4681                	li	a3,0
   173f0:	4781                	li	a5,0
   173f2:	4481                	li	s1,0
   173f4:	07b2                	slli	a5,a5,0xc
   173f6:	06d2                	slli	a3,a3,0x14
   173f8:	83b1                	srli	a5,a5,0xc
   173fa:	047e                	slli	s0,s0,0x1f
   173fc:	8fd5                	or	a5,a5,a3
   173fe:	8fc1                	or	a5,a5,s0
   17400:	40b2                	lw	ra,12(sp)
   17402:	4422                	lw	s0,8(sp)
   17404:	8526                	mv	a0,s1
   17406:	85be                	mv	a1,a5
   17408:	4492                	lw	s1,4(sp)
   1740a:	0141                	addi	sp,sp,16
   1740c:	8082                	ret
   1740e:	1555                	addi	a0,a0,-11
   17410:	00a497b3          	sll	a5,s1,a0
   17414:	07b2                	slli	a5,a5,0xc
   17416:	83b1                	srli	a5,a5,0xc
   17418:	4481                	li	s1,0
   1741a:	bfe9                	j	173f4 <__floatsidf+0x4e>

0001741c <__fixunsdfdi>:
__fixunsdfdi():
   1741c:	0145d793          	srli	a5,a1,0x14
   17420:	001006b7          	lui	a3,0x100
   17424:	fff68713          	addi	a4,a3,-1 # fffff <_data_lma+0xe853f>
   17428:	7ff7f793          	andi	a5,a5,2047
   1742c:	3fe00613          	li	a2,1022
   17430:	8f6d                	and	a4,a4,a1
   17432:	81fd                	srli	a1,a1,0x1f
   17434:	00f65363          	bge	a2,a5,1743a <__fixunsdfdi+0x1e>
   17438:	c581                	beqz	a1,17440 <__fixunsdfdi+0x24>
   1743a:	4501                	li	a0,0
   1743c:	4581                	li	a1,0
   1743e:	8082                	ret
   17440:	43e00613          	li	a2,1086
   17444:	00f65563          	bge	a2,a5,1744e <__fixunsdfdi+0x32>
   17448:	557d                	li	a0,-1
   1744a:	55fd                	li	a1,-1
   1744c:	8082                	ret
   1744e:	43200613          	li	a2,1074
   17452:	00d765b3          	or	a1,a4,a3
   17456:	00f65c63          	bge	a2,a5,1746e <__fixunsdfdi+0x52>
   1745a:	bad78713          	addi	a4,a5,-1107
   1745e:	bcd78793          	addi	a5,a5,-1075
   17462:	04074063          	bltz	a4,174a2 <__fixunsdfdi+0x86>
   17466:	00e515b3          	sll	a1,a0,a4
   1746a:	4501                	li	a0,0
   1746c:	8082                	ret
   1746e:	43300693          	li	a3,1075
   17472:	8e9d                	sub	a3,a3,a5
   17474:	477d                	li	a4,31
   17476:	00d75b63          	bge	a4,a3,1748c <__fixunsdfdi+0x70>
   1747a:	41300713          	li	a4,1043
   1747e:	40f707b3          	sub	a5,a4,a5
   17482:	00f5d7b3          	srl	a5,a1,a5
   17486:	4581                	li	a1,0
   17488:	853e                	mv	a0,a5
   1748a:	8082                	ret
   1748c:	bed78713          	addi	a4,a5,-1043
   17490:	00e59733          	sll	a4,a1,a4
   17494:	00d55533          	srl	a0,a0,a3
   17498:	00a767b3          	or	a5,a4,a0
   1749c:	00d5d5b3          	srl	a1,a1,a3
   174a0:	b7e5                	j	17488 <__fixunsdfdi+0x6c>
   174a2:	46fd                	li	a3,31
   174a4:	00155713          	srli	a4,a0,0x1
   174a8:	8e9d                	sub	a3,a3,a5
   174aa:	00d75733          	srl	a4,a4,a3
   174ae:	00f595b3          	sll	a1,a1,a5
   174b2:	8dd9                	or	a1,a1,a4
   174b4:	00f51533          	sll	a0,a0,a5
   174b8:	8082                	ret

000174ba <__floatundidf>:
__floatundidf():
   174ba:	00b567b3          	or	a5,a0,a1
   174be:	c3b1                	beqz	a5,17502 <__floatundidf+0x48>
   174c0:	1141                	addi	sp,sp,-16
   174c2:	c422                	sw	s0,8(sp)
   174c4:	c226                	sw	s1,4(sp)
   174c6:	c04a                	sw	s2,0(sp)
   174c8:	c606                	sw	ra,12(sp)
   174ca:	84aa                	mv	s1,a0
   174cc:	892e                	mv	s2,a1
   174ce:	842e                	mv	s0,a1
   174d0:	c1b9                	beqz	a1,17516 <__floatundidf+0x5c>
   174d2:	852e                	mv	a0,a1
   174d4:	00000097          	auipc	ra,0x0
   174d8:	17a080e7          	jalr	378(ra) # 1764e <__clzsi2>
   174dc:	43e00693          	li	a3,1086
   174e0:	8e89                	sub	a3,a3,a0
   174e2:	43300793          	li	a5,1075
   174e6:	06d7c763          	blt	a5,a3,17554 <__floatundidf+0x9a>
   174ea:	00c91793          	slli	a5,s2,0xc
   174ee:	462d                	li	a2,11
   174f0:	8726                	mv	a4,s1
   174f2:	7ff6f693          	andi	a3,a3,2047
   174f6:	83b1                	srli	a5,a5,0xc
   174f8:	0ca65f63          	bge	a2,a0,175d6 <__floatundidf+0x11c>
   174fc:	ff550613          	addi	a2,a0,-11 # 7ffffff5 <_eusrstack+0x5fff7ff5>
   17500:	a825                	j	17538 <__floatundidf+0x7e>
   17502:	4781                	li	a5,0
   17504:	4681                	li	a3,0
   17506:	07b2                	slli	a5,a5,0xc
   17508:	06d2                	slli	a3,a3,0x14
   1750a:	83b1                	srli	a5,a5,0xc
   1750c:	4701                	li	a4,0
   1750e:	8fd5                	or	a5,a5,a3
   17510:	853a                	mv	a0,a4
   17512:	85be                	mv	a1,a5
   17514:	8082                	ret
   17516:	00000097          	auipc	ra,0x0
   1751a:	138080e7          	jalr	312(ra) # 1764e <__clzsi2>
   1751e:	862a                	mv	a2,a0
   17520:	43e00693          	li	a3,1086
   17524:	02050513          	addi	a0,a0,32
   17528:	8e89                	sub	a3,a3,a0
   1752a:	02a00713          	li	a4,42
   1752e:	7ff6f693          	andi	a3,a3,2047
   17532:	0ca74c63          	blt	a4,a0,1760a <__floatundidf+0x150>
   17536:	0655                	addi	a2,a2,21
   17538:	02b00713          	li	a4,43
   1753c:	8f09                	sub	a4,a4,a0
   1753e:	00c917b3          	sll	a5,s2,a2
   17542:	00e4d733          	srl	a4,s1,a4
   17546:	8f5d                	or	a4,a4,a5
   17548:	00c71793          	slli	a5,a4,0xc
   1754c:	83b1                	srli	a5,a5,0xc
   1754e:	00c49733          	sll	a4,s1,a2
   17552:	a051                	j	175d6 <__floatundidf+0x11c>
   17554:	43600793          	li	a5,1078
   17558:	02d7d963          	bge	a5,a3,1758a <__floatundidf+0xd0>
   1755c:	01850713          	addi	a4,a0,24
   17560:	03850793          	addi	a5,a0,56
   17564:	0c074763          	bltz	a4,17632 <__floatundidf+0x178>
   17568:	00e49633          	sll	a2,s1,a4
   1756c:	4701                	li	a4,0
   1756e:	4421                	li	s0,8
   17570:	8c09                	sub	s0,s0,a0
   17572:	8f51                	or	a4,a4,a2
   17574:	fe040793          	addi	a5,s0,-32 # 7ffe0 <_data_lma+0x68520>
   17578:	00e03733          	snez	a4,a4
   1757c:	0807cf63          	bltz	a5,1761a <__floatundidf+0x160>
   17580:	00f954b3          	srl	s1,s2,a5
   17584:	4781                	li	a5,0
   17586:	8cd9                	or	s1,s1,a4
   17588:	843e                	mv	s0,a5
   1758a:	47a1                	li	a5,8
   1758c:	06a7c163          	blt	a5,a0,175ee <__floatundidf+0x134>
   17590:	ff800737          	lui	a4,0xff800
   17594:	177d                	addi	a4,a4,-1
   17596:	0074f613          	andi	a2,s1,7
   1759a:	00e477b3          	and	a5,s0,a4
   1759e:	c605                	beqz	a2,175c6 <__floatundidf+0x10c>
   175a0:	00f4f613          	andi	a2,s1,15
   175a4:	4591                	li	a1,4
   175a6:	02b60063          	beq	a2,a1,175c6 <__floatundidf+0x10c>
   175aa:	00448613          	addi	a2,s1,4
   175ae:	009634b3          	sltu	s1,a2,s1
   175b2:	97a6                	add	a5,a5,s1
   175b4:	00879593          	slli	a1,a5,0x8
   175b8:	0805d963          	bgez	a1,1764a <__floatundidf+0x190>
   175bc:	43f00693          	li	a3,1087
   175c0:	8ff9                	and	a5,a5,a4
   175c2:	8e89                	sub	a3,a3,a0
   175c4:	84b2                	mv	s1,a2
   175c6:	01d79713          	slli	a4,a5,0x1d
   175ca:	808d                	srli	s1,s1,0x3
   175cc:	07a6                	slli	a5,a5,0x9
   175ce:	8f45                	or	a4,a4,s1
   175d0:	83b1                	srli	a5,a5,0xc
   175d2:	7ff6f693          	andi	a3,a3,2047
   175d6:	40b2                	lw	ra,12(sp)
   175d8:	4422                	lw	s0,8(sp)
   175da:	07b2                	slli	a5,a5,0xc
   175dc:	06d2                	slli	a3,a3,0x14
   175de:	83b1                	srli	a5,a5,0xc
   175e0:	8fd5                	or	a5,a5,a3
   175e2:	4492                	lw	s1,4(sp)
   175e4:	4902                	lw	s2,0(sp)
   175e6:	853a                	mv	a0,a4
   175e8:	85be                	mv	a1,a5
   175ea:	0141                	addi	sp,sp,16
   175ec:	8082                	ret
   175ee:	02800713          	li	a4,40
   175f2:	ff850613          	addi	a2,a0,-8
   175f6:	8f09                	sub	a4,a4,a0
   175f8:	00e4d733          	srl	a4,s1,a4
   175fc:	00c417b3          	sll	a5,s0,a2
   17600:	00f76433          	or	s0,a4,a5
   17604:	00c494b3          	sll	s1,s1,a2
   17608:	b761                	j	17590 <__floatundidf+0xd6>
   1760a:	ff560793          	addi	a5,a2,-11 # ff7ffff5 <_eusrstack+0xdf7f7ff5>
   1760e:	00f497b3          	sll	a5,s1,a5
   17612:	07b2                	slli	a5,a5,0xc
   17614:	83b1                	srli	a5,a5,0xc
   17616:	4701                	li	a4,0
   17618:	bf7d                	j	175d6 <__floatundidf+0x11c>
   1761a:	467d                	li	a2,31
   1761c:	00191793          	slli	a5,s2,0x1
   17620:	8e01                	sub	a2,a2,s0
   17622:	00c797b3          	sll	a5,a5,a2
   17626:	0084d4b3          	srl	s1,s1,s0
   1762a:	8cdd                	or	s1,s1,a5
   1762c:	008957b3          	srl	a5,s2,s0
   17630:	bf99                	j	17586 <__floatundidf+0xcc>
   17632:	467d                	li	a2,31
   17634:	8e1d                	sub	a2,a2,a5
   17636:	0014d713          	srli	a4,s1,0x1
   1763a:	00c75733          	srl	a4,a4,a2
   1763e:	00f91633          	sll	a2,s2,a5
   17642:	8e59                	or	a2,a2,a4
   17644:	00f49733          	sll	a4,s1,a5
   17648:	b71d                	j	1756e <__floatundidf+0xb4>
   1764a:	84b2                	mv	s1,a2
   1764c:	bfad                	j	175c6 <__floatundidf+0x10c>

0001764e <__clzsi2>:
__clzsi2():
   1764e:	67c1                	lui	a5,0x10
   17650:	02f57e63          	bgeu	a0,a5,1768c <__clzsi2+0x3e>
   17654:	0ff00793          	li	a5,255
   17658:	02000713          	li	a4,32
   1765c:	00a7ec63          	bltu	a5,a0,17674 <__clzsi2+0x26>
   17660:	00000797          	auipc	a5,0x0
   17664:	36078793          	addi	a5,a5,864 # 179c0 <__clz_tab>
   17668:	97aa                	add	a5,a5,a0
   1766a:	0007c503          	lbu	a0,0(a5)
   1766e:	40a70533          	sub	a0,a4,a0
   17672:	8082                	ret
   17674:	8121                	srli	a0,a0,0x8
   17676:	00000797          	auipc	a5,0x0
   1767a:	34a78793          	addi	a5,a5,842 # 179c0 <__clz_tab>
   1767e:	97aa                	add	a5,a5,a0
   17680:	0007c503          	lbu	a0,0(a5)
   17684:	4761                	li	a4,24
   17686:	40a70533          	sub	a0,a4,a0
   1768a:	8082                	ret
   1768c:	010007b7          	lui	a5,0x1000
   17690:	00f56e63          	bltu	a0,a5,176ac <__clzsi2+0x5e>
   17694:	8161                	srli	a0,a0,0x18
   17696:	00000797          	auipc	a5,0x0
   1769a:	32a78793          	addi	a5,a5,810 # 179c0 <__clz_tab>
   1769e:	97aa                	add	a5,a5,a0
   176a0:	0007c503          	lbu	a0,0(a5)
   176a4:	4721                	li	a4,8
   176a6:	40a70533          	sub	a0,a4,a0
   176aa:	8082                	ret
   176ac:	8141                	srli	a0,a0,0x10
   176ae:	00000797          	auipc	a5,0x0
   176b2:	31278793          	addi	a5,a5,786 # 179c0 <__clz_tab>
   176b6:	97aa                	add	a5,a5,a0
   176b8:	0007c503          	lbu	a0,0(a5)
   176bc:	4741                	li	a4,16
   176be:	40a70533          	sub	a0,a4,a0
   176c2:	8082                	ret

000176c4 <strlen>:
strlen():
   176c4:	87aa                	mv	a5,a0
   176c6:	0785                	addi	a5,a5,1
   176c8:	fff7c703          	lbu	a4,-1(a5)
   176cc:	ff6d                	bnez	a4,176c6 <strlen+0x2>
   176ce:	40a78533          	sub	a0,a5,a0
   176d2:	157d                	addi	a0,a0,-1
   176d4:	8082                	ret
	...
   176de:	3f40                	fld	fs0,184(a4)
   176e0:	cccd                	beqz	s1,1779a <strlen+0xd6>
   176e2:	cccc                	sw	a1,28(s1)
   176e4:	cccc                	sw	a1,28(s1)
   176e6:	3ff0                	fld	fa2,248(a5)
   176e8:	0000                	unimp
   176ea:	0000                	unimp
   176ec:	0000                	unimp
   176ee:	3f50                	fld	fa2,184(a4)
   176f0:	0000                	unimp
   176f2:	0000                	unimp
   176f4:	0000                	unimp
   176f6:	3ff0                	fld	fa2,248(a5)
   176f8:	0000                	unimp
   176fa:	0000                	unimp
   176fc:	0000                	unimp
   176fe:	3f60                	fld	fs0,248(a4)
   17700:	0000                	unimp
   17702:	0000                	unimp
   17704:	0000                	unimp
   17706:	4008                	lw	a0,0(s0)
   17708:	0000                	unimp
   1770a:	0000                	unimp
   1770c:	fe00                	fsw	fs0,56(a2)
   1770e:	666640af          	0x666640af
   17712:	6666                	flw	fa2,88(sp)
   17714:	6666                	flw	fa2,88(sp)
   17716:	400a                	0x400a
   17718:	0000                	unimp
   1771a:	0000                	unimp
   1771c:	0000                	unimp
   1771e:	4059                	c.li	zero,22
   17720:	61656c63          	bltu	a0,s6,17d38 <_data_lma+0x278>
   17724:	2072                	fld	ft0,280(sp)
   17726:	0a74756f          	jal	a0,5efcc <_data_lma+0x4750c>
   1772a:	0000                	unimp
   1772c:	b3cdb5cf          	fnmadd.d	fa1,fs11,ft8,fs6,rup
   17730:	f4c6                	fsw	fa7,104(sp)
   17732:	afb6                	fsd	fa3,472(sp)
   17734:	2e2e                	fld	ft8,200(sp)
   17736:	0d2e                	slli	s10,s10,0xb
   17738:	000a                	c.slli	zero,0x2
   1773a:	0000                	unimp
   1773c:	bccaf5b3          	0xbccaf5b3
   17740:	2e2eafbb          	0x2e2eafbb
   17744:	0d2e                	slli	s10,s10,0xb
   17746:	000a                	c.slli	zero,0x2
   17748:	2d2d                	jal	17d82 <_data_lma+0x2c2>
   1774a:	2d2d                	jal	17d84 <_data_lma+0x2c4>
   1774c:	2d2d                	jal	17d86 <_data_lma+0x2c6>
   1774e:	2d2d                	jal	17d88 <_data_lma+0x2c8>
   17750:	2d2d                	jal	17d8a <_data_lma+0x2ca>
   17752:	2d2d                	jal	17d8c <_data_lma+0x2cc>
   17754:	2d2d                	jal	17d8e <_data_lma+0x2ce>
   17756:	2d2d                	jal	17d90 <_data_lma+0x2d0>
   17758:	2d2d                	jal	17d92 <_data_lma+0x2d2>
   1775a:	2d2d                	jal	17d94 <_data_lma+0x2d4>
   1775c:	2d2d                	jal	17d96 <_data_lma+0x2d6>
   1775e:	2d2d                	jal	17d98 <_data_lma+0x2d8>
   17760:	2d2d                	jal	17d9a <_data_lma+0x2da>
   17762:	2d2d                	jal	17d9c <_data_lma+0x2dc>
   17764:	2d2d                	jal	17d9e <_data_lma+0x2de>
   17766:	2d2d                	jal	17da0 <_data_lma+0x2e0>
   17768:	2d2d                	jal	17da2 <_data_lma+0x2e2>
   1776a:	2d2d                	jal	17da4 <_data_lma+0x2e4>
   1776c:	2d2d                	jal	17da6 <_data_lma+0x2e6>
   1776e:	2d2d                	jal	17da8 <_data_lma+0x2e8>
   17770:	2d2d                	jal	17daa <_data_lma+0x2ea>
   17772:	2d2d                	jal	17dac <_data_lma+0x2ec>
   17774:	2d2d                	jal	17dae <_data_lma+0x2ee>
   17776:	2d2d                	jal	17db0 <_data_lma+0x2f0>
   17778:	2d2d                	jal	17db2 <_data_lma+0x2f2>
   1777a:	2d2d                	jal	17db4 <_data_lma+0x2f4>
   1777c:	2d2d                	jal	17db6 <_data_lma+0x2f6>
   1777e:	000a                	c.slli	zero,0x2
   17780:	2020                	fld	fs0,64(s0)
   17782:	2020                	fld	fs0,64(s0)
   17784:	f0bd                	bnez	s1,176ea <strlen+0x26>
   17786:	f9ba                	fsw	fa4,240(sp)
   17788:	abc2                	fsd	fa6,464(sp)
   1778a:	e1cc                	fsw	fa1,4(a1)
   1778c:	beca                	fsd	fs2,376(sp)
   1778e:	4720baa3          	0x4720baa3
   17792:	4345                	li	t1,17
   17794:	4c5f 4241 c2cf      	0xc2cf42414c5f
   1779a:	bbce                	fsd	fs3,496(sp)
   1779c:	edc8fabb          	0xedc8fabb
   177a0:	febc                	fsw	fa5,120(a3)
   177a2:	3376                	fld	ft6,376(sp)
   177a4:	302e                	fld	ft0,232(sp)
   177a6:	3220                	fld	fs0,96(a2)
   177a8:	3230                	fld	fa2,96(a2)
   177aa:	3134                	fld	fa3,96(a0)
   177ac:	3231                	jal	170b8 <__subdf3+0x51c>
   177ae:	2034                	fld	fa3,64(s0)
   177b0:	2020                	fld	fs0,64(s0)
   177b2:	2020                	fld	fs0,64(s0)
   177b4:	2020                	fld	fs0,64(s0)
   177b6:	2020                	fld	fs0,64(s0)
   177b8:	000a                	c.slli	zero,0x2
   177ba:	0000                	unimp
   177bc:	2020                	fld	fs0,64(s0)
   177be:	2020                	fld	fs0,64(s0)
   177c0:	f0bd                	bnez	s1,17726 <strlen+0x62>
   177c2:	f9ba                	fsw	fa4,240(sp)
   177c4:	abc2                	fsd	fa6,464(sp)
   177c6:	e1cc                	fsw	fa1,4(a1)
   177c8:	beca                	fsd	fs2,376(sp)
   177ca:	6620baa3          	0x6620baa3
   177ce:	7020726f          	jal	tp,1eed0 <_data_lma+0x7410>
   177d2:	2e312063          	0x2e312063
   177d6:	20782e33          	0x20782e33
   177da:	2020                	fld	fs0,64(s0)
   177dc:	2020                	fld	fs0,64(s0)
   177de:	2020                	fld	fs0,64(s0)
   177e0:	2020                	fld	fs0,64(s0)
   177e2:	2020                	fld	fs0,64(s0)
   177e4:	2020                	fld	fs0,64(s0)
   177e6:	2020                	fld	fs0,64(s0)
   177e8:	2020                	fld	fs0,64(s0)
   177ea:	2020                	fld	fs0,64(s0)
   177ec:	2020                	fld	fs0,64(s0)
   177ee:	2020                	fld	fs0,64(s0)
   177f0:	2020                	fld	fs0,64(s0)
   177f2:	0a20                	addi	s0,sp,280
   177f4:	0000                	unimp
   177f6:	0000                	unimp
   177f8:	2020                	fld	fs0,64(s0)
   177fa:	2020                	fld	fs0,64(s0)
   177fc:	f0bd                	bnez	s1,17762 <strlen+0x9e>
   177fe:	f9ba                	fsw	fa4,240(sp)
   17800:	abc2                	fsd	fa6,464(sp)
   17802:	e1cc                	fsw	fa1,4(a1)
   17804:	beca                	fsd	fs2,376(sp)
   17806:	ce20baa3          	0xce20baa3
   1780a:	b2de                	fsd	fs7,352(sp)
   1780c:	d7d9                	beqz	a5,1779a <strlen+0xd6>
   1780e:	cdb5cff7          	0xcdb5cff7
   17812:	b1e6b0b3          	0xb1e6b0b3
   17816:	20be                	fld	ft1,456(sp)
   17818:	2020                	fld	fs0,64(s0)
   1781a:	2020                	fld	fs0,64(s0)
   1781c:	2020                	fld	fs0,64(s0)
   1781e:	2020                	fld	fs0,64(s0)
   17820:	2020                	fld	fs0,64(s0)
   17822:	2020                	fld	fs0,64(s0)
   17824:	2020                	fld	fs0,64(s0)
   17826:	2020                	fld	fs0,64(s0)
   17828:	2020                	fld	fs0,64(s0)
   1782a:	2020                	fld	fs0,64(s0)
   1782c:	2020                	fld	fs0,64(s0)
   1782e:	2020                	fld	fs0,64(s0)
   17830:	0a20                	addi	s0,sp,280
   17832:	0000                	unimp
   17834:	2020                	fld	fs0,64(s0)
   17836:	bea1                	j	1738e <__fixunsdfsi+0x44>
   17838:	7355                	lui	t1,0xffff5
   1783a:	7265                	lui	tp,0xffff9
   1783c:	e1cc                	fsw	fa1,4(a1)
   1783e:	beca                	fsd	fs2,376(sp)
   17840:	bfa1                	j	17798 <strlen+0xd4>
   17842:	abbdbaa3          	0xabbdbaa3
   17846:	f8bd                	bnez	s1,177bc <strlen+0xf8>
   17848:	ebc8                	fsw	fa0,20(a5)
   1784a:	7355                	lui	t1,0xffff5
   1784c:	7265                	lui	tp,0xffff9
   1784e:	c4b5                	beqz	s1,178ba <strlen+0x1f6>
   17850:	616d                	addi	sp,sp,240
   17852:	6e69                	lui	t3,0x1a
   17854:	afba                	fsd	fa4,472(sp)
   17856:	fdca                	fsw	fs2,248(sp)
   17858:	b4d6                	fsd	fs5,104(sp)
   1785a:	d0d0                	sw	a2,36(s1)
   1785c:	2e2e                	fld	ft8,200(sp)
   1785e:	0d2e                	slli	s10,s10,0xb
   17860:	0a0a                	slli	s4,s4,0x2
   17862:	0000                	unimp
   17864:	da24                	sw	s1,112(a2)
   17866:	ffff                	0xffff
   17868:	daa6                	sw	s1,116(sp)
   1786a:	ffff                	0xffff
   1786c:	daa6                	sw	s1,116(sp)
   1786e:	ffff                	0xffff
   17870:	da30                	sw	a2,112(a2)
   17872:	ffff                	0xffff
   17874:	daa6                	sw	s1,116(sp)
   17876:	ffff                	0xffff
   17878:	daa6                	sw	s1,116(sp)
   1787a:	ffff                	0xffff
   1787c:	daa6                	sw	s1,116(sp)
   1787e:	ffff                	0xffff
   17880:	daa6                	sw	s1,116(sp)
   17882:	ffff                	0xffff
   17884:	daa6                	sw	s1,116(sp)
   17886:	ffff                	0xffff
   17888:	daa6                	sw	s1,116(sp)
   1788a:	ffff                	0xffff
   1788c:	daa6                	sw	s1,116(sp)
   1788e:	ffff                	0xffff
   17890:	da1e                	sw	t2,52(sp)
   17892:	ffff                	0xffff
   17894:	daa6                	sw	s1,116(sp)
   17896:	ffff                	0xffff
   17898:	d9fa                	sw	t5,240(sp)
   1789a:	ffff                	0xffff
   1789c:	daa6                	sw	s1,116(sp)
   1789e:	ffff                	0xffff
   178a0:	daa6                	sw	s1,116(sp)
   178a2:	ffff                	0xffff
   178a4:	da2a                	sw	a0,52(sp)
   178a6:	ffff                	0xffff
   178a8:	dc92                	sw	tp,120(sp)
   178aa:	ffff                	0xffff
   178ac:	df20                	sw	s0,120(a4)
   178ae:	ffff                	0xffff
   178b0:	df20                	sw	s0,120(a4)
   178b2:	ffff                	0xffff
   178b4:	df20                	sw	s0,120(a4)
   178b6:	ffff                	0xffff
   178b8:	df20                	sw	s0,120(a4)
   178ba:	ffff                	0xffff
   178bc:	df20                	sw	s0,120(a4)
   178be:	ffff                	0xffff
   178c0:	df20                	sw	s0,120(a4)
   178c2:	ffff                	0xffff
   178c4:	df20                	sw	s0,120(a4)
   178c6:	ffff                	0xffff
   178c8:	df20                	sw	s0,120(a4)
   178ca:	ffff                	0xffff
   178cc:	df20                	sw	s0,120(a4)
   178ce:	ffff                	0xffff
   178d0:	dd96                	sw	t0,248(sp)
   178d2:	ffff                	0xffff
   178d4:	de72                	sw	t3,60(sp)
   178d6:	ffff                	0xffff
   178d8:	daa2                	sw	s0,116(sp)
   178da:	ffff                	0xffff
   178dc:	df20                	sw	s0,120(a4)
   178de:	ffff                	0xffff
   178e0:	db4a                	sw	s2,180(sp)
   178e2:	ffff                	0xffff
   178e4:	df20                	sw	s0,120(a4)
   178e6:	ffff                	0xffff
   178e8:	df20                	sw	s0,120(a4)
   178ea:	ffff                	0xffff
   178ec:	daa2                	sw	s0,116(sp)
   178ee:	ffff                	0xffff
   178f0:	df20                	sw	s0,120(a4)
   178f2:	ffff                	0xffff
   178f4:	df20                	sw	s0,120(a4)
   178f6:	ffff                	0xffff
   178f8:	df20                	sw	s0,120(a4)
   178fa:	ffff                	0xffff
   178fc:	df20                	sw	s0,120(a4)
   178fe:	ffff                	0xffff
   17900:	df14                	sw	a3,56(a4)
   17902:	ffff                	0xffff
   17904:	dd5e                	sw	s7,184(sp)
   17906:	ffff                	0xffff
   17908:	ddb6                	sw	a3,248(sp)
   1790a:	ffff                	0xffff
   1790c:	df20                	sw	s0,120(a4)
   1790e:	ffff                	0xffff
   17910:	df20                	sw	s0,120(a4)
   17912:	ffff                	0xffff
   17914:	de8a                	sw	sp,124(sp)
   17916:	ffff                	0xffff
   17918:	df20                	sw	s0,120(a4)
   1791a:	ffff                	0xffff
   1791c:	ddd6                	sw	s5,248(sp)
   1791e:	ffff                	0xffff
   17920:	df20                	sw	s0,120(a4)
   17922:	ffff                	0xffff
   17924:	df20                	sw	s0,120(a4)
   17926:	ffff                	0xffff
   17928:	dc92                	sw	tp,120(sp)
   1792a:	ffff                	0xffff
	...
   17934:	0000                	unimp
   17936:	4024                	lw	s1,64(s0)
   17938:	999a                	add	s3,s3,t1
   1793a:	9999                	andi	a1,a1,-26
   1793c:	9999                	andi	a1,a1,-26
   1793e:	3fb9                	jal	1789c <strlen+0x1d8>
   17940:	e8fa                	fsw	ft10,80(sp)
   17942:	ffff                	0xffff
   17944:	e776                	fsw	ft9,140(sp)
   17946:	ffff                	0xffff
   17948:	e88e                	fsw	ft3,80(sp)
   1794a:	ffff                	0xffff
   1794c:	e896                	fsw	ft5,80(sp)
   1794e:	ffff                	0xffff
   17950:	e88e                	fsw	ft3,80(sp)
   17952:	ffff                	0xffff
   17954:	e7a6                	fsw	fs1,204(sp)
   17956:	ffff                	0xffff
   17958:	e88e                	fsw	ft3,80(sp)
   1795a:	ffff                	0xffff
   1795c:	e896                	fsw	ft5,80(sp)
   1795e:	ffff                	0xffff
   17960:	e776                	fsw	ft9,140(sp)
   17962:	ffff                	0xffff
   17964:	e776                	fsw	ft9,140(sp)
   17966:	ffff                	0xffff
   17968:	e7a6                	fsw	fs1,204(sp)
   1796a:	ffff                	0xffff
   1796c:	e896                	fsw	ft5,80(sp)
   1796e:	ffff                	0xffff
   17970:	e8f0                	fsw	fa2,84(s1)
   17972:	ffff                	0xffff
   17974:	e8f0                	fsw	fa2,84(s1)
   17976:	ffff                	0xffff
   17978:	e8f0                	fsw	fa2,84(s1)
   1797a:	ffff                	0xffff
   1797c:	e7a6                	fsw	fs1,204(sp)
   1797e:	ffff                	0xffff
   17980:	ef6c                	fsw	fa1,92(a4)
   17982:	ffff                	0xffff
   17984:	ee56                	fsw	fs5,28(sp)
   17986:	ffff                	0xffff
   17988:	ee56                	fsw	fs5,28(sp)
   1798a:	ffff                	0xffff
   1798c:	ee54                	fsw	fa3,28(a2)
   1798e:	ffff                	0xffff
   17990:	ee5c                	fsw	fa5,28(a2)
   17992:	ffff                	0xffff
   17994:	ee5c                	fsw	fa5,28(a2)
   17996:	ffff                	0xffff
   17998:	ee22                	fsw	fs0,28(sp)
   1799a:	ffff                	0xffff
   1799c:	ee54                	fsw	fa3,28(a2)
   1799e:	ffff                	0xffff
   179a0:	ee5c                	fsw	fa5,28(a2)
   179a2:	ffff                	0xffff
   179a4:	ee22                	fsw	fs0,28(sp)
   179a6:	ffff                	0xffff
   179a8:	ee5c                	fsw	fa5,28(a2)
   179aa:	ffff                	0xffff
   179ac:	ee54                	fsw	fa3,28(a2)
   179ae:	ffff                	0xffff
   179b0:	ef58                	fsw	fa4,28(a4)
   179b2:	ffff                	0xffff
   179b4:	ef58                	fsw	fa4,28(a4)
   179b6:	ffff                	0xffff
   179b8:	ef58                	fsw	fa4,28(a4)
   179ba:	ffff                	0xffff
   179bc:	ee22                	fsw	fs0,28(sp)
   179be:	ffff                	0xffff

000179c0 <__clz_tab>:
   179c0:	0100 0202 0303 0303 0404 0404 0404 0404     ................
   179d0:	0505 0505 0505 0505 0505 0505 0505 0505     ................
   179e0:	0606 0606 0606 0606 0606 0606 0606 0606     ................
   179f0:	0606 0606 0606 0606 0606 0606 0606 0606     ................
   17a00:	0707 0707 0707 0707 0707 0707 0707 0707     ................
   17a10:	0707 0707 0707 0707 0707 0707 0707 0707     ................
   17a20:	0707 0707 0707 0707 0707 0707 0707 0707     ................
   17a30:	0707 0707 0707 0707 0707 0707 0707 0707     ................
   17a40:	0808 0808 0808 0808 0808 0808 0808 0808     ................
   17a50:	0808 0808 0808 0808 0808 0808 0808 0808     ................
   17a60:	0808 0808 0808 0808 0808 0808 0808 0808     ................
   17a70:	0808 0808 0808 0808 0808 0808 0808 0808     ................
   17a80:	0808 0808 0808 0808 0808 0808 0808 0808     ................
   17a90:	0808 0808 0808 0808 0808 0808 0808 0808     ................
   17aa0:	0808 0808 0808 0808 0808 0808 0808 0808     ................
   17ab0:	0808 0808 0808 0808 0808 0808 0808 0808     ................
