
LST-ASM-CH573.elf:     file format elf32-littleriscv
LST-ASM-CH573.elf
architecture: riscv:rv32, flags 0x00000112:
EXEC_P, HAS_SYMS, D_PAGED
start address 0x00012000

Program Header:
    LOAD off    0x00001000 vaddr 0x00012000 paddr 0x00012000 align 2**12
         filesz 0x000000ec memsz 0x000000ec flags r-x
    LOAD off    0x00001600 vaddr 0x20005600 paddr 0x00013000 align 2**12
         filesz 0x0000049c memsz 0x0000049c flags r-x
    LOAD off    0x000024a0 vaddr 0x000134a0 paddr 0x000134a0 align 2**12
         filesz 0x00002bf0 memsz 0x00002bf0 flags r-x
    LOAD off    0x00005aa0 vaddr 0x20005aa0 paddr 0x00016090 align 2**12
         filesz 0x000001d8 memsz 0x000001dc flags rw-

Sections:
Idx Name            Size      VMA       LMA       File off  Algn  Flags
  0 .init           00000004  00012000  00012000  00001000  2**1  CONTENTS, ALLOC, LOAD, READONLY, CODE
  1 .vector         000000e8  00012004  00012004  00001004  2**1  CONTENTS, ALLOC, LOAD, READONLY, CODE
  2 .highcodelalign 00000000  00013000  00013000  00005c78  2**0  CONTENTS
  3 .highcode       0000049c  20005600  00013000  00001600  2**1  CONTENTS, ALLOC, LOAD, READONLY, CODE
  4 .text           00002bf0  000134a0  000134a0  000024a0  2**3  CONTENTS, ALLOC, LOAD, READONLY, CODE
  5 .fini           00000000  00016090  00016090  00005c78  2**0  CONTENTS, ALLOC, LOAD, CODE
  6 .dalign         00000000  20005a9c  20005a9c  00005c78  2**0  CONTENTS
  7 .dlalign        00000000  00016090  00016090  00005c78  2**0  CONTENTS
  8 .data           000001d8  20005aa0  00016090  00005aa0  2**4  CONTENTS, ALLOC, LOAD, DATA
  9 .bss            00000004  20005c78  00016268  00005c78  2**2  ALLOC
 10 .stack          00000000  20008000  20008000  00005c78  2**0  CONTENTS
 11 .debug_info     00004248  00000000  00000000  00005c78  2**0  CONTENTS, READONLY, DEBUGGING
 12 .debug_abbrev   00000df4  00000000  00000000  00009ec0  2**0  CONTENTS, READONLY, DEBUGGING
 13 .debug_loc      0000225b  00000000  00000000  0000acb4  2**0  CONTENTS, READONLY, DEBUGGING
 14 .debug_aranges  000001d0  00000000  00000000  0000cf10  2**3  CONTENTS, READONLY, DEBUGGING
 15 .debug_ranges   00000230  00000000  00000000  0000d0e0  2**3  CONTENTS, READONLY, DEBUGGING
 16 .debug_line     00004455  00000000  00000000  0000d310  2**0  CONTENTS, READONLY, DEBUGGING
 17 .debug_str      00000b6b  00000000  00000000  00011765  2**0  CONTENTS, READONLY, DEBUGGING
 18 .comment        00000033  00000000  00000000  000122d0  2**0  CONTENTS, READONLY
 19 .debug_frame    00000544  00000000  00000000  00012304  2**2  CONTENTS, READONLY, DEBUGGING
SYMBOL TABLE:
00012000 l    d  .init	00000000 .init
00012004 l    d  .vector	00000000 .vector
00013000 l    d  .highcodelalign	00000000 .highcodelalign
20005600 l    d  .highcode	00000000 .highcode
000134a0 l    d  .text	00000000 .text
00016090 l    d  .fini	00000000 .fini
20005a9c l    d  .dalign	00000000 .dalign
00016090 l    d  .dlalign	00000000 .dlalign
20005aa0 l    d  .data	00000000 .data
20005c78 l    d  .bss	00000000 .bss
20008000 l    d  .stack	00000000 .stack
00000000 l    d  .debug_info	00000000 .debug_info
00000000 l    d  .debug_abbrev	00000000 .debug_abbrev
00000000 l    d  .debug_loc	00000000 .debug_loc
00000000 l    d  .debug_aranges	00000000 .debug_aranges
00000000 l    d  .debug_ranges	00000000 .debug_ranges
00000000 l    d  .debug_line	00000000 .debug_line
00000000 l    d  .debug_str	00000000 .debug_str
00000000 l    d  .comment	00000000 .comment
00000000 l    d  .debug_frame	00000000 .debug_frame
00000000 l    df *ABS*	00000000 ./obj/startup_CH573.o
00012004 l       .vector	00000000 _vector_base
00000000 l    df *ABS*	00000000 ISP573.c
20005600 l     F .highcode	00000010 FLASH_ROM_BEG
20005610 l     F .highcode	0000000e FLASH_ROM_END
20005610 l       .highcode	00000000 .loop17
2000561e l     F .highcode	0000000e FLASH_ROM_IN
2000561e l       .highcode	00000000 .loop28
2000562c l     F .highcode	0000000e FLASH_ROM_OUT
2000562c l       .highcode	00000000 .loop39
2000563a l     F .highcode	00000060 FLASH_ROM_ADDR
2000569a l     F .highcode	00000056 FLASH_ROM_WAIT
20005924 l       .highcode	00000000 .loop400
00000000 l    df *ABS*	00000000 ./obj/gpio.o
00000000 l       *ABS*	00000000 PTA_NUM
00000100 l       *ABS*	00000000 PTB_NUM
00000000 l       *ABS*	00000000 GPIO_INPUT
00000001 l       *ABS*	00000000 GPIO_OUTPUT
00000001 l       *ABS*	00000000 RISING_EDGE
00000002 l       *ABS*	00000000 FALLING_EDGE
00000003 l       *ABS*	00000000 LowLevel
00000004 l       *ABS*	00000000 HighLevel
00000001 l       *ABS*	00000000 PULL_UP
00000000 l       *ABS*	00000000 PULL_DOWN
40001018 l       *ABS*	00000000 R16_PIN_ALTERNATE
4000101a l       *ABS*	00000000 R16_PIN_ANALOG_IE
40001090 l       *ABS*	00000000 R16_PA_INT_EN
40001092 l       *ABS*	00000000 R16_PB_INT_EN
40001094 l       *ABS*	00000000 R16_PA_INT_MODE
40001096 l       *ABS*	00000000 R16_PB_INT_MODE
4000109c l       *ABS*	00000000 R16_PA_INT_IF
4000109e l       *ABS*	00000000 R16_PB_INT_IF
400010a0 l       *ABS*	00000000 R32_PA_DIR
400010a4 l       *ABS*	00000000 R32_PA_PIN
400010a8 l       *ABS*	00000000 R32_PA_OUT
400010ac l       *ABS*	00000000 R32_PA_CLR
400010b0 l       *ABS*	00000000 R32_PA_PU
400010b4 l       *ABS*	00000000 R32_PA_PD_DRV
400010c0 l       *ABS*	00000000 R32_PB_DIR
400010c4 l       *ABS*	00000000 R32_PB_PIN
400010c8 l       *ABS*	00000000 R32_PB_OUT
400010cc l       *ABS*	00000000 R32_PB_CLR
400010d0 l       *ABS*	00000000 R32_PB_PU
400010d4 l       *ABS*	00000000 R32_PB_PD_DRV
00000000 l       *ABS*	00000000 NOERROR
00000001 l       *ABS*	00000000 ERROR
00000000 l       *ABS*	00000000 LEDON
00000001 l       *ABS*	00000000 LEDOFF
00013560 l       .text	00000000 gpio_port_pin_resolution
00013596 l       .text	00000000 GPIOA
000135a2 l       .text	00000000 GPIOB
00013604 l       .text	00000000 GPIOA_input_H
000135ae l       .text	00000000 GPIOA_output_H
0001369a l       .text	00000000 exit
0001367a l       .text	00000000 GPIOB_input_H
00013624 l       .text	00000000 GPIOB_output_H
000135cc l       .text	00000000 OUT_PUT_LOW_A
000135e8 l       .text	00000000 OUT_PUT_HIGH_A
00013642 l       .text	00000000 OUT_PUT_LOW_B
0001365e l       .text	00000000 OUT_PUT_HIGH_B
000136bc l       .text	00000000 GPIOA_SET
000136f8 l       .text	00000000 GPIOB_SET
000136c0 l       .text	00000000 GPIOA_SET_LOW
000136dc l       .text	00000000 GPIOA_SET_HIGH
00013734 l       .text	00000000 SET_exit
000136fc l       .text	00000000 GPIOB_SET_LOW
00013718 l       .text	00000000 GPIOB_SET_HIGH
00013752 l       .text	00000000 GPIOA_REVERSE
000137aa l       .text	00000000 GPIOB_REVERSE
0001378e l       .text	00000000 GPIOA_REV_H
00013772 l       .text	00000000 GPIOA_REV_L
00013802 l       .text	00000000 gpio_reverse_exit
000137e6 l       .text	00000000 GPIOB_REV_H
000137ca l       .text	00000000 GPIOB_REV_L
00013820 l       .text	00000000 GPIOA_GET
00013880 l       .text	00000000 GPIOB_GET
00013840 l       .text	00000000 GPIOA_GET_IN
00013860 l       .text	00000000 GPIOA_GET_OUT
000138e0 l       .text	00000000 RETURN_0
000138e8 l       .text	00000000 RETURN_1
000138a0 l       .text	00000000 GPIOB_GET_IN
000138c0 l       .text	00000000 GPIOB_GET_OUT
00000000 l    df *ABS*	00000000 ./obj/main.o
00000000 l       *ABS*	00000000 PTA_NUM
00000100 l       *ABS*	00000000 PTB_NUM
00000000 l       *ABS*	00000000 GPIO_INPUT
00000001 l       *ABS*	00000000 GPIO_OUTPUT
00000001 l       *ABS*	00000000 RISING_EDGE
00000002 l       *ABS*	00000000 FALLING_EDGE
00000003 l       *ABS*	00000000 LowLevel
00000004 l       *ABS*	00000000 HighLevel
00000001 l       *ABS*	00000000 PULL_UP
00000000 l       *ABS*	00000000 PULL_DOWN
40001018 l       *ABS*	00000000 R16_PIN_ALTERNATE
4000101a l       *ABS*	00000000 R16_PIN_ANALOG_IE
40001090 l       *ABS*	00000000 R16_PA_INT_EN
40001092 l       *ABS*	00000000 R16_PB_INT_EN
40001094 l       *ABS*	00000000 R16_PA_INT_MODE
40001096 l       *ABS*	00000000 R16_PB_INT_MODE
4000109c l       *ABS*	00000000 R16_PA_INT_IF
4000109e l       *ABS*	00000000 R16_PB_INT_IF
400010a0 l       *ABS*	00000000 R32_PA_DIR
400010a4 l       *ABS*	00000000 R32_PA_PIN
400010a8 l       *ABS*	00000000 R32_PA_OUT
400010ac l       *ABS*	00000000 R32_PA_CLR
400010b0 l       *ABS*	00000000 R32_PA_PU
400010b4 l       *ABS*	00000000 R32_PA_PD_DRV
400010c0 l       *ABS*	00000000 R32_PB_DIR
400010c4 l       *ABS*	00000000 R32_PB_PIN
400010c8 l       *ABS*	00000000 R32_PB_OUT
400010cc l       *ABS*	00000000 R32_PB_CLR
400010d0 l       *ABS*	00000000 R32_PB_PU
400010d4 l       *ABS*	00000000 R32_PB_PD_DRV
000927c0 l       *ABS*	00000000 MAINLOOP_COUNT
0000010e l       *ABS*	00000000 LIGHT_BLUE
0000010c l       *ABS*	00000000 LIGHT_RED
0000010d l       *ABS*	00000000 LIGHT_GREEN
00000000 l       *ABS*	00000000 LIGHT_ON
00000001 l       *ABS*	00000000 LIGHT_OFF
20005aa0 l       .data	00000000 hello_information
20005c27 l       .data	00000000 printf_format1
20005c3d l       .data	00000000 printf_format2
20005c41 l       .data	00000000 printf_format3
20005c52 l       .data	00000000 printf_format4
20005c65 l       .data	00000000 data_format1
20005c70 l       .data	00000000 mMainLoopCount
20005c74 l       .data	00000000 mLigtCount
20005c76 l       .data	00000000 mFlag
00013916 l       .text	00000000 main_loop
000139c4 l       .text	00000000 main_Light_OFF
00013a66 l       .text	00000000 main_exit
000139f2 l       .text	00000000 Label
00000000 l    df *ABS*	00000000 flash.c
00000000 l    df *ABS*	00000000 gec.c
00000000 l    df *ABS*	00000000 uart.c
00000000 l    df *ABS*	00000000 printf.c
00013eb6 l     F .text	00000040 printk_putc
00013ef6 l     F .text	00000072 printk_mknumstr
00013f68 l     F .text	00000038 printk_pad_space
00000000 l    df *ABS*	00000000 libgcc2.c
00000000 l    df *ABS*	00000000 libgcc2.c
00000000 l    df *ABS*	00000000 eqdf2.c
00000000 l    df *ABS*	00000000 ledf2.c
00000000 l    df *ABS*	00000000 muldf3.c
00000000 l    df *ABS*	00000000 subdf3.c
00000000 l    df *ABS*	00000000 fixunsdfdi.c
00000000 l    df *ABS*	00000000 floatundidf.c
00000000 l    df *ABS*	00000000 libgcc2.c
00000000 l    df *ABS*	00000000 strlen.c
00000000 l    df *ABS*	00000000 libgcc2.c
00013c36 g     F .text	000000c6 flash_write
00014ea2 g     F .text	0000006a .hidden __eqdf2
20006478 g       .data	00000000 __global_pointer$
00000025 g       *ABS*	00000000 GEC_USER_SECTOR_END
00012098  w      .vector	00000000 HardFault_Handler
000120ac  w      .vector	00000000 GPIOB_IRQHandler
000120a8  w      .vector	00000000 GPIOA_IRQHandler
0001209c  w      .vector	00000000 SysTick_Handler
00012094  w      .vector	00000000 NMI_Handler
000120cc  w      .vector	00000000 UART1_IRQHandler
20005c78 g       .bss	00000000 _sbss
00000012 g       *ABS*	00000000 GEC_USER_SECTOR_START
000120c8  w      .vector	00000000 UART0_IRQHandler
00014f0c g     F .text	000000b6 .hidden __ltdf2
00012004 g       .init	00000000 _einit
000120b4  w      .vector	00000000 BB_IRQHandler
200056f0 g     F .highcode	000003aa FLASH_EEPROM_CMD
00013b18 g     F .text	00000020 flash_erase
00013bb4 g     F .text	00000082 flash_Best
000120a4  w      .vector	00000000 TMR0_IRQHandler
00014b14 g     F .text	0000038e .hidden __umoddi3
00013b38 g     F .text	00000022 flash_write_sect
0001477c g     F .text	00000398 .hidden __udivdi3
00013fae g     F .text	00000278 printk_mkfloatstr
000120d0  w      .vector	00000000 RTC_IRQHandler
20005c7c g       .bss	00000000 _ebss
00001000 g       *ABS*	00000000 MCU_SECTORSIZE
00014f0c g     F .text	000000b6 .hidden __ledf2
20007fff g       *ABS*	00000000 GEC_USER_RAM_END
00014746 g     F .text	00000036 myprintf
00013b7a g     F .text	0000003a flash_write_DoubleWord
000120e0  w      .vector	00000000 UART2_IRQHandler
000120d8  w      .vector	00000000 PWMX_IRQHandler
00015e02 g     F .text	00000076 .hidden __clzsi2
00013808 g     F .text	00000000 gpio_get
00012000 g       .init	00000000 _start
20005c78 g     O .bss	00000004 component_fun
00015c6e g     F .text	00000194 .hidden __floatundidf
20005600 g       *ABS*	00000000 GEC_USER_RAM_START
000120d4  w      .vector	00000000 ADC_IRQHandler
20005600 g       .highcode	00000000 _highcode_vma_start
000120c4  w      .vector	00000000 TMR2_IRQHandler
20005aa0 g       .data	00000000 _data_vma
00013fa0 g     F .text	0000000e out_char
000120bc  w      .vector	00000000 USB_IRQHandler
00014226 g     F .text	00000520 printk
00013b5a g     F .text	00000020 flash_read_logic
00014fc2 g     F .text	000004c8 .hidden __muldf3
00013a6e g     F .text	000000a8 memset
000138f4 g     F .text	00000000 main
00013cfc g     F .text	000000b8 IRQ_OPC_CHANGE
00013000 g       .highcodelalign	00000000 _highcode_lma
00014ea2 g     F .text	0000006a .hidden __nedf2
00015bd0 g     F .text	0000009e .hidden __fixunsdfdi
00015f90 g     O .text	00000100 .hidden __clz_tab
000120b8  w      .vector	00000000 LLE_IRQHandler
00012000 g       .init	00000000 _sinit
000120e8  w      .vector	00000000 WDOG_BAT_IRQHandler
000120dc  w      .vector	00000000 TMR3_IRQHandler
20008000 g       .stack	00000000 _eusrstack
000120a0  w      .vector	00000000 SW_Handler
00013db4 g     F .text	00000080 Vectors_Init
20005c78 g       .data	00000000 _edata
000120b0  w      .vector	00000000 SPI0_IRQHandler
20005a9c g       .highcode	00000000 _highcode_vma_end
00016090 g       .dlalign	00000000 _data_lma
000134a0  w      .text	00000000 handle_reset
00015e78 g     F .text	00000012 strlen
000120e4  w      .vector	00000000 UART3_IRQHandler
00013e34 g     F .text	00000082 uart_send1
000136a2 g     F .text	00000000 gpio_set
0001373a g     F .text	00000000 gpio_reverse
0001357a g       .text	00000000 gpio_init
0001548a g     F .text	00000746 .hidden __subdf3
000120c0  w      .vector	00000000 TMR1_IRQHandler
00000000 g       *ABS*	00000000 MCU_FLASH_ADDR_START



Disassembly of section .init:

00012000 <_sinit>:
_start():
C:\Users\liangfan\OneDrive\enbed\CH573\AHL-CH573-EXP-V1.3-20241124\03-Software\CH07\LST-ASM-CH573\Debug/srcs/startup_CH573.S:14
	.section	.init,"ax",@progbits   /*ax是 allocation  execute的缩写，表示该节区可分配并且可执行，progbits是类型*/
	.global	_start   /*将_start标签定义为全局可见*/
	.align	1   /*将当前PC地址推进到2的1次方个字节对齐的位置*/
    .option	norelax  /*	不允许链接松弛*/
_start:     /*定义此处的标签为_start*/
	j	handle_reset     /*跳转指令跳转到标签handle_reset所在的位置*/
   12000:	4a00106f          	j	134a0 <handle_reset>

Disassembly of section .vector:

00012004 <_vector_base>:
_vector_base():
   12004:	8000                	0x8000
   12006:	2000                	fld	fs0,0(s0)
   12008:	0000                	unimp
   1200a:	0000                	unimp
C:\Users\liangfan\OneDrive\enbed\CH573\AHL-CH573-EXP-V1.3-20241124\03-Software\CH07\LST-ASM-CH573\Debug/srcs/startup_CH573.S:22
    .align  1
_vector_base:
    .option norvc; /*表示接下来的汇编程序不可以被汇编生成16位宽的压缩指令*/
    .word   _eusrstack
    .word   0
        j   NMI_Handler                 /* NMI Handler */
   1200c:	0880006f          	j	12094 <NMI_Handler>
C:\Users\liangfan\OneDrive\enbed\CH573\AHL-CH573-EXP-V1.3-20241124\03-Software\CH07\LST-ASM-CH573\Debug/srcs/startup_CH573.S:23
        j   HardFault_Handler           /* Hard Fault Handler */
   12010:	0880006f          	j	12098 <HardFault_Handler>
	...
C:\Users\liangfan\OneDrive\enbed\CH573\AHL-CH573-EXP-V1.3-20241124\03-Software\CH07\LST-ASM-CH573\Debug/srcs/startup_CH573.S:32
    .word   0
    .word   0
    .word   0
    .word   0
    .word   0
        j   SysTick_Handler            /* SysTick Handler */
   12034:	0680006f          	j	1209c <SysTick_Handler>
   12038:	0000                	unimp
   1203a:	0000                	unimp
C:\Users\liangfan\OneDrive\enbed\CH573\AHL-CH573-EXP-V1.3-20241124\03-Software\CH07\LST-ASM-CH573\Debug/srcs/startup_CH573.S:34
    .word   0
        j   SW_Handler                 /* SW Handler */
   1203c:	0640006f          	j	120a0 <SW_Handler>
   12040:	0000                	unimp
   12042:	0000                	unimp
C:\Users\liangfan\OneDrive\enbed\CH573\AHL-CH573-EXP-V1.3-20241124\03-Software\CH07\LST-ASM-CH573\Debug/srcs/startup_CH573.S:37
    .word   0
    /* External Interrupts */
        j   TMR0_IRQHandler            /* 0:  TMR0 */
   12044:	0600006f          	j	120a4 <TMR0_IRQHandler>
C:\Users\liangfan\OneDrive\enbed\CH573\AHL-CH573-EXP-V1.3-20241124\03-Software\CH07\LST-ASM-CH573\Debug/srcs/startup_CH573.S:38
        j   GPIOA_IRQHandler           /* GPIOA */
   12048:	0600006f          	j	120a8 <GPIOA_IRQHandler>
C:\Users\liangfan\OneDrive\enbed\CH573\AHL-CH573-EXP-V1.3-20241124\03-Software\CH07\LST-ASM-CH573\Debug/srcs/startup_CH573.S:39
        j   GPIOB_IRQHandler           /* GPIOB */
   1204c:	0600006f          	j	120ac <GPIOB_IRQHandler>
C:\Users\liangfan\OneDrive\enbed\CH573\AHL-CH573-EXP-V1.3-20241124\03-Software\CH07\LST-ASM-CH573\Debug/srcs/startup_CH573.S:40
        j   SPI0_IRQHandler            /* SPI0 */
   12050:	0600006f          	j	120b0 <SPI0_IRQHandler>
C:\Users\liangfan\OneDrive\enbed\CH573\AHL-CH573-EXP-V1.3-20241124\03-Software\CH07\LST-ASM-CH573\Debug/srcs/startup_CH573.S:41
        j   BB_IRQHandler              /* BLEB */
   12054:	0600006f          	j	120b4 <BB_IRQHandler>
C:\Users\liangfan\OneDrive\enbed\CH573\AHL-CH573-EXP-V1.3-20241124\03-Software\CH07\LST-ASM-CH573\Debug/srcs/startup_CH573.S:42
        j   LLE_IRQHandler             /* BLEL */
   12058:	0600006f          	j	120b8 <LLE_IRQHandler>
C:\Users\liangfan\OneDrive\enbed\CH573\AHL-CH573-EXP-V1.3-20241124\03-Software\CH07\LST-ASM-CH573\Debug/srcs/startup_CH573.S:43
        j   USB_IRQHandler             /* USB */
   1205c:	0600006f          	j	120bc <USB_IRQHandler>
   12060:	0000                	unimp
   12062:	0000                	unimp
C:\Users\liangfan\OneDrive\enbed\CH573\AHL-CH573-EXP-V1.3-20241124\03-Software\CH07\LST-ASM-CH573\Debug/srcs/startup_CH573.S:45
        .word   0
        j   TMR1_IRQHandler            /* TMR1 */
   12064:	05c0006f          	j	120c0 <TMR1_IRQHandler>
C:\Users\liangfan\OneDrive\enbed\CH573\AHL-CH573-EXP-V1.3-20241124\03-Software\CH07\LST-ASM-CH573\Debug/srcs/startup_CH573.S:46
        j   TMR2_IRQHandler            /* TMR2 */
   12068:	05c0006f          	j	120c4 <TMR2_IRQHandler>
C:\Users\liangfan\OneDrive\enbed\CH573\AHL-CH573-EXP-V1.3-20241124\03-Software\CH07\LST-ASM-CH573\Debug/srcs/startup_CH573.S:47
        j   UART0_IRQHandler           /* UART0 */
   1206c:	05c0006f          	j	120c8 <UART0_IRQHandler>
C:\Users\liangfan\OneDrive\enbed\CH573\AHL-CH573-EXP-V1.3-20241124\03-Software\CH07\LST-ASM-CH573\Debug/srcs/startup_CH573.S:48
        j   UART1_IRQHandler           /* UART1 */
   12070:	05c0006f          	j	120cc <UART1_IRQHandler>
C:\Users\liangfan\OneDrive\enbed\CH573\AHL-CH573-EXP-V1.3-20241124\03-Software\CH07\LST-ASM-CH573\Debug/srcs/startup_CH573.S:49
        j   RTC_IRQHandler             /* RTC */
   12074:	05c0006f          	j	120d0 <RTC_IRQHandler>
C:\Users\liangfan\OneDrive\enbed\CH573\AHL-CH573-EXP-V1.3-20241124\03-Software\CH07\LST-ASM-CH573\Debug/srcs/startup_CH573.S:50
        j   ADC_IRQHandler             /* ADC */
   12078:	05c0006f          	j	120d4 <ADC_IRQHandler>
   1207c:	0000                	unimp
   1207e:	0000                	unimp
C:\Users\liangfan\OneDrive\enbed\CH573\AHL-CH573-EXP-V1.3-20241124\03-Software\CH07\LST-ASM-CH573\Debug/srcs/startup_CH573.S:52
        .word   0
        j   PWMX_IRQHandler            /* PWMX */
   12080:	0580006f          	j	120d8 <PWMX_IRQHandler>
C:\Users\liangfan\OneDrive\enbed\CH573\AHL-CH573-EXP-V1.3-20241124\03-Software\CH07\LST-ASM-CH573\Debug/srcs/startup_CH573.S:53
        j   TMR3_IRQHandler            /* TMR3 */
   12084:	0580006f          	j	120dc <TMR3_IRQHandler>
C:\Users\liangfan\OneDrive\enbed\CH573\AHL-CH573-EXP-V1.3-20241124\03-Software\CH07\LST-ASM-CH573\Debug/srcs/startup_CH573.S:54
        j   UART2_IRQHandler           /* UART2 */
   12088:	0580006f          	j	120e0 <UART2_IRQHandler>
C:\Users\liangfan\OneDrive\enbed\CH573\AHL-CH573-EXP-V1.3-20241124\03-Software\CH07\LST-ASM-CH573\Debug/srcs/startup_CH573.S:55
        j   UART3_IRQHandler           /* UART3 */
   1208c:	0580006f          	j	120e4 <UART3_IRQHandler>
C:\Users\liangfan\OneDrive\enbed\CH573\AHL-CH573-EXP-V1.3-20241124\03-Software\CH07\LST-ASM-CH573\Debug/srcs/startup_CH573.S:56
        j   WDOG_BAT_IRQHandler        /* WDOG_BAT */
   12090:	0580006f          	j	120e8 <WDOG_BAT_IRQHandler>

00012094 <NMI_Handler>:
NMI_Handler():
C:\Users\liangfan\OneDrive\enbed\CH573\AHL-CH573-EXP-V1.3-20241124\03-Software\CH07\LST-ASM-CH573\Debug/srcs/startup_CH573.S:84
    .weak   TMR3_IRQHandler
    .weak   UART2_IRQHandler
    .weak   UART3_IRQHandler
    .weak   WDOG_BAT_IRQHandler

NMI_Handler:  1:  j 1b     /* 在被引用之时，数字标签通常需要带上一个字母“f”或者“b”的后缀，“f”表示下一行，“b”表示向上一行*/
   12094:	0000006f          	j	12094 <NMI_Handler>

00012098 <HardFault_Handler>:
HardFault_Handler():
C:\Users\liangfan\OneDrive\enbed\CH573\AHL-CH573-EXP-V1.3-20241124\03-Software\CH07\LST-ASM-CH573\Debug/srcs/startup_CH573.S:85
HardFault_Handler:  1:  j 1b
   12098:	0000006f          	j	12098 <HardFault_Handler>

0001209c <SysTick_Handler>:
SysTick_Handler():
C:\Users\liangfan\OneDrive\enbed\CH573\AHL-CH573-EXP-V1.3-20241124\03-Software\CH07\LST-ASM-CH573\Debug/srcs/startup_CH573.S:86
SysTick_Handler:  1:  j 1b
   1209c:	0000006f          	j	1209c <SysTick_Handler>

000120a0 <SW_Handler>:
SW_Handler():
C:\Users\liangfan\OneDrive\enbed\CH573\AHL-CH573-EXP-V1.3-20241124\03-Software\CH07\LST-ASM-CH573\Debug/srcs/startup_CH573.S:87
SW_Handler:  1:  j 1b
   120a0:	0000006f          	j	120a0 <SW_Handler>

000120a4 <TMR0_IRQHandler>:
TMR0_IRQHandler():
C:\Users\liangfan\OneDrive\enbed\CH573\AHL-CH573-EXP-V1.3-20241124\03-Software\CH07\LST-ASM-CH573\Debug/srcs/startup_CH573.S:88
TMR0_IRQHandler:  1:  j 1b
   120a4:	0000006f          	j	120a4 <TMR0_IRQHandler>

000120a8 <GPIOA_IRQHandler>:
GPIOA_IRQHandler():
C:\Users\liangfan\OneDrive\enbed\CH573\AHL-CH573-EXP-V1.3-20241124\03-Software\CH07\LST-ASM-CH573\Debug/srcs/startup_CH573.S:89
GPIOA_IRQHandler:  1:  j 1b
   120a8:	0000006f          	j	120a8 <GPIOA_IRQHandler>

000120ac <GPIOB_IRQHandler>:
GPIOB_IRQHandler():
C:\Users\liangfan\OneDrive\enbed\CH573\AHL-CH573-EXP-V1.3-20241124\03-Software\CH07\LST-ASM-CH573\Debug/srcs/startup_CH573.S:90
GPIOB_IRQHandler:  1:  j 1b
   120ac:	0000006f          	j	120ac <GPIOB_IRQHandler>

000120b0 <SPI0_IRQHandler>:
SPI0_IRQHandler():
C:\Users\liangfan\OneDrive\enbed\CH573\AHL-CH573-EXP-V1.3-20241124\03-Software\CH07\LST-ASM-CH573\Debug/srcs/startup_CH573.S:91
SPI0_IRQHandler:  1:  j 1b
   120b0:	0000006f          	j	120b0 <SPI0_IRQHandler>

000120b4 <BB_IRQHandler>:
BB_IRQHandler():
C:\Users\liangfan\OneDrive\enbed\CH573\AHL-CH573-EXP-V1.3-20241124\03-Software\CH07\LST-ASM-CH573\Debug/srcs/startup_CH573.S:92
BB_IRQHandler:  1:  j 1b
   120b4:	0000006f          	j	120b4 <BB_IRQHandler>

000120b8 <LLE_IRQHandler>:
LLE_IRQHandler():
C:\Users\liangfan\OneDrive\enbed\CH573\AHL-CH573-EXP-V1.3-20241124\03-Software\CH07\LST-ASM-CH573\Debug/srcs/startup_CH573.S:93
LLE_IRQHandler:  1:  j 1b
   120b8:	0000006f          	j	120b8 <LLE_IRQHandler>

000120bc <USB_IRQHandler>:
USB_IRQHandler():
C:\Users\liangfan\OneDrive\enbed\CH573\AHL-CH573-EXP-V1.3-20241124\03-Software\CH07\LST-ASM-CH573\Debug/srcs/startup_CH573.S:94
USB_IRQHandler:  1:  j 1b
   120bc:	0000006f          	j	120bc <USB_IRQHandler>

000120c0 <TMR1_IRQHandler>:
TMR1_IRQHandler():
C:\Users\liangfan\OneDrive\enbed\CH573\AHL-CH573-EXP-V1.3-20241124\03-Software\CH07\LST-ASM-CH573\Debug/srcs/startup_CH573.S:95
TMR1_IRQHandler:  1:  j 1b
   120c0:	0000006f          	j	120c0 <TMR1_IRQHandler>

000120c4 <TMR2_IRQHandler>:
TMR2_IRQHandler():
C:\Users\liangfan\OneDrive\enbed\CH573\AHL-CH573-EXP-V1.3-20241124\03-Software\CH07\LST-ASM-CH573\Debug/srcs/startup_CH573.S:96
TMR2_IRQHandler:  1:  j 1b
   120c4:	0000006f          	j	120c4 <TMR2_IRQHandler>

000120c8 <UART0_IRQHandler>:
UART0_IRQHandler():
C:\Users\liangfan\OneDrive\enbed\CH573\AHL-CH573-EXP-V1.3-20241124\03-Software\CH07\LST-ASM-CH573\Debug/srcs/startup_CH573.S:97
UART0_IRQHandler:  1:  j 1b
   120c8:	0000006f          	j	120c8 <UART0_IRQHandler>

000120cc <UART1_IRQHandler>:
UART1_IRQHandler():
C:\Users\liangfan\OneDrive\enbed\CH573\AHL-CH573-EXP-V1.3-20241124\03-Software\CH07\LST-ASM-CH573\Debug/srcs/startup_CH573.S:98
UART1_IRQHandler:  1:  j 1b
   120cc:	0000006f          	j	120cc <UART1_IRQHandler>

000120d0 <RTC_IRQHandler>:
RTC_IRQHandler():
C:\Users\liangfan\OneDrive\enbed\CH573\AHL-CH573-EXP-V1.3-20241124\03-Software\CH07\LST-ASM-CH573\Debug/srcs/startup_CH573.S:99
RTC_IRQHandler:  1:  j 1b
   120d0:	0000006f          	j	120d0 <RTC_IRQHandler>

000120d4 <ADC_IRQHandler>:
ADC_IRQHandler():
C:\Users\liangfan\OneDrive\enbed\CH573\AHL-CH573-EXP-V1.3-20241124\03-Software\CH07\LST-ASM-CH573\Debug/srcs/startup_CH573.S:100
ADC_IRQHandler:  1:  j 1b
   120d4:	0000006f          	j	120d4 <ADC_IRQHandler>

000120d8 <PWMX_IRQHandler>:
PWMX_IRQHandler():
C:\Users\liangfan\OneDrive\enbed\CH573\AHL-CH573-EXP-V1.3-20241124\03-Software\CH07\LST-ASM-CH573\Debug/srcs/startup_CH573.S:101
PWMX_IRQHandler:  1:  j 1b
   120d8:	0000006f          	j	120d8 <PWMX_IRQHandler>

000120dc <TMR3_IRQHandler>:
TMR3_IRQHandler():
C:\Users\liangfan\OneDrive\enbed\CH573\AHL-CH573-EXP-V1.3-20241124\03-Software\CH07\LST-ASM-CH573\Debug/srcs/startup_CH573.S:102
TMR3_IRQHandler:  1:  j 1b
   120dc:	0000006f          	j	120dc <TMR3_IRQHandler>

000120e0 <UART2_IRQHandler>:
UART2_IRQHandler():
C:\Users\liangfan\OneDrive\enbed\CH573\AHL-CH573-EXP-V1.3-20241124\03-Software\CH07\LST-ASM-CH573\Debug/srcs/startup_CH573.S:103
UART2_IRQHandler:  1:  j 1b
   120e0:	0000006f          	j	120e0 <UART2_IRQHandler>

000120e4 <UART3_IRQHandler>:
UART3_IRQHandler():
C:\Users\liangfan\OneDrive\enbed\CH573\AHL-CH573-EXP-V1.3-20241124\03-Software\CH07\LST-ASM-CH573\Debug/srcs/startup_CH573.S:104
UART3_IRQHandler:  1:  j 1b
   120e4:	0000006f          	j	120e4 <UART3_IRQHandler>

000120e8 <WDOG_BAT_IRQHandler>:
WDOG_BAT_IRQHandler():
C:\Users\liangfan\OneDrive\enbed\CH573\AHL-CH573-EXP-V1.3-20241124\03-Software\CH07\LST-ASM-CH573\Debug/srcs/startup_CH573.S:105
WDOG_BAT_IRQHandler:  1:  j 1b
   120e8:	0000006f          	j	120e8 <WDOG_BAT_IRQHandler>

Disassembly of section .highcode:

20005600 <FLASH_ROM_BEG>:
FLASH_ROM_BEG():
20005600:	80040323          	sb	zero,-2042(s0)
20005604:	4795                	li	a5,5
20005606:	80f40323          	sb	a5,-2042(s0)
2000560a:	80a40223          	sb	a0,-2044(s0)
2000560e:	8082                	ret

20005610 <FLASH_ROM_END>:
FLASH_ROM_END():
20005610:	80640783          	lb	a5,-2042(s0)
20005614:	fe07cee3          	bltz	a5,20005610 <FLASH_ROM_END>
20005618:	80040323          	sb	zero,-2042(s0)
2000561c:	8082                	ret

2000561e <FLASH_ROM_IN>:
FLASH_ROM_IN():
2000561e:	80640783          	lb	a5,-2042(s0)
20005622:	fe07cee3          	bltz	a5,2000561e <FLASH_ROM_IN>
20005626:	80444503          	lbu	a0,-2044(s0)
2000562a:	8082                	ret

2000562c <FLASH_ROM_OUT>:
FLASH_ROM_OUT():
2000562c:	80640783          	lb	a5,-2042(s0)
20005630:	fe07cee3          	bltz	a5,2000562c <FLASH_ROM_OUT>
20005634:	80a40223          	sb	a0,-2044(s0)
20005638:	8082                	ret

2000563a <FLASH_ROM_ADDR>:
FLASH_ROM_ADDR():
2000563a:	1141                	addi	sp,sp,-16
2000563c:	c426                	sw	s1,8(sp)
2000563e:	c24a                	sw	s2,4(sp)
20005640:	c04e                	sw	s3,0(sp)
20005642:	c606                	sw	ra,12(sp)
20005644:	0bf57713          	andi	a4,a0,191
20005648:	47ad                	li	a5,11
2000564a:	89aa                	mv	s3,a0
2000564c:	892e                	mv	s2,a1
2000564e:	4495                	li	s1,5
20005650:	00f70c63          	beq	a4,a5,20005668 <FLASH_ROM_ADDR+0x2e>
20005654:	4519                	li	a0,6
20005656:	00000097          	auipc	ra,0x0
2000565a:	faa080e7          	jalr	-86(ra) # 20005600 <FLASH_ROM_BEG>
2000565e:	00000097          	auipc	ra,0x0
20005662:	fb2080e7          	jalr	-78(ra) # 20005610 <FLASH_ROM_END>
20005666:	448d                	li	s1,3
20005668:	854e                	mv	a0,s3
2000566a:	00000097          	auipc	ra,0x0
2000566e:	f96080e7          	jalr	-106(ra) # 20005600 <FLASH_ROM_BEG>
20005672:	59fd                	li	s3,-1
20005674:	14fd                	addi	s1,s1,-1
20005676:	01349863          	bne	s1,s3,20005686 <FLASH_ROM_ADDR+0x4c>
2000567a:	40b2                	lw	ra,12(sp)
2000567c:	44a2                	lw	s1,8(sp)
2000567e:	4912                	lw	s2,4(sp)
20005680:	4982                	lw	s3,0(sp)
20005682:	0141                	addi	sp,sp,16
20005684:	8082                	ret
20005686:	01095513          	srli	a0,s2,0x10
2000568a:	0ff57513          	andi	a0,a0,255
2000568e:	00000097          	auipc	ra,0x0
20005692:	f9e080e7          	jalr	-98(ra) # 2000562c <FLASH_ROM_OUT>
20005696:	0922                	slli	s2,s2,0x8
20005698:	bff1                	j	20005674 <FLASH_ROM_ADDR+0x3a>

2000569a <FLASH_ROM_WAIT>:
FLASH_ROM_WAIT():
2000569a:	1101                	addi	sp,sp,-32
2000569c:	cc26                	sw	s1,24(sp)
2000569e:	ce06                	sw	ra,28(sp)
200056a0:	000804b7          	lui	s1,0x80
200056a4:	00000097          	auipc	ra,0x0
200056a8:	f6c080e7          	jalr	-148(ra) # 20005610 <FLASH_ROM_END>
200056ac:	4515                	li	a0,5
200056ae:	00000097          	auipc	ra,0x0
200056b2:	f52080e7          	jalr	-174(ra) # 20005600 <FLASH_ROM_BEG>
200056b6:	00000097          	auipc	ra,0x0
200056ba:	f68080e7          	jalr	-152(ra) # 2000561e <FLASH_ROM_IN>
200056be:	00000097          	auipc	ra,0x0
200056c2:	f60080e7          	jalr	-160(ra) # 2000561e <FLASH_ROM_IN>
200056c6:	c62a                	sw	a0,12(sp)
200056c8:	00000097          	auipc	ra,0x0
200056cc:	f48080e7          	jalr	-184(ra) # 20005610 <FLASH_ROM_END>
200056d0:	4532                	lw	a0,12(sp)
200056d2:	00157793          	andi	a5,a0,1
200056d6:	eb89                	bnez	a5,200056e8 <FLASH_ROM_WAIT+0x4e>
200056d8:	00156513          	ori	a0,a0,1
200056dc:	0ff57513          	andi	a0,a0,255
200056e0:	40f2                	lw	ra,28(sp)
200056e2:	44e2                	lw	s1,24(sp)
200056e4:	6105                	addi	sp,sp,32
200056e6:	8082                	ret
200056e8:	14fd                	addi	s1,s1,-1
200056ea:	f0e9                	bnez	s1,200056ac <FLASH_ROM_WAIT+0x12>
200056ec:	4501                	li	a0,0
200056ee:	bfcd                	j	200056e0 <FLASH_ROM_WAIT+0x46>

200056f0 <FLASH_EEPROM_CMD>:
FLASH_EEPROM_CMD():
200056f0:	7139                	addi	sp,sp,-64
200056f2:	dc26                	sw	s1,56(sp)
200056f4:	da4a                	sw	s2,52(sp)
200056f6:	d84e                	sw	s3,48(sp)
200056f8:	d652                	sw	s4,44(sp)
200056fa:	d456                	sw	s5,40(sp)
200056fc:	d25a                	sw	s6,36(sp)
200056fe:	d05e                	sw	s7,32(sp)
20005700:	de06                	sw	ra,60(sp)
20005702:	ce62                	sw	s8,28(sp)
20005704:	cc66                	sw	s9,24(sp)
20005706:	e000e7b7          	lui	a5,0xe000e
2000570a:	577d                	li	a4,-1
2000570c:	0007aa83          	lw	s5,0(a5) # e000e000 <R32_PB_PD_DRV+0xa000cf2c>
20005710:	c622                	sw	s0,12(sp)
20005712:	0047aa03          	lw	s4,4(a5)
20005716:	18e7a023          	sw	a4,384(a5)
2000571a:	18e7a223          	sw	a4,388(a5)
2000571e:	400017b7          	lui	a5,0x40001
20005722:	05700713          	li	a4,87
20005726:	04e78023          	sb	a4,64(a5) # 40001040 <R16_PIN_ANALOG_IE+0x26>
2000572a:	fa800713          	li	a4,-88
2000572e:	04e78023          	sb	a4,64(a5)
20005732:	0447c783          	lbu	a5,68(a5)
20005736:	ff750b93          	addi	s7,a0,-9
2000573a:	84b6                	mv	s1,a3
2000573c:	07e2                	slli	a5,a5,0x18
2000573e:	0ffbfb93          	andi	s7,s7,255
20005742:	4685                	li	a3,1
20005744:	89aa                	mv	s3,a0
20005746:	8b2e                	mv	s6,a1
20005748:	8932                	mv	s2,a2
2000574a:	40002437          	lui	s0,0x40002
2000574e:	87e1                	srai	a5,a5,0x18
20005750:	5701                	li	a4,-32
20005752:	0176fa63          	bgeu	a3,s7,20005766 <FLASH_EEPROM_CMD+0x76>
20005756:	00d50863          	beq	a0,a3,20005766 <FLASH_EEPROM_CMD+0x76>
2000575a:	4689                	li	a3,2
2000575c:	02000713          	li	a4,32
20005760:	00d51363          	bne	a0,a3,20005766 <FLASH_EEPROM_CMD+0x76>
20005764:	5701                	li	a4,-32
20005766:	8fd9                	or	a5,a5,a4
20005768:	0ff7f793          	andi	a5,a5,255
2000576c:	40001cb7          	lui	s9,0x40001
20005770:	04fc8223          	sb	a5,68(s9) # 40001044 <R16_PIN_ANALOG_IE+0x2a>
20005774:	4711                	li	a4,4
20005776:	80e40323          	sb	a4,-2042(s0) # 40001806 <R32_PB_PD_DRV+0x732>
2000577a:	0ff00513          	li	a0,255
2000577e:	00000097          	auipc	ra,0x0
20005782:	e82080e7          	jalr	-382(ra) # 20005600 <FLASH_ROM_BEG>
20005786:	4c09                	li	s8,2
20005788:	00000097          	auipc	ra,0x0
2000578c:	e88080e7          	jalr	-376(ra) # 20005610 <FLASH_ROM_END>
20005790:	157c6163          	bltu	s8,s7,200058d2 <FLASH_EEPROM_CMD+0x1e2>
20005794:	000707b7          	lui	a5,0x70
20005798:	9b3e                	add	s6,s6,a5
2000579a:	00078737          	lui	a4,0x78
2000579e:	5579                	li	a0,-2
200057a0:	04eb7a63          	bgeu	s6,a4,200057f4 <FLASH_EEPROM_CMD+0x104>
200057a4:	009b07b3          	add	a5,s6,s1
200057a8:	04f76663          	bltu	a4,a5,200057f4 <FLASH_EEPROM_CMD+0x104>
200057ac:	47a9                	li	a5,10
200057ae:	08f99563          	bne	s3,a5,20005838 <FLASH_EEPROM_CMD+0x148>
200057b2:	e881                	bnez	s1,200057c2 <FLASH_EEPROM_CMD+0xd2>
200057b4:	4481                	li	s1,0
200057b6:	00000097          	auipc	ra,0x0
200057ba:	e5a080e7          	jalr	-422(ra) # 20005610 <FLASH_ROM_END>
200057be:	8526                	mv	a0,s1
200057c0:	a815                	j	200057f4 <FLASH_EEPROM_CMD+0x104>
200057c2:	85da                	mv	a1,s6
200057c4:	4509                	li	a0,2
200057c6:	00000097          	auipc	ra,0x0
200057ca:	e74080e7          	jalr	-396(ra) # 2000563a <FLASH_ROM_ADDR>
200057ce:	0905                	addi	s2,s2,1
200057d0:	fff94503          	lbu	a0,-1(s2)
200057d4:	14fd                	addi	s1,s1,-1
200057d6:	0b05                	addi	s6,s6,1
200057d8:	00000097          	auipc	ra,0x0
200057dc:	e54080e7          	jalr	-428(ra) # 2000562c <FLASH_ROM_OUT>
200057e0:	c481                	beqz	s1,200057e8 <FLASH_EEPROM_CMD+0xf8>
200057e2:	0ffb7793          	andi	a5,s6,255
200057e6:	f7e5                	bnez	a5,200057ce <FLASH_EEPROM_CMD+0xde>
200057e8:	00000097          	auipc	ra,0x0
200057ec:	eb2080e7          	jalr	-334(ra) # 2000569a <FLASH_ROM_WAIT>
200057f0:	f169                	bnez	a0,200057b2 <FLASH_EEPROM_CMD+0xc2>
200057f2:	557d                	li	a0,-1
200057f4:	400017b7          	lui	a5,0x40001
200057f8:	05700713          	li	a4,87
200057fc:	04e78023          	sb	a4,64(a5) # 40001040 <R16_PIN_ANALOG_IE+0x26>
20005800:	fa800713          	li	a4,-88
20005804:	04e78023          	sb	a4,64(a5)
20005808:	0447c703          	lbu	a4,68(a5)
2000580c:	8b41                	andi	a4,a4,16
2000580e:	04e78223          	sb	a4,68(a5)
20005812:	50f2                	lw	ra,60(sp)
20005814:	e000e7b7          	lui	a5,0xe000e
20005818:	1157a023          	sw	s5,256(a5) # e000e100 <R32_PB_PD_DRV+0xa000d02c>
2000581c:	1147a223          	sw	s4,260(a5)
20005820:	54e2                	lw	s1,56(sp)
20005822:	4432                	lw	s0,12(sp)
20005824:	5952                	lw	s2,52(sp)
20005826:	59c2                	lw	s3,48(sp)
20005828:	5a32                	lw	s4,44(sp)
2000582a:	5aa2                	lw	s5,40(sp)
2000582c:	5b12                	lw	s6,36(sp)
2000582e:	5b82                	lw	s7,32(sp)
20005830:	4c72                	lw	s8,28(sp)
20005832:	4ce2                	lw	s9,24(sp)
20005834:	6121                	addi	sp,sp,64
20005836:	8082                	ret
20005838:	47a5                	li	a5,9
2000583a:	06f99b63          	bne	s3,a5,200058b0 <FLASH_EEPROM_CMD+0x1c0>
2000583e:	6985                	lui	s3,0x1
20005840:	0ff00913          	li	s2,255
20005844:	009906b3          	add	a3,s2,s1
20005848:	012b74b3          	and	s1,s6,s2
2000584c:	94b6                	add	s1,s1,a3
2000584e:	fff94913          	not	s2,s2
20005852:	009974b3          	and	s1,s2,s1
20005856:	6b85                	lui	s7,0x1
20005858:	01697933          	and	s2,s2,s6
2000585c:	6b41                	lui	s6,0x10
2000585e:	fff98793          	addi	a5,s3,-1 # fff <LIGHT_BLUE+0xef1>
20005862:	0127f7b3          	and	a5,a5,s2
20005866:	e399                	bnez	a5,2000586c <FLASH_EEPROM_CMD+0x17c>
20005868:	0134fc63          	bgeu	s1,s3,20005880 <FLASH_EEPROM_CMD+0x190>
2000586c:	0049d993          	srli	s3,s3,0x4
20005870:	47c1                	li	a5,16
20005872:	ff37e6e3          	bltu	a5,s3,2000585e <FLASH_EEPROM_CMD+0x16e>
20005876:	bf3d                	j	200057b4 <FLASH_EEPROM_CMD+0xc4>
20005878:	6905                	lui	s2,0x1
2000587a:	69c1                	lui	s3,0x10
2000587c:	197d                	addi	s2,s2,-1
2000587e:	b7d9                	j	20005844 <FLASH_EEPROM_CMD+0x154>
20005880:	0d800513          	li	a0,216
20005884:	01698863          	beq	s3,s6,20005894 <FLASH_EEPROM_CMD+0x1a4>
20005888:	02000513          	li	a0,32
2000588c:	01798463          	beq	s3,s7,20005894 <FLASH_EEPROM_CMD+0x1a4>
20005890:	08100513          	li	a0,129
20005894:	85ca                	mv	a1,s2
20005896:	00000097          	auipc	ra,0x0
2000589a:	da4080e7          	jalr	-604(ra) # 2000563a <FLASH_ROM_ADDR>
2000589e:	00000097          	auipc	ra,0x0
200058a2:	dfc080e7          	jalr	-516(ra) # 2000569a <FLASH_ROM_WAIT>
200058a6:	d531                	beqz	a0,200057f2 <FLASH_EEPROM_CMD+0x102>
200058a8:	994e                	add	s2,s2,s3
200058aa:	413484b3          	sub	s1,s1,s3
200058ae:	bf6d                	j	20005868 <FLASH_EEPROM_CMD+0x178>
200058b0:	85da                	mv	a1,s6
200058b2:	452d                	li	a0,11
200058b4:	00000097          	auipc	ra,0x0
200058b8:	d86080e7          	jalr	-634(ra) # 2000563a <FLASH_ROM_ADDR>
200058bc:	94ca                	add	s1,s1,s2
200058be:	ee990be3          	beq	s2,s1,200057b4 <FLASH_EEPROM_CMD+0xc4>
200058c2:	0905                	addi	s2,s2,1
200058c4:	00000097          	auipc	ra,0x0
200058c8:	d5a080e7          	jalr	-678(ra) # 2000561e <FLASH_ROM_IN>
200058cc:	fea90fa3          	sb	a0,-1(s2) # fff <LIGHT_BLUE+0xef1>
200058d0:	b7fd                	j	200058be <FLASH_EEPROM_CMD+0x1ce>
200058d2:	fff98793          	addi	a5,s3,-1 # ffff <MCU_SECTORSIZE+0xefff>
200058d6:	0ff7f793          	andi	a5,a5,255
200058da:	0afc6863          	bltu	s8,a5,2000598a <.loop400+0x66>
200058de:	045cc703          	lbu	a4,69(s9)
200058e2:	000807b7          	lui	a5,0x80
200058e6:	02077713          	andi	a4,a4,32
200058ea:	e319                	bnez	a4,200058f0 <FLASH_EEPROM_CMD+0x200>
200058ec:	000787b7          	lui	a5,0x78
200058f0:	5579                	li	a0,-2
200058f2:	f0fb71e3          	bgeu	s6,a5,200057f4 <FLASH_EEPROM_CMD+0x104>
200058f6:	009b0733          	add	a4,s6,s1
200058fa:	eee7ede3          	bltu	a5,a4,200057f4 <FLASH_EEPROM_CMD+0x104>
200058fe:	4789                	li	a5,2
20005900:	04f99663          	bne	s3,a5,2000594c <.loop400+0x28>
20005904:	8089                	srli	s1,s1,0x2
20005906:	49d5                	li	s3,21
20005908:	ea0486e3          	beqz	s1,200057b4 <FLASH_EEPROM_CMD+0xc4>
2000590c:	85da                	mv	a1,s6
2000590e:	4509                	li	a0,2
20005910:	00000097          	auipc	ra,0x0
20005914:	d2a080e7          	jalr	-726(ra) # 2000563a <FLASH_ROM_ADDR>
20005918:	0911                	addi	s2,s2,4
2000591a:	ffc92703          	lw	a4,-4(s2)
2000591e:	4791                	li	a5,4
20005920:	80e42023          	sw	a4,-2048(s0)

20005924 <.loop400>:
20005924:	80640703          	lb	a4,-2042(s0)
20005928:	fe074ee3          	bltz	a4,20005924 <.loop400>
2000592c:	81340323          	sb	s3,-2042(s0)
20005930:	17fd                	addi	a5,a5,-1
20005932:	fbed                	bnez	a5,20005924 <.loop400>
20005934:	14fd                	addi	s1,s1,-1
20005936:	0b11                	addi	s6,s6,4
20005938:	c481                	beqz	s1,20005940 <.loop400+0x1c>
2000593a:	0ffb7793          	andi	a5,s6,255
2000593e:	ffe9                	bnez	a5,20005918 <FLASH_EEPROM_CMD+0x228>
20005940:	00000097          	auipc	ra,0x0
20005944:	d5a080e7          	jalr	-678(ra) # 2000569a <FLASH_ROM_WAIT>
20005948:	f161                	bnez	a0,20005908 <FLASH_EEPROM_CMD+0x218>
2000594a:	b565                	j	200057f2 <FLASH_EEPROM_CMD+0x102>
2000594c:	4785                	li	a5,1
2000594e:	f2f985e3          	beq	s3,a5,20005878 <FLASH_EEPROM_CMD+0x188>
20005952:	85da                	mv	a1,s6
20005954:	452d                	li	a0,11
20005956:	00000097          	auipc	ra,0x0
2000595a:	ce4080e7          	jalr	-796(ra) # 2000563a <FLASH_ROM_ADDR>
2000595e:	fff48993          	addi	s3,s1,-1 # 7ffff <_data_lma+0x69f6f>
20005962:	e40489e3          	beqz	s1,200057b4 <FLASH_EEPROM_CMD+0xc4>
20005966:	00000097          	auipc	ra,0x0
2000596a:	cb8080e7          	jalr	-840(ra) # 2000561e <FLASH_ROM_IN>
2000596e:	0039f793          	andi	a5,s3,3
20005972:	eb91                	bnez	a5,20005986 <.loop400+0x62>
20005974:	80042683          	lw	a3,-2048(s0)
20005978:	00092703          	lw	a4,0(s2)
2000597c:	00490793          	addi	a5,s2,4
20005980:	e2e69be3          	bne	a3,a4,200057b6 <FLASH_EEPROM_CMD+0xc6>
20005984:	893e                	mv	s2,a5
20005986:	84ce                	mv	s1,s3
20005988:	bfd9                	j	2000595e <.loop400+0x3a>
2000598a:	47b5                	li	a5,13
2000598c:	00f99963          	bne	s3,a5,2000599e <.loop400+0x7a>
20005990:	0b900513          	li	a0,185
20005994:	00000097          	auipc	ra,0x0
20005998:	c6c080e7          	jalr	-916(ra) # 20005600 <FLASH_ROM_BEG>
2000599c:	bd21                	j	200057b4 <FLASH_EEPROM_CMD+0xc4>
2000599e:	47b1                	li	a5,12
200059a0:	0ab00513          	li	a0,171
200059a4:	fef988e3          	beq	s3,a5,20005994 <.loop400+0x70>
200059a8:	4799                	li	a5,6
200059aa:	04f99463          	bne	s3,a5,200059f2 <.loop400+0xce>
200059ae:	85da                	mv	a1,s6
200059b0:	452d                	li	a0,11
200059b2:	00000097          	auipc	ra,0x0
200059b6:	c88080e7          	jalr	-888(ra) # 2000563a <FLASH_ROM_ADDR>
200059ba:	4481                	li	s1,0
200059bc:	4b8d                	li	s7,3
200059be:	49a1                	li	s3,8
200059c0:	00000097          	auipc	ra,0x0
200059c4:	c5e080e7          	jalr	-930(ra) # 2000561e <FLASH_ROM_IN>
200059c8:	01749663          	bne	s1,s7,200059d4 <.loop400+0xb0>
200059cc:	80042783          	lw	a5,-2048(s0)
200059d0:	00f92023          	sw	a5,0(s2)
200059d4:	0485                	addi	s1,s1,1
200059d6:	ff3495e3          	bne	s1,s3,200059c0 <.loop400+0x9c>
200059da:	80042783          	lw	a5,-2048(s0)
200059de:	012b1713          	slli	a4,s6,0x12
200059e2:	00075563          	bgez	a4,200059ec <.loop400+0xc8>
200059e6:	00f91223          	sh	a5,4(s2)
200059ea:	b3e9                	j	200057b4 <FLASH_EEPROM_CMD+0xc4>
200059ec:	00f92223          	sw	a5,4(s2)
200059f0:	b3d1                	j	200057b4 <FLASH_EEPROM_CMD+0xc4>
200059f2:	479d                	li	a5,7
200059f4:	02f99763          	bne	s3,a5,20005a22 <.loop400+0xfe>
200059f8:	4581                	li	a1,0
200059fa:	04b00513          	li	a0,75
200059fe:	00000097          	auipc	ra,0x0
20005a02:	c3c080e7          	jalr	-964(ra) # 2000563a <FLASH_ROM_ADDR>
20005a06:	449d                	li	s1,7
20005a08:	59fd                	li	s3,-1
20005a0a:	00000097          	auipc	ra,0x0
20005a0e:	c14080e7          	jalr	-1004(ra) # 2000561e <FLASH_ROM_IN>
20005a12:	009907b3          	add	a5,s2,s1
20005a16:	00a78023          	sb	a0,0(a5) # 78000 <_data_lma+0x61f70>
20005a1a:	14fd                	addi	s1,s1,-1
20005a1c:	ff3497e3          	bne	s1,s3,20005a0a <.loop400+0xe6>
20005a20:	bb51                	j	200057b4 <FLASH_EEPROM_CMD+0xc4>
20005a22:	47a1                	li	a5,8
20005a24:	06f99763          	bne	s3,a5,20005a92 <.loop400+0x16e>
20005a28:	00000097          	auipc	ra,0x0
20005a2c:	c72080e7          	jalr	-910(ra) # 2000569a <FLASH_ROM_WAIT>
20005a30:	4481                	li	s1,0
20005a32:	000b0d63          	beqz	s6,20005a4c <.loop400+0x128>
20005a36:	4785                	li	a5,1
20005a38:	04400493          	li	s1,68
20005a3c:	00fb0863          	beq	s6,a5,20005a4c <.loop400+0x128>
20005a40:	05000493          	li	s1,80
20005a44:	018b0463          	beq	s6,s8,20005a4c <.loop400+0x128>
20005a48:	03c00493          	li	s1,60
20005a4c:	07c57513          	andi	a0,a0,124
20005a50:	d69502e3          	beq	a0,s1,200057b4 <FLASH_EEPROM_CMD+0xc4>
20005a54:	4519                	li	a0,6
20005a56:	00000097          	auipc	ra,0x0
20005a5a:	baa080e7          	jalr	-1110(ra) # 20005600 <FLASH_ROM_BEG>
20005a5e:	00000097          	auipc	ra,0x0
20005a62:	bb2080e7          	jalr	-1102(ra) # 20005610 <FLASH_ROM_END>
20005a66:	4505                	li	a0,1
20005a68:	00000097          	auipc	ra,0x0
20005a6c:	b98080e7          	jalr	-1128(ra) # 20005600 <FLASH_ROM_BEG>
20005a70:	8526                	mv	a0,s1
20005a72:	00000097          	auipc	ra,0x0
20005a76:	bba080e7          	jalr	-1094(ra) # 2000562c <FLASH_ROM_OUT>
20005a7a:	4509                	li	a0,2
20005a7c:	00000097          	auipc	ra,0x0
20005a80:	bb0080e7          	jalr	-1104(ra) # 2000562c <FLASH_ROM_OUT>
20005a84:	00000097          	auipc	ra,0x0
20005a88:	c16080e7          	jalr	-1002(ra) # 2000569a <FLASH_ROM_WAIT>
20005a8c:	d20514e3          	bnez	a0,200057b4 <FLASH_EEPROM_CMD+0xc4>
20005a90:	b38d                	j	200057f2 <FLASH_EEPROM_CMD+0x102>
20005a92:	d20981e3          	beqz	s3,200057b4 <FLASH_EEPROM_CMD+0xc4>
20005a96:	54f1                	li	s1,-4
20005a98:	bb39                	j	200057b6 <FLASH_EEPROM_CMD+0xc6>
	...

Disassembly of section .text:

000134a0 <handle_reset>:
handle_reset():
C:\Users\liangfan\OneDrive\enbed\CH573\AHL-CH573-EXP-V1.3-20241124\03-Software\CH07\LST-ASM-CH573\Debug/srcs/startup_CH573.S:113
	.weak	handle_reset
	.align	1
handle_reset:
.option push 
.option	norelax 
	la gp, __global_pointer$
   134a0:	1fff3197          	auipc	gp,0x1fff3
   134a4:	fd818193          	addi	gp,gp,-40 # 20006478 <__global_pointer$>
C:\Users\liangfan\OneDrive\enbed\CH573\AHL-CH573-EXP-V1.3-20241124\03-Software\CH07\LST-ASM-CH573\Debug/srcs/startup_CH573.S:116
.option	pop 
1:
	la sp, _eusrstack 
   134a8:	1fff5117          	auipc	sp,0x1fff5
   134ac:	b5810113          	addi	sp,sp,-1192 # 20008000 <_eusrstack>
C:\Users\liangfan\OneDrive\enbed\CH573\AHL-CH573-EXP-V1.3-20241124\03-Software\CH07\LST-ASM-CH573\Debug/srcs/startup_CH573.S:120

/* Load highcode code  section from flash to RAM */
2:
    la a0, _highcode_lma
   134b0:	00000517          	auipc	a0,0x0
   134b4:	b5050513          	addi	a0,a0,-1200 # 13000 <_highcode_lma>
C:\Users\liangfan\OneDrive\enbed\CH573\AHL-CH573-EXP-V1.3-20241124\03-Software\CH07\LST-ASM-CH573\Debug/srcs/startup_CH573.S:121
    la a1, _highcode_vma_start
   134b8:	1fff2597          	auipc	a1,0x1fff2
   134bc:	14858593          	addi	a1,a1,328 # 20005600 <GEC_USER_RAM_START>
C:\Users\liangfan\OneDrive\enbed\CH573\AHL-CH573-EXP-V1.3-20241124\03-Software\CH07\LST-ASM-CH573\Debug/srcs/startup_CH573.S:122
    la a2, _highcode_vma_end
   134c0:	1fff2617          	auipc	a2,0x1fff2
   134c4:	5dc60613          	addi	a2,a2,1500 # 20005a9c <_highcode_vma_end>
C:\Users\liangfan\OneDrive\enbed\CH573\AHL-CH573-EXP-V1.3-20241124\03-Software\CH07\LST-ASM-CH573\Debug/srcs/startup_CH573.S:123
    bgeu a1, a2, 2f
   134c8:	00c5fc63          	bgeu	a1,a2,134e0 <handle_reset+0x40>
C:\Users\liangfan\OneDrive\enbed\CH573\AHL-CH573-EXP-V1.3-20241124\03-Software\CH07\LST-ASM-CH573\Debug/srcs/startup_CH573.S:125
1:
    lw t0, (a0)
   134cc:	00052283          	lw	t0,0(a0)
C:\Users\liangfan\OneDrive\enbed\CH573\AHL-CH573-EXP-V1.3-20241124\03-Software\CH07\LST-ASM-CH573\Debug/srcs/startup_CH573.S:126
    sw t0, (a1)
   134d0:	0055a023          	sw	t0,0(a1)
C:\Users\liangfan\OneDrive\enbed\CH573\AHL-CH573-EXP-V1.3-20241124\03-Software\CH07\LST-ASM-CH573\Debug/srcs/startup_CH573.S:127
    addi a0, a0, 4
   134d4:	00450513          	addi	a0,a0,4
C:\Users\liangfan\OneDrive\enbed\CH573\AHL-CH573-EXP-V1.3-20241124\03-Software\CH07\LST-ASM-CH573\Debug/srcs/startup_CH573.S:128
    addi a1, a1, 4
   134d8:	00458593          	addi	a1,a1,4
C:\Users\liangfan\OneDrive\enbed\CH573\AHL-CH573-EXP-V1.3-20241124\03-Software\CH07\LST-ASM-CH573\Debug/srcs/startup_CH573.S:129
    bltu a1, a2, 1b
   134dc:	fec5e8e3          	bltu	a1,a2,134cc <handle_reset+0x2c>
C:\Users\liangfan\OneDrive\enbed\CH573\AHL-CH573-EXP-V1.3-20241124\03-Software\CH07\LST-ASM-CH573\Debug/srcs/startup_CH573.S:133

/* Load data section from flash to RAM */
2:
	la a0, _data_lma
   134e0:	00003517          	auipc	a0,0x3
   134e4:	bb050513          	addi	a0,a0,-1104 # 16090 <_data_lma>
C:\Users\liangfan\OneDrive\enbed\CH573\AHL-CH573-EXP-V1.3-20241124\03-Software\CH07\LST-ASM-CH573\Debug/srcs/startup_CH573.S:134
	la a1, _data_vma
   134e8:	1fff2597          	auipc	a1,0x1fff2
   134ec:	5b858593          	addi	a1,a1,1464 # 20005aa0 <_data_vma>
C:\Users\liangfan\OneDrive\enbed\CH573\AHL-CH573-EXP-V1.3-20241124\03-Software\CH07\LST-ASM-CH573\Debug/srcs/startup_CH573.S:135
	la a2, _edata
   134f0:	1fff2617          	auipc	a2,0x1fff2
   134f4:	78860613          	addi	a2,a2,1928 # 20005c78 <_edata>
C:\Users\liangfan\OneDrive\enbed\CH573\AHL-CH573-EXP-V1.3-20241124\03-Software\CH07\LST-ASM-CH573\Debug/srcs/startup_CH573.S:136
	bgeu a1, a2, 2f
   134f8:	00c5fc63          	bgeu	a1,a2,13510 <handle_reset+0x70>
C:\Users\liangfan\OneDrive\enbed\CH573\AHL-CH573-EXP-V1.3-20241124\03-Software\CH07\LST-ASM-CH573\Debug/srcs/startup_CH573.S:138
1:
	lw t0, (a0)
   134fc:	00052283          	lw	t0,0(a0)
C:\Users\liangfan\OneDrive\enbed\CH573\AHL-CH573-EXP-V1.3-20241124\03-Software\CH07\LST-ASM-CH573\Debug/srcs/startup_CH573.S:139
	sw t0, (a1)
   13500:	0055a023          	sw	t0,0(a1)
C:\Users\liangfan\OneDrive\enbed\CH573\AHL-CH573-EXP-V1.3-20241124\03-Software\CH07\LST-ASM-CH573\Debug/srcs/startup_CH573.S:140
	addi a0, a0, 4
   13504:	00450513          	addi	a0,a0,4
C:\Users\liangfan\OneDrive\enbed\CH573\AHL-CH573-EXP-V1.3-20241124\03-Software\CH07\LST-ASM-CH573\Debug/srcs/startup_CH573.S:141
	addi a1, a1, 4
   13508:	00458593          	addi	a1,a1,4
C:\Users\liangfan\OneDrive\enbed\CH573\AHL-CH573-EXP-V1.3-20241124\03-Software\CH07\LST-ASM-CH573\Debug/srcs/startup_CH573.S:142
	bltu a1, a2, 1b
   1350c:	fec5e8e3          	bltu	a1,a2,134fc <handle_reset+0x5c>
C:\Users\liangfan\OneDrive\enbed\CH573\AHL-CH573-EXP-V1.3-20241124\03-Software\CH07\LST-ASM-CH573\Debug/srcs/startup_CH573.S:145
2:
	/* clear bss section */
	la a0, _sbss
   13510:	1fff2517          	auipc	a0,0x1fff2
   13514:	76850513          	addi	a0,a0,1896 # 20005c78 <_edata>
C:\Users\liangfan\OneDrive\enbed\CH573\AHL-CH573-EXP-V1.3-20241124\03-Software\CH07\LST-ASM-CH573\Debug/srcs/startup_CH573.S:146
	la a1, _ebss
   13518:	1fff2597          	auipc	a1,0x1fff2
   1351c:	76458593          	addi	a1,a1,1892 # 20005c7c <_ebss>
C:\Users\liangfan\OneDrive\enbed\CH573\AHL-CH573-EXP-V1.3-20241124\03-Software\CH07\LST-ASM-CH573\Debug/srcs/startup_CH573.S:147
	bgeu a0, a1, 2f
   13520:	00b57863          	bgeu	a0,a1,13530 <handle_reset+0x90>
C:\Users\liangfan\OneDrive\enbed\CH573\AHL-CH573-EXP-V1.3-20241124\03-Software\CH07\LST-ASM-CH573\Debug/srcs/startup_CH573.S:149
1:
	sw zero, (a0)
   13524:	00052023          	sw	zero,0(a0)
C:\Users\liangfan\OneDrive\enbed\CH573\AHL-CH573-EXP-V1.3-20241124\03-Software\CH07\LST-ASM-CH573\Debug/srcs/startup_CH573.S:150
	addi a0, a0, 4
   13528:	00450513          	addi	a0,a0,4
C:\Users\liangfan\OneDrive\enbed\CH573\AHL-CH573-EXP-V1.3-20241124\03-Software\CH07\LST-ASM-CH573\Debug/srcs/startup_CH573.S:151
	bltu a0, a1, 1b
   1352c:	feb56ce3          	bltu	a0,a1,13524 <handle_reset+0x84>
C:\Users\liangfan\OneDrive\enbed\CH573\AHL-CH573-EXP-V1.3-20241124\03-Software\CH07\LST-ASM-CH573\Debug/srcs/startup_CH573.S:153
2:
    li t0, 0x1880
   13530:	000022b7          	lui	t0,0x2
   13534:	88028293          	addi	t0,t0,-1920 # 1880 <MCU_SECTORSIZE+0x880>
C:\Users\liangfan\OneDrive\enbed\CH573\AHL-CH573-EXP-V1.3-20241124\03-Software\CH07\LST-ASM-CH573\Debug/srcs/startup_CH573.S:154
    csrs mstatus, t0
   13538:	3002a073          	csrs	mstatus,t0
C:\Users\liangfan\OneDrive\enbed\CH573\AHL-CH573-EXP-V1.3-20241124\03-Software\CH07\LST-ASM-CH573\Debug/srcs/startup_CH573.S:156

    jal Vectors_Init
   1353c:	079000ef          	jal	ra,13db4 <Vectors_Init>
C:\Users\liangfan\OneDrive\enbed\CH573\AHL-CH573-EXP-V1.3-20241124\03-Software\CH07\LST-ASM-CH573\Debug/srcs/startup_CH573.S:157
	la t0, _vector_base
   13540:	fffff297          	auipc	t0,0xfffff
   13544:	ac428293          	addi	t0,t0,-1340 # 12004 <_einit>
C:\Users\liangfan\OneDrive\enbed\CH573\AHL-CH573-EXP-V1.3-20241124\03-Software\CH07\LST-ASM-CH573\Debug/srcs/startup_CH573.S:158
    ori t0, t0, 1
   13548:	0012e293          	ori	t0,t0,1
C:\Users\liangfan\OneDrive\enbed\CH573\AHL-CH573-EXP-V1.3-20241124\03-Software\CH07\LST-ASM-CH573\Debug/srcs/startup_CH573.S:159
	csrw mtvec, t0
   1354c:	30529073          	csrw	mtvec,t0
C:\Users\liangfan\OneDrive\enbed\CH573\AHL-CH573-EXP-V1.3-20241124\03-Software\CH07\LST-ASM-CH573\Debug/srcs/startup_CH573.S:160
	la t0, main
   13550:	00000297          	auipc	t0,0x0
   13554:	3a428293          	addi	t0,t0,932 # 138f4 <main>
C:\Users\liangfan\OneDrive\enbed\CH573\AHL-CH573-EXP-V1.3-20241124\03-Software\CH07\LST-ASM-CH573\Debug/srcs/startup_CH573.S:161
	csrw mepc, t0
   13558:	34129073          	csrw	mepc,t0
C:\Users\liangfan\OneDrive\enbed\CH573\AHL-CH573-EXP-V1.3-20241124\03-Software\CH07\LST-ASM-CH573\Debug/srcs/startup_CH573.S:168
	/* enable vector relocation
	li t0, 0xE000ED14
	li t1, 1
	sw t1, 0(t0)*/
	
	mret
   1355c:	30200073          	mret

00013560 <gpio_port_pin_resolution>:
gpio_port_pin_resolution():
C:\Users\liangfan\OneDrive\enbed\CH573\AHL-CH573-EXP-V1.3-20241124\03-Software\CH07\LST-ASM-CH573\Debug/srcs/gpio.s:15
.align 2                          /*指令和数据采用2字节对齐*/


gpio_port_pin_resolution:
	/* 进行入栈 */
	addi sp, sp, -64			/* 分配堆栈框架*/
   13560:	7139                	addi	sp,sp,-64
C:\Users\liangfan\OneDrive\enbed\CH573\AHL-CH573-EXP-V1.3-20241124\03-Software\CH07\LST-ASM-CH573\Debug/srcs/gpio.s:16
	sw ra, 60(sp)				/* 将寄存器地址写到堆栈上*/
   13562:	de06                	sw	ra,60(sp)
C:\Users\liangfan\OneDrive\enbed\CH573\AHL-CH573-EXP-V1.3-20241124\03-Software\CH07\LST-ASM-CH573\Debug/srcs/gpio.s:18
	/* 计算出GPIO端口号和引脚号 */
	srli t4,a0,0x8				/* t4=a0=端口号 srli是右移动指令*/
   13564:	00855e93          	srli	t4,a0,0x8
C:\Users\liangfan\OneDrive\enbed\CH573\AHL-CH573-EXP-V1.3-20241124\03-Software\CH07\LST-ASM-CH573\Debug/srcs/gpio.s:19
	andi t5,a0,255				/* t5=a0=引脚号 andi是按位与*/
   13568:	0ff57f13          	andi	t5,a0,255
C:\Users\liangfan\OneDrive\enbed\CH573\AHL-CH573-EXP-V1.3-20241124\03-Software\CH07\LST-ASM-CH573\Debug/srcs/gpio.s:20
	mv a0,t4
   1356c:	8576                	mv	a0,t4
C:\Users\liangfan\OneDrive\enbed\CH573\AHL-CH573-EXP-V1.3-20241124\03-Software\CH07\LST-ASM-CH573\Debug/srcs/gpio.s:21
	mv a1,t5
   1356e:	85fa                	mv	a1,t5
C:\Users\liangfan\OneDrive\enbed\CH573\AHL-CH573-EXP-V1.3-20241124\03-Software\CH07\LST-ASM-CH573\Debug/srcs/gpio.s:23
	/* 释放栈 */
	lw ra, 60(sp)               /* Restore the return address 恢复返回地址 LW 指令将一个 32 位数值从存储器读入寄存器 rd’中 */
   13570:	50f2                	lw	ra,60(sp)
C:\Users\liangfan\OneDrive\enbed\CH573\AHL-CH573-EXP-V1.3-20241124\03-Software\CH07\LST-ASM-CH573\Debug/srcs/gpio.s:24
    addi sp, sp, 64             /* Deallocating the stack frame 释放栈帧 addi相加指令*/
   13572:	6121                	addi	sp,sp,64
C:\Users\liangfan\OneDrive\enbed\CH573\AHL-CH573-EXP-V1.3-20241124\03-Software\CH07\LST-ASM-CH573\Debug/srcs/gpio.s:25
    mv  a0,	t4					/* load return value 0 读取返回值 */
   13574:	8576                	mv	a0,t4
C:\Users\liangfan\OneDrive\enbed\CH573\AHL-CH573-EXP-V1.3-20241124\03-Software\CH07\LST-ASM-CH573\Debug/srcs/gpio.s:26
    mv  a1, t5
   13576:	85fa                	mv	a1,t5
C:\Users\liangfan\OneDrive\enbed\CH573\AHL-CH573-EXP-V1.3-20241124\03-Software\CH07\LST-ASM-CH573\Debug/srcs/gpio.s:27
    ret							/* 返回 */
   13578:	8082                	ret

0001357a <gpio_init>:
gpio_init():
C:\Users\liangfan\OneDrive\enbed\CH573\AHL-CH573-EXP-V1.3-20241124\03-Software\CH07\LST-ASM-CH573\Debug/srcs/gpio.s:43
//           其中:x=0~4，对应A~E;n=0~31
//======================================================================  */
.type GPIO_init function          /*声明gpio_init为函数类型*/
.global gpio_init                 /*将gpio_init定义成全局函数，便于芯片初始化之后调用*/
gpio_init:
	addi sp, sp, -64			/* 分配堆栈框架*/
   1357a:	7139                	addi	sp,sp,-64
C:\Users\liangfan\OneDrive\enbed\CH573\AHL-CH573-EXP-V1.3-20241124\03-Software\CH07\LST-ASM-CH573\Debug/srcs/gpio.s:44
	sw ra, 60(sp)				/* 将寄存器地址写到堆栈上 SW指令将寄存器 rs2’中的 32 位值保存到存储器中*/
   1357c:	de06                	sw	ra,60(sp)
C:\Users\liangfan\OneDrive\enbed\CH573\AHL-CH573-EXP-V1.3-20241124\03-Software\CH07\LST-ASM-CH573\Debug/srcs/gpio.s:45
	mv a3,a2					/* 将函数第3个参数a2赋值给a3 */
   1357e:	86b2                	mv	a3,a2
C:\Users\liangfan\OneDrive\enbed\CH573\AHL-CH573-EXP-V1.3-20241124\03-Software\CH07\LST-ASM-CH573\Debug/srcs/gpio.s:46
	mv a2,a1					/* 将函数第2个参数a1赋值给a2*/
   13580:	862e                	mv	a2,a1
C:\Users\liangfan\OneDrive\enbed\CH573\AHL-CH573-EXP-V1.3-20241124\03-Software\CH07\LST-ASM-CH573\Debug/srcs/gpio.s:48
    /* 计算出GPIO端口号和引脚号 */
	srli t4,a0,0x8				/* t4=a0=端口号 */
   13582:	00855e93          	srli	t4,a0,0x8
C:\Users\liangfan\OneDrive\enbed\CH573\AHL-CH573-EXP-V1.3-20241124\03-Software\CH07\LST-ASM-CH573\Debug/srcs/gpio.s:49
	andi t5,a0,255				/* t5=a0=引脚号 */
   13586:	0ff57f13          	andi	t5,a0,255
C:\Users\liangfan\OneDrive\enbed\CH573\AHL-CH573-EXP-V1.3-20241124\03-Software\CH07\LST-ASM-CH573\Debug/srcs/gpio.s:50
	mv a0,t4					/* a0=端口号 */
   1358a:	8576                	mv	a0,t4
C:\Users\liangfan\OneDrive\enbed\CH573\AHL-CH573-EXP-V1.3-20241124\03-Software\CH07\LST-ASM-CH573\Debug/srcs/gpio.s:51
	mv a1,t5					/* a1=引脚号 */
   1358c:	85fa                	mv	a1,t5
C:\Users\liangfan\OneDrive\enbed\CH573\AHL-CH573-EXP-V1.3-20241124\03-Software\CH07\LST-ASM-CH573\Debug/srcs/gpio.s:54

    /* 判断端口号 */
    li a4, 0x00                 /* a4=0x00 */
   1358e:	4701                	li	a4,0
C:\Users\liangfan\OneDrive\enbed\CH573\AHL-CH573-EXP-V1.3-20241124\03-Software\CH07\LST-ASM-CH573\Debug/srcs/gpio.s:55
    beq a0, a4, GPIOA           /* 当（a0=端口号）=（a4=0x00）的时候跳转GPIOA */
   13590:	00e50363          	beq	a0,a4,13596 <GPIOA>
C:\Users\liangfan\OneDrive\enbed\CH573\AHL-CH573-EXP-V1.3-20241124\03-Software\CH07\LST-ASM-CH573\Debug/srcs/gpio.s:56
    j GPIOB                     /* 当（a0=端口号）!=（a4=0x00）的时候跳转GPIOA */
   13594:	a039                	j	135a2 <GPIOB>

00013596 <GPIOA>:
GPIOA():
C:\Users\liangfan\OneDrive\enbed\CH573\AHL-CH573-EXP-V1.3-20241124\03-Software\CH07\LST-ASM-CH573\Debug/srcs/gpio.s:61

/* 端口A GPIOA */
GPIOA:
    /* 判断GPIO输入输出模式 */
    beqz a2, GPIOA_input_H       /* 函数第2个参数a2=0，则跳转gpio_input_H */
   13596:	c63d                	beqz	a2,13604 <GPIOA_input_H>
C:\Users\liangfan\OneDrive\enbed\CH573\AHL-CH573-EXP-V1.3-20241124\03-Software\CH07\LST-ASM-CH573\Debug/srcs/gpio.s:62
    li t4,1						/* t4=1 */
   13598:	4e85                	li	t4,1
C:\Users\liangfan\OneDrive\enbed\CH573\AHL-CH573-EXP-V1.3-20241124\03-Software\CH07\LST-ASM-CH573\Debug/srcs/gpio.s:63
    beq a2,t4, GPIOA_output_H	/* 函数第2个参数a2=1，则跳转gpio_output_H */
   1359a:	01d60a63          	beq	a2,t4,135ae <GPIOA_output_H>
C:\Users\liangfan\OneDrive\enbed\CH573\AHL-CH573-EXP-V1.3-20241124\03-Software\CH07\LST-ASM-CH573\Debug/srcs/gpio.s:64
    li a2, ERROR
   1359e:	4605                	li	a2,1
C:\Users\liangfan\OneDrive\enbed\CH573\AHL-CH573-EXP-V1.3-20241124\03-Software\CH07\LST-ASM-CH573\Debug/srcs/gpio.s:65
    j exit
   135a0:	a8ed                	j	1369a <exit>

000135a2 <GPIOB>:
GPIOB():
C:\Users\liangfan\OneDrive\enbed\CH573\AHL-CH573-EXP-V1.3-20241124\03-Software\CH07\LST-ASM-CH573\Debug/srcs/gpio.s:70

/* 端口B GPIOB */
GPIOB:
    /* 判断GPIO输入输出模式 */
    beqz a2, GPIOB_input_H       /* 函数第2个参数a2=0，则跳转gpio_input_H */
   135a2:	ce61                	beqz	a2,1367a <GPIOB_input_H>
C:\Users\liangfan\OneDrive\enbed\CH573\AHL-CH573-EXP-V1.3-20241124\03-Software\CH07\LST-ASM-CH573\Debug/srcs/gpio.s:71
    li t4,1						/* t4=1 */
   135a4:	4e85                	li	t4,1
C:\Users\liangfan\OneDrive\enbed\CH573\AHL-CH573-EXP-V1.3-20241124\03-Software\CH07\LST-ASM-CH573\Debug/srcs/gpio.s:72
    beq a2,t4, GPIOB_output_H	/* 函数第2个参数a2=1，则跳转gpio_output_H */
   135a6:	07d60f63          	beq	a2,t4,13624 <GPIOB_output_H>
C:\Users\liangfan\OneDrive\enbed\CH573\AHL-CH573-EXP-V1.3-20241124\03-Software\CH07\LST-ASM-CH573\Debug/srcs/gpio.s:73
    li a2, ERROR
   135aa:	4605                	li	a2,1
C:\Users\liangfan\OneDrive\enbed\CH573\AHL-CH573-EXP-V1.3-20241124\03-Software\CH07\LST-ASM-CH573\Debug/srcs/gpio.s:74
    j exit
   135ac:	a0fd                	j	1369a <exit>

000135ae <GPIOA_output_H>:
GPIOA_output_H():
C:\Users\liangfan\OneDrive\enbed\CH573\AHL-CH573-EXP-V1.3-20241124\03-Software\CH07\LST-ASM-CH573\Debug/srcs/gpio.s:78

/* 配置GPIOA引脚为输出模式 */
GPIOA_output_H:
    li t0, R32_PA_DIR           /* 将PA方向寄存器赋值给t0 */
   135ae:	400012b7          	lui	t0,0x40001
   135b2:	0a028293          	addi	t0,t0,160 # 400010a0 <R32_PA_DIR>
C:\Users\liangfan\OneDrive\enbed\CH573\AHL-CH573-EXP-V1.3-20241124\03-Software\CH07\LST-ASM-CH573\Debug/srcs/gpio.s:79
    li t1, GPIO_OUTPUT          /* t1=GPIO_OUTPUT=0x01 */
   135b6:	4305                	li	t1,1
C:\Users\liangfan\OneDrive\enbed\CH573\AHL-CH573-EXP-V1.3-20241124\03-Software\CH07\LST-ASM-CH573\Debug/srcs/gpio.s:80
    sll t1, t1, a1              /* 将t1左移（a1=引脚号） */
   135b8:	00b31333          	sll	t1,t1,a1
C:\Users\liangfan\OneDrive\enbed\CH573\AHL-CH573-EXP-V1.3-20241124\03-Software\CH07\LST-ASM-CH573\Debug/srcs/gpio.s:81
    lw t2, 0(t0)                /* 读取R32_PA_DIR寄存器的值 */
   135bc:	0002a383          	lw	t2,0(t0)
C:\Users\liangfan\OneDrive\enbed\CH573\AHL-CH573-EXP-V1.3-20241124\03-Software\CH07\LST-ASM-CH573\Debug/srcs/gpio.s:82
    or t2, t2, t1               /* (t1=(GPIO_OUTPUT << pin ))与(t2=(R32_PA_DIR))值按位或，存入t2 */
   135c0:	0063e3b3          	or	t2,t2,t1
C:\Users\liangfan\OneDrive\enbed\CH573\AHL-CH573-EXP-V1.3-20241124\03-Software\CH07\LST-ASM-CH573\Debug/srcs/gpio.s:83
    sw t2, 0(t0)                /* 设置GPIOAx的方向 */
   135c4:	0072a023          	sw	t2,0(t0)
C:\Users\liangfan\OneDrive\enbed\CH573\AHL-CH573-EXP-V1.3-20241124\03-Software\CH07\LST-ASM-CH573\Debug/srcs/gpio.s:85

    beqz a3, OUT_PUT_LOW_A      /* 初始状态输出低电平 */
   135c8:	c291                	beqz	a3,135cc <OUT_PUT_LOW_A>
C:\Users\liangfan\OneDrive\enbed\CH573\AHL-CH573-EXP-V1.3-20241124\03-Software\CH07\LST-ASM-CH573\Debug/srcs/gpio.s:86
    j OUT_PUT_HIGH_A            /* 初始状态输出高电平 */
   135ca:	a839                	j	135e8 <OUT_PUT_HIGH_A>

000135cc <OUT_PUT_LOW_A>:
OUT_PUT_LOW_A():
C:\Users\liangfan\OneDrive\enbed\CH573\AHL-CH573-EXP-V1.3-20241124\03-Software\CH07\LST-ASM-CH573\Debug/srcs/gpio.s:90

/* 输出低电平 */
OUT_PUT_LOW_A:
    li t0, R32_PA_CLR           /* 将R32_PA_CLR寄存器赋值给t0 */
   135cc:	400012b7          	lui	t0,0x40001
   135d0:	0ac28293          	addi	t0,t0,172 # 400010ac <R32_PA_CLR>
C:\Users\liangfan\OneDrive\enbed\CH573\AHL-CH573-EXP-V1.3-20241124\03-Software\CH07\LST-ASM-CH573\Debug/srcs/gpio.s:91
    li t1, 1                    /* t1=1 */
   135d4:	4305                	li	t1,1
C:\Users\liangfan\OneDrive\enbed\CH573\AHL-CH573-EXP-V1.3-20241124\03-Software\CH07\LST-ASM-CH573\Debug/srcs/gpio.s:92
    sll t1, t1, a1              /* 将t1左移（a1=引脚号） */
   135d6:	00b31333          	sll	t1,t1,a1
C:\Users\liangfan\OneDrive\enbed\CH573\AHL-CH573-EXP-V1.3-20241124\03-Software\CH07\LST-ASM-CH573\Debug/srcs/gpio.s:93
    lw t2, 0(t0)                /* 读取R32_PA_CLR寄存器的值 */
   135da:	0002a383          	lw	t2,0(t0)
C:\Users\liangfan\OneDrive\enbed\CH573\AHL-CH573-EXP-V1.3-20241124\03-Software\CH07\LST-ASM-CH573\Debug/srcs/gpio.s:94
    or t2, t2, t1               /* (t1=(1 << pin ))与(t2=(R32_PA_CLR))值按位或，存入t2 */
   135de:	0063e3b3          	or	t2,t2,t1
C:\Users\liangfan\OneDrive\enbed\CH573\AHL-CH573-EXP-V1.3-20241124\03-Software\CH07\LST-ASM-CH573\Debug/srcs/gpio.s:95
    sw t2, 0(t0)                /* 设置GPIOAx的输出值 */
   135e2:	0072a023          	sw	t2,0(t0)
C:\Users\liangfan\OneDrive\enbed\CH573\AHL-CH573-EXP-V1.3-20241124\03-Software\CH07\LST-ASM-CH573\Debug/srcs/gpio.s:97

    j exit
   135e6:	a855                	j	1369a <exit>

000135e8 <OUT_PUT_HIGH_A>:
OUT_PUT_HIGH_A():
C:\Users\liangfan\OneDrive\enbed\CH573\AHL-CH573-EXP-V1.3-20241124\03-Software\CH07\LST-ASM-CH573\Debug/srcs/gpio.s:101

/* 输出高电平 */
OUT_PUT_HIGH_A:
    li t0, R32_PA_OUT           /* 将R32_PA_OUT寄存器赋值给t0 */
   135e8:	400012b7          	lui	t0,0x40001
   135ec:	0a828293          	addi	t0,t0,168 # 400010a8 <R32_PA_OUT>
C:\Users\liangfan\OneDrive\enbed\CH573\AHL-CH573-EXP-V1.3-20241124\03-Software\CH07\LST-ASM-CH573\Debug/srcs/gpio.s:102
    li t1, 1                    /* t1=1 */
   135f0:	4305                	li	t1,1
C:\Users\liangfan\OneDrive\enbed\CH573\AHL-CH573-EXP-V1.3-20241124\03-Software\CH07\LST-ASM-CH573\Debug/srcs/gpio.s:103
    sll t1, t1, a1              /* 将t1左移（a1=引脚号） */
   135f2:	00b31333          	sll	t1,t1,a1
C:\Users\liangfan\OneDrive\enbed\CH573\AHL-CH573-EXP-V1.3-20241124\03-Software\CH07\LST-ASM-CH573\Debug/srcs/gpio.s:104
    lw t2, 0(t0)                /* 读取R32_PA_OUT寄存器的值 */
   135f6:	0002a383          	lw	t2,0(t0)
C:\Users\liangfan\OneDrive\enbed\CH573\AHL-CH573-EXP-V1.3-20241124\03-Software\CH07\LST-ASM-CH573\Debug/srcs/gpio.s:105
    or t2, t2, t1               /* (t1=(1 << pin ))与(t2=(R32_PA_OUT))值按位或，存入t2 */
   135fa:	0063e3b3          	or	t2,t2,t1
C:\Users\liangfan\OneDrive\enbed\CH573\AHL-CH573-EXP-V1.3-20241124\03-Software\CH07\LST-ASM-CH573\Debug/srcs/gpio.s:106
    sw t2, 0(t0)                /* 设置GPIOAx的输出值 */
   135fe:	0072a023          	sw	t2,0(t0)
C:\Users\liangfan\OneDrive\enbed\CH573\AHL-CH573-EXP-V1.3-20241124\03-Software\CH07\LST-ASM-CH573\Debug/srcs/gpio.s:108

    j exit
   13602:	a861                	j	1369a <exit>

00013604 <GPIOA_input_H>:
GPIOA_input_H():
C:\Users\liangfan\OneDrive\enbed\CH573\AHL-CH573-EXP-V1.3-20241124\03-Software\CH07\LST-ASM-CH573\Debug/srcs/gpio.s:112

/* 配置GPIOA引脚为输入模式 */
GPIOA_input_H:
    li t0, R32_PA_DIR           /* 将R32_PA_DIR寄存器赋值给t0 */
   13604:	400012b7          	lui	t0,0x40001
   13608:	0a028293          	addi	t0,t0,160 # 400010a0 <R32_PA_DIR>
C:\Users\liangfan\OneDrive\enbed\CH573\AHL-CH573-EXP-V1.3-20241124\03-Software\CH07\LST-ASM-CH573\Debug/srcs/gpio.s:113
    li t1, GPIO_OUTPUT          /* t1=GPIO_OUTPUT=0x01 */
   1360c:	4305                	li	t1,1
C:\Users\liangfan\OneDrive\enbed\CH573\AHL-CH573-EXP-V1.3-20241124\03-Software\CH07\LST-ASM-CH573\Debug/srcs/gpio.s:114
    sll t1, t1, a1              /* 将t1左移（a1=引脚号） */
   1360e:	00b31333          	sll	t1,t1,a1
C:\Users\liangfan\OneDrive\enbed\CH573\AHL-CH573-EXP-V1.3-20241124\03-Software\CH07\LST-ASM-CH573\Debug/srcs/gpio.s:115
    not t1, t1                  /* t1取反存在t1，对应位为0 */
   13612:	fff34313          	not	t1,t1
C:\Users\liangfan\OneDrive\enbed\CH573\AHL-CH573-EXP-V1.3-20241124\03-Software\CH07\LST-ASM-CH573\Debug/srcs/gpio.s:116
    lw t2, 0(t0)                /* 读取R32_PA_DIR寄存器的值 */
   13616:	0002a383          	lw	t2,0(t0)
C:\Users\liangfan\OneDrive\enbed\CH573\AHL-CH573-EXP-V1.3-20241124\03-Software\CH07\LST-ASM-CH573\Debug/srcs/gpio.s:117
    and t2, t2, t1              /* (t1=~(GPIO_OUTPUT << pin ))与(t2=(R32_PA_DIR))值按位与，存入t2 */
   1361a:	0063f3b3          	and	t2,t2,t1
C:\Users\liangfan\OneDrive\enbed\CH573\AHL-CH573-EXP-V1.3-20241124\03-Software\CH07\LST-ASM-CH573\Debug/srcs/gpio.s:118
    sw t2, 0(t0)                /* 设置GPIOAx的方向 */
   1361e:	0072a023          	sw	t2,0(t0)
C:\Users\liangfan\OneDrive\enbed\CH573\AHL-CH573-EXP-V1.3-20241124\03-Software\CH07\LST-ASM-CH573\Debug/srcs/gpio.s:120

    j exit
   13622:	a8a5                	j	1369a <exit>

00013624 <GPIOB_output_H>:
GPIOB_output_H():
C:\Users\liangfan\OneDrive\enbed\CH573\AHL-CH573-EXP-V1.3-20241124\03-Software\CH07\LST-ASM-CH573\Debug/srcs/gpio.s:124

/* 配置GPIOB引脚为输出模式 */
GPIOB_output_H:
    li t0, R32_PB_DIR           /* 将PB方向寄存器赋值给t0 */
   13624:	400012b7          	lui	t0,0x40001
   13628:	0c028293          	addi	t0,t0,192 # 400010c0 <R32_PB_DIR>
C:\Users\liangfan\OneDrive\enbed\CH573\AHL-CH573-EXP-V1.3-20241124\03-Software\CH07\LST-ASM-CH573\Debug/srcs/gpio.s:125
    li t1, GPIO_OUTPUT          /* t1=GPIO_OUTPUT=0x01 */
   1362c:	4305                	li	t1,1
C:\Users\liangfan\OneDrive\enbed\CH573\AHL-CH573-EXP-V1.3-20241124\03-Software\CH07\LST-ASM-CH573\Debug/srcs/gpio.s:126
    sll t1, t1, a1              /* 将t1左移（a1=引脚号） */
   1362e:	00b31333          	sll	t1,t1,a1
C:\Users\liangfan\OneDrive\enbed\CH573\AHL-CH573-EXP-V1.3-20241124\03-Software\CH07\LST-ASM-CH573\Debug/srcs/gpio.s:127
    lw t2, 0(t0)                /* 读取R32_PB_DIR寄存器的值 */
   13632:	0002a383          	lw	t2,0(t0)
C:\Users\liangfan\OneDrive\enbed\CH573\AHL-CH573-EXP-V1.3-20241124\03-Software\CH07\LST-ASM-CH573\Debug/srcs/gpio.s:128
    or t2, t2, t1               /* (t1=(GPIO_OUTPUT << pin ))与(t2=(R32_PB_DIR))值按位或，存入t2 */
   13636:	0063e3b3          	or	t2,t2,t1
C:\Users\liangfan\OneDrive\enbed\CH573\AHL-CH573-EXP-V1.3-20241124\03-Software\CH07\LST-ASM-CH573\Debug/srcs/gpio.s:129
    sw t2, 0(t0)                /* 设置GPIOBx的方向 */
   1363a:	0072a023          	sw	t2,0(t0)
C:\Users\liangfan\OneDrive\enbed\CH573\AHL-CH573-EXP-V1.3-20241124\03-Software\CH07\LST-ASM-CH573\Debug/srcs/gpio.s:131

    beqz a3, OUT_PUT_LOW_B      /* 初始状态输出低电平 */
   1363e:	c291                	beqz	a3,13642 <OUT_PUT_LOW_B>
C:\Users\liangfan\OneDrive\enbed\CH573\AHL-CH573-EXP-V1.3-20241124\03-Software\CH07\LST-ASM-CH573\Debug/srcs/gpio.s:132
    j OUT_PUT_HIGH_B            /* 初始状态输出高电平 */
   13640:	a839                	j	1365e <OUT_PUT_HIGH_B>

00013642 <OUT_PUT_LOW_B>:
OUT_PUT_LOW_B():
C:\Users\liangfan\OneDrive\enbed\CH573\AHL-CH573-EXP-V1.3-20241124\03-Software\CH07\LST-ASM-CH573\Debug/srcs/gpio.s:136

/* 输出低电平 */
OUT_PUT_LOW_B:
    li t0, R32_PB_CLR           /* 将R32_PB_CLR寄存器赋值给t0 */
   13642:	400012b7          	lui	t0,0x40001
   13646:	0cc28293          	addi	t0,t0,204 # 400010cc <R32_PB_CLR>
C:\Users\liangfan\OneDrive\enbed\CH573\AHL-CH573-EXP-V1.3-20241124\03-Software\CH07\LST-ASM-CH573\Debug/srcs/gpio.s:137
    li t1, 1                    /* t1=1 */
   1364a:	4305                	li	t1,1
C:\Users\liangfan\OneDrive\enbed\CH573\AHL-CH573-EXP-V1.3-20241124\03-Software\CH07\LST-ASM-CH573\Debug/srcs/gpio.s:138
    sll t1, t1, a1              /* 将t1左移（a1=引脚号） */
   1364c:	00b31333          	sll	t1,t1,a1
C:\Users\liangfan\OneDrive\enbed\CH573\AHL-CH573-EXP-V1.3-20241124\03-Software\CH07\LST-ASM-CH573\Debug/srcs/gpio.s:139
    lw t2, 0(t0)                /* 读取R32_PB_CLR寄存器的值 */
   13650:	0002a383          	lw	t2,0(t0)
C:\Users\liangfan\OneDrive\enbed\CH573\AHL-CH573-EXP-V1.3-20241124\03-Software\CH07\LST-ASM-CH573\Debug/srcs/gpio.s:140
    or t2, t2, t1               /* (t1=(1 << pin ))与(t2=(R32_PB_CLR))值按位或，存入t2 */
   13654:	0063e3b3          	or	t2,t2,t1
C:\Users\liangfan\OneDrive\enbed\CH573\AHL-CH573-EXP-V1.3-20241124\03-Software\CH07\LST-ASM-CH573\Debug/srcs/gpio.s:141
    sw t2, 0(t0)                /* 设置GPIOBx的输出值 */
   13658:	0072a023          	sw	t2,0(t0)
C:\Users\liangfan\OneDrive\enbed\CH573\AHL-CH573-EXP-V1.3-20241124\03-Software\CH07\LST-ASM-CH573\Debug/srcs/gpio.s:143

    j exit
   1365c:	a83d                	j	1369a <exit>

0001365e <OUT_PUT_HIGH_B>:
OUT_PUT_HIGH_B():
C:\Users\liangfan\OneDrive\enbed\CH573\AHL-CH573-EXP-V1.3-20241124\03-Software\CH07\LST-ASM-CH573\Debug/srcs/gpio.s:147

/* 输出高电平 */
OUT_PUT_HIGH_B:
    li t0, R32_PB_OUT           /* 将R32_PB_OUT寄存器赋值给t0 */
   1365e:	400012b7          	lui	t0,0x40001
   13662:	0c828293          	addi	t0,t0,200 # 400010c8 <R32_PB_OUT>
C:\Users\liangfan\OneDrive\enbed\CH573\AHL-CH573-EXP-V1.3-20241124\03-Software\CH07\LST-ASM-CH573\Debug/srcs/gpio.s:148
    li t1, 1                    /* t1=1 */
   13666:	4305                	li	t1,1
C:\Users\liangfan\OneDrive\enbed\CH573\AHL-CH573-EXP-V1.3-20241124\03-Software\CH07\LST-ASM-CH573\Debug/srcs/gpio.s:149
    sll t1, t1, a1              /* 将t1左移（a1=引脚号） */
   13668:	00b31333          	sll	t1,t1,a1
C:\Users\liangfan\OneDrive\enbed\CH573\AHL-CH573-EXP-V1.3-20241124\03-Software\CH07\LST-ASM-CH573\Debug/srcs/gpio.s:150
    lw t2, 0(t0)                /* 读取R32_PB_OUT寄存器的值 */
   1366c:	0002a383          	lw	t2,0(t0)
C:\Users\liangfan\OneDrive\enbed\CH573\AHL-CH573-EXP-V1.3-20241124\03-Software\CH07\LST-ASM-CH573\Debug/srcs/gpio.s:151
    or t2, t2, t1               /* (t1=(1 << pin ))与(t2=(R32_PB_OUT))值按位或，存入t2 */
   13670:	0063e3b3          	or	t2,t2,t1
C:\Users\liangfan\OneDrive\enbed\CH573\AHL-CH573-EXP-V1.3-20241124\03-Software\CH07\LST-ASM-CH573\Debug/srcs/gpio.s:152
    sw t2, 0(t0)                /* 设置GPIOBx的输出值 */
   13674:	0072a023          	sw	t2,0(t0)
C:\Users\liangfan\OneDrive\enbed\CH573\AHL-CH573-EXP-V1.3-20241124\03-Software\CH07\LST-ASM-CH573\Debug/srcs/gpio.s:154

    j exit
   13678:	a00d                	j	1369a <exit>

0001367a <GPIOB_input_H>:
GPIOB_input_H():
C:\Users\liangfan\OneDrive\enbed\CH573\AHL-CH573-EXP-V1.3-20241124\03-Software\CH07\LST-ASM-CH573\Debug/srcs/gpio.s:158

/* 配置GPIOB引脚为输入模式 */
GPIOB_input_H:
    li t0, R32_PB_DIR           /* 将R32_PB_DIR寄存器赋值给t0 */
   1367a:	400012b7          	lui	t0,0x40001
   1367e:	0c028293          	addi	t0,t0,192 # 400010c0 <R32_PB_DIR>
C:\Users\liangfan\OneDrive\enbed\CH573\AHL-CH573-EXP-V1.3-20241124\03-Software\CH07\LST-ASM-CH573\Debug/srcs/gpio.s:159
    li t1, GPIO_OUTPUT          /* t1=GPIO_OUTPUT=0x01 */
   13682:	4305                	li	t1,1
C:\Users\liangfan\OneDrive\enbed\CH573\AHL-CH573-EXP-V1.3-20241124\03-Software\CH07\LST-ASM-CH573\Debug/srcs/gpio.s:160
    sll t1, t1, a1              /* 将t1左移（a1=引脚号） */
   13684:	00b31333          	sll	t1,t1,a1
C:\Users\liangfan\OneDrive\enbed\CH573\AHL-CH573-EXP-V1.3-20241124\03-Software\CH07\LST-ASM-CH573\Debug/srcs/gpio.s:161
    not t1, t1                  /* t1取反存在t1，对应位为0 */
   13688:	fff34313          	not	t1,t1
C:\Users\liangfan\OneDrive\enbed\CH573\AHL-CH573-EXP-V1.3-20241124\03-Software\CH07\LST-ASM-CH573\Debug/srcs/gpio.s:162
    lw t2, 0(t0)                /* 读取R32_PB_DIR寄存器的值 */
   1368c:	0002a383          	lw	t2,0(t0)
C:\Users\liangfan\OneDrive\enbed\CH573\AHL-CH573-EXP-V1.3-20241124\03-Software\CH07\LST-ASM-CH573\Debug/srcs/gpio.s:163
    and t2, t2, t1              /* (t1=~(GPIO_OUTPUT << pin ))与(t2=(R32_PB_DIR))值按位与，存入t2 */
   13690:	0063f3b3          	and	t2,t2,t1
C:\Users\liangfan\OneDrive\enbed\CH573\AHL-CH573-EXP-V1.3-20241124\03-Software\CH07\LST-ASM-CH573\Debug/srcs/gpio.s:164
    sw t2, 0(t0)                /* 设置GPIOBx的方向 */
   13694:	0072a023          	sw	t2,0(t0)
C:\Users\liangfan\OneDrive\enbed\CH573\AHL-CH573-EXP-V1.3-20241124\03-Software\CH07\LST-ASM-CH573\Debug/srcs/gpio.s:165
    j exit
   13698:	a009                	j	1369a <exit>

0001369a <exit>:
exit():
C:\Users\liangfan\OneDrive\enbed\CH573\AHL-CH573-EXP-V1.3-20241124\03-Software\CH07\LST-ASM-CH573\Debug/srcs/gpio.s:169

/* 退出栈 */
exit:
	lw ra, 60(sp)               /* Restore the return address 恢复返回地址 */
   1369a:	50f2                	lw	ra,60(sp)
C:\Users\liangfan\OneDrive\enbed\CH573\AHL-CH573-EXP-V1.3-20241124\03-Software\CH07\LST-ASM-CH573\Debug/srcs/gpio.s:170
    addi sp, sp, 64             /* Deallocating the stack frame 释放栈帧 */
   1369c:	6121                	addi	sp,sp,64
C:\Users\liangfan\OneDrive\enbed\CH573\AHL-CH573-EXP-V1.3-20241124\03-Software\CH07\LST-ASM-CH573\Debug/srcs/gpio.s:171
    li  a0,0					/* load return value 0 读取返回值 */
   1369e:	4501                	li	a0,0
C:\Users\liangfan\OneDrive\enbed\CH573\AHL-CH573-EXP-V1.3-20241124\03-Software\CH07\LST-ASM-CH573\Debug/srcs/gpio.s:172
	ret
   136a0:	8082                	ret

000136a2 <gpio_set>:
gpio_set():
C:\Users\liangfan\OneDrive\enbed\CH573\AHL-CH573-EXP-V1.3-20241124\03-Software\CH07\LST-ASM-CH573\Debug/srcs/gpio.s:189
.global gpio_set                /*将gpio_set定义成全局函数，便于芯片初始化之后调用*/
gpio_set:
/* 通过调整栈指针分配出出栈空间用于存放局部变量和存放调用函数返回地址，
      主函数中栈空间分出16字节，   ra为返回地址寄存器，占用4个字节，将ra
      中的返回地址放入sp指针地址偏移16个字节的位置*/
	addi sp, sp, -64			/* 分配栈空间*/
   136a2:	7139                	addi	sp,sp,-64
C:\Users\liangfan\OneDrive\enbed\CH573\AHL-CH573-EXP-V1.3-20241124\03-Software\CH07\LST-ASM-CH573\Debug/srcs/gpio.s:190
	sw ra, 60(sp)				/* 存储返回地址 */
   136a4:	de06                	sw	ra,60(sp)
C:\Users\liangfan\OneDrive\enbed\CH573\AHL-CH573-EXP-V1.3-20241124\03-Software\CH07\LST-ASM-CH573\Debug/srcs/gpio.s:192

	mv a2,a1					/* 将函数第二个参数赋值给a2 */
   136a6:	862e                	mv	a2,a1
C:\Users\liangfan\OneDrive\enbed\CH573\AHL-CH573-EXP-V1.3-20241124\03-Software\CH07\LST-ASM-CH573\Debug/srcs/gpio.s:194
	/* 计算出GPIO端口号和引脚号 */
	srli t4,a0,0x8				/* t4=a0=端口号 */
   136a8:	00855e93          	srli	t4,a0,0x8
C:\Users\liangfan\OneDrive\enbed\CH573\AHL-CH573-EXP-V1.3-20241124\03-Software\CH07\LST-ASM-CH573\Debug/srcs/gpio.s:195
	andi t5,a0,255				/* a2=a0=引脚号 */
   136ac:	0ff57f13          	andi	t5,a0,255
C:\Users\liangfan\OneDrive\enbed\CH573\AHL-CH573-EXP-V1.3-20241124\03-Software\CH07\LST-ASM-CH573\Debug/srcs/gpio.s:196
	mv a0,t4					/* a0=端口号 */
   136b0:	8576                	mv	a0,t4
C:\Users\liangfan\OneDrive\enbed\CH573\AHL-CH573-EXP-V1.3-20241124\03-Software\CH07\LST-ASM-CH573\Debug/srcs/gpio.s:197
	mv a1,t5					/* a1=引脚号 */
   136b2:	85fa                	mv	a1,t5
C:\Users\liangfan\OneDrive\enbed\CH573\AHL-CH573-EXP-V1.3-20241124\03-Software\CH07\LST-ASM-CH573\Debug/srcs/gpio.s:200

    /* 判断端口号 */
    li a4, 0x00                 /* a4=0x00 */
   136b4:	4701                	li	a4,0
C:\Users\liangfan\OneDrive\enbed\CH573\AHL-CH573-EXP-V1.3-20241124\03-Software\CH07\LST-ASM-CH573\Debug/srcs/gpio.s:201
    beq a0, a4, GPIOA_SET       /* 当（a0=端口号）=（a4=0x00）的时候跳转GPIOA_SET */
   136b6:	00e50363          	beq	a0,a4,136bc <GPIOA_SET>
C:\Users\liangfan\OneDrive\enbed\CH573\AHL-CH573-EXP-V1.3-20241124\03-Software\CH07\LST-ASM-CH573\Debug/srcs/gpio.s:202
    j GPIOB_SET                 /* 当（a0=端口号）!=（a4=0x00）的时候跳转GPIOB_SET */
   136ba:	a83d                	j	136f8 <GPIOB_SET>

000136bc <GPIOA_SET>:
GPIOA_SET():
C:\Users\liangfan\OneDrive\enbed\CH573\AHL-CH573-EXP-V1.3-20241124\03-Software\CH07\LST-ASM-CH573\Debug/srcs/gpio.s:205

GPIOA_SET:
    beqz a2, GPIOA_SET_LOW      /* 设置输出低电平 */
   136bc:	c211                	beqz	a2,136c0 <GPIOA_SET_LOW>
C:\Users\liangfan\OneDrive\enbed\CH573\AHL-CH573-EXP-V1.3-20241124\03-Software\CH07\LST-ASM-CH573\Debug/srcs/gpio.s:206
    j GPIOA_SET_HIGH            /* 设置输出高电平 */
   136be:	a839                	j	136dc <GPIOA_SET_HIGH>

000136c0 <GPIOA_SET_LOW>:
GPIOA_SET_LOW():
C:\Users\liangfan\OneDrive\enbed\CH573\AHL-CH573-EXP-V1.3-20241124\03-Software\CH07\LST-ASM-CH573\Debug/srcs/gpio.s:210

/* 输出低电平 */
GPIOA_SET_LOW:
    li t0, R32_PA_CLR           /* 将R32_PA_CLR寄存器赋值给t0 */
   136c0:	400012b7          	lui	t0,0x40001
   136c4:	0ac28293          	addi	t0,t0,172 # 400010ac <R32_PA_CLR>
C:\Users\liangfan\OneDrive\enbed\CH573\AHL-CH573-EXP-V1.3-20241124\03-Software\CH07\LST-ASM-CH573\Debug/srcs/gpio.s:211
    li t1, 1                    /* t1=1 */
   136c8:	4305                	li	t1,1
C:\Users\liangfan\OneDrive\enbed\CH573\AHL-CH573-EXP-V1.3-20241124\03-Software\CH07\LST-ASM-CH573\Debug/srcs/gpio.s:212
    sll t1, t1, a1              /* 将t1左移（a1=引脚号） */
   136ca:	00b31333          	sll	t1,t1,a1
C:\Users\liangfan\OneDrive\enbed\CH573\AHL-CH573-EXP-V1.3-20241124\03-Software\CH07\LST-ASM-CH573\Debug/srcs/gpio.s:213
    lw t2, 0(t0)                /* 读取R32_PA_CLR寄存器的值 */
   136ce:	0002a383          	lw	t2,0(t0)
C:\Users\liangfan\OneDrive\enbed\CH573\AHL-CH573-EXP-V1.3-20241124\03-Software\CH07\LST-ASM-CH573\Debug/srcs/gpio.s:214
    or t2, t2, t1               /* (t1=(1 << pin ))与(t2=(R32_PA_CLR))值按位或，存入t2 */
   136d2:	0063e3b3          	or	t2,t2,t1
C:\Users\liangfan\OneDrive\enbed\CH573\AHL-CH573-EXP-V1.3-20241124\03-Software\CH07\LST-ASM-CH573\Debug/srcs/gpio.s:215
    sw t2, 0(t0)                /* 设置GPIOAx的输出值 */
   136d6:	0072a023          	sw	t2,0(t0)
C:\Users\liangfan\OneDrive\enbed\CH573\AHL-CH573-EXP-V1.3-20241124\03-Software\CH07\LST-ASM-CH573\Debug/srcs/gpio.s:217

    j SET_exit
   136da:	a8a9                	j	13734 <SET_exit>

000136dc <GPIOA_SET_HIGH>:
GPIOA_SET_HIGH():
C:\Users\liangfan\OneDrive\enbed\CH573\AHL-CH573-EXP-V1.3-20241124\03-Software\CH07\LST-ASM-CH573\Debug/srcs/gpio.s:221

/* 输出高电平 */
GPIOA_SET_HIGH:
    li t0, R32_PA_OUT           /* 将R32_PA_OUT寄存器赋值给t0 */
   136dc:	400012b7          	lui	t0,0x40001
   136e0:	0a828293          	addi	t0,t0,168 # 400010a8 <R32_PA_OUT>
C:\Users\liangfan\OneDrive\enbed\CH573\AHL-CH573-EXP-V1.3-20241124\03-Software\CH07\LST-ASM-CH573\Debug/srcs/gpio.s:222
    li t1, 1                    /* t1=1 */
   136e4:	4305                	li	t1,1
C:\Users\liangfan\OneDrive\enbed\CH573\AHL-CH573-EXP-V1.3-20241124\03-Software\CH07\LST-ASM-CH573\Debug/srcs/gpio.s:223
    sll t1, t1, a1              /* 将t1左移（a1=引脚号） */
   136e6:	00b31333          	sll	t1,t1,a1
C:\Users\liangfan\OneDrive\enbed\CH573\AHL-CH573-EXP-V1.3-20241124\03-Software\CH07\LST-ASM-CH573\Debug/srcs/gpio.s:224
    lw t2, 0(t0)                /* 读取R32_PA_OUT寄存器的值 */
   136ea:	0002a383          	lw	t2,0(t0)
C:\Users\liangfan\OneDrive\enbed\CH573\AHL-CH573-EXP-V1.3-20241124\03-Software\CH07\LST-ASM-CH573\Debug/srcs/gpio.s:225
    or t2, t2, t1               /* (t1=(1 << pin ))与(t2=(R32_PA_OUT))值按位或，存入t2 */
   136ee:	0063e3b3          	or	t2,t2,t1
C:\Users\liangfan\OneDrive\enbed\CH573\AHL-CH573-EXP-V1.3-20241124\03-Software\CH07\LST-ASM-CH573\Debug/srcs/gpio.s:226
    sw t2, 0(t0)                /* 设置GPIOAx的输出值 */
   136f2:	0072a023          	sw	t2,0(t0)
C:\Users\liangfan\OneDrive\enbed\CH573\AHL-CH573-EXP-V1.3-20241124\03-Software\CH07\LST-ASM-CH573\Debug/srcs/gpio.s:228

    j SET_exit
   136f6:	a83d                	j	13734 <SET_exit>

000136f8 <GPIOB_SET>:
GPIOB_SET():
C:\Users\liangfan\OneDrive\enbed\CH573\AHL-CH573-EXP-V1.3-20241124\03-Software\CH07\LST-ASM-CH573\Debug/srcs/gpio.s:231

GPIOB_SET:
    beqz a2, GPIOB_SET_LOW      /* 设置输出低电平 */
   136f8:	c211                	beqz	a2,136fc <GPIOB_SET_LOW>
C:\Users\liangfan\OneDrive\enbed\CH573\AHL-CH573-EXP-V1.3-20241124\03-Software\CH07\LST-ASM-CH573\Debug/srcs/gpio.s:232
    j GPIOB_SET_HIGH            /* 设置输出高电平 */
   136fa:	a839                	j	13718 <GPIOB_SET_HIGH>

000136fc <GPIOB_SET_LOW>:
GPIOB_SET_LOW():
C:\Users\liangfan\OneDrive\enbed\CH573\AHL-CH573-EXP-V1.3-20241124\03-Software\CH07\LST-ASM-CH573\Debug/srcs/gpio.s:236

/* 输出低电平 */
GPIOB_SET_LOW:
    li t0, R32_PB_CLR           /* 将R32_PB_CLR寄存器赋值给t0 */
   136fc:	400012b7          	lui	t0,0x40001
   13700:	0cc28293          	addi	t0,t0,204 # 400010cc <R32_PB_CLR>
C:\Users\liangfan\OneDrive\enbed\CH573\AHL-CH573-EXP-V1.3-20241124\03-Software\CH07\LST-ASM-CH573\Debug/srcs/gpio.s:237
    li t1, 1                    /* t1=1 */
   13704:	4305                	li	t1,1
C:\Users\liangfan\OneDrive\enbed\CH573\AHL-CH573-EXP-V1.3-20241124\03-Software\CH07\LST-ASM-CH573\Debug/srcs/gpio.s:238
    sll t1, t1, a1              /* 将t1左移（a1=引脚号） */
   13706:	00b31333          	sll	t1,t1,a1
C:\Users\liangfan\OneDrive\enbed\CH573\AHL-CH573-EXP-V1.3-20241124\03-Software\CH07\LST-ASM-CH573\Debug/srcs/gpio.s:239
    lw t2, 0(t0)                /* 读取R32_PB_CLR寄存器的值 */
   1370a:	0002a383          	lw	t2,0(t0)
C:\Users\liangfan\OneDrive\enbed\CH573\AHL-CH573-EXP-V1.3-20241124\03-Software\CH07\LST-ASM-CH573\Debug/srcs/gpio.s:240
    or t2, t2, t1               /* (t1=(1 << pin ))与(t2=(R32_PB_CLR))值按位或，存入t2 */
   1370e:	0063e3b3          	or	t2,t2,t1
C:\Users\liangfan\OneDrive\enbed\CH573\AHL-CH573-EXP-V1.3-20241124\03-Software\CH07\LST-ASM-CH573\Debug/srcs/gpio.s:241
    sw t2, 0(t0)                /* 设置GPIOBx的输出值 */
   13712:	0072a023          	sw	t2,0(t0)
C:\Users\liangfan\OneDrive\enbed\CH573\AHL-CH573-EXP-V1.3-20241124\03-Software\CH07\LST-ASM-CH573\Debug/srcs/gpio.s:243

    j SET_exit
   13716:	a839                	j	13734 <SET_exit>

00013718 <GPIOB_SET_HIGH>:
GPIOB_SET_HIGH():
C:\Users\liangfan\OneDrive\enbed\CH573\AHL-CH573-EXP-V1.3-20241124\03-Software\CH07\LST-ASM-CH573\Debug/srcs/gpio.s:247

/* 输出高电平 */
GPIOB_SET_HIGH:
    li t0, R32_PB_OUT           /* 将R32_PB_OUT寄存器赋值给t0 */
   13718:	400012b7          	lui	t0,0x40001
   1371c:	0c828293          	addi	t0,t0,200 # 400010c8 <R32_PB_OUT>
C:\Users\liangfan\OneDrive\enbed\CH573\AHL-CH573-EXP-V1.3-20241124\03-Software\CH07\LST-ASM-CH573\Debug/srcs/gpio.s:248
    li t1, 1                    /* t1=1 */
   13720:	4305                	li	t1,1
C:\Users\liangfan\OneDrive\enbed\CH573\AHL-CH573-EXP-V1.3-20241124\03-Software\CH07\LST-ASM-CH573\Debug/srcs/gpio.s:249
    sll t1, t1, a1              /* 将t1左移（a1=引脚号） */
   13722:	00b31333          	sll	t1,t1,a1
C:\Users\liangfan\OneDrive\enbed\CH573\AHL-CH573-EXP-V1.3-20241124\03-Software\CH07\LST-ASM-CH573\Debug/srcs/gpio.s:250
    lw t2, 0(t0)                /* 读取R32_PB_OUT寄存器的值 */
   13726:	0002a383          	lw	t2,0(t0)
C:\Users\liangfan\OneDrive\enbed\CH573\AHL-CH573-EXP-V1.3-20241124\03-Software\CH07\LST-ASM-CH573\Debug/srcs/gpio.s:251
    or t2, t2, t1               /* (t1=(1 << pin ))与(t2=(R32_PB_OUT))值按位或，存入t2 */
   1372a:	0063e3b3          	or	t2,t2,t1
C:\Users\liangfan\OneDrive\enbed\CH573\AHL-CH573-EXP-V1.3-20241124\03-Software\CH07\LST-ASM-CH573\Debug/srcs/gpio.s:252
    sw t2, 0(t0)                /* 设置GPIOBx的输出值 */
   1372e:	0072a023          	sw	t2,0(t0)
C:\Users\liangfan\OneDrive\enbed\CH573\AHL-CH573-EXP-V1.3-20241124\03-Software\CH07\LST-ASM-CH573\Debug/srcs/gpio.s:254

    j SET_exit
   13732:	a009                	j	13734 <SET_exit>

00013734 <SET_exit>:
SET_exit():
C:\Users\liangfan\OneDrive\enbed\CH573\AHL-CH573-EXP-V1.3-20241124\03-Software\CH07\LST-ASM-CH573\Debug/srcs/gpio.s:258

/* 退出并释放栈空间 */
SET_exit:
	lw ra, 60(sp)               /* 恢复返回地址 */
   13734:	50f2                	lw	ra,60(sp)
C:\Users\liangfan\OneDrive\enbed\CH573\AHL-CH573-EXP-V1.3-20241124\03-Software\CH07\LST-ASM-CH573\Debug/srcs/gpio.s:259
    addi sp, sp, 64             /* 释放栈空间 */
   13736:	6121                	addi	sp,sp,64
C:\Users\liangfan\OneDrive\enbed\CH573\AHL-CH573-EXP-V1.3-20241124\03-Software\CH07\LST-ASM-CH573\Debug/srcs/gpio.s:260
    ret							/* 返回 */
   13738:	8082                	ret

0001373a <gpio_reverse>:
gpio_reverse():
C:\Users\liangfan\OneDrive\enbed\CH573\AHL-CH573-EXP-V1.3-20241124\03-Software\CH07\LST-ASM-CH573\Debug/srcs/gpio.s:274
.global gpio_reverse            /*将gpio_reverse定义成全局函数，便于芯片初始化之后调用 */
gpio_reverse:
/* 通过调整栈指针分配出出栈空间用于存放局部变量和存放调用函数返回地址，
      主函数中栈空间分出16字节，   ra为返回地址寄存器，占用4个字节，将ra
      中的返回地址放入sp指针地址偏移16个字节的位置*/
	addi sp, sp, -64			/* 分配堆栈框架*/
   1373a:	7139                	addi	sp,sp,-64
C:\Users\liangfan\OneDrive\enbed\CH573\AHL-CH573-EXP-V1.3-20241124\03-Software\CH07\LST-ASM-CH573\Debug/srcs/gpio.s:275
	sw ra, 60(sp)				/* 将寄存器地址写到堆栈上*/
   1373c:	de06                	sw	ra,60(sp)
C:\Users\liangfan\OneDrive\enbed\CH573\AHL-CH573-EXP-V1.3-20241124\03-Software\CH07\LST-ASM-CH573\Debug/srcs/gpio.s:278

	/* 计算出GPIO端口号和引脚号 */
	srli t4,a0,0x8				/* t4=a0=端口号 */
   1373e:	00855e93          	srli	t4,a0,0x8
C:\Users\liangfan\OneDrive\enbed\CH573\AHL-CH573-EXP-V1.3-20241124\03-Software\CH07\LST-ASM-CH573\Debug/srcs/gpio.s:279
	andi t5,a0,255				/* a2=a0=引脚号 */
   13742:	0ff57f13          	andi	t5,a0,255
C:\Users\liangfan\OneDrive\enbed\CH573\AHL-CH573-EXP-V1.3-20241124\03-Software\CH07\LST-ASM-CH573\Debug/srcs/gpio.s:280
	mv a0,t4					/* a0=端口号 */
   13746:	8576                	mv	a0,t4
C:\Users\liangfan\OneDrive\enbed\CH573\AHL-CH573-EXP-V1.3-20241124\03-Software\CH07\LST-ASM-CH573\Debug/srcs/gpio.s:281
	mv a1,t5					/* a1=引脚号 */
   13748:	85fa                	mv	a1,t5
C:\Users\liangfan\OneDrive\enbed\CH573\AHL-CH573-EXP-V1.3-20241124\03-Software\CH07\LST-ASM-CH573\Debug/srcs/gpio.s:284

    /* 判断端口号 */
    li a4, 0x00                 /* a4=0x00 */
   1374a:	4701                	li	a4,0
C:\Users\liangfan\OneDrive\enbed\CH573\AHL-CH573-EXP-V1.3-20241124\03-Software\CH07\LST-ASM-CH573\Debug/srcs/gpio.s:285
    beq a0, a4, GPIOA_REVERSE   /* 当（a0=端口号）=（a4=0x00）的时候跳转GPIOA_REVERSE */
   1374c:	00e50363          	beq	a0,a4,13752 <GPIOA_REVERSE>
C:\Users\liangfan\OneDrive\enbed\CH573\AHL-CH573-EXP-V1.3-20241124\03-Software\CH07\LST-ASM-CH573\Debug/srcs/gpio.s:286
    j GPIOB_REVERSE             /* 当（a0=端口号）!=（a4=0x00）的时候跳转GPIOB_REVERSE */
   13750:	a8a9                	j	137aa <GPIOB_REVERSE>

00013752 <GPIOA_REVERSE>:
GPIOA_REVERSE():
C:\Users\liangfan\OneDrive\enbed\CH573\AHL-CH573-EXP-V1.3-20241124\03-Software\CH07\LST-ASM-CH573\Debug/srcs/gpio.s:289

GPIOA_REVERSE:
    li t0, R32_PA_OUT           /* t0=R32_PA_OUT */
   13752:	400012b7          	lui	t0,0x40001
   13756:	0a828293          	addi	t0,t0,168 # 400010a8 <R32_PA_OUT>
C:\Users\liangfan\OneDrive\enbed\CH573\AHL-CH573-EXP-V1.3-20241124\03-Software\CH07\LST-ASM-CH573\Debug/srcs/gpio.s:290
    lw t2, 0(t0)
   1375a:	0002a383          	lw	t2,0(t0)
C:\Users\liangfan\OneDrive\enbed\CH573\AHL-CH573-EXP-V1.3-20241124\03-Software\CH07\LST-ASM-CH573\Debug/srcs/gpio.s:291
    li t1, 1                    /* t1=1 */
   1375e:	4305                	li	t1,1
C:\Users\liangfan\OneDrive\enbed\CH573\AHL-CH573-EXP-V1.3-20241124\03-Software\CH07\LST-ASM-CH573\Debug/srcs/gpio.s:292
    sll t1, t1, a1              /* 将t1左移（a1=引脚号） */
   13760:	00b31333          	sll	t1,t1,a1
C:\Users\liangfan\OneDrive\enbed\CH573\AHL-CH573-EXP-V1.3-20241124\03-Software\CH07\LST-ASM-CH573\Debug/srcs/gpio.s:293
    and t1, t1, t2              /* t1=t1&t2 */
   13764:	00737333          	and	t1,t1,t2
C:\Users\liangfan\OneDrive\enbed\CH573\AHL-CH573-EXP-V1.3-20241124\03-Software\CH07\LST-ASM-CH573\Debug/srcs/gpio.s:294
    srl t1, t1, a1              /* 将t1右移（a1=引脚号） */
   13768:	00b35333          	srl	t1,t1,a1
C:\Users\liangfan\OneDrive\enbed\CH573\AHL-CH573-EXP-V1.3-20241124\03-Software\CH07\LST-ASM-CH573\Debug/srcs/gpio.s:296

    beqz t1, GPIOA_REV_H        /* 当前为低电平，反转成高电平 */
   1376c:	02030163          	beqz	t1,1378e <GPIOA_REV_H>
C:\Users\liangfan\OneDrive\enbed\CH573\AHL-CH573-EXP-V1.3-20241124\03-Software\CH07\LST-ASM-CH573\Debug/srcs/gpio.s:297
    j GPIOA_REV_L               /* 当前为高电平，反转成地电平 */
   13770:	a009                	j	13772 <GPIOA_REV_L>

00013772 <GPIOA_REV_L>:
GPIOA_REV_L():
C:\Users\liangfan\OneDrive\enbed\CH573\AHL-CH573-EXP-V1.3-20241124\03-Software\CH07\LST-ASM-CH573\Debug/srcs/gpio.s:300

GPIOA_REV_L:
    li t0, R32_PA_CLR           /* 将R32_PA_CLR寄存器赋值给t0 */
   13772:	400012b7          	lui	t0,0x40001
   13776:	0ac28293          	addi	t0,t0,172 # 400010ac <R32_PA_CLR>
C:\Users\liangfan\OneDrive\enbed\CH573\AHL-CH573-EXP-V1.3-20241124\03-Software\CH07\LST-ASM-CH573\Debug/srcs/gpio.s:301
    li t1, 1                    /* t1=1 */
   1377a:	4305                	li	t1,1
C:\Users\liangfan\OneDrive\enbed\CH573\AHL-CH573-EXP-V1.3-20241124\03-Software\CH07\LST-ASM-CH573\Debug/srcs/gpio.s:302
    sll t1, t1, a1              /* 将t1左移（a1=引脚号） */
   1377c:	00b31333          	sll	t1,t1,a1
C:\Users\liangfan\OneDrive\enbed\CH573\AHL-CH573-EXP-V1.3-20241124\03-Software\CH07\LST-ASM-CH573\Debug/srcs/gpio.s:303
    lw t2, 0(t0)                /* 读取R32_PA_CLR寄存器的值 */
   13780:	0002a383          	lw	t2,0(t0)
C:\Users\liangfan\OneDrive\enbed\CH573\AHL-CH573-EXP-V1.3-20241124\03-Software\CH07\LST-ASM-CH573\Debug/srcs/gpio.s:304
    or t2, t2, t1               /* (t1=(1 << pin ))与(t2=(R32_PA_CLR))值按位或，存入t2 */
   13784:	0063e3b3          	or	t2,t2,t1
C:\Users\liangfan\OneDrive\enbed\CH573\AHL-CH573-EXP-V1.3-20241124\03-Software\CH07\LST-ASM-CH573\Debug/srcs/gpio.s:305
    sw t2, 0(t0)                /* 设置GPIOAx的输出值 */
   13788:	0072a023          	sw	t2,0(t0)
C:\Users\liangfan\OneDrive\enbed\CH573\AHL-CH573-EXP-V1.3-20241124\03-Software\CH07\LST-ASM-CH573\Debug/srcs/gpio.s:307

    j gpio_reverse_exit
   1378c:	a89d                	j	13802 <gpio_reverse_exit>

0001378e <GPIOA_REV_H>:
GPIOA_REV_H():
C:\Users\liangfan\OneDrive\enbed\CH573\AHL-CH573-EXP-V1.3-20241124\03-Software\CH07\LST-ASM-CH573\Debug/srcs/gpio.s:310

GPIOA_REV_H:
    li t0, R32_PA_OUT           /* 将R32_PA_OUT寄存器赋值给t0 */
   1378e:	400012b7          	lui	t0,0x40001
   13792:	0a828293          	addi	t0,t0,168 # 400010a8 <R32_PA_OUT>
C:\Users\liangfan\OneDrive\enbed\CH573\AHL-CH573-EXP-V1.3-20241124\03-Software\CH07\LST-ASM-CH573\Debug/srcs/gpio.s:311
    li t1, 1                    /* t1=1 */
   13796:	4305                	li	t1,1
C:\Users\liangfan\OneDrive\enbed\CH573\AHL-CH573-EXP-V1.3-20241124\03-Software\CH07\LST-ASM-CH573\Debug/srcs/gpio.s:312
    sll t1, t1, a1              /* 将t1左移（a1=引脚号） */
   13798:	00b31333          	sll	t1,t1,a1
C:\Users\liangfan\OneDrive\enbed\CH573\AHL-CH573-EXP-V1.3-20241124\03-Software\CH07\LST-ASM-CH573\Debug/srcs/gpio.s:313
    lw t2, 0(t0)                /* 读取R32_PA_OUT寄存器的值 */
   1379c:	0002a383          	lw	t2,0(t0)
C:\Users\liangfan\OneDrive\enbed\CH573\AHL-CH573-EXP-V1.3-20241124\03-Software\CH07\LST-ASM-CH573\Debug/srcs/gpio.s:314
    or t2, t2, t1               /* (t1=(1 << pin ))与(t2=(R32_PA_OUT))值按位或，存入t2 */
   137a0:	0063e3b3          	or	t2,t2,t1
C:\Users\liangfan\OneDrive\enbed\CH573\AHL-CH573-EXP-V1.3-20241124\03-Software\CH07\LST-ASM-CH573\Debug/srcs/gpio.s:315
    sw t2, 0(t0)                /* 设置GPIOAx的输出值 */
   137a4:	0072a023          	sw	t2,0(t0)
C:\Users\liangfan\OneDrive\enbed\CH573\AHL-CH573-EXP-V1.3-20241124\03-Software\CH07\LST-ASM-CH573\Debug/srcs/gpio.s:317

    j SET_exit
   137a8:	b771                	j	13734 <SET_exit>

000137aa <GPIOB_REVERSE>:
GPIOB_REVERSE():
C:\Users\liangfan\OneDrive\enbed\CH573\AHL-CH573-EXP-V1.3-20241124\03-Software\CH07\LST-ASM-CH573\Debug/srcs/gpio.s:320

GPIOB_REVERSE:
    li t0, R32_PB_OUT           /* t0=R32_PB_OUT */
   137aa:	400012b7          	lui	t0,0x40001
   137ae:	0c828293          	addi	t0,t0,200 # 400010c8 <R32_PB_OUT>
C:\Users\liangfan\OneDrive\enbed\CH573\AHL-CH573-EXP-V1.3-20241124\03-Software\CH07\LST-ASM-CH573\Debug/srcs/gpio.s:321
    lw t2, 0(t0)
   137b2:	0002a383          	lw	t2,0(t0)
C:\Users\liangfan\OneDrive\enbed\CH573\AHL-CH573-EXP-V1.3-20241124\03-Software\CH07\LST-ASM-CH573\Debug/srcs/gpio.s:322
    li t1, 1                    /* t1=1 */
   137b6:	4305                	li	t1,1
C:\Users\liangfan\OneDrive\enbed\CH573\AHL-CH573-EXP-V1.3-20241124\03-Software\CH07\LST-ASM-CH573\Debug/srcs/gpio.s:323
    sll t1, t1, a1              /* 将t1左移（a1=引脚号） */
   137b8:	00b31333          	sll	t1,t1,a1
C:\Users\liangfan\OneDrive\enbed\CH573\AHL-CH573-EXP-V1.3-20241124\03-Software\CH07\LST-ASM-CH573\Debug/srcs/gpio.s:324
    and t1, t1, t2              /* t1=t1&t2 */
   137bc:	00737333          	and	t1,t1,t2
C:\Users\liangfan\OneDrive\enbed\CH573\AHL-CH573-EXP-V1.3-20241124\03-Software\CH07\LST-ASM-CH573\Debug/srcs/gpio.s:325
    srl t1, t1, a1              /* 将t1右移（a1=引脚号） */
   137c0:	00b35333          	srl	t1,t1,a1
C:\Users\liangfan\OneDrive\enbed\CH573\AHL-CH573-EXP-V1.3-20241124\03-Software\CH07\LST-ASM-CH573\Debug/srcs/gpio.s:327

    beqz t1, GPIOB_REV_H        /* 当前为低电平，反转成高电平 */
   137c4:	02030163          	beqz	t1,137e6 <GPIOB_REV_H>
C:\Users\liangfan\OneDrive\enbed\CH573\AHL-CH573-EXP-V1.3-20241124\03-Software\CH07\LST-ASM-CH573\Debug/srcs/gpio.s:328
    j GPIOB_REV_L               /* 当前为高电平，反转成地电平 */
   137c8:	a009                	j	137ca <GPIOB_REV_L>

000137ca <GPIOB_REV_L>:
GPIOB_REV_L():
C:\Users\liangfan\OneDrive\enbed\CH573\AHL-CH573-EXP-V1.3-20241124\03-Software\CH07\LST-ASM-CH573\Debug/srcs/gpio.s:331

GPIOB_REV_L:
    li t0, R32_PB_CLR           /* 将R32_PB_CLR寄存器赋值给t0 */
   137ca:	400012b7          	lui	t0,0x40001
   137ce:	0cc28293          	addi	t0,t0,204 # 400010cc <R32_PB_CLR>
C:\Users\liangfan\OneDrive\enbed\CH573\AHL-CH573-EXP-V1.3-20241124\03-Software\CH07\LST-ASM-CH573\Debug/srcs/gpio.s:332
    li t1, 1                    /* t1=1 */
   137d2:	4305                	li	t1,1
C:\Users\liangfan\OneDrive\enbed\CH573\AHL-CH573-EXP-V1.3-20241124\03-Software\CH07\LST-ASM-CH573\Debug/srcs/gpio.s:333
    sll t1, t1, a1              /* 将t1左移（a1=引脚号） */
   137d4:	00b31333          	sll	t1,t1,a1
C:\Users\liangfan\OneDrive\enbed\CH573\AHL-CH573-EXP-V1.3-20241124\03-Software\CH07\LST-ASM-CH573\Debug/srcs/gpio.s:334
    lw t2, 0(t0)                /* 读取R32_PB_CLR寄存器的值 */
   137d8:	0002a383          	lw	t2,0(t0)
C:\Users\liangfan\OneDrive\enbed\CH573\AHL-CH573-EXP-V1.3-20241124\03-Software\CH07\LST-ASM-CH573\Debug/srcs/gpio.s:335
    or t2, t2, t1               /* (t1=(1 << pin ))与(t2=(R32_PB_CLR))值按位或，存入t2 */
   137dc:	0063e3b3          	or	t2,t2,t1
C:\Users\liangfan\OneDrive\enbed\CH573\AHL-CH573-EXP-V1.3-20241124\03-Software\CH07\LST-ASM-CH573\Debug/srcs/gpio.s:336
    sw t2, 0(t0)                /* 设置GPIOBx的输出值 */
   137e0:	0072a023          	sw	t2,0(t0)
C:\Users\liangfan\OneDrive\enbed\CH573\AHL-CH573-EXP-V1.3-20241124\03-Software\CH07\LST-ASM-CH573\Debug/srcs/gpio.s:338

    j gpio_reverse_exit
   137e4:	a839                	j	13802 <gpio_reverse_exit>

000137e6 <GPIOB_REV_H>:
GPIOB_REV_H():
C:\Users\liangfan\OneDrive\enbed\CH573\AHL-CH573-EXP-V1.3-20241124\03-Software\CH07\LST-ASM-CH573\Debug/srcs/gpio.s:341

GPIOB_REV_H:
    li t0, R32_PB_OUT           /* 将R32_PB_OUT寄存器赋值给t0 */
   137e6:	400012b7          	lui	t0,0x40001
   137ea:	0c828293          	addi	t0,t0,200 # 400010c8 <R32_PB_OUT>
C:\Users\liangfan\OneDrive\enbed\CH573\AHL-CH573-EXP-V1.3-20241124\03-Software\CH07\LST-ASM-CH573\Debug/srcs/gpio.s:342
    li t1, 1                    /* t1=1 */
   137ee:	4305                	li	t1,1
C:\Users\liangfan\OneDrive\enbed\CH573\AHL-CH573-EXP-V1.3-20241124\03-Software\CH07\LST-ASM-CH573\Debug/srcs/gpio.s:343
    sll t1, t1, a1              /* 将t1左移（a1=引脚号） */
   137f0:	00b31333          	sll	t1,t1,a1
C:\Users\liangfan\OneDrive\enbed\CH573\AHL-CH573-EXP-V1.3-20241124\03-Software\CH07\LST-ASM-CH573\Debug/srcs/gpio.s:344
    lw t2, 0(t0)                /* 读取R32_PB_OUT寄存器的值 */
   137f4:	0002a383          	lw	t2,0(t0)
C:\Users\liangfan\OneDrive\enbed\CH573\AHL-CH573-EXP-V1.3-20241124\03-Software\CH07\LST-ASM-CH573\Debug/srcs/gpio.s:345
    or t2, t2, t1               /* (t1=(1 << pin ))与(t2=(R32_PB_OUT))值按位或，存入t2 */
   137f8:	0063e3b3          	or	t2,t2,t1
C:\Users\liangfan\OneDrive\enbed\CH573\AHL-CH573-EXP-V1.3-20241124\03-Software\CH07\LST-ASM-CH573\Debug/srcs/gpio.s:346
    sw t2, 0(t0)                /* 设置GPIOBx的输出值 */
   137fc:	0072a023          	sw	t2,0(t0)
C:\Users\liangfan\OneDrive\enbed\CH573\AHL-CH573-EXP-V1.3-20241124\03-Software\CH07\LST-ASM-CH573\Debug/srcs/gpio.s:348

    j gpio_reverse_exit
   13800:	a009                	j	13802 <gpio_reverse_exit>

00013802 <gpio_reverse_exit>:
gpio_reverse_exit():
C:\Users\liangfan\OneDrive\enbed\CH573\AHL-CH573-EXP-V1.3-20241124\03-Software\CH07\LST-ASM-CH573\Debug/srcs/gpio.s:351

gpio_reverse_exit:
	lw ra, 60(sp)               /* 恢复返回地址 */
   13802:	50f2                	lw	ra,60(sp)
C:\Users\liangfan\OneDrive\enbed\CH573\AHL-CH573-EXP-V1.3-20241124\03-Software\CH07\LST-ASM-CH573\Debug/srcs/gpio.s:352
    addi sp, sp, 64             /* 释放栈空间 */
   13804:	6121                	addi	sp,sp,64
C:\Users\liangfan\OneDrive\enbed\CH573\AHL-CH573-EXP-V1.3-20241124\03-Software\CH07\LST-ASM-CH573\Debug/srcs/gpio.s:353
    ret		
   13806:	8082                	ret

00013808 <gpio_get>:
gpio_get():
C:\Users\liangfan\OneDrive\enbed\CH573\AHL-CH573-EXP-V1.3-20241124\03-Software\CH07\LST-ASM-CH573\Debug/srcs/gpio.s:367
.global gpio_get                /*将gpio_get定义成全局函数，便于芯片初始化之后调用*/
gpio_get:
/* 通过调整栈指针分配出出栈空间用于存放局部变量和存放调用函数返回地址，
      主函数中栈空间分出16字节，   ra为返回地址寄存器，占用4个字节，将ra
      中的返回地址放入sp指针地址偏移16个字节的位置*/
	addi sp, sp, -64			/* 分配堆栈框架*/
   13808:	7139                	addi	sp,sp,-64
C:\Users\liangfan\OneDrive\enbed\CH573\AHL-CH573-EXP-V1.3-20241124\03-Software\CH07\LST-ASM-CH573\Debug/srcs/gpio.s:368
	sw ra, 60(sp)				/* 将寄存器地址写到堆栈上*/
   1380a:	de06                	sw	ra,60(sp)
C:\Users\liangfan\OneDrive\enbed\CH573\AHL-CH573-EXP-V1.3-20241124\03-Software\CH07\LST-ASM-CH573\Debug/srcs/gpio.s:371

	/* 计算出GPIO端口号和引脚号 */
	srli t4,a0,0x8				/* t4=a0=端口号 */
   1380c:	00855e93          	srli	t4,a0,0x8
C:\Users\liangfan\OneDrive\enbed\CH573\AHL-CH573-EXP-V1.3-20241124\03-Software\CH07\LST-ASM-CH573\Debug/srcs/gpio.s:372
	andi t5,a0,255				/* t5=a0=引脚号 */
   13810:	0ff57f13          	andi	t5,a0,255
C:\Users\liangfan\OneDrive\enbed\CH573\AHL-CH573-EXP-V1.3-20241124\03-Software\CH07\LST-ASM-CH573\Debug/srcs/gpio.s:373
	mv a2,t4					/* a2=端口号 */
   13814:	8676                	mv	a2,t4
C:\Users\liangfan\OneDrive\enbed\CH573\AHL-CH573-EXP-V1.3-20241124\03-Software\CH07\LST-ASM-CH573\Debug/srcs/gpio.s:374
	mv a3,t5					/* a3=引脚号 */
   13816:	86fa                	mv	a3,t5
C:\Users\liangfan\OneDrive\enbed\CH573\AHL-CH573-EXP-V1.3-20241124\03-Software\CH07\LST-ASM-CH573\Debug/srcs/gpio.s:377

    /* 判断端口号 */
    li a4, 0x00                 /* a4=0x00 */
   13818:	4701                	li	a4,0
C:\Users\liangfan\OneDrive\enbed\CH573\AHL-CH573-EXP-V1.3-20241124\03-Software\CH07\LST-ASM-CH573\Debug/srcs/gpio.s:378
    beq a0, a4, GPIOA_GET       /* 当（a0=端口号）=（a4=0x00）的时候跳转GPIOA_GET */
   1381a:	00e50363          	beq	a0,a4,13820 <GPIOA_GET>
C:\Users\liangfan\OneDrive\enbed\CH573\AHL-CH573-EXP-V1.3-20241124\03-Software\CH07\LST-ASM-CH573\Debug/srcs/gpio.s:379
    j GPIOB_GET                 /* 当（a0=端口号）!=（a4=0x00）的时候跳转GPIOB_GET */
   1381e:	a08d                	j	13880 <GPIOB_GET>

00013820 <GPIOA_GET>:
GPIOA_GET():
C:\Users\liangfan\OneDrive\enbed\CH573\AHL-CH573-EXP-V1.3-20241124\03-Software\CH07\LST-ASM-CH573\Debug/srcs/gpio.s:382

GPIOA_GET:
    li t0, R32_PA_DIR           /* t0=R32_PA_DIR */
   13820:	400012b7          	lui	t0,0x40001
   13824:	0a028293          	addi	t0,t0,160 # 400010a0 <R32_PA_DIR>
C:\Users\liangfan\OneDrive\enbed\CH573\AHL-CH573-EXP-V1.3-20241124\03-Software\CH07\LST-ASM-CH573\Debug/srcs/gpio.s:383
    lw t2, 0(t0)
   13828:	0002a383          	lw	t2,0(t0)
C:\Users\liangfan\OneDrive\enbed\CH573\AHL-CH573-EXP-V1.3-20241124\03-Software\CH07\LST-ASM-CH573\Debug/srcs/gpio.s:384
    li t1, 1                    /* t1=1 */
   1382c:	4305                	li	t1,1
C:\Users\liangfan\OneDrive\enbed\CH573\AHL-CH573-EXP-V1.3-20241124\03-Software\CH07\LST-ASM-CH573\Debug/srcs/gpio.s:385
    sll t1, t1, a3              /* 将t1左移（a3=引脚号） */
   1382e:	00d31333          	sll	t1,t1,a3
C:\Users\liangfan\OneDrive\enbed\CH573\AHL-CH573-EXP-V1.3-20241124\03-Software\CH07\LST-ASM-CH573\Debug/srcs/gpio.s:386
    and t1, t1, t2              /* t1=t1&t2 */
   13832:	00737333          	and	t1,t1,t2
C:\Users\liangfan\OneDrive\enbed\CH573\AHL-CH573-EXP-V1.3-20241124\03-Software\CH07\LST-ASM-CH573\Debug/srcs/gpio.s:387
    srl t1, t1, a3              /* 将t1右移（a3=引脚号） */
   13836:	00d35333          	srl	t1,t1,a3
C:\Users\liangfan\OneDrive\enbed\CH573\AHL-CH573-EXP-V1.3-20241124\03-Software\CH07\LST-ASM-CH573\Debug/srcs/gpio.s:389

    beqz t1, GPIOA_GET_IN       /* GPIOAx输入 */
   1383a:	00030363          	beqz	t1,13840 <GPIOA_GET_IN>
C:\Users\liangfan\OneDrive\enbed\CH573\AHL-CH573-EXP-V1.3-20241124\03-Software\CH07\LST-ASM-CH573\Debug/srcs/gpio.s:390
    j GPIOA_GET_OUT             /* GPIOAx输出 */
   1383e:	a00d                	j	13860 <GPIOA_GET_OUT>

00013840 <GPIOA_GET_IN>:
GPIOA_GET_IN():
C:\Users\liangfan\OneDrive\enbed\CH573\AHL-CH573-EXP-V1.3-20241124\03-Software\CH07\LST-ASM-CH573\Debug/srcs/gpio.s:393

GPIOA_GET_IN:
    li t0, R32_PA_PIN           /* t0=R32_PA_PIN */
   13840:	400012b7          	lui	t0,0x40001
   13844:	0a428293          	addi	t0,t0,164 # 400010a4 <R32_PA_PIN>
C:\Users\liangfan\OneDrive\enbed\CH573\AHL-CH573-EXP-V1.3-20241124\03-Software\CH07\LST-ASM-CH573\Debug/srcs/gpio.s:394
    lw t2, 0(t0)
   13848:	0002a383          	lw	t2,0(t0)
C:\Users\liangfan\OneDrive\enbed\CH573\AHL-CH573-EXP-V1.3-20241124\03-Software\CH07\LST-ASM-CH573\Debug/srcs/gpio.s:395
    li t1, 1                    /* t1=1 */
   1384c:	4305                	li	t1,1
C:\Users\liangfan\OneDrive\enbed\CH573\AHL-CH573-EXP-V1.3-20241124\03-Software\CH07\LST-ASM-CH573\Debug/srcs/gpio.s:396
    sll t1, t1, a3              /* 将t1左移（a3=引脚号） */
   1384e:	00d31333          	sll	t1,t1,a3
C:\Users\liangfan\OneDrive\enbed\CH573\AHL-CH573-EXP-V1.3-20241124\03-Software\CH07\LST-ASM-CH573\Debug/srcs/gpio.s:397
    and t1, t1, t2              /* t1=t1&t2 */
   13852:	00737333          	and	t1,t1,t2
C:\Users\liangfan\OneDrive\enbed\CH573\AHL-CH573-EXP-V1.3-20241124\03-Software\CH07\LST-ASM-CH573\Debug/srcs/gpio.s:398
    srl t1, t1, a3              /* 将t1右移（a3=引脚号） */
   13856:	00d35333          	srl	t1,t1,a3
C:\Users\liangfan\OneDrive\enbed\CH573\AHL-CH573-EXP-V1.3-20241124\03-Software\CH07\LST-ASM-CH573\Debug/srcs/gpio.s:400

    beqz t1, RETURN_0           /* GPIOAx输入，状态为低电平 */
   1385a:	08030363          	beqz	t1,138e0 <RETURN_0>
C:\Users\liangfan\OneDrive\enbed\CH573\AHL-CH573-EXP-V1.3-20241124\03-Software\CH07\LST-ASM-CH573\Debug/srcs/gpio.s:401
    j RETURN_1                  /* GPIOAx输入，状态为高电平 */
   1385e:	a069                	j	138e8 <RETURN_1>

00013860 <GPIOA_GET_OUT>:
GPIOA_GET_OUT():
C:\Users\liangfan\OneDrive\enbed\CH573\AHL-CH573-EXP-V1.3-20241124\03-Software\CH07\LST-ASM-CH573\Debug/srcs/gpio.s:404

GPIOA_GET_OUT:
    li t0, R32_PA_OUT           /* t0=R32_PA_OUT */
   13860:	400012b7          	lui	t0,0x40001
   13864:	0a828293          	addi	t0,t0,168 # 400010a8 <R32_PA_OUT>
C:\Users\liangfan\OneDrive\enbed\CH573\AHL-CH573-EXP-V1.3-20241124\03-Software\CH07\LST-ASM-CH573\Debug/srcs/gpio.s:405
    lw t2, 0(t0)
   13868:	0002a383          	lw	t2,0(t0)
C:\Users\liangfan\OneDrive\enbed\CH573\AHL-CH573-EXP-V1.3-20241124\03-Software\CH07\LST-ASM-CH573\Debug/srcs/gpio.s:406
    li t1, 1                    /* t1=1 */
   1386c:	4305                	li	t1,1
C:\Users\liangfan\OneDrive\enbed\CH573\AHL-CH573-EXP-V1.3-20241124\03-Software\CH07\LST-ASM-CH573\Debug/srcs/gpio.s:407
    sll t1, t1, a3              /* 将t1左移（a3=引脚号） */
   1386e:	00d31333          	sll	t1,t1,a3
C:\Users\liangfan\OneDrive\enbed\CH573\AHL-CH573-EXP-V1.3-20241124\03-Software\CH07\LST-ASM-CH573\Debug/srcs/gpio.s:408
    and t1, t1, t2              /* t1=t1&t2 */
   13872:	00737333          	and	t1,t1,t2
C:\Users\liangfan\OneDrive\enbed\CH573\AHL-CH573-EXP-V1.3-20241124\03-Software\CH07\LST-ASM-CH573\Debug/srcs/gpio.s:409
    srl t1, t1, a3              /* 将t1右移（a3=引脚号） */
   13876:	00d35333          	srl	t1,t1,a3
C:\Users\liangfan\OneDrive\enbed\CH573\AHL-CH573-EXP-V1.3-20241124\03-Software\CH07\LST-ASM-CH573\Debug/srcs/gpio.s:411

    beqz t1, RETURN_0           /* GPIOAx输入，状态为低电平 */
   1387a:	06030363          	beqz	t1,138e0 <RETURN_0>
C:\Users\liangfan\OneDrive\enbed\CH573\AHL-CH573-EXP-V1.3-20241124\03-Software\CH07\LST-ASM-CH573\Debug/srcs/gpio.s:412
    j RETURN_1                  /* GPIOAx输入，状态为高电平 */
   1387e:	a0ad                	j	138e8 <RETURN_1>

00013880 <GPIOB_GET>:
GPIOB_GET():
C:\Users\liangfan\OneDrive\enbed\CH573\AHL-CH573-EXP-V1.3-20241124\03-Software\CH07\LST-ASM-CH573\Debug/srcs/gpio.s:415

GPIOB_GET:
    li t0, R32_PB_DIR           /* t0=R32_PB_DIR */
   13880:	400012b7          	lui	t0,0x40001
   13884:	0c028293          	addi	t0,t0,192 # 400010c0 <R32_PB_DIR>
C:\Users\liangfan\OneDrive\enbed\CH573\AHL-CH573-EXP-V1.3-20241124\03-Software\CH07\LST-ASM-CH573\Debug/srcs/gpio.s:416
    lw t2, 0(t0)
   13888:	0002a383          	lw	t2,0(t0)
C:\Users\liangfan\OneDrive\enbed\CH573\AHL-CH573-EXP-V1.3-20241124\03-Software\CH07\LST-ASM-CH573\Debug/srcs/gpio.s:417
    li t1, 1                    /* t1=1 */
   1388c:	4305                	li	t1,1
C:\Users\liangfan\OneDrive\enbed\CH573\AHL-CH573-EXP-V1.3-20241124\03-Software\CH07\LST-ASM-CH573\Debug/srcs/gpio.s:418
    sll t1, t1, a3              /* 将t1左移（a3=引脚号） */
   1388e:	00d31333          	sll	t1,t1,a3
C:\Users\liangfan\OneDrive\enbed\CH573\AHL-CH573-EXP-V1.3-20241124\03-Software\CH07\LST-ASM-CH573\Debug/srcs/gpio.s:419
    and t1, t1, t2              /* t1=t1&t2 */
   13892:	00737333          	and	t1,t1,t2
C:\Users\liangfan\OneDrive\enbed\CH573\AHL-CH573-EXP-V1.3-20241124\03-Software\CH07\LST-ASM-CH573\Debug/srcs/gpio.s:420
    srl t1, t1, a3              /* 将t1右移（a3=引脚号） */
   13896:	00d35333          	srl	t1,t1,a3
C:\Users\liangfan\OneDrive\enbed\CH573\AHL-CH573-EXP-V1.3-20241124\03-Software\CH07\LST-ASM-CH573\Debug/srcs/gpio.s:422

    beqz t1, GPIOB_GET_IN       /* GPIOBx输入 */
   1389a:	00030363          	beqz	t1,138a0 <GPIOB_GET_IN>
C:\Users\liangfan\OneDrive\enbed\CH573\AHL-CH573-EXP-V1.3-20241124\03-Software\CH07\LST-ASM-CH573\Debug/srcs/gpio.s:423
    j GPIOB_GET_OUT             /* GPIOBx输出 */
   1389e:	a00d                	j	138c0 <GPIOB_GET_OUT>

000138a0 <GPIOB_GET_IN>:
GPIOB_GET_IN():
C:\Users\liangfan\OneDrive\enbed\CH573\AHL-CH573-EXP-V1.3-20241124\03-Software\CH07\LST-ASM-CH573\Debug/srcs/gpio.s:426

GPIOB_GET_IN:
    li t0, R32_PB_PIN           /* t0=R32_PB_PIN */
   138a0:	400012b7          	lui	t0,0x40001
   138a4:	0c428293          	addi	t0,t0,196 # 400010c4 <R32_PB_PIN>
C:\Users\liangfan\OneDrive\enbed\CH573\AHL-CH573-EXP-V1.3-20241124\03-Software\CH07\LST-ASM-CH573\Debug/srcs/gpio.s:427
    lw t2, 0(t0)
   138a8:	0002a383          	lw	t2,0(t0)
C:\Users\liangfan\OneDrive\enbed\CH573\AHL-CH573-EXP-V1.3-20241124\03-Software\CH07\LST-ASM-CH573\Debug/srcs/gpio.s:428
    li t1, 1                    /* t1=1 */
   138ac:	4305                	li	t1,1
C:\Users\liangfan\OneDrive\enbed\CH573\AHL-CH573-EXP-V1.3-20241124\03-Software\CH07\LST-ASM-CH573\Debug/srcs/gpio.s:429
    sll t1, t1, a3              /* 将t1左移（a3=引脚号） */
   138ae:	00d31333          	sll	t1,t1,a3
C:\Users\liangfan\OneDrive\enbed\CH573\AHL-CH573-EXP-V1.3-20241124\03-Software\CH07\LST-ASM-CH573\Debug/srcs/gpio.s:430
    and t1, t1, t2              /* t1=t1&t2 */
   138b2:	00737333          	and	t1,t1,t2
C:\Users\liangfan\OneDrive\enbed\CH573\AHL-CH573-EXP-V1.3-20241124\03-Software\CH07\LST-ASM-CH573\Debug/srcs/gpio.s:431
    srl t1, t1, a3              /* 将t1右移（a3=引脚号） */
   138b6:	00d35333          	srl	t1,t1,a3
C:\Users\liangfan\OneDrive\enbed\CH573\AHL-CH573-EXP-V1.3-20241124\03-Software\CH07\LST-ASM-CH573\Debug/srcs/gpio.s:433

    beqz t1, RETURN_0           /* GPIOAx输入，状态为低电平 */
   138ba:	02030363          	beqz	t1,138e0 <RETURN_0>
C:\Users\liangfan\OneDrive\enbed\CH573\AHL-CH573-EXP-V1.3-20241124\03-Software\CH07\LST-ASM-CH573\Debug/srcs/gpio.s:434
    j RETURN_1                  /* GPIOAx输入，状态为高电平 */
   138be:	a02d                	j	138e8 <RETURN_1>

000138c0 <GPIOB_GET_OUT>:
GPIOB_GET_OUT():
C:\Users\liangfan\OneDrive\enbed\CH573\AHL-CH573-EXP-V1.3-20241124\03-Software\CH07\LST-ASM-CH573\Debug/srcs/gpio.s:437

GPIOB_GET_OUT:
    li t0, R32_PB_OUT           /* t0=R32_PB_OUT */
   138c0:	400012b7          	lui	t0,0x40001
   138c4:	0c828293          	addi	t0,t0,200 # 400010c8 <R32_PB_OUT>
C:\Users\liangfan\OneDrive\enbed\CH573\AHL-CH573-EXP-V1.3-20241124\03-Software\CH07\LST-ASM-CH573\Debug/srcs/gpio.s:438
    lw t2, 0(t0)
   138c8:	0002a383          	lw	t2,0(t0)
C:\Users\liangfan\OneDrive\enbed\CH573\AHL-CH573-EXP-V1.3-20241124\03-Software\CH07\LST-ASM-CH573\Debug/srcs/gpio.s:439
    li t1, 1                    /* t1=1 */
   138cc:	4305                	li	t1,1
C:\Users\liangfan\OneDrive\enbed\CH573\AHL-CH573-EXP-V1.3-20241124\03-Software\CH07\LST-ASM-CH573\Debug/srcs/gpio.s:440
    sll t1, t1, a3              /* 将t1左移（a3=引脚号） */
   138ce:	00d31333          	sll	t1,t1,a3
C:\Users\liangfan\OneDrive\enbed\CH573\AHL-CH573-EXP-V1.3-20241124\03-Software\CH07\LST-ASM-CH573\Debug/srcs/gpio.s:441
    and t1, t1, t2              /* t1=t1&t2 */
   138d2:	00737333          	and	t1,t1,t2
C:\Users\liangfan\OneDrive\enbed\CH573\AHL-CH573-EXP-V1.3-20241124\03-Software\CH07\LST-ASM-CH573\Debug/srcs/gpio.s:442
    srl t1, t1, a3              /* 将t1右移（a3=引脚号） */
   138d6:	00d35333          	srl	t1,t1,a3
C:\Users\liangfan\OneDrive\enbed\CH573\AHL-CH573-EXP-V1.3-20241124\03-Software\CH07\LST-ASM-CH573\Debug/srcs/gpio.s:444

    beqz t1, RETURN_0           /* GPIOAx输入，状态为低电平 */
   138da:	00030363          	beqz	t1,138e0 <RETURN_0>
C:\Users\liangfan\OneDrive\enbed\CH573\AHL-CH573-EXP-V1.3-20241124\03-Software\CH07\LST-ASM-CH573\Debug/srcs/gpio.s:445
    j RETURN_1                  /* GPIOAx输入，状态为高电平 */
   138de:	a029                	j	138e8 <RETURN_1>

000138e0 <RETURN_0>:
RETURN_0():
C:\Users\liangfan\OneDrive\enbed\CH573\AHL-CH573-EXP-V1.3-20241124\03-Software\CH07\LST-ASM-CH573\Debug/srcs/gpio.s:449


RETURN_0:
    lw ra, 64(sp)               /* 恢复返回地址 */
   138e0:	4086                	lw	ra,64(sp)
C:\Users\liangfan\OneDrive\enbed\CH573\AHL-CH573-EXP-V1.3-20241124\03-Software\CH07\LST-ASM-CH573\Debug/srcs/gpio.s:450
    addi sp, sp, 64             /* 释放栈空间*/
   138e2:	6121                	addi	sp,sp,64
C:\Users\liangfan\OneDrive\enbed\CH573\AHL-CH573-EXP-V1.3-20241124\03-Software\CH07\LST-ASM-CH573\Debug/srcs/gpio.s:451
    li  a0,0					/* 返回值0 */
   138e4:	4501                	li	a0,0
C:\Users\liangfan\OneDrive\enbed\CH573\AHL-CH573-EXP-V1.3-20241124\03-Software\CH07\LST-ASM-CH573\Debug/srcs/gpio.s:452
    ret							/* 返回 */
   138e6:	8082                	ret

000138e8 <RETURN_1>:
RETURN_1():
C:\Users\liangfan\OneDrive\enbed\CH573\AHL-CH573-EXP-V1.3-20241124\03-Software\CH07\LST-ASM-CH573\Debug/srcs/gpio.s:455

RETURN_1:
	lw ra, 60(sp)               /* 恢复返回地址 */
   138e8:	50f2                	lw	ra,60(sp)
C:\Users\liangfan\OneDrive\enbed\CH573\AHL-CH573-EXP-V1.3-20241124\03-Software\CH07\LST-ASM-CH573\Debug/srcs/gpio.s:456
    addi sp, sp, 64             /* 释放栈空间 */
   138ea:	6121                	addi	sp,sp,64
C:\Users\liangfan\OneDrive\enbed\CH573\AHL-CH573-EXP-V1.3-20241124\03-Software\CH07\LST-ASM-CH573\Debug/srcs/gpio.s:457
    li  a0,1					/* 返回值1 */
   138ec:	4505                	li	a0,1
C:\Users\liangfan\OneDrive\enbed\CH573\AHL-CH573-EXP-V1.3-20241124\03-Software\CH07\LST-ASM-CH573\Debug/srcs/gpio.s:458
    ret	
   138ee:	8082                	ret
   138f0:	0000                	unimp
	...

000138f4 <main>:
main():
C:\Users\liangfan\OneDrive\enbed\CH573\AHL-CH573-EXP-V1.3-20241124\03-Software\CH07\LST-ASM-CH573\Debug/srcs/main.s:54

/*主函数，一般情况下可以认为程序从此开始运行（实际上有启动过程）------ */
main:
    /*【1】启动部分（开头）========================================== */
    /*（1.1）申请栈空间及串口输出提示 */
    addi sp,sp,-48              /* 申请栈空间 */
   138f4:	7179                	addi	sp,sp,-48
C:\Users\liangfan\OneDrive\enbed\CH573\AHL-CH573-EXP-V1.3-20241124\03-Software\CH07\LST-ASM-CH573\Debug/srcs/main.s:56
                                /* 通过调试串口输出提示 */
    la a0,hello_information     /* 参数a0：串口号 */
   138f6:	1fff2517          	auipc	a0,0x1fff2
   138fa:	1aa50513          	addi	a0,a0,426 # 20005aa0 <_data_vma>
C:\Users\liangfan\OneDrive\enbed\CH573\AHL-CH573-EXP-V1.3-20241124\03-Software\CH07\LST-ASM-CH573\Debug/srcs/main.s:57
    call printf                 /* 调用函数 */ 
   138fe:	00001097          	auipc	ra,0x1
   13902:	e48080e7          	jalr	-440(ra) # 14746 <myprintf>
C:\Users\liangfan\OneDrive\enbed\CH573\AHL-CH573-EXP-V1.3-20241124\03-Software\CH07\LST-ASM-CH573\Debug/srcs/main.s:60
    /*（1.2）用户外设模块初始化 */
                                /* 初始化GPIO（蓝灯），三个参数 */
    li a0,LIGHT_BLUE            /* 第1参数a0：灯的引脚 */ 
   13906:	10e00513          	li	a0,270
C:\Users\liangfan\OneDrive\enbed\CH573\AHL-CH573-EXP-V1.3-20241124\03-Software\CH07\LST-ASM-CH573\Debug/srcs/main.s:61
    li a1,GPIO_OUTPUT           /* 第2参数a1：定义为输出 */
   1390a:	4585                	li	a1,1
C:\Users\liangfan\OneDrive\enbed\CH573\AHL-CH573-EXP-V1.3-20241124\03-Software\CH07\LST-ASM-CH573\Debug/srcs/main.s:62
    li a2,LIGHT_OFF             /* 第3参数a2：初始状态 */
   1390c:	4605                	li	a2,1
C:\Users\liangfan\OneDrive\enbed\CH573\AHL-CH573-EXP-V1.3-20241124\03-Software\CH07\LST-ASM-CH573\Debug/srcs/main.s:63
    call gpio_init              /* 调用函数 */
   1390e:	00000097          	auipc	ra,0x0
   13912:	c6c080e7          	jalr	-916(ra) # 1357a <gpio_init>

00013916 <main_loop>:
main_loop():
C:\Users\liangfan\OneDrive\enbed\CH573\AHL-CH573-EXP-V1.3-20241124\03-Software\CH07\LST-ASM-CH573\Debug/srcs/main.s:71
	
/*【2】主循环部分（开头）=========================================== */
main_loop: 
    /*（2.1）主循环次数变量mMainLoopCount+1，判断是否到设定值 */
                                /* mMainLoopCount+1 */
       la a5,mMainLoopCount     /* a5←变量mMainLoopCount的地址 */
   13916:	1fff2797          	auipc	a5,0x1fff2
   1391a:	35a78793          	addi	a5,a5,858 # 20005c70 <mMainLoopCount>
C:\Users\liangfan\OneDrive\enbed\CH573\AHL-CH573-EXP-V1.3-20241124\03-Software\CH07\LST-ASM-CH573\Debug/srcs/main.s:72
       lw t1,0(a5)              /* t1←变量mMainLoopCount的值 */
   1391e:	0007a303          	lw	t1,0(a5)
C:\Users\liangfan\OneDrive\enbed\CH573\AHL-CH573-EXP-V1.3-20241124\03-Software\CH07\LST-ASM-CH573\Debug/srcs/main.s:73
       addi t1,t1,1             /* t1←t1+1 */
   13922:	0305                	addi	t1,t1,1
C:\Users\liangfan\OneDrive\enbed\CH573\AHL-CH573-EXP-V1.3-20241124\03-Software\CH07\LST-ASM-CH573\Debug/srcs/main.s:74
       sw t1,0(a5)              /* 放回RAM中 */
   13924:	0067a023          	sw	t1,0(a5)
C:\Users\liangfan\OneDrive\enbed\CH573\AHL-CH573-EXP-V1.3-20241124\03-Software\CH07\LST-ASM-CH573\Debug/srcs/main.s:76
                                /* 判断是否到设定值 */
       li t2,MAINLOOP_COUNT     /* 常数在user.inc中宏定义 */
   13928:	000923b7          	lui	t2,0x92
   1392c:	7c038393          	addi	t2,t2,1984 # 927c0 <MAINLOOP_COUNT>
C:\Users\liangfan\OneDrive\enbed\CH573\AHL-CH573-EXP-V1.3-20241124\03-Software\CH07\LST-ASM-CH573\Debug/srcs/main.s:77
       bltu t1,t2,main_loop     /* 小于转,即t1<t2转 */
   13930:	fe7363e3          	bltu	t1,t2,13916 <main_loop>
C:\Users\liangfan\OneDrive\enbed\CH573\AHL-CH573-EXP-V1.3-20241124\03-Software\CH07\LST-ASM-CH573\Debug/srcs/main.s:80
    /*（2.2）达到主循环次数设定值，执行下列语句，进行灯的亮暗处理 */
                                /* 清除主循环次数变量mMainLoopCount */
       la a5, mMainLoopCount    
   13934:	1fff2797          	auipc	a5,0x1fff2
   13938:	33c78793          	addi	a5,a5,828 # 20005c70 <mMainLoopCount>
C:\Users\liangfan\OneDrive\enbed\CH573\AHL-CH573-EXP-V1.3-20241124\03-Software\CH07\LST-ASM-CH573\Debug/srcs/main.s:81
       li t1,0
   1393c:	4301                	li	t1,0
C:\Users\liangfan\OneDrive\enbed\CH573\AHL-CH573-EXP-V1.3-20241124\03-Software\CH07\LST-ASM-CH573\Debug/srcs/main.s:82
       sw t1,0(a5)
   1393e:	0067a023          	sw	t1,0(a5)
C:\Users\liangfan\OneDrive\enbed\CH573\AHL-CH573-EXP-V1.3-20241124\03-Software\CH07\LST-ASM-CH573\Debug/srcs/main.s:84
                                /* 判定灯状态标志mFlag是否为'L' */
       la a5, mFlag
   13942:	1fff2797          	auipc	a5,0x1fff2
   13946:	33478793          	addi	a5,a5,820 # 20005c76 <mFlag>
C:\Users\liangfan\OneDrive\enbed\CH573\AHL-CH573-EXP-V1.3-20241124\03-Software\CH07\LST-ASM-CH573\Debug/srcs/main.s:85
       lb t1,0(a5)
   1394a:	00078303          	lb	t1,0(a5)
C:\Users\liangfan\OneDrive\enbed\CH573\AHL-CH573-EXP-V1.3-20241124\03-Software\CH07\LST-ASM-CH573\Debug/srcs/main.s:86
       li t2,'L'
   1394e:	04c00393          	li	t2,76
C:\Users\liangfan\OneDrive\enbed\CH573\AHL-CH573-EXP-V1.3-20241124\03-Software\CH07\LST-ASM-CH573\Debug/srcs/main.s:87
       bne t1,t2,main_Light_OFF /* t1≠t2转 */
   13952:	06731963          	bne	t1,t2,139c4 <main_Light_OFF>
C:\Users\liangfan\OneDrive\enbed\CH573\AHL-CH573-EXP-V1.3-20241124\03-Software\CH07\LST-ASM-CH573\Debug/srcs/main.s:90
                                /* 灯状态标志mFlag='L'情况 */
                                /* 灯闪烁次数+1 */
       la a5,mLigtCount         /* a5←变量mLigtCount的地址 */           
   13956:	1fff2797          	auipc	a5,0x1fff2
   1395a:	31e78793          	addi	a5,a5,798 # 20005c74 <mLigtCount>
C:\Users\liangfan\OneDrive\enbed\CH573\AHL-CH573-EXP-V1.3-20241124\03-Software\CH07\LST-ASM-CH573\Debug/srcs/main.s:91
       lh t1,0(a5)              /* t1←变量mLigtCount值（半字）*/
   1395e:	00079303          	lh	t1,0(a5)
C:\Users\liangfan\OneDrive\enbed\CH573\AHL-CH573-EXP-V1.3-20241124\03-Software\CH07\LST-ASM-CH573\Debug/srcs/main.s:92
       addi t1,t1,1                
   13962:	0305                	addi	t1,t1,1
C:\Users\liangfan\OneDrive\enbed\CH573\AHL-CH573-EXP-V1.3-20241124\03-Software\CH07\LST-ASM-CH573\Debug/srcs/main.s:93
       sh t1,0(a5)              /* 存回（半字） */
   13964:	00679023          	sh	t1,0(a5)
C:\Users\liangfan\OneDrive\enbed\CH573\AHL-CH573-EXP-V1.3-20241124\03-Software\CH07\LST-ASM-CH573\Debug/srcs/main.s:95
                                /* 通过调试串口输出提示 闪烁次数mLightCount= */
       la a0,printf_format1          
   13968:	1fff2517          	auipc	a0,0x1fff2
   1396c:	2bf50513          	addi	a0,a0,703 # 20005c27 <printf_format1>
C:\Users\liangfan\OneDrive\enbed\CH573\AHL-CH573-EXP-V1.3-20241124\03-Software\CH07\LST-ASM-CH573\Debug/srcs/main.s:96
       call printf 
   13970:	00001097          	auipc	ra,0x1
   13974:	dd6080e7          	jalr	-554(ra) # 14746 <myprintf>
C:\Users\liangfan\OneDrive\enbed\CH573\AHL-CH573-EXP-V1.3-20241124\03-Software\CH07\LST-ASM-CH573\Debug/srcs/main.s:98
                                /* 通过调试串口输出提示 闪烁次数次数值 */ 
       la a0,printf_format2     /* 第1参数a0：格式的地址 */
   13978:	1fff2517          	auipc	a0,0x1fff2
   1397c:	2c550513          	addi	a0,a0,709 # 20005c3d <printf_format2>
C:\Users\liangfan\OneDrive\enbed\CH573\AHL-CH573-EXP-V1.3-20241124\03-Software\CH07\LST-ASM-CH573\Debug/srcs/main.s:99
       la a5,mLigtCount               
   13980:	1fff2797          	auipc	a5,0x1fff2
   13984:	2f478793          	addi	a5,a5,756 # 20005c74 <mLigtCount>
C:\Users\liangfan\OneDrive\enbed\CH573\AHL-CH573-EXP-V1.3-20241124\03-Software\CH07\LST-ASM-CH573\Debug/srcs/main.s:100
       lh a1,0(a5)              /* 第2参数a1：变量mLigtCount的值 */
   13988:	00079583          	lh	a1,0(a5)
C:\Users\liangfan\OneDrive\enbed\CH573\AHL-CH573-EXP-V1.3-20241124\03-Software\CH07\LST-ASM-CH573\Debug/srcs/main.s:101
       call printf              /* 调用函数 */
   1398c:	00001097          	auipc	ra,0x1
   13990:	dba080e7          	jalr	-582(ra) # 14746 <myprintf>
C:\Users\liangfan\OneDrive\enbed\CH573\AHL-CH573-EXP-V1.3-20241124\03-Software\CH07\LST-ASM-CH573\Debug/srcs/main.s:103
                                /* 蓝灯亮 */
       li a0,LIGHT_BLUE         /* 第1参数a0：灯的引脚 */
   13994:	10e00513          	li	a0,270
C:\Users\liangfan\OneDrive\enbed\CH573\AHL-CH573-EXP-V1.3-20241124\03-Software\CH07\LST-ASM-CH573\Debug/srcs/main.s:104
       li a1,LIGHT_ON           /* 第2参数a1：灯的状态 */
   13998:	4581                	li	a1,0
C:\Users\liangfan\OneDrive\enbed\CH573\AHL-CH573-EXP-V1.3-20241124\03-Software\CH07\LST-ASM-CH573\Debug/srcs/main.s:105
       call gpio_set            
   1399a:	00000097          	auipc	ra,0x0
   1399e:	d08080e7          	jalr	-760(ra) # 136a2 <gpio_set>
C:\Users\liangfan\OneDrive\enbed\CH573\AHL-CH573-EXP-V1.3-20241124\03-Software\CH07\LST-ASM-CH573\Debug/srcs/main.s:107
                                /* 通过调试串口输出提示 灯的状态 */
       la a0,printf_format3           
   139a2:	1fff2517          	auipc	a0,0x1fff2
   139a6:	29f50513          	addi	a0,a0,671 # 20005c41 <printf_format3>
C:\Users\liangfan\OneDrive\enbed\CH573\AHL-CH573-EXP-V1.3-20241124\03-Software\CH07\LST-ASM-CH573\Debug/srcs/main.s:108
       call printf
   139aa:	00001097          	auipc	ra,0x1
   139ae:	d9c080e7          	jalr	-612(ra) # 14746 <myprintf>
C:\Users\liangfan\OneDrive\enbed\CH573\AHL-CH573-EXP-V1.3-20241124\03-Software\CH07\LST-ASM-CH573\Debug/srcs/main.s:110
                                /* 灯的状态标志改为'A'（暗） */
       la a1,mFlag             
   139b2:	1fff2597          	auipc	a1,0x1fff2
   139b6:	2c458593          	addi	a1,a1,708 # 20005c76 <mFlag>
C:\Users\liangfan\OneDrive\enbed\CH573\AHL-CH573-EXP-V1.3-20241124\03-Software\CH07\LST-ASM-CH573\Debug/srcs/main.s:111
       li t1,'A'
   139ba:	04100313          	li	t1,65
C:\Users\liangfan\OneDrive\enbed\CH573\AHL-CH573-EXP-V1.3-20241124\03-Software\CH07\LST-ASM-CH573\Debug/srcs/main.s:112
       sb t1,0(a1)
   139be:	00658023          	sb	t1,0(a1)
C:\Users\liangfan\OneDrive\enbed\CH573\AHL-CH573-EXP-V1.3-20241124\03-Software\CH07\LST-ASM-CH573\Debug/srcs/main.s:113
       j main_exit
   139c2:	a055                	j	13a66 <main_exit>

000139c4 <main_Light_OFF>:
main_Light_OFF():
C:\Users\liangfan\OneDrive\enbed\CH573\AHL-CH573-EXP-V1.3-20241124\03-Software\CH07\LST-ASM-CH573\Debug/srcs/main.s:115
main_Light_OFF:   /* 灯状态标志mFlag≠'L'：输出提示、蓝灯暗、改变标志 */
       la a0,printf_format4           /* 输出灯的状态 */
   139c4:	1fff2517          	auipc	a0,0x1fff2
   139c8:	28e50513          	addi	a0,a0,654 # 20005c52 <printf_format4>
C:\Users\liangfan\OneDrive\enbed\CH573\AHL-CH573-EXP-V1.3-20241124\03-Software\CH07\LST-ASM-CH573\Debug/srcs/main.s:116
       call printf 
   139cc:	00001097          	auipc	ra,0x1
   139d0:	d7a080e7          	jalr	-646(ra) # 14746 <myprintf>
C:\Users\liangfan\OneDrive\enbed\CH573\AHL-CH573-EXP-V1.3-20241124\03-Software\CH07\LST-ASM-CH573\Debug/srcs/main.s:118
                                      /* 蓝灯暗*/
       li a0,LIGHT_BLUE               /* 第1参数a0 ← LIGHT_BLUE */
   139d4:	10e00513          	li	a0,270
C:\Users\liangfan\OneDrive\enbed\CH573\AHL-CH573-EXP-V1.3-20241124\03-Software\CH07\LST-ASM-CH573\Debug/srcs/main.s:119
       li a1,LIGHT_OFF                /* 第2参数a1 ← LIGHT_OFF */
   139d8:	4585                	li	a1,1
C:\Users\liangfan\OneDrive\enbed\CH573\AHL-CH573-EXP-V1.3-20241124\03-Software\CH07\LST-ASM-CH573\Debug/srcs/main.s:120
       call gpio_set                  
   139da:	00000097          	auipc	ra,0x0
   139de:	cc8080e7          	jalr	-824(ra) # 136a2 <gpio_set>
C:\Users\liangfan\OneDrive\enbed\CH573\AHL-CH573-EXP-V1.3-20241124\03-Software\CH07\LST-ASM-CH573\Debug/srcs/main.s:122
                                      /* 灯的状态标志改为'L'（亮） */
       la a1,mFlag                    
   139e2:	1fff2597          	auipc	a1,0x1fff2
   139e6:	29458593          	addi	a1,a1,660 # 20005c76 <mFlag>
C:\Users\liangfan\OneDrive\enbed\CH573\AHL-CH573-EXP-V1.3-20241124\03-Software\CH07\LST-ASM-CH573\Debug/srcs/main.s:123
       li t1,'L'
   139ea:	04c00313          	li	t1,76
C:\Users\liangfan\OneDrive\enbed\CH573\AHL-CH573-EXP-V1.3-20241124\03-Software\CH07\LST-ASM-CH573\Debug/srcs/main.s:124
       sb t1,0(a1)
   139ee:	00658023          	sb	t1,0(a1)

000139f2 <Label>:
Label():
C:\Users\liangfan\OneDrive\enbed\CH573\AHL-CH573-EXP-V1.3-20241124\03-Software\CH07\LST-ASM-CH573\Debug/srcs/main.s:128
       
           /*测试代码部分[理解机器码存储]*/
Label:
	li  a0,0xDE
   139f2:	0de00513          	li	a0,222
C:\Users\liangfan\OneDrive\enbed\CH573\AHL-CH573-EXP-V1.3-20241124\03-Software\CH07\LST-ASM-CH573\Debug/srcs/main.s:130

	la a0,data_format1         /*输出格式送a0*/
   139f6:	1fff2517          	auipc	a0,0x1fff2
   139fa:	26f50513          	addi	a0,a0,623 # 20005c65 <data_format1>
C:\Users\liangfan\OneDrive\enbed\CH573\AHL-CH573-EXP-V1.3-20241124\03-Software\CH07\LST-ASM-CH573\Debug/srcs/main.s:131
	la a1,Label                /*a1中是Label地址*/
   139fe:	00000597          	auipc	a1,0x0
   13a02:	ff458593          	addi	a1,a1,-12 # 139f2 <Label>
C:\Users\liangfan\OneDrive\enbed\CH573\AHL-CH573-EXP-V1.3-20241124\03-Software\CH07\LST-ASM-CH573\Debug/srcs/main.s:132
	lbu a2,0(a1)               /*a2中是Label地址中的数据*/
   13a06:	0005c603          	lbu	a2,0(a1)
C:\Users\liangfan\OneDrive\enbed\CH573\AHL-CH573-EXP-V1.3-20241124\03-Software\CH07\LST-ASM-CH573\Debug/srcs/main.s:133
	call  printf
   13a0a:	00001097          	auipc	ra,0x1
   13a0e:	d3c080e7          	jalr	-708(ra) # 14746 <myprintf>
C:\Users\liangfan\OneDrive\enbed\CH573\AHL-CH573-EXP-V1.3-20241124\03-Software\CH07\LST-ASM-CH573\Debug/srcs/main.s:135

	la a0,data_format1
   13a12:	1fff2517          	auipc	a0,0x1fff2
   13a16:	25350513          	addi	a0,a0,595 # 20005c65 <data_format1>
C:\Users\liangfan\OneDrive\enbed\CH573\AHL-CH573-EXP-V1.3-20241124\03-Software\CH07\LST-ASM-CH573\Debug/srcs/main.s:136
	la a1,Label+1              /*a1中是Label+1地址*/
   13a1a:	00000597          	auipc	a1,0x0
   13a1e:	fd958593          	addi	a1,a1,-39 # 139f3 <Label+0x1>
C:\Users\liangfan\OneDrive\enbed\CH573\AHL-CH573-EXP-V1.3-20241124\03-Software\CH07\LST-ASM-CH573\Debug/srcs/main.s:137
	lbu a2,0(a1)
   13a22:	0005c603          	lbu	a2,0(a1)
C:\Users\liangfan\OneDrive\enbed\CH573\AHL-CH573-EXP-V1.3-20241124\03-Software\CH07\LST-ASM-CH573\Debug/srcs/main.s:138
	call  printf
   13a26:	00001097          	auipc	ra,0x1
   13a2a:	d20080e7          	jalr	-736(ra) # 14746 <myprintf>
C:\Users\liangfan\OneDrive\enbed\CH573\AHL-CH573-EXP-V1.3-20241124\03-Software\CH07\LST-ASM-CH573\Debug/srcs/main.s:140

	la a0,data_format1
   13a2e:	1fff2517          	auipc	a0,0x1fff2
   13a32:	23750513          	addi	a0,a0,567 # 20005c65 <data_format1>
C:\Users\liangfan\OneDrive\enbed\CH573\AHL-CH573-EXP-V1.3-20241124\03-Software\CH07\LST-ASM-CH573\Debug/srcs/main.s:141
	la a1,Label+2              /*a1中是Label+2地址*/
   13a36:	00000597          	auipc	a1,0x0
   13a3a:	fbe58593          	addi	a1,a1,-66 # 139f4 <Label+0x2>
C:\Users\liangfan\OneDrive\enbed\CH573\AHL-CH573-EXP-V1.3-20241124\03-Software\CH07\LST-ASM-CH573\Debug/srcs/main.s:142
	lbu a2,0(a1)
   13a3e:	0005c603          	lbu	a2,0(a1)
C:\Users\liangfan\OneDrive\enbed\CH573\AHL-CH573-EXP-V1.3-20241124\03-Software\CH07\LST-ASM-CH573\Debug/srcs/main.s:143
	call  printf
   13a42:	00001097          	auipc	ra,0x1
   13a46:	d04080e7          	jalr	-764(ra) # 14746 <myprintf>
C:\Users\liangfan\OneDrive\enbed\CH573\AHL-CH573-EXP-V1.3-20241124\03-Software\CH07\LST-ASM-CH573\Debug/srcs/main.s:145

	la a0,data_format1
   13a4a:	1fff2517          	auipc	a0,0x1fff2
   13a4e:	21b50513          	addi	a0,a0,539 # 20005c65 <data_format1>
C:\Users\liangfan\OneDrive\enbed\CH573\AHL-CH573-EXP-V1.3-20241124\03-Software\CH07\LST-ASM-CH573\Debug/srcs/main.s:146
	la a1,Label+3              /*r1中是Label+3地址*/
   13a52:	00000597          	auipc	a1,0x0
   13a56:	fa358593          	addi	a1,a1,-93 # 139f5 <Label+0x3>
C:\Users\liangfan\OneDrive\enbed\CH573\AHL-CH573-EXP-V1.3-20241124\03-Software\CH07\LST-ASM-CH573\Debug/srcs/main.s:147
	lbu a2,0(a1)
   13a5a:	0005c603          	lbu	a2,0(a1)
C:\Users\liangfan\OneDrive\enbed\CH573\AHL-CH573-EXP-V1.3-20241124\03-Software\CH07\LST-ASM-CH573\Debug/srcs/main.s:148
	call  printf
   13a5e:	00001097          	auipc	ra,0x1
   13a62:	ce8080e7          	jalr	-792(ra) # 14746 <myprintf>

00013a66 <main_exit>:
main_exit():
C:\Users\liangfan\OneDrive\enbed\CH573\AHL-CH573-EXP-V1.3-20241124\03-Software\CH07\LST-ASM-CH573\Debug/srcs/main.s:152
       
       
main_exit:
    j main_loop                       /* 继续循环 */
   13a66:	bd45                	j	13916 <main_loop>
C:\Users\liangfan\OneDrive\enbed\CH573\AHL-CH573-EXP-V1.3-20241124\03-Software\CH07\LST-ASM-CH573\Debug/srcs/main.s:155
/*【2】主循环部分（结尾）=========================================== */
    /* 从栈恢复现场（即使运行不到这里，每一个函数将栈恢复） */
    addi sp, sp, 48                   /* 释放栈帧 */
   13a68:	6145                	addi	sp,sp,48
C:\Users\liangfan\OneDrive\enbed\CH573\AHL-CH573-EXP-V1.3-20241124\03-Software\CH07\LST-ASM-CH573\Debug/srcs/main.s:156
    ret                               /* 返回 */
   13a6a:	8082                	ret
	...

00013a6e <memset>:
memset():
   13a6e:	433d                	li	t1,15
   13a70:	872a                	mv	a4,a0
   13a72:	02c37363          	bgeu	t1,a2,13a98 <memset+0x2a>
   13a76:	00f77793          	andi	a5,a4,15
   13a7a:	efbd                	bnez	a5,13af8 <memset+0x8a>
   13a7c:	e5ad                	bnez	a1,13ae6 <memset+0x78>
   13a7e:	ff067693          	andi	a3,a2,-16
   13a82:	8a3d                	andi	a2,a2,15
   13a84:	96ba                	add	a3,a3,a4
   13a86:	c30c                	sw	a1,0(a4)
   13a88:	c34c                	sw	a1,4(a4)
   13a8a:	c70c                	sw	a1,8(a4)
   13a8c:	c74c                	sw	a1,12(a4)
   13a8e:	0741                	addi	a4,a4,16
   13a90:	fed76be3          	bltu	a4,a3,13a86 <memset+0x18>
   13a94:	e211                	bnez	a2,13a98 <memset+0x2a>
   13a96:	8082                	ret
   13a98:	40c306b3          	sub	a3,t1,a2
   13a9c:	068a                	slli	a3,a3,0x2
   13a9e:	00000297          	auipc	t0,0x0
   13aa2:	9696                	add	a3,a3,t0
   13aa4:	00a68067          	jr	10(a3)
   13aa8:	00b70723          	sb	a1,14(a4) # 7800e <_data_lma+0x61f7e>
   13aac:	00b706a3          	sb	a1,13(a4)
   13ab0:	00b70623          	sb	a1,12(a4)
   13ab4:	00b705a3          	sb	a1,11(a4)
   13ab8:	00b70523          	sb	a1,10(a4)
   13abc:	00b704a3          	sb	a1,9(a4)
   13ac0:	00b70423          	sb	a1,8(a4)
   13ac4:	00b703a3          	sb	a1,7(a4)
   13ac8:	00b70323          	sb	a1,6(a4)
   13acc:	00b702a3          	sb	a1,5(a4)
   13ad0:	00b70223          	sb	a1,4(a4)
   13ad4:	00b701a3          	sb	a1,3(a4)
   13ad8:	00b70123          	sb	a1,2(a4)
   13adc:	00b700a3          	sb	a1,1(a4)
   13ae0:	00b70023          	sb	a1,0(a4)
   13ae4:	8082                	ret
   13ae6:	0ff5f593          	andi	a1,a1,255
   13aea:	00859693          	slli	a3,a1,0x8
   13aee:	8dd5                	or	a1,a1,a3
   13af0:	01059693          	slli	a3,a1,0x10
   13af4:	8dd5                	or	a1,a1,a3
   13af6:	b761                	j	13a7e <memset+0x10>
   13af8:	00279693          	slli	a3,a5,0x2
   13afc:	00000297          	auipc	t0,0x0
   13b00:	9696                	add	a3,a3,t0
   13b02:	8286                	mv	t0,ra
   13b04:	fa8680e7          	jalr	-88(a3)
   13b08:	8096                	mv	ra,t0
   13b0a:	17c1                	addi	a5,a5,-16
   13b0c:	8f1d                	sub	a4,a4,a5
   13b0e:	963e                	add	a2,a2,a5
   13b10:	f8c374e3          	bgeu	t1,a2,13a98 <memset+0x2a>
   13b14:	b7a5                	j	13a7c <memset+0xe>
	...

00013b18 <flash_erase>:
flash_erase():
C:\Users\liangfan\OneDrive\enbed\CH573\AHL-CH573-EXP-V1.3-20241124\03-Software\CH07\LST-ASM-CH573\Debug/srcc/flash.c:68
//函数返回：函数执行执行状态：0=正常；1=异常。
//参数说明：sect：目标扇区号（范围取决于实际芯片
//功能概要：擦除flash存储器的sect扇区
//======================================================================
uint8_t flash_erase(uint16_t sect)
{
   13b18:	1141                	addi	sp,sp,-16
C:\Users\liangfan\OneDrive\enbed\CH573\AHL-CH573-EXP-V1.3-20241124\03-Software\CH07\LST-ASM-CH573\Debug/srcc/flash.c:73
    uint32_t StartAddr;
    uint8_t flag;

    StartAddr = (uint32_t)(sect * Flash_Sect_size + Flash_Address);
    flag = FLASH_ROM_ERASE(StartAddr,4096);
   13b1a:	00c51593          	slli	a1,a0,0xc
   13b1e:	6685                	lui	a3,0x1
   13b20:	4601                	li	a2,0
   13b22:	4505                	li	a0,1
C:\Users\liangfan\OneDrive\enbed\CH573\AHL-CH573-EXP-V1.3-20241124\03-Software\CH07\LST-ASM-CH573\Debug/srcc/flash.c:68
{
   13b24:	c606                	sw	ra,12(sp)
C:\Users\liangfan\OneDrive\enbed\CH573\AHL-CH573-EXP-V1.3-20241124\03-Software\CH07\LST-ASM-CH573\Debug/srcc/flash.c:73
    flag = FLASH_ROM_ERASE(StartAddr,4096);
   13b26:	1fff2097          	auipc	ra,0x1fff2
   13b2a:	bca080e7          	jalr	-1078(ra) # 200056f0 <FLASH_EEPROM_CMD>
C:\Users\liangfan\OneDrive\enbed\CH573\AHL-CH573-EXP-V1.3-20241124\03-Software\CH07\LST-ASM-CH573\Debug/srcc/flash.c:77
//    uart_send1(UART_3, 'J');
    return flag;

}
   13b2e:	40b2                	lw	ra,12(sp)
   13b30:	0ff57513          	andi	a0,a0,255
   13b34:	0141                	addi	sp,sp,16
   13b36:	8082                	ret

00013b38 <flash_write_sect>:
flash_write_sect():
C:\Users\liangfan\OneDrive\enbed\CH573\AHL-CH573-EXP-V1.3-20241124\03-Software\CH07\LST-ASM-CH573\Debug/srcc/flash.c:89
//        buf：源数据缓冲区首地址
//功能概要：将buf开始的N字节写入到flash存储器的sect扇区的 offset处
//编程参考：暂无
//=======================================================================
uint8_t flash_write_sect(uint16_t sect,uint16_t offset,uint32_t N,uint8_t *buf)
{
   13b38:	87b6                	mv	a5,a3
C:\Users\liangfan\OneDrive\enbed\CH573\AHL-CH573-EXP-V1.3-20241124\03-Software\CH07\LST-ASM-CH573\Debug/srcc/flash.c:93
    uint32_t StartAddr;
    uint8_t flag;

    StartAddr = (uint32_t)(sect * Flash_Sect_size + offset + Flash_Address);
   13b3a:	0532                	slli	a0,a0,0xc
C:\Users\liangfan\OneDrive\enbed\CH573\AHL-CH573-EXP-V1.3-20241124\03-Software\CH07\LST-ASM-CH573\Debug/srcc/flash.c:89
{
   13b3c:	1141                	addi	sp,sp,-16
C:\Users\liangfan\OneDrive\enbed\CH573\AHL-CH573-EXP-V1.3-20241124\03-Software\CH07\LST-ASM-CH573\Debug/srcc/flash.c:94
    flag = FLASH_ROM_WRITE(StartAddr,buf,N);
   13b3e:	86b2                	mv	a3,a2
   13b40:	95aa                	add	a1,a1,a0
   13b42:	863e                	mv	a2,a5
   13b44:	4509                	li	a0,2
C:\Users\liangfan\OneDrive\enbed\CH573\AHL-CH573-EXP-V1.3-20241124\03-Software\CH07\LST-ASM-CH573\Debug/srcc/flash.c:89
{
   13b46:	c606                	sw	ra,12(sp)
C:\Users\liangfan\OneDrive\enbed\CH573\AHL-CH573-EXP-V1.3-20241124\03-Software\CH07\LST-ASM-CH573\Debug/srcc/flash.c:94
    flag = FLASH_ROM_WRITE(StartAddr,buf,N);
   13b48:	1fff2097          	auipc	ra,0x1fff2
   13b4c:	ba8080e7          	jalr	-1112(ra) # 200056f0 <FLASH_EEPROM_CMD>
C:\Users\liangfan\OneDrive\enbed\CH573\AHL-CH573-EXP-V1.3-20241124\03-Software\CH07\LST-ASM-CH573\Debug/srcc/flash.c:97

    return flag;
}
   13b50:	40b2                	lw	ra,12(sp)
   13b52:	0ff57513          	andi	a0,a0,255
   13b56:	0141                	addi	sp,sp,16
   13b58:	8082                	ret

00013b5a <flash_read_logic>:
flash_read_logic():
C:\Users\liangfan\OneDrive\enbed\CH573\AHL-CH573-EXP-V1.3-20241124\03-Software\CH07\LST-ASM-CH573\Debug/srcc/flash.c:226
//=======================================================================
void flash_read_logic(uint8_t* Buffer,uint16_t sect,uint16_t offset,uint32_t N)
{

    uint32_t i, Length = ( N + 3 ) >> 2;
    uint32_t* pCode = ( uint32_t* ) (sect * Flash_Sect_size + offset + Flash_Address);
   13b5a:	05b2                	slli	a1,a1,0xc
C:\Users\liangfan\OneDrive\enbed\CH573\AHL-CH573-EXP-V1.3-20241124\03-Software\CH07\LST-ASM-CH573\Debug/srcc/flash.c:225
    uint32_t i, Length = ( N + 3 ) >> 2;
   13b5c:	068d                	addi	a3,a3,3
C:\Users\liangfan\OneDrive\enbed\CH573\AHL-CH573-EXP-V1.3-20241124\03-Software\CH07\LST-ASM-CH573\Debug/srcc/flash.c:226
    uint32_t* pCode = ( uint32_t* ) (sect * Flash_Sect_size + offset + Flash_Address);
   13b5e:	962e                	add	a2,a2,a1
C:\Users\liangfan\OneDrive\enbed\CH573\AHL-CH573-EXP-V1.3-20241124\03-Software\CH07\LST-ASM-CH573\Debug/srcc/flash.c:229
    uint32_t* pBuf = ( uint32_t* ) Buffer;

    for ( i = 0; i < Length; i++ )
   13b60:	9af1                	andi	a3,a3,-4
   13b62:	4781                	li	a5,0
   13b64:	00f60733          	add	a4,a2,a5
C:\Users\liangfan\OneDrive\enbed\CH573\AHL-CH573-EXP-V1.3-20241124\03-Software\CH07\LST-ASM-CH573\Debug/srcc/flash.c:229 (discriminator 1)
   13b68:	00d79363          	bne	a5,a3,13b6e <flash_read_logic+0x14>
C:\Users\liangfan\OneDrive\enbed\CH573\AHL-CH573-EXP-V1.3-20241124\03-Software\CH07\LST-ASM-CH573\Debug/srcc/flash.c:234
    {
      *pBuf++ = *pCode++;
    }

}
   13b6c:	8082                	ret
C:\Users\liangfan\OneDrive\enbed\CH573\AHL-CH573-EXP-V1.3-20241124\03-Software\CH07\LST-ASM-CH573\Debug/srcc/flash.c:231 (discriminator 3)
      *pBuf++ = *pCode++;
   13b6e:	430c                	lw	a1,0(a4)
   13b70:	00f50733          	add	a4,a0,a5
   13b74:	0791                	addi	a5,a5,4
   13b76:	c30c                	sw	a1,0(a4)
   13b78:	b7f5                	j	13b64 <flash_read_logic+0xa>

00013b7a <flash_write_DoubleWord>:
flash_write_DoubleWord():
C:\Users\liangfan\OneDrive\enbed\CH573\AHL-CH573-EXP-V1.3-20241124\03-Software\CH07\LST-ASM-CH573\Debug/srcc/flash.c:287
//       data：写入的双字
//功能概要：Flash双字写入操作（STM32L433每次只能实现双字写入，先写低位字，再写高位字）
//编程参考：暂无
//======================================================================
uint8_t flash_write_DoubleWord(uint32_t addr,uint32_t *data_l,uint32_t *data_h)
{
   13b7a:	1141                	addi	sp,sp,-16
   13b7c:	c422                	sw	s0,8(sp)
   13b7e:	c226                	sw	s1,4(sp)
   13b80:	842a                	mv	s0,a0
   13b82:	84b2                	mv	s1,a2
C:\Users\liangfan\OneDrive\enbed\CH573\AHL-CH573-EXP-V1.3-20241124\03-Software\CH07\LST-ASM-CH573\Debug/srcc/flash.c:291
    uint8_t flag1;
    uint8_t flag2;

    flag1 = FLASH_ROM_WRITE(addr,data_l,4);
   13b84:	4691                	li	a3,4
   13b86:	862e                	mv	a2,a1
   13b88:	85aa                	mv	a1,a0
   13b8a:	4509                	li	a0,2
C:\Users\liangfan\OneDrive\enbed\CH573\AHL-CH573-EXP-V1.3-20241124\03-Software\CH07\LST-ASM-CH573\Debug/srcc/flash.c:287
{
   13b8c:	c606                	sw	ra,12(sp)
C:\Users\liangfan\OneDrive\enbed\CH573\AHL-CH573-EXP-V1.3-20241124\03-Software\CH07\LST-ASM-CH573\Debug/srcc/flash.c:291
    flag1 = FLASH_ROM_WRITE(addr,data_l,4);
   13b8e:	1fff2097          	auipc	ra,0x1fff2
   13b92:	b62080e7          	jalr	-1182(ra) # 200056f0 <FLASH_EEPROM_CMD>
C:\Users\liangfan\OneDrive\enbed\CH573\AHL-CH573-EXP-V1.3-20241124\03-Software\CH07\LST-ASM-CH573\Debug/srcc/flash.c:292
    flag2 = FLASH_ROM_WRITE((uint32_t)(addr+4),data_h,4);
   13b96:	8626                	mv	a2,s1
   13b98:	00440593          	addi	a1,s0,4
   13b9c:	4691                	li	a3,4
   13b9e:	4509                	li	a0,2
   13ba0:	1fff2097          	auipc	ra,0x1fff2
   13ba4:	b50080e7          	jalr	-1200(ra) # 200056f0 <FLASH_EEPROM_CMD>
C:\Users\liangfan\OneDrive\enbed\CH573\AHL-CH573-EXP-V1.3-20241124\03-Software\CH07\LST-ASM-CH573\Debug/srcc/flash.c:296

    return 0;

}
   13ba8:	40b2                	lw	ra,12(sp)
   13baa:	4422                	lw	s0,8(sp)
   13bac:	4492                	lw	s1,4(sp)
   13bae:	4501                	li	a0,0
   13bb0:	0141                	addi	sp,sp,16
   13bb2:	8082                	ret

00013bb4 <flash_Best>:
flash_Best():
C:\Users\liangfan\OneDrive\enbed\CH573\AHL-CH573-EXP-V1.3-20241124\03-Software\CH07\LST-ASM-CH573\Debug/srcc/flash.c:187
{
   13bb4:	7179                	addi	sp,sp,-48
C:\Users\liangfan\OneDrive\enbed\CH573\AHL-CH573-EXP-V1.3-20241124\03-Software\CH07\LST-ASM-CH573\Debug/srcc/flash.c:194
    addr = (uint32_t)(Flash_Address+sect*Flash_Sect_size+offset);
   13bb6:	0532                	slli	a0,a0,0xc
C:\Users\liangfan\OneDrive\enbed\CH573\AHL-CH573-EXP-V1.3-20241124\03-Software\CH07\LST-ASM-CH573\Debug/srcc/flash.c:187
{
   13bb8:	d422                	sw	s0,40(sp)
   13bba:	d226                	sw	s1,36(sp)
   13bbc:	d04a                	sw	s2,32(sp)
   13bbe:	d606                	sw	ra,44(sp)
   13bc0:	8932                	mv	s2,a2
C:\Users\liangfan\OneDrive\enbed\CH573\AHL-CH573-EXP-V1.3-20241124\03-Software\CH07\LST-ASM-CH573\Debug/srcc/flash.c:194
    addr = (uint32_t)(Flash_Address+sect*Flash_Sect_size+offset);
   13bc2:	00b504b3          	add	s1,a0,a1
C:\Users\liangfan\OneDrive\enbed\CH573\AHL-CH573-EXP-V1.3-20241124\03-Software\CH07\LST-ASM-CH573\Debug/srcc/flash.c:196
    for(i = 0; i < N; i+=8)
   13bc6:	4401                	li	s0,0
C:\Users\liangfan\OneDrive\enbed\CH573\AHL-CH573-EXP-V1.3-20241124\03-Software\CH07\LST-ASM-CH573\Debug/srcc/flash.c:196 (discriminator 1)
   13bc8:	01246963          	bltu	s0,s2,13bda <flash_Best+0x26>
C:\Users\liangfan\OneDrive\enbed\CH573\AHL-CH573-EXP-V1.3-20241124\03-Software\CH07\LST-ASM-CH573\Debug/srcc/flash.c:208
}
   13bcc:	50b2                	lw	ra,44(sp)
   13bce:	5422                	lw	s0,40(sp)
   13bd0:	5492                	lw	s1,36(sp)
   13bd2:	5902                	lw	s2,32(sp)
   13bd4:	4501                	li	a0,0
   13bd6:	6145                	addi	sp,sp,48
   13bd8:	8082                	ret
C:\Users\liangfan\OneDrive\enbed\CH573\AHL-CH573-EXP-V1.3-20241124\03-Software\CH07\LST-ASM-CH573\Debug/srcc/flash.c:199 (discriminator 3)
        temp_l = (uint32_t)((buf[i])|(buf[i+1]<<8)|(buf[i+2]<<16)|(buf[i+3]<<24));
   13bda:	00868733          	add	a4,a3,s0
   13bde:	00174783          	lbu	a5,1(a4)
   13be2:	00274603          	lbu	a2,2(a4)
C:\Users\liangfan\OneDrive\enbed\CH573\AHL-CH573-EXP-V1.3-20241124\03-Software\CH07\LST-ASM-CH573\Debug/srcc/flash.c:205 (discriminator 3)
        flash_write_DoubleWord((addr+i),addr2,addr1);
   13be6:	00940533          	add	a0,s0,s1
C:\Users\liangfan\OneDrive\enbed\CH573\AHL-CH573-EXP-V1.3-20241124\03-Software\CH07\LST-ASM-CH573\Debug/srcc/flash.c:199 (discriminator 3)
        temp_l = (uint32_t)((buf[i])|(buf[i+1]<<8)|(buf[i+2]<<16)|(buf[i+3]<<24));
   13bea:	07a2                	slli	a5,a5,0x8
   13bec:	0642                	slli	a2,a2,0x10
   13bee:	8fd1                	or	a5,a5,a2
   13bf0:	00074603          	lbu	a2,0(a4)
C:\Users\liangfan\OneDrive\enbed\CH573\AHL-CH573-EXP-V1.3-20241124\03-Software\CH07\LST-ASM-CH573\Debug/srcc/flash.c:205 (discriminator 3)
        flash_write_DoubleWord((addr+i),addr2,addr1);
   13bf4:	082c                	addi	a1,sp,24
C:\Users\liangfan\OneDrive\enbed\CH573\AHL-CH573-EXP-V1.3-20241124\03-Software\CH07\LST-ASM-CH573\Debug/srcc/flash.c:196 (discriminator 3)
    for(i = 0; i < N; i+=8)
   13bf6:	0421                	addi	s0,s0,8
C:\Users\liangfan\OneDrive\enbed\CH573\AHL-CH573-EXP-V1.3-20241124\03-Software\CH07\LST-ASM-CH573\Debug/srcc/flash.c:199 (discriminator 3)
        temp_l = (uint32_t)((buf[i])|(buf[i+1]<<8)|(buf[i+2]<<16)|(buf[i+3]<<24));
   13bf8:	8fd1                	or	a5,a5,a2
   13bfa:	00374603          	lbu	a2,3(a4)
   13bfe:	c636                	sw	a3,12(sp)
C:\Users\liangfan\OneDrive\enbed\CH573\AHL-CH573-EXP-V1.3-20241124\03-Software\CH07\LST-ASM-CH573\Debug/srcc/flash.c:196 (discriminator 3)
    for(i = 0; i < N; i+=8)
   13c00:	0442                	slli	s0,s0,0x10
C:\Users\liangfan\OneDrive\enbed\CH573\AHL-CH573-EXP-V1.3-20241124\03-Software\CH07\LST-ASM-CH573\Debug/srcc/flash.c:199 (discriminator 3)
        temp_l = (uint32_t)((buf[i])|(buf[i+1]<<8)|(buf[i+2]<<16)|(buf[i+3]<<24));
   13c02:	0662                	slli	a2,a2,0x18
   13c04:	8fd1                	or	a5,a5,a2
   13c06:	cc3e                	sw	a5,24(sp)
C:\Users\liangfan\OneDrive\enbed\CH573\AHL-CH573-EXP-V1.3-20241124\03-Software\CH07\LST-ASM-CH573\Debug/srcc/flash.c:201 (discriminator 3)
        temp_h = (uint32_t)((buf[i+4])|(buf[i+5]<<8)|(buf[i+6]<<16)|(buf[i+7]<<24));
   13c08:	00674603          	lbu	a2,6(a4)
   13c0c:	00574783          	lbu	a5,5(a4)
C:\Users\liangfan\OneDrive\enbed\CH573\AHL-CH573-EXP-V1.3-20241124\03-Software\CH07\LST-ASM-CH573\Debug/srcc/flash.c:196 (discriminator 3)
    for(i = 0; i < N; i+=8)
   13c10:	8041                	srli	s0,s0,0x10
C:\Users\liangfan\OneDrive\enbed\CH573\AHL-CH573-EXP-V1.3-20241124\03-Software\CH07\LST-ASM-CH573\Debug/srcc/flash.c:201 (discriminator 3)
        temp_h = (uint32_t)((buf[i+4])|(buf[i+5]<<8)|(buf[i+6]<<16)|(buf[i+7]<<24));
   13c12:	0642                	slli	a2,a2,0x10
   13c14:	07a2                	slli	a5,a5,0x8
   13c16:	8fd1                	or	a5,a5,a2
   13c18:	00474603          	lbu	a2,4(a4)
   13c1c:	00774703          	lbu	a4,7(a4)
   13c20:	8fd1                	or	a5,a5,a2
   13c22:	0762                	slli	a4,a4,0x18
   13c24:	8fd9                	or	a5,a5,a4
C:\Users\liangfan\OneDrive\enbed\CH573\AHL-CH573-EXP-V1.3-20241124\03-Software\CH07\LST-ASM-CH573\Debug/srcc/flash.c:205 (discriminator 3)
        flash_write_DoubleWord((addr+i),addr2,addr1);
   13c26:	0870                	addi	a2,sp,28
C:\Users\liangfan\OneDrive\enbed\CH573\AHL-CH573-EXP-V1.3-20241124\03-Software\CH07\LST-ASM-CH573\Debug/srcc/flash.c:201 (discriminator 3)
        temp_h = (uint32_t)((buf[i+4])|(buf[i+5]<<8)|(buf[i+6]<<16)|(buf[i+7]<<24));
   13c28:	ce3e                	sw	a5,28(sp)
C:\Users\liangfan\OneDrive\enbed\CH573\AHL-CH573-EXP-V1.3-20241124\03-Software\CH07\LST-ASM-CH573\Debug/srcc/flash.c:205 (discriminator 3)
        flash_write_DoubleWord((addr+i),addr2,addr1);
   13c2a:	00000097          	auipc	ra,0x0
   13c2e:	f50080e7          	jalr	-176(ra) # 13b7a <flash_write_DoubleWord>
C:\Users\liangfan\OneDrive\enbed\CH573\AHL-CH573-EXP-V1.3-20241124\03-Software\CH07\LST-ASM-CH573\Debug/srcc/flash.c:196 (discriminator 3)
    for(i = 0; i < N; i+=8)
   13c32:	46b2                	lw	a3,12(sp)
   13c34:	bf51                	j	13bc8 <flash_Best+0x14>

00013c36 <flash_write>:
flash_write():
C:\Users\liangfan\OneDrive\enbed\CH573\AHL-CH573-EXP-V1.3-20241124\03-Software\CH07\LST-ASM-CH573\Debug/srcc/flash.c:111
{
   13c36:	7179                	addi	sp,sp,-48
   13c38:	737d                	lui	t1,0xfffff
   13c3a:	d422                	sw	s0,40(sp)
   13c3c:	d226                	sw	s1,36(sp)
   13c3e:	d04a                	sw	s2,32(sp)
   13c40:	ce4e                	sw	s3,28(sp)
   13c42:	cc52                	sw	s4,24(sp)
   13c44:	d606                	sw	ra,44(sp)
   13c46:	0341                	addi	t1,t1,16
C:\Users\liangfan\OneDrive\enbed\CH573\AHL-CH573-EXP-V1.3-20241124\03-Software\CH07\LST-ASM-CH573\Debug/srcc/flash.c:116
    if(offset+N>Flash_Sect_size)
   13c48:	00c587b3          	add	a5,a1,a2
   13c4c:	6405                	lui	s0,0x1
C:\Users\liangfan\OneDrive\enbed\CH573\AHL-CH573-EXP-V1.3-20241124\03-Software\CH07\LST-ASM-CH573\Debug/srcc/flash.c:111
{
   13c4e:	911a                	add	sp,sp,t1
   13c50:	84aa                	mv	s1,a0
   13c52:	89ae                	mv	s3,a1
   13c54:	8932                	mv	s2,a2
   13c56:	8a36                	mv	s4,a3
C:\Users\liangfan\OneDrive\enbed\CH573\AHL-CH573-EXP-V1.3-20241124\03-Software\CH07\LST-ASM-CH573\Debug/srcc/flash.c:116
    if(offset+N>Flash_Sect_size)
   13c58:	04f45163          	bge	s0,a5,13c9a <flash_write+0x64>
C:\Users\liangfan\OneDrive\enbed\CH573\AHL-CH573-EXP-V1.3-20241124\03-Software\CH07\LST-ASM-CH573\Debug/srcc/flash.c:119
        flash_write_sect(sect,offset,Flash_Sect_size-offset,buf);
   13c5c:	8c0d                	sub	s0,s0,a1
   13c5e:	8622                	mv	a2,s0
   13c60:	00000097          	auipc	ra,0x0
   13c64:	ed8080e7          	jalr	-296(ra) # 13b38 <flash_write_sect>
C:\Users\liangfan\OneDrive\enbed\CH573\AHL-CH573-EXP-V1.3-20241124\03-Software\CH07\LST-ASM-CH573\Debug/srcc/flash.c:121
        flash_write_sect(sect+1,0,N-(Flash_Sect_size-offset),buf+(Flash_Sect_size-offset));
   13c68:	00148513          	addi	a0,s1,1
   13c6c:	0542                	slli	a0,a0,0x10
   13c6e:	008a06b3          	add	a3,s4,s0
   13c72:	40890633          	sub	a2,s2,s0
   13c76:	4581                	li	a1,0
   13c78:	8141                	srli	a0,a0,0x10
   13c7a:	00000097          	auipc	ra,0x0
   13c7e:	ebe080e7          	jalr	-322(ra) # 13b38 <flash_write_sect>
C:\Users\liangfan\OneDrive\enbed\CH573\AHL-CH573-EXP-V1.3-20241124\03-Software\CH07\LST-ASM-CH573\Debug/srcc/flash.c:141
}
   13c82:	6305                	lui	t1,0x1
   13c84:	1341                	addi	t1,t1,-16
   13c86:	911a                	add	sp,sp,t1
   13c88:	50b2                	lw	ra,44(sp)
   13c8a:	4501                	li	a0,0
   13c8c:	5422                	lw	s0,40(sp)
   13c8e:	5492                	lw	s1,36(sp)
   13c90:	5902                	lw	s2,32(sp)
   13c92:	49f2                	lw	s3,28(sp)
   13c94:	4a62                	lw	s4,24(sp)
   13c96:	6145                	addi	sp,sp,48
   13c98:	8082                	ret
C:\Users\liangfan\OneDrive\enbed\CH573\AHL-CH573-EXP-V1.3-20241124\03-Software\CH07\LST-ASM-CH573\Debug/srcc/flash.c:127
         flash_read_logic(data,sect,0,Flash_Sect_size); //将当前扇区的全部值读入数组中
   13c9a:	6785                	lui	a5,0x1
   13c9c:	978a                	add	a5,a5,sp
   13c9e:	85aa                	mv	a1,a0
   13ca0:	6685                	lui	a3,0x1
   13ca2:	40878533          	sub	a0,a5,s0
   13ca6:	4601                	li	a2,0
   13ca8:	00000097          	auipc	ra,0x0
   13cac:	eb2080e7          	jalr	-334(ra) # 13b5a <flash_read_logic>
C:\Users\liangfan\OneDrive\enbed\CH573\AHL-CH573-EXP-V1.3-20241124\03-Software\CH07\LST-ASM-CH573\Debug/srcc/flash.c:131
             data[offset+i] = buf[i];
   13cb0:	6705                	lui	a4,0x1
   13cb2:	970a                	add	a4,a4,sp
C:\Users\liangfan\OneDrive\enbed\CH573\AHL-CH573-EXP-V1.3-20241124\03-Software\CH07\LST-ASM-CH573\Debug/srcc/flash.c:129
         for(i = 0;i<N;i++)
   13cb4:	4781                	li	a5,0
C:\Users\liangfan\OneDrive\enbed\CH573\AHL-CH573-EXP-V1.3-20241124\03-Software\CH07\LST-ASM-CH573\Debug/srcc/flash.c:131
             data[offset+i] = buf[i];
   13cb6:	40870433          	sub	s0,a4,s0
C:\Users\liangfan\OneDrive\enbed\CH573\AHL-CH573-EXP-V1.3-20241124\03-Software\CH07\LST-ASM-CH573\Debug/srcc/flash.c:129 (discriminator 1)
         for(i = 0;i<N;i++)
   13cba:	01079713          	slli	a4,a5,0x10
   13cbe:	8341                	srli	a4,a4,0x10
   13cc0:	03276363          	bltu	a4,s2,13ce6 <flash_write+0xb0>
C:\Users\liangfan\OneDrive\enbed\CH573\AHL-CH573-EXP-V1.3-20241124\03-Software\CH07\LST-ASM-CH573\Debug/srcc/flash.c:134
         flash_erase(sect);
   13cc4:	8526                	mv	a0,s1
   13cc6:	00000097          	auipc	ra,0x0
   13cca:	e52080e7          	jalr	-430(ra) # 13b18 <flash_erase>
C:\Users\liangfan\OneDrive\enbed\CH573\AHL-CH573-EXP-V1.3-20241124\03-Software\CH07\LST-ASM-CH573\Debug/srcc/flash.c:136
         flash_Best(sect,0,Flash_Sect_size,data);
   13cce:	6785                	lui	a5,0x1
   13cd0:	978a                	add	a5,a5,sp
   13cd2:	76fd                	lui	a3,0xfffff
   13cd4:	96be                	add	a3,a3,a5
   13cd6:	6605                	lui	a2,0x1
   13cd8:	4581                	li	a1,0
   13cda:	8526                	mv	a0,s1
   13cdc:	00000097          	auipc	ra,0x0
   13ce0:	ed8080e7          	jalr	-296(ra) # 13bb4 <flash_Best>
   13ce4:	bf79                	j	13c82 <flash_write+0x4c>
C:\Users\liangfan\OneDrive\enbed\CH573\AHL-CH573-EXP-V1.3-20241124\03-Software\CH07\LST-ASM-CH573\Debug/srcc/flash.c:131 (discriminator 3)
             data[offset+i] = buf[i];
   13ce6:	00fa06b3          	add	a3,s4,a5
   13cea:	0006c683          	lbu	a3,0(a3) # fffff000 <R32_PB_PD_DRV+0xbfffdf2c>
   13cee:	00f98733          	add	a4,s3,a5
   13cf2:	9722                	add	a4,a4,s0
   13cf4:	00d70023          	sb	a3,0(a4) # 1000 <MCU_SECTORSIZE>
   13cf8:	0785                	addi	a5,a5,1
   13cfa:	b7c1                	j	13cba <flash_write+0x84>

00013cfc <IRQ_OPC_CHANGE>:
IRQ_OPC_CHANGE():
C:\Users\liangfan\OneDrive\enbed\CH573\AHL-CH573-EXP-V1.3-20241124\03-Software\CH07\LST-ASM-CH573\Debug/srcc/gec.c:25
    static uint32_t opcode = 0;
    uint32_t bios_addr=0, user_addr=0;  //函数入口地址
    uint32_t user_opc=0;
    uint32_t imm1=0,imm2=0;
    uint32_t user_pc=0;
    if(IRQ_NUM == SysTick_IRQn)     //对SysTick_Handler中断进行重定向
   13cfc:	47b1                	li	a5,12
   13cfe:	02f51563          	bne	a0,a5,13d28 <IRQ_OPC_CHANGE+0x2c>
C:\Users\liangfan\OneDrive\enbed\CH573\AHL-CH573-EXP-V1.3-20241124\03-Software\CH07\LST-ASM-CH573\Debug/srcc/gec.c:28
    {
        user_addr = (uint32_t)SysTick_Handler;
        bios_addr = (uint32_t)component_fun[28];
   13d02:	1fff2797          	auipc	a5,0x1fff2
   13d06:	f7678793          	addi	a5,a5,-138 # 20005c78 <_edata>
   13d0a:	439c                	lw	a5,0(a5)
C:\Users\liangfan\OneDrive\enbed\CH573\AHL-CH573-EXP-V1.3-20241124\03-Software\CH07\LST-ASM-CH573\Debug/srcc/gec.c:29
        user_opc = ((uint32_t *)user)[SysTick_IRQn+1];
   13d0c:	59d8                	lw	a4,52(a1)
C:\Users\liangfan\OneDrive\enbed\CH573\AHL-CH573-EXP-V1.3-20241124\03-Software\CH07\LST-ASM-CH573\Debug/srcc/gec.c:27
        user_addr = (uint32_t)SysTick_Handler;
   13d0e:	ffffe817          	auipc	a6,0xffffe
   13d12:	38e80813          	addi	a6,a6,910 # 1209c <SysTick_Handler>
C:\Users\liangfan\OneDrive\enbed\CH573\AHL-CH573-EXP-V1.3-20241124\03-Software\CH07\LST-ASM-CH573\Debug/srcc/gec.c:28
        bios_addr = (uint32_t)component_fun[28];
   13d16:	5bb4                	lw	a3,112(a5)
C:\Users\liangfan\OneDrive\enbed\CH573\AHL-CH573-EXP-V1.3-20241124\03-Software\CH07\LST-ASM-CH573\Debug/srcc/gec.c:50
    // printf("addr1:%lx\r\n", user_addr);
    // printf("addr2:%lx\r\n", bios_addr);
    // printf("opc:%lx\r\n", user_opc);

    //判断该指令是否为向前跳转，如果是向前跳转说明已经修改过了中断向量表，无需再次修改
    if((user_opc&0x80000000)) return ((uint32_t *)user)[IRQ_NUM+1];         
   13d18:	04075763          	bgez	a4,13d66 <IRQ_OPC_CHANGE+0x6a>
C:\Users\liangfan\OneDrive\enbed\CH573\AHL-CH573-EXP-V1.3-20241124\03-Software\CH07\LST-ASM-CH573\Debug/srcc/gec.c:50 (discriminator 1)
   13d1c:	0505                	addi	a0,a0,1
   13d1e:	050a                	slli	a0,a0,0x2
   13d20:	952e                	add	a0,a0,a1
   13d22:	411c                	lw	a5,0(a0)
C:\Users\liangfan\OneDrive\enbed\CH573\AHL-CH573-EXP-V1.3-20241124\03-Software\CH07\LST-ASM-CH573\Debug/srcc/gec.c:63
    imm2 = bios_addr - user_pc;
    // printf("imm2:%lx\r\n", imm2);
    opcode = (((imm2&0x100000)<<11) | ((imm2&0x7FE)<<20) | ((imm2&0x800)<<9) | (imm2&0xFF000)) | (0x0) | (0x6f);
    // printf("opcode:%lx\r\n", opcode);
    return opcode;
}
   13d24:	853e                	mv	a0,a5
   13d26:	8082                	ret
C:\Users\liangfan\OneDrive\enbed\CH573\AHL-CH573-EXP-V1.3-20241124\03-Software\CH07\LST-ASM-CH573\Debug/srcc/gec.c:31
    else if(IRQ_NUM == SWI_IRQn)    //对SysTick_Handler中断进行重定向
   13d28:	47b9                	li	a5,14
   13d2a:	00f51e63          	bne	a0,a5,13d46 <IRQ_OPC_CHANGE+0x4a>
C:\Users\liangfan\OneDrive\enbed\CH573\AHL-CH573-EXP-V1.3-20241124\03-Software\CH07\LST-ASM-CH573\Debug/srcc/gec.c:34
        bios_addr = (uint32_t)component_fun[29];
   13d2e:	1fff2797          	auipc	a5,0x1fff2
   13d32:	f4a78793          	addi	a5,a5,-182 # 20005c78 <_edata>
   13d36:	439c                	lw	a5,0(a5)
C:\Users\liangfan\OneDrive\enbed\CH573\AHL-CH573-EXP-V1.3-20241124\03-Software\CH07\LST-ASM-CH573\Debug/srcc/gec.c:33
        user_addr = (uint32_t)SW_Handler;
   13d38:	ffffe817          	auipc	a6,0xffffe
   13d3c:	36880813          	addi	a6,a6,872 # 120a0 <SW_Handler>
C:\Users\liangfan\OneDrive\enbed\CH573\AHL-CH573-EXP-V1.3-20241124\03-Software\CH07\LST-ASM-CH573\Debug/srcc/gec.c:35
        user_opc = ((uint32_t *)user)[SWI_IRQn+1];
   13d40:	5dd8                	lw	a4,60(a1)
C:\Users\liangfan\OneDrive\enbed\CH573\AHL-CH573-EXP-V1.3-20241124\03-Software\CH07\LST-ASM-CH573\Debug/srcc/gec.c:34
        bios_addr = (uint32_t)component_fun[29];
   13d42:	5bf4                	lw	a3,116(a5)
C:\Users\liangfan\OneDrive\enbed\CH573\AHL-CH573-EXP-V1.3-20241124\03-Software\CH07\LST-ASM-CH573\Debug/srcc/gec.c:35
        user_opc = ((uint32_t *)user)[SWI_IRQn+1];
   13d44:	bfd1                	j	13d18 <IRQ_OPC_CHANGE+0x1c>
C:\Users\liangfan\OneDrive\enbed\CH573\AHL-CH573-EXP-V1.3-20241124\03-Software\CH07\LST-ASM-CH573\Debug/srcc/gec.c:37
    else if(IRQ_NUM == UART1_IRQn)  //对SysTick_Handler中断进行重定向
   13d46:	476d                	li	a4,27
C:\Users\liangfan\OneDrive\enbed\CH573\AHL-CH573-EXP-V1.3-20241124\03-Software\CH07\LST-ASM-CH573\Debug/srcc/gec.c:44
       return 0;
   13d48:	4781                	li	a5,0
C:\Users\liangfan\OneDrive\enbed\CH573\AHL-CH573-EXP-V1.3-20241124\03-Software\CH07\LST-ASM-CH573\Debug/srcc/gec.c:37
    else if(IRQ_NUM == UART1_IRQn)  //对SysTick_Handler中断进行重定向
   13d4a:	fce51de3          	bne	a0,a4,13d24 <IRQ_OPC_CHANGE+0x28>
C:\Users\liangfan\OneDrive\enbed\CH573\AHL-CH573-EXP-V1.3-20241124\03-Software\CH07\LST-ASM-CH573\Debug/srcc/gec.c:40
        bios_addr = (uint32_t)component_fun[30];
   13d4e:	1fff2797          	auipc	a5,0x1fff2
   13d52:	f2a78793          	addi	a5,a5,-214 # 20005c78 <_edata>
   13d56:	439c                	lw	a5,0(a5)
C:\Users\liangfan\OneDrive\enbed\CH573\AHL-CH573-EXP-V1.3-20241124\03-Software\CH07\LST-ASM-CH573\Debug/srcc/gec.c:39
        user_addr = (uint32_t)UART1_IRQHandler;
   13d58:	ffffe817          	auipc	a6,0xffffe
   13d5c:	37480813          	addi	a6,a6,884 # 120cc <UART1_IRQHandler>
C:\Users\liangfan\OneDrive\enbed\CH573\AHL-CH573-EXP-V1.3-20241124\03-Software\CH07\LST-ASM-CH573\Debug/srcc/gec.c:41
        user_opc = ((uint32_t *)user)[UART1_IRQn+1];
   13d60:	59b8                	lw	a4,112(a1)
C:\Users\liangfan\OneDrive\enbed\CH573\AHL-CH573-EXP-V1.3-20241124\03-Software\CH07\LST-ASM-CH573\Debug/srcc/gec.c:40
        bios_addr = (uint32_t)component_fun[30];
   13d62:	5fb4                	lw	a3,120(a5)
C:\Users\liangfan\OneDrive\enbed\CH573\AHL-CH573-EXP-V1.3-20241124\03-Software\CH07\LST-ASM-CH573\Debug/srcc/gec.c:41
        user_opc = ((uint32_t *)user)[UART1_IRQn+1];
   13d64:	bf55                	j	13d18 <IRQ_OPC_CHANGE+0x1c>
C:\Users\liangfan\OneDrive\enbed\CH573\AHL-CH573-EXP-V1.3-20241124\03-Software\CH07\LST-ASM-CH573\Debug/srcc/gec.c:52
    imm1 = ( ((user_opc&0x80000000)>>11) | ((user_opc&0x7FE00000)>>20) | ((user_opc&0x00100000)>>9) | ((user_opc&0x000FF000)) );
   13d66:	6585                	lui	a1,0x1
   13d68:	01475793          	srli	a5,a4,0x14
   13d6c:	00975613          	srli	a2,a4,0x9
   13d70:	80058593          	addi	a1,a1,-2048 # 800 <LIGHT_BLUE+0x6f2>
   13d74:	8e6d                	and	a2,a2,a1
   13d76:	7fe7f793          	andi	a5,a5,2046
   13d7a:	8fd1                	or	a5,a5,a2
   13d7c:	000ff637          	lui	a2,0xff
   13d80:	8f71                	and	a4,a4,a2
   13d82:	8fd9                	or	a5,a5,a4
C:\Users\liangfan\OneDrive\enbed\CH573\AHL-CH573-EXP-V1.3-20241124\03-Software\CH07\LST-ASM-CH573\Debug/srcc/gec.c:58
    imm2 = bios_addr - user_pc;
   13d84:	410686b3          	sub	a3,a3,a6
   13d88:	97b6                	add	a5,a5,a3
C:\Users\liangfan\OneDrive\enbed\CH573\AHL-CH573-EXP-V1.3-20241124\03-Software\CH07\LST-ASM-CH573\Debug/srcc/gec.c:60
    opcode = (((imm2&0x100000)<<11) | ((imm2&0x7FE)<<20) | ((imm2&0x800)<<9) | (imm2&0xFF000)) | (0x0) | (0x6f);
   13d8a:	00b79513          	slli	a0,a5,0xb
   13d8e:	80000737          	lui	a4,0x80000
   13d92:	8d79                	and	a0,a0,a4
   13d94:	001006b7          	lui	a3,0x100
   13d98:	00979713          	slli	a4,a5,0x9
   13d9c:	8f75                	and	a4,a4,a3
   13d9e:	8d59                	or	a0,a0,a4
   13da0:	8e7d                	and	a2,a2,a5
   13da2:	7fe00737          	lui	a4,0x7fe00
   13da6:	07d2                	slli	a5,a5,0x14
   13da8:	8d51                	or	a0,a0,a2
   13daa:	8ff9                	and	a5,a5,a4
   13dac:	8fc9                	or	a5,a5,a0
   13dae:	06f7e793          	ori	a5,a5,111
C:\Users\liangfan\OneDrive\enbed\CH573\AHL-CH573-EXP-V1.3-20241124\03-Software\CH07\LST-ASM-CH573\Debug/srcc/gec.c:62
    return opcode;
   13db2:	bf8d                	j	13d24 <IRQ_OPC_CHANGE+0x28>

00013db4 <Vectors_Init>:
Vectors_Init():
C:\Users\liangfan\OneDrive\enbed\CH573\AHL-CH573-EXP-V1.3-20241124\03-Software\CH07\LST-ASM-CH573\Debug/srcc/gec.c:72
//参数说明：无
//功能概要：User对BIOS中断向量表的部分继承,构件库函数指针初始化
//修改信息：WYH，20200805，规范
//======================================================================
void  Vectors_Init()
{
   13db4:	716d                	addi	sp,sp,-272
C:\Users\liangfan\OneDrive\enbed\CH573\AHL-CH573-EXP-V1.3-20241124\03-Software\CH07\LST-ASM-CH573\Debug/srcc/gec.c:82
    // {
    //     flash_write_physical((MCU_SECTOR_NUM-1)*MCU_SECTORSIZE+
    //     MCU_FLASH_ADDR_START,24,(uint8_t *)"0123456789ABCDEF20200716");
    // }
    //（1）给component_fun赋值，SYSTEM_FUNCTION函数用
    component_fun=(void **)(MCU_FLASH_ADDR_START+GEC_COMPONENT_LST_START*MCU_SECTORSIZE);
   13db6:	67c1                	lui	a5,0x10
C:\Users\liangfan\OneDrive\enbed\CH573\AHL-CH573-EXP-V1.3-20241124\03-Software\CH07\LST-ASM-CH573\Debug/srcc/gec.c:87
    
    uint8_t user[MCU_SECTORSIZE/16];                    //User向量表变量数组
    uint32_t opcode;
    //（2.1）读取User程序的中断向量表各中断处理程序首地址赋并给user数组
    flash_read_logic(user,GEC_USER_SECTOR_START,0,MCU_SECTORSIZE/16);
   13db8:	10000693          	li	a3,256
   13dbc:	4601                	li	a2,0
   13dbe:	45c9                	li	a1,18
   13dc0:	850a                	mv	a0,sp
C:\Users\liangfan\OneDrive\enbed\CH573\AHL-CH573-EXP-V1.3-20241124\03-Software\CH07\LST-ASM-CH573\Debug/srcc/gec.c:72
{
   13dc2:	10112623          	sw	ra,268(sp)
C:\Users\liangfan\OneDrive\enbed\CH573\AHL-CH573-EXP-V1.3-20241124\03-Software\CH07\LST-ASM-CH573\Debug/srcc/gec.c:82
    component_fun=(void **)(MCU_FLASH_ADDR_START+GEC_COMPONENT_LST_START*MCU_SECTORSIZE);
   13dc6:	1fff2717          	auipc	a4,0x1fff2
   13dca:	eaf72923          	sw	a5,-334(a4) # 20005c78 <_edata>
C:\Users\liangfan\OneDrive\enbed\CH573\AHL-CH573-EXP-V1.3-20241124\03-Software\CH07\LST-ASM-CH573\Debug/srcc/gec.c:87
    flash_read_logic(user,GEC_USER_SECTOR_START,0,MCU_SECTORSIZE/16);
   13dce:	00000097          	auipc	ra,0x0
   13dd2:	d8c080e7          	jalr	-628(ra) # 13b5a <flash_read_logic>
C:\Users\liangfan\OneDrive\enbed\CH573\AHL-CH573-EXP-V1.3-20241124\03-Software\CH07\LST-ASM-CH573\Debug/srcc/gec.c:89
    // （2.2）读取User程序的中断向量表各中断处理程序首地址赋并给user数组
    flash_erase(GEC_USER_SECTOR_START);
   13dd6:	4549                	li	a0,18
   13dd8:	00000097          	auipc	ra,0x0
   13ddc:	d40080e7          	jalr	-704(ra) # 13b18 <flash_erase>
C:\Users\liangfan\OneDrive\enbed\CH573\AHL-CH573-EXP-V1.3-20241124\03-Software\CH07\LST-ASM-CH573\Debug/srcc/gec.c:92
    //重定向 UART1_IRQHandler
    // user[112]=(uint8_t)(0x6f); user[113]=(uint8_t)(0x40); user[114]=(uint8_t)(0xaf); user[115]=(uint8_t)(0x8a);
    opcode = IRQ_OPC_CHANGE(UART1_IRQn, user);
   13de0:	858a                	mv	a1,sp
   13de2:	456d                	li	a0,27
   13de4:	00000097          	auipc	ra,0x0
   13de8:	f18080e7          	jalr	-232(ra) # 13cfc <IRQ_OPC_CHANGE>
C:\Users\liangfan\OneDrive\enbed\CH573\AHL-CH573-EXP-V1.3-20241124\03-Software\CH07\LST-ASM-CH573\Debug/srcc/gec.c:93
    ((uint32_t *)user)[UART1_IRQn+1] = opcode;
   13dec:	d8aa                	sw	a0,112(sp)
C:\Users\liangfan\OneDrive\enbed\CH573\AHL-CH573-EXP-V1.3-20241124\03-Software\CH07\LST-ASM-CH573\Debug/srcc/gec.c:97
    #if (RTThread_Start == 0)
        //重定向 SW_Handler
        // user[60]=(uint8_t)(0x6f); user[61]=(uint8_t)(0x40); user[62]=(uint8_t)(0x0f); user[63]=(uint8_t)(0xdb);
        opcode = IRQ_OPC_CHANGE(SWI_IRQn, user);
   13dee:	858a                	mv	a1,sp
   13df0:	4539                	li	a0,14
   13df2:	00000097          	auipc	ra,0x0
   13df6:	f0a080e7          	jalr	-246(ra) # 13cfc <IRQ_OPC_CHANGE>
C:\Users\liangfan\OneDrive\enbed\CH573\AHL-CH573-EXP-V1.3-20241124\03-Software\CH07\LST-ASM-CH573\Debug/srcc/gec.c:98
        ((uint32_t *)user)[SWI_IRQn+1] = opcode;
   13dfa:	de2a                	sw	a0,60(sp)
C:\Users\liangfan\OneDrive\enbed\CH573\AHL-CH573-EXP-V1.3-20241124\03-Software\CH07\LST-ASM-CH573\Debug/srcc/gec.c:101
        //重定向 SysTickHandler
        // user[52]=(uint8_t)(0x6f); user[53]=(uint8_t)(0x40); user[54]=(uint8_t)(0x0f); user[55]=(uint8_t)(0x86);
        opcode = IRQ_OPC_CHANGE(SysTick_IRQn, user);
   13dfc:	858a                	mv	a1,sp
   13dfe:	4531                	li	a0,12
   13e00:	00000097          	auipc	ra,0x0
   13e04:	efc080e7          	jalr	-260(ra) # 13cfc <IRQ_OPC_CHANGE>
C:\Users\liangfan\OneDrive\enbed\CH573\AHL-CH573-EXP-V1.3-20241124\03-Software\CH07\LST-ASM-CH573\Debug/srcc/gec.c:102
        ((uint32_t *)user)[SysTick_IRQn+1] = opcode;
   13e08:	da2a                	sw	a0,52(sp)
C:\Users\liangfan\OneDrive\enbed\CH573\AHL-CH573-EXP-V1.3-20241124\03-Software\CH07\LST-ASM-CH573\Debug/srcc/gec.c:105
    #endif
    //（2.3）将修改后的user数组写回User中断向量表
    flash_write(GEC_USER_SECTOR_START,0,MCU_SECTORSIZE/16,user);
   13e0a:	868a                	mv	a3,sp
   13e0c:	10000613          	li	a2,256
   13e10:	4581                	li	a1,0
   13e12:	4549                	li	a0,18
   13e14:	00000097          	auipc	ra,0x0
   13e18:	e22080e7          	jalr	-478(ra) # 13c36 <flash_write>
C:\Users\liangfan\OneDrive\enbed\CH573\AHL-CH573-EXP-V1.3-20241124\03-Software\CH07\LST-ASM-CH573\Debug/srcc/gec.c:108

    //（4）printf提示
    printf("  【User提示】：将进入User的main函数执行...\r\n\n");
   13e1c:	00002517          	auipc	a0,0x2
   13e20:	07050513          	addi	a0,a0,112 # 15e8c <strlen+0x14>
   13e24:	00001097          	auipc	ra,0x1
   13e28:	922080e7          	jalr	-1758(ra) # 14746 <myprintf>
C:\Users\liangfan\OneDrive\enbed\CH573\AHL-CH573-EXP-V1.3-20241124\03-Software\CH07\LST-ASM-CH573\Debug/srcc/gec.c:111

    // #endif
}
   13e2c:	10c12083          	lw	ra,268(sp)
   13e30:	6151                	addi	sp,sp,272
   13e32:	8082                	ret

00013e34 <uart_send1>:
uart_is_uartNo():
C:\Users\liangfan\OneDrive\enbed\CH573\AHL-CH573-EXP-V1.3-20241124\03-Software\CH07\LST-ASM-CH573\Debug/srcc/uart.c:828
//参数说明：串口号uartNo  :UART_1、UART_2、UART_3
//功能概要：为程序健壮性而判断uartNo是否在串口数字范围内
//=====================================================================
uint8_t uart_is_uartNo(uint8_t uartNo)
{
    if(uartNo < UART_0 || uartNo > UART_3)
   13e34:	470d                	li	a4,3
   13e36:	02a76a63          	bltu	a4,a0,13e6a <uart_send1+0x36>
uart_send1():
C:\Users\liangfan\OneDrive\enbed\CH573\AHL-CH573-EXP-V1.3-20241124\03-Software\CH07\LST-ASM-CH573\Debug/srcc/uart.c:206
    switch (uartNo)
   13e3a:	67c1                	lui	a5,0x10
   13e3c:	4689                	li	a3,2
   13e3e:	bbb78793          	addi	a5,a5,-1093 # fbbb <MCU_SECTORSIZE+0xebbb>
   13e42:	04d50063          	beq	a0,a3,13e82 <uart_send1+0x4e>
   13e46:	04e50b63          	beq	a0,a4,13e9c <uart_send1+0x68>
   13e4a:	4705                	li	a4,1
C:\Users\liangfan\OneDrive\enbed\CH573\AHL-CH573-EXP-V1.3-20241124\03-Software\CH07\LST-ASM-CH573\Debug/srcc/uart.c:211
            if(R8_UART0_LSR &RB_LSR_TX_FIFO_EMP){
   13e4c:	400036b7          	lui	a3,0x40003
   13e50:	02e50163          	beq	a0,a4,13e72 <uart_send1+0x3e>
   13e54:	0056c703          	lbu	a4,5(a3) # 40003005 <R32_PB_PD_DRV+0x1f31>
   13e58:	02077713          	andi	a4,a4,32
   13e5c:	c709                	beqz	a4,13e66 <uart_send1+0x32>
C:\Users\liangfan\OneDrive\enbed\CH573\AHL-CH573-EXP-V1.3-20241124\03-Software\CH07\LST-ASM-CH573\Debug/srcc/uart.c:212
              R8_UART0_THR = ch;
   13e5e:	00b68423          	sb	a1,8(a3)
C:\Users\liangfan\OneDrive\enbed\CH573\AHL-CH573-EXP-V1.3-20241124\03-Software\CH07\LST-ASM-CH573\Debug/srcc/uart.c:251
        return 1; //成功发送
   13e62:	4505                	li	a0,1
C:\Users\liangfan\OneDrive\enbed\CH573\AHL-CH573-EXP-V1.3-20241124\03-Software\CH07\LST-ASM-CH573\Debug/srcc/uart.c:231
              break;
   13e64:	8082                	ret
   13e66:	17fd                	addi	a5,a5,-1
C:\Users\liangfan\OneDrive\enbed\CH573\AHL-CH573-EXP-V1.3-20241124\03-Software\CH07\LST-ASM-CH573\Debug/srcc/uart.c:209 (discriminator 2)
          for (t = 0; t < 0xFBBB; t++)//查询指定次数
   13e68:	f7f5                	bnez	a5,13e54 <uart_send1+0x20>
C:\Users\liangfan\OneDrive\enbed\CH573\AHL-CH573-EXP-V1.3-20241124\03-Software\CH07\LST-ASM-CH573\Debug/srcc/uart.c:203
        return 0;
   13e6a:	4501                	li	a0,0
C:\Users\liangfan\OneDrive\enbed\CH573\AHL-CH573-EXP-V1.3-20241124\03-Software\CH07\LST-ASM-CH573\Debug/srcc/uart.c:252
}
   13e6c:	8082                	ret
   13e6e:	17fd                	addi	a5,a5,-1
C:\Users\liangfan\OneDrive\enbed\CH573\AHL-CH573-EXP-V1.3-20241124\03-Software\CH07\LST-ASM-CH573\Debug/srcc/uart.c:218 (discriminator 2)
          for (t = 0; t < 0xFBBB; t++)//查询指定次数
   13e70:	dfed                	beqz	a5,13e6a <uart_send1+0x36>
C:\Users\liangfan\OneDrive\enbed\CH573\AHL-CH573-EXP-V1.3-20241124\03-Software\CH07\LST-ASM-CH573\Debug/srcc/uart.c:220
            if(R8_UART1_LSR &RB_LSR_TX_FIFO_EMP){
   13e72:	4056c703          	lbu	a4,1029(a3)
   13e76:	02077713          	andi	a4,a4,32
   13e7a:	db75                	beqz	a4,13e6e <uart_send1+0x3a>
C:\Users\liangfan\OneDrive\enbed\CH573\AHL-CH573-EXP-V1.3-20241124\03-Software\CH07\LST-ASM-CH573\Debug/srcc/uart.c:221
              R8_UART1_THR = ch;
   13e7c:	40b68423          	sb	a1,1032(a3)
C:\Users\liangfan\OneDrive\enbed\CH573\AHL-CH573-EXP-V1.3-20241124\03-Software\CH07\LST-ASM-CH573\Debug/srcc/uart.c:222
              break;
   13e80:	8082                	ret
C:\Users\liangfan\OneDrive\enbed\CH573\AHL-CH573-EXP-V1.3-20241124\03-Software\CH07\LST-ASM-CH573\Debug/srcc/uart.c:229
            if(R8_UART2_LSR &RB_LSR_TX_FIFO_EMP){
   13e82:	400046b7          	lui	a3,0x40004
   13e86:	8056c703          	lbu	a4,-2043(a3) # 40003805 <R32_PB_PD_DRV+0x2731>
   13e8a:	02077713          	andi	a4,a4,32
   13e8e:	c701                	beqz	a4,13e96 <uart_send1+0x62>
C:\Users\liangfan\OneDrive\enbed\CH573\AHL-CH573-EXP-V1.3-20241124\03-Software\CH07\LST-ASM-CH573\Debug/srcc/uart.c:230
              R8_UART2_THR = ch;
   13e90:	80b68423          	sb	a1,-2040(a3)
   13e94:	b7f9                	j	13e62 <uart_send1+0x2e>
   13e96:	17fd                	addi	a5,a5,-1
C:\Users\liangfan\OneDrive\enbed\CH573\AHL-CH573-EXP-V1.3-20241124\03-Software\CH07\LST-ASM-CH573\Debug/srcc/uart.c:227 (discriminator 2)
          for (t = 0; t < 0xFBBB; t++)//查询指定次数
   13e98:	f7fd                	bnez	a5,13e86 <uart_send1+0x52>
   13e9a:	bfc1                	j	13e6a <uart_send1+0x36>
C:\Users\liangfan\OneDrive\enbed\CH573\AHL-CH573-EXP-V1.3-20241124\03-Software\CH07\LST-ASM-CH573\Debug/srcc/uart.c:238
            if(R8_UART3_LSR &RB_LSR_TX_FIFO_EMP){
   13e9c:	400046b7          	lui	a3,0x40004
   13ea0:	c056c703          	lbu	a4,-1019(a3) # 40003c05 <R32_PB_PD_DRV+0x2b31>
   13ea4:	02077713          	andi	a4,a4,32
   13ea8:	c701                	beqz	a4,13eb0 <uart_send1+0x7c>
C:\Users\liangfan\OneDrive\enbed\CH573\AHL-CH573-EXP-V1.3-20241124\03-Software\CH07\LST-ASM-CH573\Debug/srcc/uart.c:239
              R8_UART3_THR = ch;
   13eaa:	c0b68423          	sb	a1,-1016(a3)
C:\Users\liangfan\OneDrive\enbed\CH573\AHL-CH573-EXP-V1.3-20241124\03-Software\CH07\LST-ASM-CH573\Debug/srcc/uart.c:240
              break;
   13eae:	bf55                	j	13e62 <uart_send1+0x2e>
   13eb0:	17fd                	addi	a5,a5,-1
C:\Users\liangfan\OneDrive\enbed\CH573\AHL-CH573-EXP-V1.3-20241124\03-Software\CH07\LST-ASM-CH573\Debug/srcc/uart.c:236 (discriminator 2)
          for (t = 0; t < 0xFBBB; t++)//查询指定次数
   13eb2:	f7fd                	bnez	a5,13ea0 <uart_send1+0x6c>
   13eb4:	bf5d                	j	13e6a <uart_send1+0x36>

00013eb6 <printk_putc>:
printk_putc():
C:\Users\liangfan\OneDrive\enbed\CH573\AHL-CH573-EXP-V1.3-20241124\03-Software\CH07\LST-ASM-CH573\Debug/srcc/printf.c:29
//参数说明：data:数据：通过串口发送的一字节数据
//函数返回：无
//======================================================================
static void printk_putc(int c, int *count, PRINTK_INFO *info)
{
	switch (info->dest) {
   13eb6:	421c                	lw	a5,0(a2)
   13eb8:	4705                	li	a4,1
   13eba:	00e78963          	beq	a5,a4,13ecc <printk_putc+0x16>
   13ebe:	4709                	li	a4,2
   13ec0:	02e78463          	beq	a5,a4,13ee8 <printk_putc+0x32>
C:\Users\liangfan\OneDrive\enbed\CH573\AHL-CH573-EXP-V1.3-20241124\03-Software\CH07\LST-ASM-CH573\Debug/srcc/printf.c:40
		++(info->loc);
		break;
	default:
		break;
	}
	*count += 1;
   13ec4:	419c                	lw	a5,0(a1)
   13ec6:	0785                	addi	a5,a5,1
   13ec8:	c19c                	sw	a5,0(a1)
   13eca:	8082                	ret
C:\Users\liangfan\OneDrive\enbed\CH573\AHL-CH573-EXP-V1.3-20241124\03-Software\CH07\LST-ASM-CH573\Debug/srcc/printf.c:31
		info->func((char) c);
   13ecc:	425c                	lw	a5,4(a2)
C:\Users\liangfan\OneDrive\enbed\CH573\AHL-CH573-EXP-V1.3-20241124\03-Software\CH07\LST-ASM-CH573\Debug/srcc/printf.c:28
{
   13ece:	1101                	addi	sp,sp,-32
C:\Users\liangfan\OneDrive\enbed\CH573\AHL-CH573-EXP-V1.3-20241124\03-Software\CH07\LST-ASM-CH573\Debug/srcc/printf.c:31
		info->func((char) c);
   13ed0:	0562                	slli	a0,a0,0x18
C:\Users\liangfan\OneDrive\enbed\CH573\AHL-CH573-EXP-V1.3-20241124\03-Software\CH07\LST-ASM-CH573\Debug/srcc/printf.c:28
{
   13ed2:	ce06                	sw	ra,28(sp)
C:\Users\liangfan\OneDrive\enbed\CH573\AHL-CH573-EXP-V1.3-20241124\03-Software\CH07\LST-ASM-CH573\Debug/srcc/printf.c:31
		info->func((char) c);
   13ed4:	8561                	srai	a0,a0,0x18
   13ed6:	c62e                	sw	a1,12(sp)
   13ed8:	9782                	jalr	a5
C:\Users\liangfan\OneDrive\enbed\CH573\AHL-CH573-EXP-V1.3-20241124\03-Software\CH07\LST-ASM-CH573\Debug/srcc/printf.c:32
		break;
   13eda:	45b2                	lw	a1,12(sp)
C:\Users\liangfan\OneDrive\enbed\CH573\AHL-CH573-EXP-V1.3-20241124\03-Software\CH07\LST-ASM-CH573\Debug/srcc/printf.c:41
}
   13edc:	40f2                	lw	ra,28(sp)
C:\Users\liangfan\OneDrive\enbed\CH573\AHL-CH573-EXP-V1.3-20241124\03-Software\CH07\LST-ASM-CH573\Debug/srcc/printf.c:40
	*count += 1;
   13ede:	419c                	lw	a5,0(a1)
   13ee0:	0785                	addi	a5,a5,1
   13ee2:	c19c                	sw	a5,0(a1)
C:\Users\liangfan\OneDrive\enbed\CH573\AHL-CH573-EXP-V1.3-20241124\03-Software\CH07\LST-ASM-CH573\Debug/srcc/printf.c:41
}
   13ee4:	6105                	addi	sp,sp,32
   13ee6:	8082                	ret
C:\Users\liangfan\OneDrive\enbed\CH573\AHL-CH573-EXP-V1.3-20241124\03-Software\CH07\LST-ASM-CH573\Debug/srcc/printf.c:34
		*(info->loc) = (unsigned char) c;
   13ee8:	461c                	lw	a5,8(a2)
   13eea:	00a78023          	sb	a0,0(a5)
C:\Users\liangfan\OneDrive\enbed\CH573\AHL-CH573-EXP-V1.3-20241124\03-Software\CH07\LST-ASM-CH573\Debug/srcc/printf.c:35
		++(info->loc);
   13eee:	461c                	lw	a5,8(a2)
   13ef0:	0785                	addi	a5,a5,1
   13ef2:	c61c                	sw	a5,8(a2)
C:\Users\liangfan\OneDrive\enbed\CH573\AHL-CH573-EXP-V1.3-20241124\03-Software\CH07\LST-ASM-CH573\Debug/srcc/printf.c:36
		break;
   13ef4:	bfc1                	j	13ec4 <printk_putc+0xe>

00013ef6 <printk_mknumstr>:
printk_mknumstr():
C:\Users\liangfan\OneDrive\enbed\CH573\AHL-CH573-EXP-V1.3-20241124\03-Software\CH07\LST-ASM-CH573\Debug/srcc/printf.c:131
	int nlen;
	char *nstrp;

	nlen = 0;
	nstrp = numstr;
	*nstrp++ = '\0';
   13ef6:	00050023          	sb	zero,0(a0)
C:\Users\liangfan\OneDrive\enbed\CH573\AHL-CH573-EXP-V1.3-20241124\03-Software\CH07\LST-ASM-CH573\Debug/srcc/printf.c:134

	if (neg) {
		a = *(int *) nump;
   13efa:	419c                	lw	a5,0(a1)
C:\Users\liangfan\OneDrive\enbed\CH573\AHL-CH573-EXP-V1.3-20241124\03-Software\CH07\LST-ASM-CH573\Debug/srcc/printf.c:133
	if (neg) {
   13efc:	ce1d                	beqz	a2,13f3a <printk_mknumstr+0x44>
C:\Users\liangfan\OneDrive\enbed\CH573\AHL-CH573-EXP-V1.3-20241124\03-Software\CH07\LST-ASM-CH573\Debug/srcc/printf.c:135
		if (a == 0) {
   13efe:	4705                	li	a4,1
C:\Users\liangfan\OneDrive\enbed\CH573\AHL-CH573-EXP-V1.3-20241124\03-Software\CH07\LST-ASM-CH573\Debug/srcc/printf.c:144
		}
		while (a != 0) {
			b = (int) a / (int) radix;
			c = (int) a - ((int) b * (int) radix);
			if (c < 0) {
				c = ~c + 1 + '0';
   13f00:	03000813          	li	a6,48
C:\Users\liangfan\OneDrive\enbed\CH573\AHL-CH573-EXP-V1.3-20241124\03-Software\CH07\LST-ASM-CH573\Debug/srcc/printf.c:135
		if (a == 0) {
   13f04:	eb81                	bnez	a5,13f14 <printk_mknumstr+0x1e>
C:\Users\liangfan\OneDrive\enbed\CH573\AHL-CH573-EXP-V1.3-20241124\03-Software\CH07\LST-ASM-CH573\Debug/srcc/printf.c:136
			*nstrp = '0';
   13f06:	03000793          	li	a5,48
   13f0a:	00f500a3          	sb	a5,1(a0)
C:\Users\liangfan\OneDrive\enbed\CH573\AHL-CH573-EXP-V1.3-20241124\03-Software\CH07\LST-ASM-CH573\Debug/srcc/printf.c:137
			++nlen;
   13f0e:	4605                	li	a2,1
C:\Users\liangfan\OneDrive\enbed\CH573\AHL-CH573-EXP-V1.3-20241124\03-Software\CH07\LST-ASM-CH573\Debug/srcc/printf.c:173
			*nstrp++ = (char) uc;
			++nlen;
		}
	}
	done: return nlen;
}
   13f10:	8532                	mv	a0,a2
   13f12:	8082                	ret
C:\Users\liangfan\OneDrive\enbed\CH573\AHL-CH573-EXP-V1.3-20241124\03-Software\CH07\LST-ASM-CH573\Debug/srcc/printf.c:141
			b = (int) a / (int) radix;
   13f14:	02d7c5b3          	div	a1,a5,a3
C:\Users\liangfan\OneDrive\enbed\CH573\AHL-CH573-EXP-V1.3-20241124\03-Software\CH07\LST-ASM-CH573\Debug/srcc/printf.c:142
			c = (int) a - ((int) b * (int) radix);
   13f18:	02d7e7b3          	rem	a5,a5,a3
C:\Users\liangfan\OneDrive\enbed\CH573\AHL-CH573-EXP-V1.3-20241124\03-Software\CH07\LST-ASM-CH573\Debug/srcc/printf.c:146
				c = c + '0';
   13f1c:	03078613          	addi	a2,a5,48
C:\Users\liangfan\OneDrive\enbed\CH573\AHL-CH573-EXP-V1.3-20241124\03-Software\CH07\LST-ASM-CH573\Debug/srcc/printf.c:143
			if (c < 0) {
   13f20:	0007d463          	bgez	a5,13f28 <printk_mknumstr+0x32>
C:\Users\liangfan\OneDrive\enbed\CH573\AHL-CH573-EXP-V1.3-20241124\03-Software\CH07\LST-ASM-CH573\Debug/srcc/printf.c:144
				c = ~c + 1 + '0';
   13f24:	40f80633          	sub	a2,a6,a5
C:\Users\liangfan\OneDrive\enbed\CH573\AHL-CH573-EXP-V1.3-20241124\03-Software\CH07\LST-ASM-CH573\Debug/srcc/printf.c:149
			*nstrp++ = (char) c;
   13f28:	00e507b3          	add	a5,a0,a4
   13f2c:	00c78023          	sb	a2,0(a5)
C:\Users\liangfan\OneDrive\enbed\CH573\AHL-CH573-EXP-V1.3-20241124\03-Software\CH07\LST-ASM-CH573\Debug/srcc/printf.c:150
			++nlen;
   13f30:	863a                	mv	a2,a4
   13f32:	87ae                	mv	a5,a1
   13f34:	0705                	addi	a4,a4,1
C:\Users\liangfan\OneDrive\enbed\CH573\AHL-CH573-EXP-V1.3-20241124\03-Software\CH07\LST-ASM-CH573\Debug/srcc/printf.c:140
		while (a != 0) {
   13f36:	fdf9                	bnez	a1,13f14 <printk_mknumstr+0x1e>
   13f38:	bfe1                	j	13f10 <printk_mknumstr+0x1a>
C:\Users\liangfan\OneDrive\enbed\CH573\AHL-CH573-EXP-V1.3-20241124\03-Software\CH07\LST-ASM-CH573\Debug/srcc/printf.c:154
		if (ua == 0) {
   13f3a:	d7f1                	beqz	a5,13f06 <printk_mknumstr+0x10>
   13f3c:	4705                	li	a4,1
C:\Users\liangfan\OneDrive\enbed\CH573\AHL-CH573-EXP-V1.3-20241124\03-Software\CH07\LST-ASM-CH573\Debug/srcc/printf.c:162
			if (uc < 10) {
   13f3e:	48a5                	li	a7,9
C:\Users\liangfan\OneDrive\enbed\CH573\AHL-CH573-EXP-V1.3-20241124\03-Software\CH07\LST-ASM-CH573\Debug/srcc/printf.c:160
			ub = (unsigned int) ua / (unsigned int) radix;
   13f40:	02d7f633          	remu	a2,a5,a3
   13f44:	02d7d833          	divu	a6,a5,a3
C:\Users\liangfan\OneDrive\enbed\CH573\AHL-CH573-EXP-V1.3-20241124\03-Software\CH07\LST-ASM-CH573\Debug/srcc/printf.c:165
				uc = uc - 10 + 'A';
   13f48:	03760593          	addi	a1,a2,55 # ff037 <MAINLOOP_COUNT+0x6c877>
C:\Users\liangfan\OneDrive\enbed\CH573\AHL-CH573-EXP-V1.3-20241124\03-Software\CH07\LST-ASM-CH573\Debug/srcc/printf.c:162
			if (uc < 10) {
   13f4c:	00c8e463          	bltu	a7,a2,13f54 <printk_mknumstr+0x5e>
C:\Users\liangfan\OneDrive\enbed\CH573\AHL-CH573-EXP-V1.3-20241124\03-Software\CH07\LST-ASM-CH573\Debug/srcc/printf.c:163
				uc = uc + '0';
   13f50:	03060593          	addi	a1,a2,48
C:\Users\liangfan\OneDrive\enbed\CH573\AHL-CH573-EXP-V1.3-20241124\03-Software\CH07\LST-ASM-CH573\Debug/srcc/printf.c:168
			*nstrp++ = (char) uc;
   13f54:	00e50633          	add	a2,a0,a4
   13f58:	00b60023          	sb	a1,0(a2)
C:\Users\liangfan\OneDrive\enbed\CH573\AHL-CH573-EXP-V1.3-20241124\03-Software\CH07\LST-ASM-CH573\Debug/srcc/printf.c:169
			++nlen;
   13f5c:	863a                	mv	a2,a4
   13f5e:	0705                	addi	a4,a4,1
C:\Users\liangfan\OneDrive\enbed\CH573\AHL-CH573-EXP-V1.3-20241124\03-Software\CH07\LST-ASM-CH573\Debug/srcc/printf.c:159
		while (ua != 0) {
   13f60:	fad7e8e3          	bltu	a5,a3,13f10 <printk_mknumstr+0x1a>
C:\Users\liangfan\OneDrive\enbed\CH573\AHL-CH573-EXP-V1.3-20241124\03-Software\CH07\LST-ASM-CH573\Debug/srcc/printf.c:167
			ua = ub;
   13f64:	87c2                	mv	a5,a6
   13f66:	bfe9                	j	13f40 <printk_mknumstr+0x4a>

00013f68 <printk_pad_space>:
printk_pad_space():
C:\Users\liangfan\OneDrive\enbed\CH573\AHL-CH573-EXP-V1.3-20241124\03-Software\CH07\LST-ASM-CH573\Debug/srcc/printf.c:186
	}
}

/********************************************************************/
static void printk_pad_space(int curlen, int field_width, int *count,
		PRINTK_INFO *info) {
   13f68:	1101                	addi	sp,sp,-32
   13f6a:	cc22                	sw	s0,24(sp)
   13f6c:	ca26                	sw	s1,20(sp)
   13f6e:	c84a                	sw	s2,16(sp)
   13f70:	ce06                	sw	ra,28(sp)
   13f72:	842a                	mv	s0,a0
   13f74:	84ae                	mv	s1,a1
   13f76:	8932                	mv	s2,a2
C:\Users\liangfan\OneDrive\enbed\CH573\AHL-CH573-EXP-V1.3-20241124\03-Software\CH07\LST-ASM-CH573\Debug/srcc/printf.c:189 (discriminator 1)
	int i;

	for (i = curlen; i < field_width; i++) {
   13f78:	00944863          	blt	s0,s1,13f88 <printk_pad_space+0x20>
C:\Users\liangfan\OneDrive\enbed\CH573\AHL-CH573-EXP-V1.3-20241124\03-Software\CH07\LST-ASM-CH573\Debug/srcc/printf.c:192
		printk_putc(' ', count, info);
	}
}
   13f7c:	40f2                	lw	ra,28(sp)
   13f7e:	4462                	lw	s0,24(sp)
   13f80:	44d2                	lw	s1,20(sp)
   13f82:	4942                	lw	s2,16(sp)
   13f84:	6105                	addi	sp,sp,32
   13f86:	8082                	ret
C:\Users\liangfan\OneDrive\enbed\CH573\AHL-CH573-EXP-V1.3-20241124\03-Software\CH07\LST-ASM-CH573\Debug/srcc/printf.c:190 (discriminator 3)
		printk_putc(' ', count, info);
   13f88:	8636                	mv	a2,a3
   13f8a:	85ca                	mv	a1,s2
   13f8c:	02000513          	li	a0,32
   13f90:	c636                	sw	a3,12(sp)
   13f92:	00000097          	auipc	ra,0x0
   13f96:	f24080e7          	jalr	-220(ra) # 13eb6 <printk_putc>
C:\Users\liangfan\OneDrive\enbed\CH573\AHL-CH573-EXP-V1.3-20241124\03-Software\CH07\LST-ASM-CH573\Debug/srcc/printf.c:189 (discriminator 3)
	for (i = curlen; i < field_width; i++) {
   13f9a:	0405                	addi	s0,s0,1
   13f9c:	46b2                	lw	a3,12(sp)
   13f9e:	bfe9                	j	13f78 <printk_pad_space+0x10>

00013fa0 <out_char>:
out_char():
C:\Users\liangfan\OneDrive\enbed\CH573\AHL-CH573-EXP-V1.3-20241124\03-Software\CH07\LST-ASM-CH573\Debug/srcc/printf.c:19
	uart_send1(UART_printf, data);
   13fa0:	0ff57593          	andi	a1,a0,255
   13fa4:	4505                	li	a0,1
   13fa6:	00000317          	auipc	t1,0x0
   13faa:	e8e30067          	jr	-370(t1) # 13e34 <uart_send1>

00013fae <printk_mkfloatstr>:
printk_mkfloatstr():
C:\Users\liangfan\OneDrive\enbed\CH573\AHL-CH573-EXP-V1.3-20241124\03-Software\CH07\LST-ASM-CH573\Debug/srcc/printf.c:50
{
   13fae:	c9010113          	addi	sp,sp,-880
   13fb2:	36812423          	sw	s0,872(sp)
   13fb6:	36912223          	sw	s1,868(sp)
   13fba:	35912223          	sw	s9,836(sp)
   13fbe:	84aa                	mv	s1,a0
   13fc0:	8cb2                	mv	s9,a2
   13fc2:	842e                	mv	s0,a1
C:\Users\liangfan\OneDrive\enbed\CH573\AHL-CH573-EXP-V1.3-20241124\03-Software\CH07\LST-ASM-CH573\Debug/srcc/printf.c:52
	uint32_t i=0,j=0,k=0,a[100]={0},b[100]={0};
   13fc4:	19000613          	li	a2,400
   13fc8:	4581                	li	a1,0
   13fca:	0808                	addi	a0,sp,16
C:\Users\liangfan\OneDrive\enbed\CH573\AHL-CH573-EXP-V1.3-20241124\03-Software\CH07\LST-ASM-CH573\Debug/srcc/printf.c:50
{
   13fcc:	36112623          	sw	ra,876(sp)
   13fd0:	37212023          	sw	s2,864(sp)
   13fd4:	35312e23          	sw	s3,860(sp)
   13fd8:	35412c23          	sw	s4,856(sp)
   13fdc:	35512a23          	sw	s5,852(sp)
   13fe0:	35612823          	sw	s6,848(sp)
   13fe4:	35712623          	sw	s7,844(sp)
   13fe8:	35812423          	sw	s8,840(sp)
   13fec:	35a12023          	sw	s10,832(sp)
   13ff0:	33b12e23          	sw	s11,828(sp)
C:\Users\liangfan\OneDrive\enbed\CH573\AHL-CH573-EXP-V1.3-20241124\03-Software\CH07\LST-ASM-CH573\Debug/srcc/printf.c:52
	uint32_t i=0,j=0,k=0,a[100]={0},b[100]={0};
   13ff4:	00000097          	auipc	ra,0x0
   13ff8:	a7a080e7          	jalr	-1414(ra) # 13a6e <memset>
   13ffc:	19000613          	li	a2,400
   14000:	4581                	li	a1,0
   14002:	1308                	addi	a0,sp,416
   14004:	00000097          	auipc	ra,0x0
   14008:	a6a080e7          	jalr	-1430(ra) # 13a6e <memset>
C:\Users\liangfan\OneDrive\enbed\CH573\AHL-CH573-EXP-V1.3-20241124\03-Software\CH07\LST-ASM-CH573\Debug/srcc/printf.c:59
	p=(uint64_t)*f;//整数部分
   1400c:	0004a903          	lw	s2,0(s1)
   14010:	0044a983          	lw	s3,4(s1)
C:\Users\liangfan\OneDrive\enbed\CH573\AHL-CH573-EXP-V1.3-20241124\03-Software\CH07\LST-ASM-CH573\Debug/srcc/printf.c:61
	while(precision_width--)    tempf*=10;
   14014:	8a66                	mv	s4,s9
C:\Users\liangfan\OneDrive\enbed\CH573\AHL-CH573-EXP-V1.3-20241124\03-Software\CH07\LST-ASM-CH573\Debug/srcc/printf.c:59
	p=(uint64_t)*f;//整数部分
   14016:	854a                	mv	a0,s2
   14018:	85ce                	mv	a1,s3
   1401a:	00002097          	auipc	ra,0x2
   1401e:	bb6080e7          	jalr	-1098(ra) # 15bd0 <__fixunsdfdi>
   14022:	8d2a                	mv	s10,a0
   14024:	84ae                	mv	s1,a1
   14026:	8baa                	mv	s7,a0
   14028:	8c2e                	mv	s8,a1
C:\Users\liangfan\OneDrive\enbed\CH573\AHL-CH573-EXP-V1.3-20241124\03-Software\CH07\LST-ASM-CH573\Debug/srcc/printf.c:60
	tempf=(*f-p);
   1402a:	00002097          	auipc	ra,0x2
   1402e:	c44080e7          	jalr	-956(ra) # 15c6e <__floatundidf>
   14032:	862a                	mv	a2,a0
   14034:	86ae                	mv	a3,a1
   14036:	854a                	mv	a0,s2
   14038:	85ce                	mv	a1,s3
   1403a:	00001097          	auipc	ra,0x1
   1403e:	450080e7          	jalr	1104(ra) # 1548a <__subdf3>
   14042:	89aa                	mv	s3,a0
   14044:	892e                	mv	s2,a1
C:\Users\liangfan\OneDrive\enbed\CH573\AHL-CH573-EXP-V1.3-20241124\03-Software\CH07\LST-ASM-CH573\Debug/srcc/printf.c:61
	while(precision_width--)    tempf*=10;
   14046:	5afd                	li	s5,-1
   14048:	00002b17          	auipc	s6,0x2
   1404c:	ef8b0b13          	addi	s6,s6,-264 # 15f40 <strlen+0xc8>
C:\Users\liangfan\OneDrive\enbed\CH573\AHL-CH573-EXP-V1.3-20241124\03-Software\CH07\LST-ASM-CH573\Debug/srcc/printf.c:61 (discriminator 1)
   14050:	1a7d                	addi	s4,s4,-1
   14052:	0d5a1563          	bne	s4,s5,1411c <printk_mkfloatstr+0x16e>
C:\Users\liangfan\OneDrive\enbed\CH573\AHL-CH573-EXP-V1.3-20241124\03-Software\CH07\LST-ASM-CH573\Debug/srcc/printf.c:62
    q=tempf;
   14056:	00002097          	auipc	ra,0x2
   1405a:	b7a080e7          	jalr	-1158(ra) # 15bd0 <__fixunsdfdi>
C:\Users\liangfan\OneDrive\enbed\CH573\AHL-CH573-EXP-V1.3-20241124\03-Software\CH07\LST-ASM-CH573\Debug/srcc/printf.c:66
	while(tempf<0.1&&tempf!=0)    //【20201119】-2/3   原为while(m<1)
   1405e:	00002797          	auipc	a5,0x2
   14062:	eea78793          	addi	a5,a5,-278 # 15f48 <strlen+0xd0>
   14066:	0047a803          	lw	a6,4(a5)
   1406a:	439c                	lw	a5,0(a5)
C:\Users\liangfan\OneDrive\enbed\CH573\AHL-CH573-EXP-V1.3-20241124\03-Software\CH07\LST-ASM-CH573\Debug/srcc/printf.c:62
    q=tempf;
   1406c:	c22a                	sw	a0,4(sp)
   1406e:	8b2e                	mv	s6,a1
   14070:	8a2a                	mv	s4,a0
   14072:	8aae                	mv	s5,a1
C:\Users\liangfan\OneDrive\enbed\CH573\AHL-CH573-EXP-V1.3-20241124\03-Software\CH07\LST-ASM-CH573\Debug/srcc/printf.c:52
	uint32_t i=0,j=0,k=0,a[100]={0},b[100]={0};
   14074:	4d81                	li	s11,0
C:\Users\liangfan\OneDrive\enbed\CH573\AHL-CH573-EXP-V1.3-20241124\03-Software\CH07\LST-ASM-CH573\Debug/srcc/printf.c:66
	while(tempf<0.1&&tempf!=0)    //【20201119】-2/3   原为while(m<1)
   14076:	c43e                	sw	a5,8(sp)
   14078:	c642                	sw	a6,12(sp)
   1407a:	4622                	lw	a2,8(sp)
   1407c:	46b2                	lw	a3,12(sp)
   1407e:	854e                	mv	a0,s3
   14080:	85ca                	mv	a1,s2
   14082:	00001097          	auipc	ra,0x1
   14086:	e8a080e7          	jalr	-374(ra) # 14f0c <__ledf2>
   1408a:	00055b63          	bgez	a0,140a0 <printk_mkfloatstr+0xf2>
C:\Users\liangfan\OneDrive\enbed\CH573\AHL-CH573-EXP-V1.3-20241124\03-Software\CH07\LST-ASM-CH573\Debug/srcc/printf.c:66 (discriminator 1)
   1408e:	4601                	li	a2,0
   14090:	4681                	li	a3,0
   14092:	854e                	mv	a0,s3
   14094:	85ca                	mv	a1,s2
   14096:	00001097          	auipc	ra,0x1
   1409a:	e0c080e7          	jalr	-500(ra) # 14ea2 <__eqdf2>
   1409e:	e941                	bnez	a0,1412e <printk_mkfloatstr+0x180>
C:\Users\liangfan\OneDrive\enbed\CH573\AHL-CH573-EXP-V1.3-20241124\03-Software\CH07\LST-ASM-CH573\Debug/srcc/printf.c:72
	if(p==0)//整数部分为0
   140a0:	01a4e4b3          	or	s1,s1,s10
   140a4:	e4cd                	bnez	s1,1414e <printk_mkfloatstr+0x1a0>
C:\Users\liangfan\OneDrive\enbed\CH573\AHL-CH573-EXP-V1.3-20241124\03-Software\CH07\LST-ASM-CH573\Debug/srcc/printf.c:73
		c[i++]='0';
   140a6:	03000793          	li	a5,48
   140aa:	00f40023          	sb	a5,0(s0) # 1000 <MCU_SECTORSIZE>
   140ae:	4485                	li	s1,1
C:\Users\liangfan\OneDrive\enbed\CH573\AHL-CH573-EXP-V1.3-20241124\03-Software\CH07\LST-ASM-CH573\Debug/srcc/printf.c:87
	c[i++]='.';   //小数点
   140b0:	02e00793          	li	a5,46
   140b4:	00148993          	addi	s3,s1,1
   140b8:	94a2                	add	s1,s1,s0
   140ba:	00f48023          	sb	a5,0(s1)
C:\Users\liangfan\OneDrive\enbed\CH573\AHL-CH573-EXP-V1.3-20241124\03-Software\CH07\LST-ASM-CH573\Debug/srcc/printf.c:88
	if(q==0)     //小数部分为0
   140be:	4792                	lw	a5,4(sp)
   140c0:	00fb6b33          	or	s6,s6,a5
   140c4:	0e0b1663          	bnez	s6,141b0 <printk_mkfloatstr+0x202>
C:\Users\liangfan\OneDrive\enbed\CH573\AHL-CH573-EXP-V1.3-20241124\03-Software\CH07\LST-ASM-CH573\Debug/srcc/printf.c:56
	int zeroNum=precision_width;   //【20201119】-1/3
   140c8:	87e6                	mv	a5,s9
C:\Users\liangfan\OneDrive\enbed\CH573\AHL-CH573-EXP-V1.3-20241124\03-Software\CH07\LST-ASM-CH573\Debug/srcc/printf.c:89
		while(zeroNum--) c[i++]='0';     //【20201119】-3/3   原为 c[i++]='0';
   140ca:	577d                	li	a4,-1
   140cc:	03000693          	li	a3,48
C:\Users\liangfan\OneDrive\enbed\CH573\AHL-CH573-EXP-V1.3-20241124\03-Software\CH07\LST-ASM-CH573\Debug/srcc/printf.c:89 (discriminator 1)
   140d0:	17fd                	addi	a5,a5,-1
   140d2:	0485                	addi	s1,s1,1
   140d4:	0ce79b63          	bne	a5,a4,141aa <printk_mkfloatstr+0x1fc>
   140d8:	013c8533          	add	a0,s9,s3
C:\Users\liangfan\OneDrive\enbed\CH573\AHL-CH573-EXP-V1.3-20241124\03-Software\CH07\LST-ASM-CH573\Debug/srcc/printf.c:109
	c[i]='\0';
   140dc:	942a                	add	s0,s0,a0
   140de:	00040023          	sb	zero,0(s0)
C:\Users\liangfan\OneDrive\enbed\CH573\AHL-CH573-EXP-V1.3-20241124\03-Software\CH07\LST-ASM-CH573\Debug/srcc/printf.c:111
}
   140e2:	36c12083          	lw	ra,876(sp)
   140e6:	36812403          	lw	s0,872(sp)
   140ea:	36412483          	lw	s1,868(sp)
   140ee:	36012903          	lw	s2,864(sp)
   140f2:	35c12983          	lw	s3,860(sp)
   140f6:	35812a03          	lw	s4,856(sp)
   140fa:	35412a83          	lw	s5,852(sp)
   140fe:	35012b03          	lw	s6,848(sp)
   14102:	34c12b83          	lw	s7,844(sp)
   14106:	34812c03          	lw	s8,840(sp)
   1410a:	34412c83          	lw	s9,836(sp)
   1410e:	34012d03          	lw	s10,832(sp)
   14112:	33c12d83          	lw	s11,828(sp)
   14116:	37010113          	addi	sp,sp,880
   1411a:	8082                	ret
C:\Users\liangfan\OneDrive\enbed\CH573\AHL-CH573-EXP-V1.3-20241124\03-Software\CH07\LST-ASM-CH573\Debug/srcc/printf.c:61 (discriminator 2)
	while(precision_width--)    tempf*=10;
   1411c:	000b2603          	lw	a2,0(s6)
   14120:	004b2683          	lw	a3,4(s6)
   14124:	00001097          	auipc	ra,0x1
   14128:	e9e080e7          	jalr	-354(ra) # 14fc2 <__muldf3>
   1412c:	b715                	j	14050 <printk_mkfloatstr+0xa2>
C:\Users\liangfan\OneDrive\enbed\CH573\AHL-CH573-EXP-V1.3-20241124\03-Software\CH07\LST-ASM-CH573\Debug/srcc/printf.c:68
		tempf=tempf*10;
   1412e:	00002797          	auipc	a5,0x2
   14132:	e1278793          	addi	a5,a5,-494 # 15f40 <strlen+0xc8>
   14136:	4390                	lw	a2,0(a5)
   14138:	43d4                	lw	a3,4(a5)
   1413a:	854e                	mv	a0,s3
   1413c:	85ca                	mv	a1,s2
   1413e:	00001097          	auipc	ra,0x1
   14142:	e84080e7          	jalr	-380(ra) # 14fc2 <__muldf3>
   14146:	89aa                	mv	s3,a0
   14148:	892e                	mv	s2,a1
C:\Users\liangfan\OneDrive\enbed\CH573\AHL-CH573-EXP-V1.3-20241124\03-Software\CH07\LST-ASM-CH573\Debug/srcc/printf.c:69
		k++;			
   1414a:	0d85                	addi	s11,s11,1
   1414c:	b73d                	j	1407a <printk_mkfloatstr+0xcc>
   1414e:	01010913          	addi	s2,sp,16
C:\Users\liangfan\OneDrive\enbed\CH573\AHL-CH573-EXP-V1.3-20241124\03-Software\CH07\LST-ASM-CH573\Debug/srcc/printf.c:52
	uint32_t i=0,j=0,k=0,a[100]={0},b[100]={0};
   14152:	4481                	li	s1,0
C:\Users\liangfan\OneDrive\enbed\CH573\AHL-CH573-EXP-V1.3-20241124\03-Software\CH07\LST-ASM-CH573\Debug/srcc/printf.c:76
		while(p!=0)//倒序的数字
   14154:	49a5                	li	s3,9
C:\Users\liangfan\OneDrive\enbed\CH573\AHL-CH573-EXP-V1.3-20241124\03-Software\CH07\LST-ASM-CH573\Debug/srcc/printf.c:78
			a[j++]=p%10;
   14156:	4629                	li	a2,10
   14158:	4681                	li	a3,0
   1415a:	855e                	mv	a0,s7
   1415c:	85e2                	mv	a1,s8
   1415e:	00001097          	auipc	ra,0x1
   14162:	9b6080e7          	jalr	-1610(ra) # 14b14 <__umoddi3>
   14166:	00a92023          	sw	a0,0(s2)
C:\Users\liangfan\OneDrive\enbed\CH573\AHL-CH573-EXP-V1.3-20241124\03-Software\CH07\LST-ASM-CH573\Debug/srcc/printf.c:79
			p/=10;
   1416a:	4629                	li	a2,10
   1416c:	4681                	li	a3,0
   1416e:	855e                	mv	a0,s7
   14170:	85e2                	mv	a1,s8
C:\Users\liangfan\OneDrive\enbed\CH573\AHL-CH573-EXP-V1.3-20241124\03-Software\CH07\LST-ASM-CH573\Debug/srcc/printf.c:78
			a[j++]=p%10;
   14172:	0485                	addi	s1,s1,1
C:\Users\liangfan\OneDrive\enbed\CH573\AHL-CH573-EXP-V1.3-20241124\03-Software\CH07\LST-ASM-CH573\Debug/srcc/printf.c:79
			p/=10;
   14174:	00000097          	auipc	ra,0x0
   14178:	608080e7          	jalr	1544(ra) # 1477c <__udivdi3>
   1417c:	0911                	addi	s2,s2,4
C:\Users\liangfan\OneDrive\enbed\CH573\AHL-CH573-EXP-V1.3-20241124\03-Software\CH07\LST-ASM-CH573\Debug/srcc/printf.c:76
		while(p!=0)//倒序的数字
   1417e:	020c1363          	bnez	s8,141a4 <printk_mkfloatstr+0x1f6>
   14182:	0379e163          	bltu	s3,s7,141a4 <printk_mkfloatstr+0x1f6>
   14186:	8722                	mv	a4,s0
C:\Users\liangfan\OneDrive\enbed\CH573\AHL-CH573-EXP-V1.3-20241124\03-Software\CH07\LST-ASM-CH573\Debug/srcc/printf.c:78
			a[j++]=p%10;
   14188:	87a6                	mv	a5,s1
C:\Users\liangfan\OneDrive\enbed\CH573\AHL-CH573-EXP-V1.3-20241124\03-Software\CH07\LST-ASM-CH573\Debug/srcc/printf.c:83
			c[i++]=a[j-1]+'0';
   1418a:	17fd                	addi	a5,a5,-1
   1418c:	00279693          	slli	a3,a5,0x2
   14190:	0810                	addi	a2,sp,16
   14192:	96b2                	add	a3,a3,a2
   14194:	4294                	lw	a3,0(a3)
   14196:	0705                	addi	a4,a4,1
   14198:	03068693          	addi	a3,a3,48
   1419c:	fed70fa3          	sb	a3,-1(a4)
C:\Users\liangfan\OneDrive\enbed\CH573\AHL-CH573-EXP-V1.3-20241124\03-Software\CH07\LST-ASM-CH573\Debug/srcc/printf.c:81
		while(j>0)//将倒序数字转为正序，并转换为对应的字符形式
   141a0:	f7ed                	bnez	a5,1418a <printk_mkfloatstr+0x1dc>
   141a2:	b739                	j	140b0 <printk_mkfloatstr+0x102>
C:\Users\liangfan\OneDrive\enbed\CH573\AHL-CH573-EXP-V1.3-20241124\03-Software\CH07\LST-ASM-CH573\Debug/srcc/printf.c:79
			p/=10;
   141a4:	8baa                	mv	s7,a0
   141a6:	8c2e                	mv	s8,a1
   141a8:	b77d                	j	14156 <printk_mkfloatstr+0x1a8>
C:\Users\liangfan\OneDrive\enbed\CH573\AHL-CH573-EXP-V1.3-20241124\03-Software\CH07\LST-ASM-CH573\Debug/srcc/printf.c:89 (discriminator 2)
		while(zeroNum--) c[i++]='0';     //【20201119】-3/3   原为 c[i++]='0';
   141aa:	00d48023          	sb	a3,0(s1)
   141ae:	b70d                	j	140d0 <printk_mkfloatstr+0x122>
   141b0:	1a010b13          	addi	s6,sp,416
C:\Users\liangfan\OneDrive\enbed\CH573\AHL-CH573-EXP-V1.3-20241124\03-Software\CH07\LST-ASM-CH573\Debug/srcc/printf.c:92
		j=0;
   141b4:	4901                	li	s2,0
C:\Users\liangfan\OneDrive\enbed\CH573\AHL-CH573-EXP-V1.3-20241124\03-Software\CH07\LST-ASM-CH573\Debug/srcc/printf.c:93
		while(q!=0)//倒序的数字
   141b6:	4ba5                	li	s7,9
C:\Users\liangfan\OneDrive\enbed\CH573\AHL-CH573-EXP-V1.3-20241124\03-Software\CH07\LST-ASM-CH573\Debug/srcc/printf.c:95
			b[j++]=q%10;
   141b8:	4629                	li	a2,10
   141ba:	4681                	li	a3,0
   141bc:	8552                	mv	a0,s4
   141be:	85d6                	mv	a1,s5
   141c0:	00001097          	auipc	ra,0x1
   141c4:	954080e7          	jalr	-1708(ra) # 14b14 <__umoddi3>
   141c8:	00ab2023          	sw	a0,0(s6)
C:\Users\liangfan\OneDrive\enbed\CH573\AHL-CH573-EXP-V1.3-20241124\03-Software\CH07\LST-ASM-CH573\Debug/srcc/printf.c:96
			q/=10;
   141cc:	4629                	li	a2,10
   141ce:	4681                	li	a3,0
   141d0:	8552                	mv	a0,s4
   141d2:	85d6                	mv	a1,s5
C:\Users\liangfan\OneDrive\enbed\CH573\AHL-CH573-EXP-V1.3-20241124\03-Software\CH07\LST-ASM-CH573\Debug/srcc/printf.c:95
			b[j++]=q%10;
   141d4:	0905                	addi	s2,s2,1
C:\Users\liangfan\OneDrive\enbed\CH573\AHL-CH573-EXP-V1.3-20241124\03-Software\CH07\LST-ASM-CH573\Debug/srcc/printf.c:96
			q/=10;
   141d6:	00000097          	auipc	ra,0x0
   141da:	5a6080e7          	jalr	1446(ra) # 1477c <__udivdi3>
   141de:	0b11                	addi	s6,s6,4
C:\Users\liangfan\OneDrive\enbed\CH573\AHL-CH573-EXP-V1.3-20241124\03-Software\CH07\LST-ASM-CH573\Debug/srcc/printf.c:93
		while(q!=0)//倒序的数字
   141e0:	000a9d63          	bnez	s5,141fa <printk_mkfloatstr+0x24c>
   141e4:	014beb63          	bltu	s7,s4,141fa <printk_mkfloatstr+0x24c>
   141e8:	012d8533          	add	a0,s11,s2
C:\Users\liangfan\OneDrive\enbed\CH573\AHL-CH573-EXP-V1.3-20241124\03-Software\CH07\LST-ASM-CH573\Debug/srcc/printf.c:98
		while(k!=0)
   141ec:	00a91a63          	bne	s2,a0,14200 <printk_mkfloatstr+0x252>
   141f0:	87aa                	mv	a5,a0
   141f2:	0485                	addi	s1,s1,1
C:\Users\liangfan\OneDrive\enbed\CH573\AHL-CH573-EXP-V1.3-20241124\03-Software\CH07\LST-ASM-CH573\Debug/srcc/printf.c:103
		while(j>0)//将倒序数字转为正序，并转换为对应的字符形式
   141f4:	ef91                	bnez	a5,14210 <printk_mkfloatstr+0x262>
   141f6:	954e                	add	a0,a0,s3
   141f8:	b5d5                	j	140dc <printk_mkfloatstr+0x12e>
C:\Users\liangfan\OneDrive\enbed\CH573\AHL-CH573-EXP-V1.3-20241124\03-Software\CH07\LST-ASM-CH573\Debug/srcc/printf.c:96
			q/=10;
   141fa:	8a2a                	mv	s4,a0
   141fc:	8aae                	mv	s5,a1
   141fe:	bf6d                	j	141b8 <printk_mkfloatstr+0x20a>
C:\Users\liangfan\OneDrive\enbed\CH573\AHL-CH573-EXP-V1.3-20241124\03-Software\CH07\LST-ASM-CH573\Debug/srcc/printf.c:100
			b[j++]=0;
   14200:	00291793          	slli	a5,s2,0x2
   14204:	1318                	addi	a4,sp,416
   14206:	97ba                	add	a5,a5,a4
   14208:	0007a023          	sw	zero,0(a5)
C:\Users\liangfan\OneDrive\enbed\CH573\AHL-CH573-EXP-V1.3-20241124\03-Software\CH07\LST-ASM-CH573\Debug/srcc/printf.c:101
			k--;
   1420c:	0905                	addi	s2,s2,1
   1420e:	bff9                	j	141ec <printk_mkfloatstr+0x23e>
C:\Users\liangfan\OneDrive\enbed\CH573\AHL-CH573-EXP-V1.3-20241124\03-Software\CH07\LST-ASM-CH573\Debug/srcc/printf.c:105
			c[i++]=b[j-1]+'0';
   14210:	17fd                	addi	a5,a5,-1
   14212:	00279713          	slli	a4,a5,0x2
   14216:	1314                	addi	a3,sp,416
   14218:	9736                	add	a4,a4,a3
   1421a:	4318                	lw	a4,0(a4)
   1421c:	03070713          	addi	a4,a4,48
   14220:	00e48023          	sb	a4,0(s1)
C:\Users\liangfan\OneDrive\enbed\CH573\AHL-CH573-EXP-V1.3-20241124\03-Software\CH07\LST-ASM-CH573\Debug/srcc/printf.c:106
			j--;
   14224:	b7f9                	j	141f2 <printk_mkfloatstr+0x244>

00014226 <printk>:
printk():
C:\Users\liangfan\OneDrive\enbed\CH573\AHL-CH573-EXP-V1.3-20241124\03-Software\CH07\LST-ASM-CH573\Debug/srcc/printf.c:202
//       fmt:输出格式信息
//       ap:va_list指针指向格式信息输出
//函数返回：无
//======================================================================
int printk(PRINTK_INFO *info, const char *fmt, char * ap)
{
   14226:	7175                	addi	sp,sp,-144
   14228:	c522                	sw	s0,136(sp)
   1422a:	c326                	sw	s1,132(sp)
   1422c:	dcd2                	sw	s4,120(sp)
   1422e:	84aa                	mv	s1,a0
   14230:	8a2e                	mv	s4,a1
   14232:	8432                	mv	s0,a2
C:\Users\liangfan\OneDrive\enbed\CH573\AHL-CH573-EXP-V1.3-20241124\03-Software\CH07\LST-ASM-CH573\Debug/srcc/printf.c:226

	}un1;*/
	char *p;
	int c;
	//char temp1;
	char vstr[33]={'0'};
   14234:	4581                	li	a1,0
   14236:	02100613          	li	a2,33
   1423a:	1068                	addi	a0,sp,44
C:\Users\liangfan\OneDrive\enbed\CH573\AHL-CH573-EXP-V1.3-20241124\03-Software\CH07\LST-ASM-CH573\Debug/srcc/printf.c:202
{
   1423c:	d8da                	sw	s6,112(sp)
   1423e:	d6de                	sw	s7,108(sp)
   14240:	d4e2                	sw	s8,104(sp)
   14242:	d2e6                	sw	s9,100(sp)
   14244:	c706                	sw	ra,140(sp)
   14246:	c14a                	sw	s2,128(sp)
   14248:	dece                	sw	s3,124(sp)
   1424a:	dad6                	sw	s5,116(sp)
   1424c:	d0ea                	sw	s10,96(sp)
   1424e:	ceee                	sw	s11,92(sp)
C:\Users\liangfan\OneDrive\enbed\CH573\AHL-CH573-EXP-V1.3-20241124\03-Software\CH07\LST-ASM-CH573\Debug/srcc/printf.c:226
	char vstr[33]={'0'};
   14250:	00000097          	auipc	ra,0x0
   14254:	81e080e7          	jalr	-2018(ra) # 13a6e <memset>
   14258:	03000793          	li	a5,48
   1425c:	02f10623          	sb	a5,44(sp)
C:\Users\liangfan\OneDrive\enbed\CH573\AHL-CH573-EXP-V1.3-20241124\03-Software\CH07\LST-ASM-CH573\Debug/srcc/printf.c:247
	int *ivalp;
	char *sval;
	int cval;
	unsigned int uval;

	count = 0;
   14260:	ca02                	sw	zero,20(sp)
C:\Users\liangfan\OneDrive\enbed\CH573\AHL-CH573-EXP-V1.3-20241124\03-Software\CH07\LST-ASM-CH573\Debug/srcc/printf.c:249
	length_modifier=0;
	precision_used=TRUE;
   14262:	4b85                	li	s7,1
C:\Users\liangfan\OneDrive\enbed\CH573\AHL-CH573-EXP-V1.3-20241124\03-Software\CH07\LST-ASM-CH573\Debug/srcc/printf.c:254
	//从格式字符串第一个字符开始格式化输出数据
	for (p = (char *) fmt; (c = *p) != 0; p++)
	{
		//读取%前面的字符，直接输出的字符和最后的\n类的转义字符
		if (c != '%')
   14264:	02500c93          	li	s9,37
C:\Users\liangfan\OneDrive\enbed\CH573\AHL-CH573-EXP-V1.3-20241124\03-Software\CH07\LST-ASM-CH573\Debug/srcc/printf.c:319
			case '5':
			case '6':
			case '7':
			case '8':
			case '9':
				field_width = (field_width * 10) + (c - '0');
   14268:	4b29                	li	s6,10
C:\Users\liangfan\OneDrive\enbed\CH573\AHL-CH573-EXP-V1.3-20241124\03-Software\CH07\LST-ASM-CH573\Debug/srcc/printf.c:387
			--p;
			break;
		}

		//p为格式字符串的首地址
		switch (c = *++p) {
   1426a:	00002c17          	auipc	s8,0x2
   1426e:	c52c0c13          	addi	s8,s8,-942 # 15ebc <strlen+0x44>
C:\Users\liangfan\OneDrive\enbed\CH573\AHL-CH573-EXP-V1.3-20241124\03-Software\CH07\LST-ASM-CH573\Debug/srcc/printf.c:251 (discriminator 1)
	for (p = (char *) fmt; (c = *p) != 0; p++)
   14272:	000a0503          	lb	a0,0(s4)
   14276:	e10d                	bnez	a0,14298 <printk+0x72>
C:\Users\liangfan\OneDrive\enbed\CH573\AHL-CH573-EXP-V1.3-20241124\03-Software\CH07\LST-ASM-CH573\Debug/srcc/printf.c:647
			printk_putc(c, &count, info);
			break;
		}
	}
	return count;
}
   14278:	40ba                	lw	ra,140(sp)
   1427a:	442a                	lw	s0,136(sp)
C:\Users\liangfan\OneDrive\enbed\CH573\AHL-CH573-EXP-V1.3-20241124\03-Software\CH07\LST-ASM-CH573\Debug/srcc/printf.c:646
	return count;
   1427c:	4552                	lw	a0,20(sp)
C:\Users\liangfan\OneDrive\enbed\CH573\AHL-CH573-EXP-V1.3-20241124\03-Software\CH07\LST-ASM-CH573\Debug/srcc/printf.c:647
}
   1427e:	449a                	lw	s1,132(sp)
   14280:	490a                	lw	s2,128(sp)
   14282:	59f6                	lw	s3,124(sp)
   14284:	5a66                	lw	s4,120(sp)
   14286:	5ad6                	lw	s5,116(sp)
   14288:	5b46                	lw	s6,112(sp)
   1428a:	5bb6                	lw	s7,108(sp)
   1428c:	5c26                	lw	s8,104(sp)
   1428e:	5c96                	lw	s9,100(sp)
   14290:	5d06                	lw	s10,96(sp)
   14292:	4df6                	lw	s11,92(sp)
   14294:	6149                	addi	sp,sp,144
   14296:	8082                	ret
C:\Users\liangfan\OneDrive\enbed\CH573\AHL-CH573-EXP-V1.3-20241124\03-Software\CH07\LST-ASM-CH573\Debug/srcc/printf.c:254
		if (c != '%')
   14298:	0b950f63          	beq	a0,s9,14356 <printk+0x130>
C:\Users\liangfan\OneDrive\enbed\CH573\AHL-CH573-EXP-V1.3-20241124\03-Software\CH07\LST-ASM-CH573\Debug/srcc/printf.c:259
				printk_putc(c, &count, info);
   1429c:	8626                	mv	a2,s1
   1429e:	084c                	addi	a1,sp,20
C:\Users\liangfan\OneDrive\enbed\CH573\AHL-CH573-EXP-V1.3-20241124\03-Software\CH07\LST-ASM-CH573\Debug/srcc/printf.c:258
			if (c != '\n') {
   142a0:	01650863          	beq	a0,s6,142b0 <printk+0x8a>
C:\Users\liangfan\OneDrive\enbed\CH573\AHL-CH573-EXP-V1.3-20241124\03-Software\CH07\LST-ASM-CH573\Debug/srcc/printf.c:642
			printk_putc(c, &count, info);
   142a4:	00000097          	auipc	ra,0x0
   142a8:	c12080e7          	jalr	-1006(ra) # 13eb6 <printk_putc>
C:\Users\liangfan\OneDrive\enbed\CH573\AHL-CH573-EXP-V1.3-20241124\03-Software\CH07\LST-ASM-CH573\Debug/srcc/printf.c:643
			break;
   142ac:	8aa2                	mv	s5,s0
   142ae:	a461                	j	14536 <printk+0x310>
C:\Users\liangfan\OneDrive\enbed\CH573\AHL-CH573-EXP-V1.3-20241124\03-Software\CH07\LST-ASM-CH573\Debug/srcc/printf.c:263
				printk_putc(0x0D /* CR */, &count, info);
   142b0:	4535                	li	a0,13
   142b2:	00000097          	auipc	ra,0x0
   142b6:	c04080e7          	jalr	-1020(ra) # 13eb6 <printk_putc>
C:\Users\liangfan\OneDrive\enbed\CH573\AHL-CH573-EXP-V1.3-20241124\03-Software\CH07\LST-ASM-CH573\Debug/srcc/printf.c:264
				printk_putc(0x0A /* LF */, &count, info);
   142ba:	8626                	mv	a2,s1
   142bc:	084c                	addi	a1,sp,20
   142be:	4529                	li	a0,10
   142c0:	b7d5                	j	142a4 <printk+0x7e>
C:\Users\liangfan\OneDrive\enbed\CH573\AHL-CH573-EXP-V1.3-20241124\03-Software\CH07\LST-ASM-CH573\Debug/srcc/printf.c:281
				flags_used |= FLAGS_MINUS;
   142c2:	00196913          	ori	s2,s2,1
C:\Users\liangfan\OneDrive\enbed\CH573\AHL-CH573-EXP-V1.3-20241124\03-Software\CH07\LST-ASM-CH573\Debug/srcc/printf.c:202
{
   142c6:	8a32                	mv	s4,a2
C:\Users\liangfan\OneDrive\enbed\CH573\AHL-CH573-EXP-V1.3-20241124\03-Software\CH07\LST-ASM-CH573\Debug/srcc/printf.c:279
			switch (/* c = */*++p) {
   142c8:	001a0783          	lb	a5,1(s4)
   142cc:	001a0613          	addi	a2,s4,1
   142d0:	06e78a63          	beq	a5,a4,14344 <printk+0x11e>
   142d4:	08f74d63          	blt	a4,a5,1436e <printk+0x148>
   142d8:	06a78963          	beq	a5,a0,1434a <printk+0x124>
   142dc:	07078a63          	beq	a5,a6,14350 <printk+0x12a>
C:\Users\liangfan\OneDrive\enbed\CH573\AHL-CH573-EXP-V1.3-20241124\03-Software\CH07\LST-ASM-CH573\Debug/srcc/printf.c:305
		field_width = 0;
   142e0:	4981                	li	s3,0
C:\Users\liangfan\OneDrive\enbed\CH573\AHL-CH573-EXP-V1.3-20241124\03-Software\CH07\LST-ASM-CH573\Debug/srcc/printf.c:308
			switch (c = *++p) {
   142e2:	4625                	li	a2,9
   142e4:	001a0703          	lb	a4,1(s4)
   142e8:	001a0793          	addi	a5,s4,1
   142ec:	fd070693          	addi	a3,a4,-48
   142f0:	08d67663          	bgeu	a2,a3,1437c <printk+0x156>
C:\Users\liangfan\OneDrive\enbed\CH573\AHL-CH573-EXP-V1.3-20241124\03-Software\CH07\LST-ASM-CH573\Debug/srcc/printf.c:329
		if (/* (c = *++p) */*++p == '.') {
   142f4:	02e00693          	li	a3,46
C:\Users\liangfan\OneDrive\enbed\CH573\AHL-CH573-EXP-V1.3-20241124\03-Software\CH07\LST-ASM-CH573\Debug/srcc/printf.c:335
			precision_width = 0;
   142f8:	4d01                	li	s10,0
C:\Users\liangfan\OneDrive\enbed\CH573\AHL-CH573-EXP-V1.3-20241124\03-Software\CH07\LST-ASM-CH573\Debug/srcc/printf.c:329
		if (/* (c = *++p) */*++p == '.') {
   142fa:	0ad70463          	beq	a4,a3,143a2 <printk+0x17c>
C:\Users\liangfan\OneDrive\enbed\CH573\AHL-CH573-EXP-V1.3-20241124\03-Software\CH07\LST-ASM-CH573\Debug/srcc/printf.c:365
			precision_used = FALSE;
   142fe:	4b81                	li	s7,0
C:\Users\liangfan\OneDrive\enbed\CH573\AHL-CH573-EXP-V1.3-20241124\03-Software\CH07\LST-ASM-CH573\Debug/srcc/printf.c:370
		switch (/* c = */*++p) {
   14300:	001a0703          	lb	a4,1(s4)
   14304:	06800693          	li	a3,104
   14308:	001a0793          	addi	a5,s4,1
   1430c:	00d70b63          	beq	a4,a3,14322 <printk+0xfc>
   14310:	06c00693          	li	a3,108
   14314:	00d70763          	beq	a4,a3,14322 <printk+0xfc>
   14318:	04c00693          	li	a3,76
   1431c:	00d70363          	beq	a4,a3,14322 <printk+0xfc>
   14320:	87d2                	mv	a5,s4
C:\Users\liangfan\OneDrive\enbed\CH573\AHL-CH573-EXP-V1.3-20241124\03-Software\CH07\LST-ASM-CH573\Debug/srcc/printf.c:387
		switch (c = *++p) {
   14322:	00178503          	lb	a0,1(a5)
   14326:	00178a13          	addi	s4,a5,1
   1432a:	02000713          	li	a4,32
   1432e:	fa850793          	addi	a5,a0,-88
   14332:	0ff7f793          	andi	a5,a5,255
   14336:	40f76263          	bltu	a4,a5,1473a <printk+0x514>
   1433a:	078a                	slli	a5,a5,0x2
   1433c:	97e2                	add	a5,a5,s8
   1433e:	439c                	lw	a5,0(a5)
   14340:	97e2                	add	a5,a5,s8
   14342:	8782                	jr	a5
C:\Users\liangfan\OneDrive\enbed\CH573\AHL-CH573-EXP-V1.3-20241124\03-Software\CH07\LST-ASM-CH573\Debug/srcc/printf.c:284
				flags_used |= FLAGS_PLUS;
   14344:	00296913          	ori	s2,s2,2
C:\Users\liangfan\OneDrive\enbed\CH573\AHL-CH573-EXP-V1.3-20241124\03-Software\CH07\LST-ASM-CH573\Debug/srcc/printf.c:285
				break;
   14348:	bfbd                	j	142c6 <printk+0xa0>
C:\Users\liangfan\OneDrive\enbed\CH573\AHL-CH573-EXP-V1.3-20241124\03-Software\CH07\LST-ASM-CH573\Debug/srcc/printf.c:287
				flags_used |= FLAGS_SPACE;
   1434a:	00496913          	ori	s2,s2,4
C:\Users\liangfan\OneDrive\enbed\CH573\AHL-CH573-EXP-V1.3-20241124\03-Software\CH07\LST-ASM-CH573\Debug/srcc/printf.c:288
				break;
   1434e:	bfa5                	j	142c6 <printk+0xa0>
C:\Users\liangfan\OneDrive\enbed\CH573\AHL-CH573-EXP-V1.3-20241124\03-Software\CH07\LST-ASM-CH573\Debug/srcc/printf.c:293
				flags_used |= FLAGS_POUND;
   14350:	01096913          	ori	s2,s2,16
C:\Users\liangfan\OneDrive\enbed\CH573\AHL-CH573-EXP-V1.3-20241124\03-Software\CH07\LST-ASM-CH573\Debug/srcc/printf.c:294
				break;
   14354:	bf8d                	j	142c6 <printk+0xa0>
C:\Users\liangfan\OneDrive\enbed\CH573\AHL-CH573-EXP-V1.3-20241124\03-Software\CH07\LST-ASM-CH573\Debug/srcc/printf.c:276
		flags_used = 0;
   14356:	4901                	li	s2,0
   14358:	02b00713          	li	a4,43
   1435c:	02d00593          	li	a1,45
   14360:	03000693          	li	a3,48
   14364:	02000513          	li	a0,32
   14368:	02300813          	li	a6,35
   1436c:	bfb1                	j	142c8 <printk+0xa2>
   1436e:	f4b78ae3          	beq	a5,a1,142c2 <printk+0x9c>
   14372:	f6d797e3          	bne	a5,a3,142e0 <printk+0xba>
C:\Users\liangfan\OneDrive\enbed\CH573\AHL-CH573-EXP-V1.3-20241124\03-Software\CH07\LST-ASM-CH573\Debug/srcc/printf.c:290
				flags_used |= FLAGS_ZERO;
   14376:	00896913          	ori	s2,s2,8
C:\Users\liangfan\OneDrive\enbed\CH573\AHL-CH573-EXP-V1.3-20241124\03-Software\CH07\LST-ASM-CH573\Debug/srcc/printf.c:291
				break;
   1437a:	b7b1                	j	142c6 <printk+0xa0>
C:\Users\liangfan\OneDrive\enbed\CH573\AHL-CH573-EXP-V1.3-20241124\03-Software\CH07\LST-ASM-CH573\Debug/srcc/printf.c:319
				field_width = (field_width * 10) + (c - '0');
   1437c:	036989b3          	mul	s3,s3,s6
C:\Users\liangfan\OneDrive\enbed\CH573\AHL-CH573-EXP-V1.3-20241124\03-Software\CH07\LST-ASM-CH573\Debug/srcc/printf.c:320
				break;
   14380:	8a3e                	mv	s4,a5
C:\Users\liangfan\OneDrive\enbed\CH573\AHL-CH573-EXP-V1.3-20241124\03-Software\CH07\LST-ASM-CH573\Debug/srcc/printf.c:319
				field_width = (field_width * 10) + (c - '0');
   14382:	99b6                	add	s3,s3,a3
C:\Users\liangfan\OneDrive\enbed\CH573\AHL-CH573-EXP-V1.3-20241124\03-Software\CH07\LST-ASM-CH573\Debug/srcc/printf.c:320
				break;
   14384:	b785                	j	142e4 <printk+0xbe>
C:\Users\liangfan\OneDrive\enbed\CH573\AHL-CH573-EXP-V1.3-20241124\03-Software\CH07\LST-ASM-CH573\Debug/srcc/printf.c:350
				precision_width = (precision_width * 10) +	(c - '0');
   14386:	036d0d33          	mul	s10,s10,s6
C:\Users\liangfan\OneDrive\enbed\CH573\AHL-CH573-EXP-V1.3-20241124\03-Software\CH07\LST-ASM-CH573\Debug/srcc/printf.c:353
					break;
   1438a:	87b2                	mv	a5,a2
C:\Users\liangfan\OneDrive\enbed\CH573\AHL-CH573-EXP-V1.3-20241124\03-Software\CH07\LST-ASM-CH573\Debug/srcc/printf.c:350
				precision_width = (precision_width * 10) +	(c - '0');
   1438c:	9d3a                	add	s10,s10,a4
C:\Users\liangfan\OneDrive\enbed\CH573\AHL-CH573-EXP-V1.3-20241124\03-Software\CH07\LST-ASM-CH573\Debug/srcc/printf.c:338
				switch ( c = *++p) {
   1438e:	00178703          	lb	a4,1(a5)
   14392:	00178613          	addi	a2,a5,1
   14396:	fd070713          	addi	a4,a4,-48
   1439a:	fee6f6e3          	bgeu	a3,a4,14386 <printk+0x160>
   1439e:	8a3e                	mv	s4,a5
   143a0:	b785                	j	14300 <printk+0xda>
   143a2:	46a5                	li	a3,9
   143a4:	b7ed                	j	1438e <printk+0x168>
C:\Users\liangfan\OneDrive\enbed\CH573\AHL-CH573-EXP-V1.3-20241124\03-Software\CH07\LST-ASM-CH573\Debug/srcc/printf.c:391
			ival = (int) va_arg1(ap, int);  //返回当前参数，并将ap指向下一个参数
   143a6:	401c                	lw	a5,0(s0)
C:\Users\liangfan\OneDrive\enbed\CH573\AHL-CH573-EXP-V1.3-20241124\03-Software\CH07\LST-ASM-CH573\Debug/srcc/printf.c:392
			vlen = printk_mknumstr(vstr, &ival, TRUE, 10);//将整型转换成字符型保存在vstr中，返回字符数vlen
   143a8:	46a9                	li	a3,10
   143aa:	4605                	li	a2,1
   143ac:	082c                	addi	a1,sp,24
   143ae:	1068                	addi	a0,sp,44
C:\Users\liangfan\OneDrive\enbed\CH573\AHL-CH573-EXP-V1.3-20241124\03-Software\CH07\LST-ASM-CH573\Debug/srcc/printf.c:391
			ival = (int) va_arg1(ap, int);  //返回当前参数，并将ap指向下一个参数
   143b0:	cc3e                	sw	a5,24(sp)
C:\Users\liangfan\OneDrive\enbed\CH573\AHL-CH573-EXP-V1.3-20241124\03-Software\CH07\LST-ASM-CH573\Debug/srcc/printf.c:392
			vlen = printk_mknumstr(vstr, &ival, TRUE, 10);//将整型转换成字符型保存在vstr中，返回字符数vlen
   143b2:	00000097          	auipc	ra,0x0
   143b6:	b44080e7          	jalr	-1212(ra) # 13ef6 <printk_mknumstr>
C:\Users\liangfan\OneDrive\enbed\CH573\AHL-CH573-EXP-V1.3-20241124\03-Software\CH07\LST-ASM-CH573\Debug/srcc/printf.c:393
			vstrp = &vstr[vlen];  //指向转换后的最后一个字符
   143ba:	107c                	addi	a5,sp,44
   143bc:	00a78db3          	add	s11,a5,a0
C:\Users\liangfan\OneDrive\enbed\CH573\AHL-CH573-EXP-V1.3-20241124\03-Software\CH07\LST-ASM-CH573\Debug/srcc/printf.c:396
			if (ival < 0) {
   143c0:	47e2                	lw	a5,24(sp)
C:\Users\liangfan\OneDrive\enbed\CH573\AHL-CH573-EXP-V1.3-20241124\03-Software\CH07\LST-ASM-CH573\Debug/srcc/printf.c:391
			ival = (int) va_arg1(ap, int);  //返回当前参数，并将ap指向下一个参数
   143c2:	00440a93          	addi	s5,s0,4
C:\Users\liangfan\OneDrive\enbed\CH573\AHL-CH573-EXP-V1.3-20241124\03-Software\CH07\LST-ASM-CH573\Debug/srcc/printf.c:392
			vlen = printk_mknumstr(vstr, &ival, TRUE, 10);//将整型转换成字符型保存在vstr中，返回字符数vlen
   143c6:	842a                	mv	s0,a0
C:\Users\liangfan\OneDrive\enbed\CH573\AHL-CH573-EXP-V1.3-20241124\03-Software\CH07\LST-ASM-CH573\Debug/srcc/printf.c:396
			if (ival < 0) {
   143c8:	0207d663          	bgez	a5,143f4 <printk+0x1ce>
C:\Users\liangfan\OneDrive\enbed\CH573\AHL-CH573-EXP-V1.3-20241124\03-Software\CH07\LST-ASM-CH573\Debug/srcc/printf.c:398
				++vlen;
   143cc:	00150413          	addi	s0,a0,1
C:\Users\liangfan\OneDrive\enbed\CH573\AHL-CH573-EXP-V1.3-20241124\03-Software\CH07\LST-ASM-CH573\Debug/srcc/printf.c:397
				schar = '-';
   143d0:	02d00d13          	li	s10,45
C:\Users\liangfan\OneDrive\enbed\CH573\AHL-CH573-EXP-V1.3-20241124\03-Software\CH07\LST-ASM-CH573\Debug/srcc/printf.c:419
			if (IS_FLAG_ZERO(flags_used)) {
   143d4:	00897793          	andi	a5,s2,8
   143d8:	cba9                	beqz	a5,1442a <printk+0x204>
C:\Users\liangfan\OneDrive\enbed\CH573\AHL-CH573-EXP-V1.3-20241124\03-Software\CH07\LST-ASM-CH573\Debug/srcc/printf.c:420
				if (schar)
   143da:	000d0963          	beqz	s10,143ec <printk+0x1c6>
C:\Users\liangfan\OneDrive\enbed\CH573\AHL-CH573-EXP-V1.3-20241124\03-Software\CH07\LST-ASM-CH573\Debug/srcc/printf.c:421
					printk_putc(schar, &count, info);  //输出符号
   143de:	8626                	mv	a2,s1
   143e0:	084c                	addi	a1,sp,20
   143e2:	856a                	mv	a0,s10
   143e4:	00000097          	auipc	ra,0x0
   143e8:	ad2080e7          	jalr	-1326(ra) # 13eb6 <printk_putc>
printk_pad_zero():
C:\Users\liangfan\OneDrive\enbed\CH573\AHL-CH573-EXP-V1.3-20241124\03-Software\CH07\LST-ASM-CH573\Debug/srcc/printf.c:179
	for (i = curlen; i < field_width; i++) {
   143ec:	03344563          	blt	s0,s3,14416 <printk+0x1f0>
   143f0:	844e                	mv	s0,s3
   143f2:	a2e9                	j	145bc <printk+0x396>
printk():
C:\Users\liangfan\OneDrive\enbed\CH573\AHL-CH573-EXP-V1.3-20241124\03-Software\CH07\LST-ASM-CH573\Debug/srcc/printf.c:402
				if (IS_FLAG_PLUS(flags_used)) {
   143f4:	00297793          	andi	a5,s2,2
   143f8:	c791                	beqz	a5,14404 <printk+0x1de>
C:\Users\liangfan\OneDrive\enbed\CH573\AHL-CH573-EXP-V1.3-20241124\03-Software\CH07\LST-ASM-CH573\Debug/srcc/printf.c:404
					++vlen;
   143fa:	00150413          	addi	s0,a0,1
C:\Users\liangfan\OneDrive\enbed\CH573\AHL-CH573-EXP-V1.3-20241124\03-Software\CH07\LST-ASM-CH573\Debug/srcc/printf.c:403
					schar = '+';
   143fe:	02b00d13          	li	s10,43
   14402:	bfc9                	j	143d4 <printk+0x1ae>
C:\Users\liangfan\OneDrive\enbed\CH573\AHL-CH573-EXP-V1.3-20241124\03-Software\CH07\LST-ASM-CH573\Debug/srcc/printf.c:406
					if (IS_FLAG_SPACE(flags_used)) {
   14404:	00497d13          	andi	s10,s2,4
   14408:	fc0d06e3          	beqz	s10,143d4 <printk+0x1ae>
C:\Users\liangfan\OneDrive\enbed\CH573\AHL-CH573-EXP-V1.3-20241124\03-Software\CH07\LST-ASM-CH573\Debug/srcc/printf.c:408
						++vlen;
   1440c:	00150413          	addi	s0,a0,1
C:\Users\liangfan\OneDrive\enbed\CH573\AHL-CH573-EXP-V1.3-20241124\03-Software\CH07\LST-ASM-CH573\Debug/srcc/printf.c:407
						schar = ' ';
   14410:	02000d13          	li	s10,32
   14414:	b7c1                	j	143d4 <printk+0x1ae>
printk_pad_zero():
C:\Users\liangfan\OneDrive\enbed\CH573\AHL-CH573-EXP-V1.3-20241124\03-Software\CH07\LST-ASM-CH573\Debug/srcc/printf.c:180
		printk_putc('0', count, info);
   14416:	8626                	mv	a2,s1
   14418:	084c                	addi	a1,sp,20
   1441a:	03000513          	li	a0,48
   1441e:	00000097          	auipc	ra,0x0
   14422:	a98080e7          	jalr	-1384(ra) # 13eb6 <printk_putc>
C:\Users\liangfan\OneDrive\enbed\CH573\AHL-CH573-EXP-V1.3-20241124\03-Software\CH07\LST-ASM-CH573\Debug/srcc/printf.c:179
	for (i = curlen; i < field_width; i++) {
   14426:	0405                	addi	s0,s0,1
   14428:	b7d1                	j	143ec <printk+0x1c6>
printk():
C:\Users\liangfan\OneDrive\enbed\CH573\AHL-CH573-EXP-V1.3-20241124\03-Software\CH07\LST-ASM-CH573\Debug/srcc/printf.c:426
				if (!IS_FLAG_MINUS(flags_used)) {
   1442a:	00197793          	andi	a5,s2,1
   1442e:	eb89                	bnez	a5,14440 <printk+0x21a>
C:\Users\liangfan\OneDrive\enbed\CH573\AHL-CH573-EXP-V1.3-20241124\03-Software\CH07\LST-ASM-CH573\Debug/srcc/printf.c:427
					printk_pad_space(vlen, field_width, &count, info);  //输出空格
   14430:	86a6                	mv	a3,s1
   14432:	0850                	addi	a2,sp,20
   14434:	85ce                	mv	a1,s3
   14436:	8522                	mv	a0,s0
   14438:	00000097          	auipc	ra,0x0
   1443c:	b30080e7          	jalr	-1232(ra) # 13f68 <printk_pad_space>
C:\Users\liangfan\OneDrive\enbed\CH573\AHL-CH573-EXP-V1.3-20241124\03-Software\CH07\LST-ASM-CH573\Debug/srcc/printf.c:437
			if (!dschar && schar) {
   14440:	160d0e63          	beqz	s10,145bc <printk+0x396>
C:\Users\liangfan\OneDrive\enbed\CH573\AHL-CH573-EXP-V1.3-20241124\03-Software\CH07\LST-ASM-CH573\Debug/srcc/printf.c:438
				printk_putc(schar, &count, info);
   14444:	8626                	mv	a2,s1
   14446:	084c                	addi	a1,sp,20
   14448:	856a                	mv	a0,s10
C:\Users\liangfan\OneDrive\enbed\CH573\AHL-CH573-EXP-V1.3-20241124\03-Software\CH07\LST-ASM-CH573\Debug/srcc/printf.c:598
				printk_putc(*vstrp--, &count, info);
   1444a:	00000097          	auipc	ra,0x0
   1444e:	a6c080e7          	jalr	-1428(ra) # 13eb6 <printk_putc>
   14452:	a2ad                	j	145bc <printk+0x396>
C:\Users\liangfan\OneDrive\enbed\CH573\AHL-CH573-EXP-V1.3-20241124\03-Software\CH07\LST-ASM-CH573\Debug/srcc/printf.c:452
			fval= (double)va_arg1(ap,double);
   14454:	00442d83          	lw	s11,4(s0)
   14458:	00c40a93          	addi	s5,s0,12
   1445c:	4400                	lw	s0,8(s0)
C:\Users\liangfan\OneDrive\enbed\CH573\AHL-CH573-EXP-V1.3-20241124\03-Software\CH07\LST-ASM-CH573\Debug/srcc/printf.c:456
			if (fval < 0) {
   1445e:	4601                	li	a2,0
   14460:	4681                	li	a3,0
   14462:	856e                	mv	a0,s11
   14464:	85a2                	mv	a1,s0
C:\Users\liangfan\OneDrive\enbed\CH573\AHL-CH573-EXP-V1.3-20241124\03-Software\CH07\LST-ASM-CH573\Debug/srcc/printf.c:452
			fval= (double)va_arg1(ap,double);
   14466:	d06e                	sw	s11,32(sp)
   14468:	d222                	sw	s0,36(sp)
C:\Users\liangfan\OneDrive\enbed\CH573\AHL-CH573-EXP-V1.3-20241124\03-Software\CH07\LST-ASM-CH573\Debug/srcc/printf.c:456
			if (fval < 0) {
   1446a:	00001097          	auipc	ra,0x1
   1446e:	aa2080e7          	jalr	-1374(ra) # 14f0c <__ledf2>
   14472:	04055763          	bgez	a0,144c0 <printk+0x29a>
C:\Users\liangfan\OneDrive\enbed\CH573\AHL-CH573-EXP-V1.3-20241124\03-Software\CH07\LST-ASM-CH573\Debug/srcc/printf.c:458
				fval = -fval;				//负数取它的正数
   14476:	800007b7          	lui	a5,0x80000
   1447a:	8fa1                	xor	a5,a5,s0
   1447c:	d06e                	sw	s11,32(sp)
   1447e:	d23e                	sw	a5,36(sp)
C:\Users\liangfan\OneDrive\enbed\CH573\AHL-CH573-EXP-V1.3-20241124\03-Software\CH07\LST-ASM-CH573\Debug/srcc/printf.c:457
				schar = '-';
   14480:	02d00413          	li	s0,45
C:\Users\liangfan\OneDrive\enbed\CH573\AHL-CH573-EXP-V1.3-20241124\03-Software\CH07\LST-ASM-CH573\Debug/srcc/printf.c:480
				vlen = printk_mkfloatstr(&fval,vstr,precision_width);//将整型转换成字符型保存在vstr中，返回字符数vlen
   14484:	866a                	mv	a2,s10
C:\Users\liangfan\OneDrive\enbed\CH573\AHL-CH573-EXP-V1.3-20241124\03-Software\CH07\LST-ASM-CH573\Debug/srcc/printf.c:478
			if(precision_used)
   14486:	000b9363          	bnez	s7,1448c <printk+0x266>
C:\Users\liangfan\OneDrive\enbed\CH573\AHL-CH573-EXP-V1.3-20241124\03-Software\CH07\LST-ASM-CH573\Debug/srcc/printf.c:487
					vlen = printk_mkfloatstr(&fval,vstr,6);//将整型转换成字符型保存在vstr中，返回字符数vlen
   1448a:	4619                	li	a2,6
   1448c:	106c                	addi	a1,sp,44
   1448e:	1008                	addi	a0,sp,32
   14490:	00000097          	auipc	ra,0x0
   14494:	b1e080e7          	jalr	-1250(ra) # 13fae <printk_mkfloatstr>
   14498:	00197d93          	andi	s11,s2,1
C:\Users\liangfan\OneDrive\enbed\CH573\AHL-CH573-EXP-V1.3-20241124\03-Software\CH07\LST-ASM-CH573\Debug/srcc/printf.c:503
			if (IS_FLAG_ZERO(flags_used)) {
   1449c:	00897913          	andi	s2,s2,8
C:\Users\liangfan\OneDrive\enbed\CH573\AHL-CH573-EXP-V1.3-20241124\03-Software\CH07\LST-ASM-CH573\Debug/srcc/printf.c:487
					vlen = printk_mkfloatstr(&fval,vstr,6);//将整型转换成字符型保存在vstr中，返回字符数vlen
   144a0:	8d2a                	mv	s10,a0
C:\Users\liangfan\OneDrive\enbed\CH573\AHL-CH573-EXP-V1.3-20241124\03-Software\CH07\LST-ASM-CH573\Debug/srcc/printf.c:503
			if (IS_FLAG_ZERO(flags_used)) {
   144a2:	04090463          	beqz	s2,144ea <printk+0x2c4>
C:\Users\liangfan\OneDrive\enbed\CH573\AHL-CH573-EXP-V1.3-20241124\03-Software\CH07\LST-ASM-CH573\Debug/srcc/printf.c:504
				if (schar)
   144a6:	c801                	beqz	s0,144b6 <printk+0x290>
C:\Users\liangfan\OneDrive\enbed\CH573\AHL-CH573-EXP-V1.3-20241124\03-Software\CH07\LST-ASM-CH573\Debug/srcc/printf.c:505
					printk_putc(schar, &count, info);  //输出符号
   144a8:	8626                	mv	a2,s1
   144aa:	084c                	addi	a1,sp,20
   144ac:	8522                	mv	a0,s0
   144ae:	00000097          	auipc	ra,0x0
   144b2:	a08080e7          	jalr	-1528(ra) # 13eb6 <printk_putc>
printk_pad_zero():
C:\Users\liangfan\OneDrive\enbed\CH573\AHL-CH573-EXP-V1.3-20241124\03-Software\CH07\LST-ASM-CH573\Debug/srcc/printf.c:179
	for (i = curlen; i < field_width; i++) {
   144b6:	033d4063          	blt	s10,s3,144d6 <printk+0x2b0>
   144ba:	8d4e                	mv	s10,s3
   144bc:	1060                	addi	s0,sp,44
   144be:	a8b9                	j	1451c <printk+0x2f6>
printk():
C:\Users\liangfan\OneDrive\enbed\CH573\AHL-CH573-EXP-V1.3-20241124\03-Software\CH07\LST-ASM-CH573\Debug/srcc/printf.c:463
				if (IS_FLAG_PLUS(flags_used)) {
   144c0:	00297793          	andi	a5,s2,2
C:\Users\liangfan\OneDrive\enbed\CH573\AHL-CH573-EXP-V1.3-20241124\03-Software\CH07\LST-ASM-CH573\Debug/srcc/printf.c:464
					schar = '+';
   144c4:	02b00413          	li	s0,43
C:\Users\liangfan\OneDrive\enbed\CH573\AHL-CH573-EXP-V1.3-20241124\03-Software\CH07\LST-ASM-CH573\Debug/srcc/printf.c:463
				if (IS_FLAG_PLUS(flags_used)) {
   144c8:	ffd5                	bnez	a5,14484 <printk+0x25e>
C:\Users\liangfan\OneDrive\enbed\CH573\AHL-CH573-EXP-V1.3-20241124\03-Software\CH07\LST-ASM-CH573\Debug/srcc/printf.c:467
					if (IS_FLAG_SPACE(flags_used)) {
   144ca:	00497413          	andi	s0,s2,4
   144ce:	d85d                	beqz	s0,14484 <printk+0x25e>
C:\Users\liangfan\OneDrive\enbed\CH573\AHL-CH573-EXP-V1.3-20241124\03-Software\CH07\LST-ASM-CH573\Debug/srcc/printf.c:468
						schar = ' ';
   144d0:	02000413          	li	s0,32
   144d4:	bf45                	j	14484 <printk+0x25e>
printk_pad_zero():
C:\Users\liangfan\OneDrive\enbed\CH573\AHL-CH573-EXP-V1.3-20241124\03-Software\CH07\LST-ASM-CH573\Debug/srcc/printf.c:180
		printk_putc('0', count, info);
   144d6:	8626                	mv	a2,s1
   144d8:	084c                	addi	a1,sp,20
   144da:	03000513          	li	a0,48
   144de:	00000097          	auipc	ra,0x0
   144e2:	9d8080e7          	jalr	-1576(ra) # 13eb6 <printk_putc>
C:\Users\liangfan\OneDrive\enbed\CH573\AHL-CH573-EXP-V1.3-20241124\03-Software\CH07\LST-ASM-CH573\Debug/srcc/printf.c:179
	for (i = curlen; i < field_width; i++) {
   144e6:	0d05                	addi	s10,s10,1
   144e8:	b7f9                	j	144b6 <printk+0x290>
printk():
C:\Users\liangfan\OneDrive\enbed\CH573\AHL-CH573-EXP-V1.3-20241124\03-Software\CH07\LST-ASM-CH573\Debug/srcc/printf.c:510
				if (!IS_FLAG_MINUS(flags_used)) {
   144ea:	000d9963          	bnez	s11,144fc <printk+0x2d6>
C:\Users\liangfan\OneDrive\enbed\CH573\AHL-CH573-EXP-V1.3-20241124\03-Software\CH07\LST-ASM-CH573\Debug/srcc/printf.c:511
					printk_pad_space(vlen, field_width, &count, info);  //输出空格
   144ee:	86a6                	mv	a3,s1
   144f0:	0850                	addi	a2,sp,20
   144f2:	85ce                	mv	a1,s3
   144f4:	00000097          	auipc	ra,0x0
   144f8:	a74080e7          	jalr	-1420(ra) # 13f68 <printk_pad_space>
C:\Users\liangfan\OneDrive\enbed\CH573\AHL-CH573-EXP-V1.3-20241124\03-Software\CH07\LST-ASM-CH573\Debug/srcc/printf.c:521
			if (!dschar && schar) {
   144fc:	d061                	beqz	s0,144bc <printk+0x296>
C:\Users\liangfan\OneDrive\enbed\CH573\AHL-CH573-EXP-V1.3-20241124\03-Software\CH07\LST-ASM-CH573\Debug/srcc/printf.c:522
				printk_putc(schar, &count, info);
   144fe:	8626                	mv	a2,s1
   14500:	084c                	addi	a1,sp,20
   14502:	8522                	mv	a0,s0
   14504:	00000097          	auipc	ra,0x0
   14508:	9b2080e7          	jalr	-1614(ra) # 13eb6 <printk_putc>
   1450c:	bf45                	j	144bc <printk+0x296>
C:\Users\liangfan\OneDrive\enbed\CH573\AHL-CH573-EXP-V1.3-20241124\03-Software\CH07\LST-ASM-CH573\Debug/srcc/printf.c:525
				printk_putc(*vstrp++, &count, info);
   1450e:	8626                	mv	a2,s1
   14510:	084c                	addi	a1,sp,20
   14512:	0405                	addi	s0,s0,1
   14514:	00000097          	auipc	ra,0x0
   14518:	9a2080e7          	jalr	-1630(ra) # 13eb6 <printk_putc>
C:\Users\liangfan\OneDrive\enbed\CH573\AHL-CH573-EXP-V1.3-20241124\03-Software\CH07\LST-ASM-CH573\Debug/srcc/printf.c:524
			while (*vstrp)
   1451c:	00040503          	lb	a0,0(s0)
   14520:	f57d                	bnez	a0,1450e <printk+0x2e8>
C:\Users\liangfan\OneDrive\enbed\CH573\AHL-CH573-EXP-V1.3-20241124\03-Software\CH07\LST-ASM-CH573\Debug/srcc/printf.c:526
			if (IS_FLAG_MINUS(flags_used)) {
   14522:	000d8a63          	beqz	s11,14536 <printk+0x310>
C:\Users\liangfan\OneDrive\enbed\CH573\AHL-CH573-EXP-V1.3-20241124\03-Software\CH07\LST-ASM-CH573\Debug/srcc/printf.c:527
				printk_pad_space(vlen, field_width, &count, info);
   14526:	86a6                	mv	a3,s1
   14528:	0850                	addi	a2,sp,20
   1452a:	85ce                	mv	a1,s3
   1452c:	856a                	mv	a0,s10
C:\Users\liangfan\OneDrive\enbed\CH573\AHL-CH573-EXP-V1.3-20241124\03-Software\CH07\LST-ASM-CH573\Debug/srcc/printf.c:601
				printk_pad_space(vlen, field_width, &count, info);
   1452e:	00000097          	auipc	ra,0x0
   14532:	a3a080e7          	jalr	-1478(ra) # 13f68 <printk_pad_space>
C:\Users\liangfan\OneDrive\enbed\CH573\AHL-CH573-EXP-V1.3-20241124\03-Software\CH07\LST-ASM-CH573\Debug/srcc/printf.c:251 (discriminator 2)
	for (p = (char *) fmt; (c = *p) != 0; p++)
   14536:	0a05                	addi	s4,s4,1
   14538:	8456                	mv	s0,s5
   1453a:	bb25                	j	14272 <printk+0x4c>
C:\Users\liangfan\OneDrive\enbed\CH573\AHL-CH573-EXP-V1.3-20241124\03-Software\CH07\LST-ASM-CH573\Debug/srcc/printf.c:533
			uval = (unsigned int) va_arg1(ap, unsigned int);
   1453c:	401c                	lw	a5,0(s0)
C:\Users\liangfan\OneDrive\enbed\CH573\AHL-CH573-EXP-V1.3-20241124\03-Software\CH07\LST-ASM-CH573\Debug/srcc/printf.c:534
			vlen = printk_mknumstr(vstr, &uval, FALSE, 16);
   1453e:	46c1                	li	a3,16
   14540:	4601                	li	a2,0
   14542:	086c                	addi	a1,sp,28
   14544:	1068                	addi	a0,sp,44
C:\Users\liangfan\OneDrive\enbed\CH573\AHL-CH573-EXP-V1.3-20241124\03-Software\CH07\LST-ASM-CH573\Debug/srcc/printf.c:533
			uval = (unsigned int) va_arg1(ap, unsigned int);
   14546:	ce3e                	sw	a5,28(sp)
C:\Users\liangfan\OneDrive\enbed\CH573\AHL-CH573-EXP-V1.3-20241124\03-Software\CH07\LST-ASM-CH573\Debug/srcc/printf.c:534
			vlen = printk_mknumstr(vstr, &uval, FALSE, 16);
   14548:	00000097          	auipc	ra,0x0
   1454c:	9ae080e7          	jalr	-1618(ra) # 13ef6 <printk_mknumstr>
C:\Users\liangfan\OneDrive\enbed\CH573\AHL-CH573-EXP-V1.3-20241124\03-Software\CH07\LST-ASM-CH573\Debug/srcc/printf.c:535
			vstrp = &vstr[vlen];
   14550:	107c                	addi	a5,sp,44
   14552:	00a78db3          	add	s11,a5,a0
C:\Users\liangfan\OneDrive\enbed\CH573\AHL-CH573-EXP-V1.3-20241124\03-Software\CH07\LST-ASM-CH573\Debug/srcc/printf.c:538
			if (IS_FLAG_ZERO(flags_used)) {
   14556:	00897793          	andi	a5,s2,8
C:\Users\liangfan\OneDrive\enbed\CH573\AHL-CH573-EXP-V1.3-20241124\03-Software\CH07\LST-ASM-CH573\Debug/srcc/printf.c:533
			uval = (unsigned int) va_arg1(ap, unsigned int);
   1455a:	00440a93          	addi	s5,s0,4
C:\Users\liangfan\OneDrive\enbed\CH573\AHL-CH573-EXP-V1.3-20241124\03-Software\CH07\LST-ASM-CH573\Debug/srcc/printf.c:534
			vlen = printk_mknumstr(vstr, &uval, FALSE, 16);
   1455e:	01097d13          	andi	s10,s2,16
   14562:	842a                	mv	s0,a0
C:\Users\liangfan\OneDrive\enbed\CH573\AHL-CH573-EXP-V1.3-20241124\03-Software\CH07\LST-ASM-CH573\Debug/srcc/printf.c:538
			if (IS_FLAG_ZERO(flags_used)) {
   14564:	c7c1                	beqz	a5,145ec <printk+0x3c6>
C:\Users\liangfan\OneDrive\enbed\CH573\AHL-CH573-EXP-V1.3-20241124\03-Software\CH07\LST-ASM-CH573\Debug/srcc/printf.c:537
			dschar = FALSE;
   14566:	4781                	li	a5,0
C:\Users\liangfan\OneDrive\enbed\CH573\AHL-CH573-EXP-V1.3-20241124\03-Software\CH07\LST-ASM-CH573\Debug/srcc/printf.c:539
				if (IS_FLAG_POUND(flags_used)) {
   14568:	020d0363          	beqz	s10,1458e <printk+0x368>
C:\Users\liangfan\OneDrive\enbed\CH573\AHL-CH573-EXP-V1.3-20241124\03-Software\CH07\LST-ASM-CH573\Debug/srcc/printf.c:540
					printk_putc('0', &count, info);
   1456c:	8626                	mv	a2,s1
   1456e:	084c                	addi	a1,sp,20
   14570:	03000513          	li	a0,48
   14574:	00000097          	auipc	ra,0x0
   14578:	942080e7          	jalr	-1726(ra) # 13eb6 <printk_putc>
C:\Users\liangfan\OneDrive\enbed\CH573\AHL-CH573-EXP-V1.3-20241124\03-Software\CH07\LST-ASM-CH573\Debug/srcc/printf.c:541
					printk_putc('x', &count, info);
   1457c:	8626                	mv	a2,s1
   1457e:	084c                	addi	a1,sp,20
   14580:	07800513          	li	a0,120
   14584:	00000097          	auipc	ra,0x0
   14588:	932080e7          	jalr	-1742(ra) # 13eb6 <printk_putc>
C:\Users\liangfan\OneDrive\enbed\CH573\AHL-CH573-EXP-V1.3-20241124\03-Software\CH07\LST-ASM-CH573\Debug/srcc/printf.c:543
					dschar = TRUE;
   1458c:	4785                	li	a5,1
printk_pad_zero():
C:\Users\liangfan\OneDrive\enbed\CH573\AHL-CH573-EXP-V1.3-20241124\03-Software\CH07\LST-ASM-CH573\Debug/srcc/printf.c:179
	for (i = curlen; i < field_width; i++) {
   1458e:	05344363          	blt	s0,s3,145d4 <printk+0x3ae>
printk():
C:\Users\liangfan\OneDrive\enbed\CH573\AHL-CH573-EXP-V1.3-20241124\03-Software\CH07\LST-ASM-CH573\Debug/srcc/printf.c:561
			if ((IS_FLAG_POUND(flags_used)) && !dschar) {
   14592:	844e                	mv	s0,s3
   14594:	020d0463          	beqz	s10,145bc <printk+0x396>
C:\Users\liangfan\OneDrive\enbed\CH573\AHL-CH573-EXP-V1.3-20241124\03-Software\CH07\LST-ASM-CH573\Debug/srcc/printf.c:561 (discriminator 1)
   14598:	e395                	bnez	a5,145bc <printk+0x396>
C:\Users\liangfan\OneDrive\enbed\CH573\AHL-CH573-EXP-V1.3-20241124\03-Software\CH07\LST-ASM-CH573\Debug/srcc/printf.c:562
				printk_putc('0', &count, info);
   1459a:	8626                	mv	a2,s1
   1459c:	084c                	addi	a1,sp,20
   1459e:	03000513          	li	a0,48
   145a2:	00000097          	auipc	ra,0x0
   145a6:	914080e7          	jalr	-1772(ra) # 13eb6 <printk_putc>
C:\Users\liangfan\OneDrive\enbed\CH573\AHL-CH573-EXP-V1.3-20241124\03-Software\CH07\LST-ASM-CH573\Debug/srcc/printf.c:563
				printk_putc('x', &count, info);
   145aa:	8626                	mv	a2,s1
   145ac:	084c                	addi	a1,sp,20
   145ae:	07800513          	li	a0,120
   145b2:	00000097          	auipc	ra,0x0
   145b6:	904080e7          	jalr	-1788(ra) # 13eb6 <printk_putc>
C:\Users\liangfan\OneDrive\enbed\CH573\AHL-CH573-EXP-V1.3-20241124\03-Software\CH07\LST-ASM-CH573\Debug/srcc/printf.c:564
				vlen += 2;
   145ba:	0409                	addi	s0,s0,2
C:\Users\liangfan\OneDrive\enbed\CH573\AHL-CH573-EXP-V1.3-20241124\03-Software\CH07\LST-ASM-CH573\Debug/srcc/printf.c:597 (discriminator 1)
			cont_xd: while (*vstrp)
   145bc:	000d8503          	lb	a0,0(s11)
   145c0:	e16d                	bnez	a0,146a2 <printk+0x47c>
C:\Users\liangfan\OneDrive\enbed\CH573\AHL-CH573-EXP-V1.3-20241124\03-Software\CH07\LST-ASM-CH573\Debug/srcc/printf.c:600
			if (IS_FLAG_MINUS(flags_used)) {
   145c2:	00197913          	andi	s2,s2,1
   145c6:	f60908e3          	beqz	s2,14536 <printk+0x310>
C:\Users\liangfan\OneDrive\enbed\CH573\AHL-CH573-EXP-V1.3-20241124\03-Software\CH07\LST-ASM-CH573\Debug/srcc/printf.c:601
				printk_pad_space(vlen, field_width, &count, info);
   145ca:	86a6                	mv	a3,s1
   145cc:	0850                	addi	a2,sp,20
   145ce:	85ce                	mv	a1,s3
   145d0:	8522                	mv	a0,s0
   145d2:	bfb1                	j	1452e <printk+0x308>
printk_pad_zero():
C:\Users\liangfan\OneDrive\enbed\CH573\AHL-CH573-EXP-V1.3-20241124\03-Software\CH07\LST-ASM-CH573\Debug/srcc/printf.c:180
		printk_putc('0', count, info);
   145d4:	8626                	mv	a2,s1
   145d6:	084c                	addi	a1,sp,20
   145d8:	03000513          	li	a0,48
   145dc:	c63e                	sw	a5,12(sp)
   145de:	00000097          	auipc	ra,0x0
   145e2:	8d8080e7          	jalr	-1832(ra) # 13eb6 <printk_putc>
C:\Users\liangfan\OneDrive\enbed\CH573\AHL-CH573-EXP-V1.3-20241124\03-Software\CH07\LST-ASM-CH573\Debug/srcc/printf.c:179
	for (i = curlen; i < field_width; i++) {
   145e6:	0405                	addi	s0,s0,1
   145e8:	47b2                	lw	a5,12(sp)
   145ea:	b755                	j	1458e <printk+0x368>
printk():
C:\Users\liangfan\OneDrive\enbed\CH573\AHL-CH573-EXP-V1.3-20241124\03-Software\CH07\LST-ASM-CH573\Debug/srcc/printf.c:548
				if (!IS_FLAG_MINUS(flags_used)) {
   145ec:	00197793          	andi	a5,s2,1
   145f0:	14079863          	bnez	a5,14740 <printk+0x51a>
C:\Users\liangfan\OneDrive\enbed\CH573\AHL-CH573-EXP-V1.3-20241124\03-Software\CH07\LST-ASM-CH573\Debug/srcc/printf.c:549
					if (IS_FLAG_POUND(flags_used)) {
   145f4:	000d0463          	beqz	s10,145fc <printk+0x3d6>
C:\Users\liangfan\OneDrive\enbed\CH573\AHL-CH573-EXP-V1.3-20241124\03-Software\CH07\LST-ASM-CH573\Debug/srcc/printf.c:550
						vlen += 2;
   145f8:	00250413          	addi	s0,a0,2
C:\Users\liangfan\OneDrive\enbed\CH573\AHL-CH573-EXP-V1.3-20241124\03-Software\CH07\LST-ASM-CH573\Debug/srcc/printf.c:552
					printk_pad_space(vlen, field_width, &count, info);
   145fc:	86a6                	mv	a3,s1
   145fe:	0850                	addi	a2,sp,20
   14600:	85ce                	mv	a1,s3
   14602:	8522                	mv	a0,s0
   14604:	00000097          	auipc	ra,0x0
   14608:	964080e7          	jalr	-1692(ra) # 13f68 <printk_pad_space>
C:\Users\liangfan\OneDrive\enbed\CH573\AHL-CH573-EXP-V1.3-20241124\03-Software\CH07\LST-ASM-CH573\Debug/srcc/printf.c:553
					if (IS_FLAG_POUND(flags_used)) {
   1460c:	fa0d08e3          	beqz	s10,145bc <printk+0x396>
C:\Users\liangfan\OneDrive\enbed\CH573\AHL-CH573-EXP-V1.3-20241124\03-Software\CH07\LST-ASM-CH573\Debug/srcc/printf.c:554
						printk_putc('0', &count, info);
   14610:	8626                	mv	a2,s1
   14612:	084c                	addi	a1,sp,20
   14614:	03000513          	li	a0,48
   14618:	00000097          	auipc	ra,0x0
   1461c:	89e080e7          	jalr	-1890(ra) # 13eb6 <printk_putc>
C:\Users\liangfan\OneDrive\enbed\CH573\AHL-CH573-EXP-V1.3-20241124\03-Software\CH07\LST-ASM-CH573\Debug/srcc/printf.c:555
						printk_putc('x', &count, info);
   14620:	8626                	mv	a2,s1
   14622:	084c                	addi	a1,sp,20
   14624:	07800513          	li	a0,120
   14628:	b50d                	j	1444a <printk+0x224>
C:\Users\liangfan\OneDrive\enbed\CH573\AHL-CH573-EXP-V1.3-20241124\03-Software\CH07\LST-ASM-CH573\Debug/srcc/printf.c:569
			uval = (unsigned int) va_arg1(ap, unsigned int);
   1462a:	401c                	lw	a5,0(s0)
   1462c:	00440a93          	addi	s5,s0,4
C:\Users\liangfan\OneDrive\enbed\CH573\AHL-CH573-EXP-V1.3-20241124\03-Software\CH07\LST-ASM-CH573\Debug/srcc/printf.c:570
			vlen = printk_mknumstr(vstr, &uval, FALSE, 8);
   14630:	46a1                	li	a3,8
C:\Users\liangfan\OneDrive\enbed\CH573\AHL-CH573-EXP-V1.3-20241124\03-Software\CH07\LST-ASM-CH573\Debug/srcc/printf.c:569
			uval = (unsigned int) va_arg1(ap, unsigned int);
   14632:	ce3e                	sw	a5,28(sp)
C:\Users\liangfan\OneDrive\enbed\CH573\AHL-CH573-EXP-V1.3-20241124\03-Software\CH07\LST-ASM-CH573\Debug/srcc/printf.c:584
			vlen = printk_mknumstr(vstr, &uval, FALSE, 10);
   14634:	4601                	li	a2,0
   14636:	086c                	addi	a1,sp,28
   14638:	1068                	addi	a0,sp,44
   1463a:	00000097          	auipc	ra,0x0
   1463e:	8bc080e7          	jalr	-1860(ra) # 13ef6 <printk_mknumstr>
C:\Users\liangfan\OneDrive\enbed\CH573\AHL-CH573-EXP-V1.3-20241124\03-Software\CH07\LST-ASM-CH573\Debug/srcc/printf.c:586
			cont_u: vstrp = &vstr[vlen];
   14642:	107c                	addi	a5,sp,44
   14644:	00a78db3          	add	s11,a5,a0
C:\Users\liangfan\OneDrive\enbed\CH573\AHL-CH573-EXP-V1.3-20241124\03-Software\CH07\LST-ASM-CH573\Debug/srcc/printf.c:588
			if (IS_FLAG_ZERO(flags_used)) {
   14648:	00897793          	andi	a5,s2,8
C:\Users\liangfan\OneDrive\enbed\CH573\AHL-CH573-EXP-V1.3-20241124\03-Software\CH07\LST-ASM-CH573\Debug/srcc/printf.c:584
			vlen = printk_mknumstr(vstr, &uval, FALSE, 10);
   1464c:	842a                	mv	s0,a0
C:\Users\liangfan\OneDrive\enbed\CH573\AHL-CH573-EXP-V1.3-20241124\03-Software\CH07\LST-ASM-CH573\Debug/srcc/printf.c:588
			if (IS_FLAG_ZERO(flags_used)) {
   1464e:	cf9d                	beqz	a5,1468c <printk+0x466>
printk_pad_zero():
C:\Users\liangfan\OneDrive\enbed\CH573\AHL-CH573-EXP-V1.3-20241124\03-Software\CH07\LST-ASM-CH573\Debug/srcc/printf.c:179
	for (i = curlen; i < field_width; i++) {
   14650:	db3450e3          	bge	s0,s3,143f0 <printk+0x1ca>
C:\Users\liangfan\OneDrive\enbed\CH573\AHL-CH573-EXP-V1.3-20241124\03-Software\CH07\LST-ASM-CH573\Debug/srcc/printf.c:180
		printk_putc('0', count, info);
   14654:	8626                	mv	a2,s1
   14656:	084c                	addi	a1,sp,20
   14658:	03000513          	li	a0,48
   1465c:	00000097          	auipc	ra,0x0
   14660:	85a080e7          	jalr	-1958(ra) # 13eb6 <printk_putc>
C:\Users\liangfan\OneDrive\enbed\CH573\AHL-CH573-EXP-V1.3-20241124\03-Software\CH07\LST-ASM-CH573\Debug/srcc/printf.c:179
	for (i = curlen; i < field_width; i++) {
   14664:	0405                	addi	s0,s0,1
   14666:	b7ed                	j	14650 <printk+0x42a>
printk():
C:\Users\liangfan\OneDrive\enbed\CH573\AHL-CH573-EXP-V1.3-20241124\03-Software\CH07\LST-ASM-CH573\Debug/srcc/printf.c:574
			uval = (unsigned int) va_arg1(ap, unsigned int);
   14668:	401c                	lw	a5,0(s0)
   1466a:	00440a93          	addi	s5,s0,4
C:\Users\liangfan\OneDrive\enbed\CH573\AHL-CH573-EXP-V1.3-20241124\03-Software\CH07\LST-ASM-CH573\Debug/srcc/printf.c:575
			vlen = printk_mknumstr(vstr, &uval, FALSE, 2);
   1466e:	4689                	li	a3,2
C:\Users\liangfan\OneDrive\enbed\CH573\AHL-CH573-EXP-V1.3-20241124\03-Software\CH07\LST-ASM-CH573\Debug/srcc/printf.c:574
			uval = (unsigned int) va_arg1(ap, unsigned int);
   14670:	ce3e                	sw	a5,28(sp)
C:\Users\liangfan\OneDrive\enbed\CH573\AHL-CH573-EXP-V1.3-20241124\03-Software\CH07\LST-ASM-CH573\Debug/srcc/printf.c:575
			vlen = printk_mknumstr(vstr, &uval, FALSE, 2);
   14672:	b7c9                	j	14634 <printk+0x40e>
C:\Users\liangfan\OneDrive\enbed\CH573\AHL-CH573-EXP-V1.3-20241124\03-Software\CH07\LST-ASM-CH573\Debug/srcc/printf.c:579
			uval = (unsigned int) va_arg1(ap, void *);
   14674:	401c                	lw	a5,0(s0)
   14676:	00440a93          	addi	s5,s0,4
C:\Users\liangfan\OneDrive\enbed\CH573\AHL-CH573-EXP-V1.3-20241124\03-Software\CH07\LST-ASM-CH573\Debug/srcc/printf.c:580
			vlen = printk_mknumstr(vstr, &uval, FALSE, 16);
   1467a:	46c1                	li	a3,16
C:\Users\liangfan\OneDrive\enbed\CH573\AHL-CH573-EXP-V1.3-20241124\03-Software\CH07\LST-ASM-CH573\Debug/srcc/printf.c:579
			uval = (unsigned int) va_arg1(ap, void *);
   1467c:	ce3e                	sw	a5,28(sp)
C:\Users\liangfan\OneDrive\enbed\CH573\AHL-CH573-EXP-V1.3-20241124\03-Software\CH07\LST-ASM-CH573\Debug/srcc/printf.c:580
			vlen = printk_mknumstr(vstr, &uval, FALSE, 16);
   1467e:	bf5d                	j	14634 <printk+0x40e>
C:\Users\liangfan\OneDrive\enbed\CH573\AHL-CH573-EXP-V1.3-20241124\03-Software\CH07\LST-ASM-CH573\Debug/srcc/printf.c:583
			uval = (unsigned int) va_arg1(ap, unsigned int);
   14680:	401c                	lw	a5,0(s0)
   14682:	00440a93          	addi	s5,s0,4
C:\Users\liangfan\OneDrive\enbed\CH573\AHL-CH573-EXP-V1.3-20241124\03-Software\CH07\LST-ASM-CH573\Debug/srcc/printf.c:584
			vlen = printk_mknumstr(vstr, &uval, FALSE, 10);
   14686:	46a9                	li	a3,10
C:\Users\liangfan\OneDrive\enbed\CH573\AHL-CH573-EXP-V1.3-20241124\03-Software\CH07\LST-ASM-CH573\Debug/srcc/printf.c:583
			uval = (unsigned int) va_arg1(ap, unsigned int);
   14688:	ce3e                	sw	a5,28(sp)
C:\Users\liangfan\OneDrive\enbed\CH573\AHL-CH573-EXP-V1.3-20241124\03-Software\CH07\LST-ASM-CH573\Debug/srcc/printf.c:584
			vlen = printk_mknumstr(vstr, &uval, FALSE, 10);
   1468a:	b76d                	j	14634 <printk+0x40e>
C:\Users\liangfan\OneDrive\enbed\CH573\AHL-CH573-EXP-V1.3-20241124\03-Software\CH07\LST-ASM-CH573\Debug/srcc/printf.c:592
				if (!IS_FLAG_MINUS(flags_used)) {
   1468c:	00197793          	andi	a5,s2,1
   14690:	f795                	bnez	a5,145bc <printk+0x396>
C:\Users\liangfan\OneDrive\enbed\CH573\AHL-CH573-EXP-V1.3-20241124\03-Software\CH07\LST-ASM-CH573\Debug/srcc/printf.c:593
					printk_pad_space(vlen, field_width, &count, info);
   14692:	86a6                	mv	a3,s1
   14694:	0850                	addi	a2,sp,20
   14696:	85ce                	mv	a1,s3
   14698:	00000097          	auipc	ra,0x0
   1469c:	8d0080e7          	jalr	-1840(ra) # 13f68 <printk_pad_space>
   146a0:	bf31                	j	145bc <printk+0x396>
C:\Users\liangfan\OneDrive\enbed\CH573\AHL-CH573-EXP-V1.3-20241124\03-Software\CH07\LST-ASM-CH573\Debug/srcc/printf.c:598
				printk_putc(*vstrp--, &count, info);
   146a2:	1dfd                	addi	s11,s11,-1
   146a4:	8626                	mv	a2,s1
   146a6:	084c                	addi	a1,sp,20
   146a8:	b34d                	j	1444a <printk+0x224>
C:\Users\liangfan\OneDrive\enbed\CH573\AHL-CH573-EXP-V1.3-20241124\03-Software\CH07\LST-ASM-CH573\Debug/srcc/printf.c:608
			printk_putc(cval, &count, info);
   146aa:	00040503          	lb	a0,0(s0)
   146ae:	8626                	mv	a2,s1
   146b0:	084c                	addi	a1,sp,20
C:\Users\liangfan\OneDrive\enbed\CH573\AHL-CH573-EXP-V1.3-20241124\03-Software\CH07\LST-ASM-CH573\Debug/srcc/printf.c:607
			cval = (char) va_arg1(ap, unsigned int);
   146b2:	00440a93          	addi	s5,s0,4
C:\Users\liangfan\OneDrive\enbed\CH573\AHL-CH573-EXP-V1.3-20241124\03-Software\CH07\LST-ASM-CH573\Debug/srcc/printf.c:608
			printk_putc(cval, &count, info);
   146b6:	00000097          	auipc	ra,0x0
   146ba:	800080e7          	jalr	-2048(ra) # 13eb6 <printk_putc>
C:\Users\liangfan\OneDrive\enbed\CH573\AHL-CH573-EXP-V1.3-20241124\03-Software\CH07\LST-ASM-CH573\Debug/srcc/printf.c:609
			break;
   146be:	bda5                	j	14536 <printk+0x310>
C:\Users\liangfan\OneDrive\enbed\CH573\AHL-CH573-EXP-V1.3-20241124\03-Software\CH07\LST-ASM-CH573\Debug/srcc/printf.c:611
			sval = (char *) va_arg1(ap, char *);
   146c0:	00440a93          	addi	s5,s0,4
   146c4:	4000                	lw	s0,0(s0)
C:\Users\liangfan\OneDrive\enbed\CH573\AHL-CH573-EXP-V1.3-20241124\03-Software\CH07\LST-ASM-CH573\Debug/srcc/printf.c:612
			if (sval) {
   146c6:	e60408e3          	beqz	s0,14536 <printk+0x310>
C:\Users\liangfan\OneDrive\enbed\CH573\AHL-CH573-EXP-V1.3-20241124\03-Software\CH07\LST-ASM-CH573\Debug/srcc/printf.c:613
				vlen = strlen(sval);
   146ca:	8522                	mv	a0,s0
   146cc:	00001097          	auipc	ra,0x1
   146d0:	7ac080e7          	jalr	1964(ra) # 15e78 <strlen>
C:\Users\liangfan\OneDrive\enbed\CH573\AHL-CH573-EXP-V1.3-20241124\03-Software\CH07\LST-ASM-CH573\Debug/srcc/printf.c:614
				if (!IS_FLAG_MINUS(flags_used)) {
   146d4:	00197913          	andi	s2,s2,1
C:\Users\liangfan\OneDrive\enbed\CH573\AHL-CH573-EXP-V1.3-20241124\03-Software\CH07\LST-ASM-CH573\Debug/srcc/printf.c:613
				vlen = strlen(sval);
   146d8:	8daa                	mv	s11,a0
C:\Users\liangfan\OneDrive\enbed\CH573\AHL-CH573-EXP-V1.3-20241124\03-Software\CH07\LST-ASM-CH573\Debug/srcc/printf.c:614
				if (!IS_FLAG_MINUS(flags_used)) {
   146da:	00091963          	bnez	s2,146ec <printk+0x4c6>
C:\Users\liangfan\OneDrive\enbed\CH573\AHL-CH573-EXP-V1.3-20241124\03-Software\CH07\LST-ASM-CH573\Debug/srcc/printf.c:615
					printk_pad_space(vlen, field_width, &count, info);
   146de:	86a6                	mv	a3,s1
   146e0:	0850                	addi	a2,sp,20
   146e2:	85ce                	mv	a1,s3
   146e4:	00000097          	auipc	ra,0x0
   146e8:	884080e7          	jalr	-1916(ra) # 13f68 <printk_pad_space>
C:\Users\liangfan\OneDrive\enbed\CH573\AHL-CH573-EXP-V1.3-20241124\03-Software\CH07\LST-ASM-CH573\Debug/srcc/printf.c:617
				if(precision_width!=0)
   146ec:	000d1d63          	bnez	s10,14706 <printk+0x4e0>
C:\Users\liangfan\OneDrive\enbed\CH573\AHL-CH573-EXP-V1.3-20241124\03-Software\CH07\LST-ASM-CH573\Debug/srcc/printf.c:628
					while (*sval)
   146f0:	00040503          	lb	a0,0(s0)
   146f4:	c515                	beqz	a0,14720 <printk+0x4fa>
C:\Users\liangfan\OneDrive\enbed\CH573\AHL-CH573-EXP-V1.3-20241124\03-Software\CH07\LST-ASM-CH573\Debug/srcc/printf.c:629
					   printk_putc(*sval++, &count, info);
   146f6:	8626                	mv	a2,s1
   146f8:	084c                	addi	a1,sp,20
   146fa:	0405                	addi	s0,s0,1
   146fc:	fffff097          	auipc	ra,0xfffff
   14700:	7ba080e7          	jalr	1978(ra) # 13eb6 <printk_putc>
   14704:	b7f5                	j	146f0 <printk+0x4ca>
   14706:	9d22                	add	s10,s10,s0
C:\Users\liangfan\OneDrive\enbed\CH573\AHL-CH573-EXP-V1.3-20241124\03-Software\CH07\LST-ASM-CH573\Debug/srcc/printf.c:620 (discriminator 1)
					while (precision_width>=1&&*sval)
   14708:	00040503          	lb	a0,0(s0)
   1470c:	c911                	beqz	a0,14720 <printk+0x4fa>
C:\Users\liangfan\OneDrive\enbed\CH573\AHL-CH573-EXP-V1.3-20241124\03-Software\CH07\LST-ASM-CH573\Debug/srcc/printf.c:623
							printk_putc(*sval++, &count, info);					
   1470e:	0405                	addi	s0,s0,1
   14710:	8626                	mv	a2,s1
   14712:	084c                	addi	a1,sp,20
   14714:	fffff097          	auipc	ra,0xfffff
   14718:	7a2080e7          	jalr	1954(ra) # 13eb6 <printk_putc>
C:\Users\liangfan\OneDrive\enbed\CH573\AHL-CH573-EXP-V1.3-20241124\03-Software\CH07\LST-ASM-CH573\Debug/srcc/printf.c:620
					while (precision_width>=1&&*sval)
   1471c:	fe8d16e3          	bne	s10,s0,14708 <printk+0x4e2>
C:\Users\liangfan\OneDrive\enbed\CH573\AHL-CH573-EXP-V1.3-20241124\03-Software\CH07\LST-ASM-CH573\Debug/srcc/printf.c:631
				if (IS_FLAG_MINUS(flags_used)) {
   14720:	e0090be3          	beqz	s2,14536 <printk+0x310>
C:\Users\liangfan\OneDrive\enbed\CH573\AHL-CH573-EXP-V1.3-20241124\03-Software\CH07\LST-ASM-CH573\Debug/srcc/printf.c:632
					printk_pad_space(vlen, field_width, &count, info);
   14724:	86a6                	mv	a3,s1
   14726:	0850                	addi	a2,sp,20
   14728:	85ce                	mv	a1,s3
   1472a:	856e                	mv	a0,s11
   1472c:	b509                	j	1452e <printk+0x308>
C:\Users\liangfan\OneDrive\enbed\CH573\AHL-CH573-EXP-V1.3-20241124\03-Software\CH07\LST-ASM-CH573\Debug/srcc/printf.c:638
			*ivalp = count;
   1472e:	401c                	lw	a5,0(s0)
   14730:	4752                	lw	a4,20(sp)
C:\Users\liangfan\OneDrive\enbed\CH573\AHL-CH573-EXP-V1.3-20241124\03-Software\CH07\LST-ASM-CH573\Debug/srcc/printf.c:637
			ivalp = (int *) va_arg1(ap, int *);
   14732:	00440a93          	addi	s5,s0,4
C:\Users\liangfan\OneDrive\enbed\CH573\AHL-CH573-EXP-V1.3-20241124\03-Software\CH07\LST-ASM-CH573\Debug/srcc/printf.c:638
			*ivalp = count;
   14736:	c398                	sw	a4,0(a5)
C:\Users\liangfan\OneDrive\enbed\CH573\AHL-CH573-EXP-V1.3-20241124\03-Software\CH07\LST-ASM-CH573\Debug/srcc/printf.c:639
			break;
   14738:	bbfd                	j	14536 <printk+0x310>
C:\Users\liangfan\OneDrive\enbed\CH573\AHL-CH573-EXP-V1.3-20241124\03-Software\CH07\LST-ASM-CH573\Debug/srcc/printf.c:642
			printk_putc(c, &count, info);
   1473a:	8626                	mv	a2,s1
   1473c:	084c                	addi	a1,sp,20
   1473e:	b69d                	j	142a4 <printk+0x7e>
C:\Users\liangfan\OneDrive\enbed\CH573\AHL-CH573-EXP-V1.3-20241124\03-Software\CH07\LST-ASM-CH573\Debug/srcc/printf.c:561
			if ((IS_FLAG_POUND(flags_used)) && !dschar) {
   14740:	e40d1de3          	bnez	s10,1459a <printk+0x374>
   14744:	bda5                	j	145bc <printk+0x396>

00014746 <myprintf>:
myprintf():
C:\Users\liangfan\OneDrive\enbed\CH573\AHL-CH573-EXP-V1.3-20241124\03-Software\CH07\LST-ASM-CH573\Debug/srcc/printf.c:656
//参数说明：const char *:打印参数字符串：对输入的字符串进行解析并按格式输出
//       例如： printf("c=%c\n",c); 将c按char型进行输出
//函数返回：字符串长度
//======================================================================
int myprintf(const char *fmt, ...)
{
   14746:	7139                	addi	sp,sp,-64
   14748:	da3e                	sw	a5,52(sp)
C:\Users\liangfan\OneDrive\enbed\CH573\AHL-CH573-EXP-V1.3-20241124\03-Software\CH07\LST-ASM-CH573\Debug/srcc/printf.c:662
	//char * ap;
  va_list ap;
	char c;
	int rvalue;
	PRINTK_INFO info;
	info.dest = DEST_CONSOLE;  //宏定义为1
   1474a:	4785                	li	a5,1
C:\Users\liangfan\OneDrive\enbed\CH573\AHL-CH573-EXP-V1.3-20241124\03-Software\CH07\LST-ASM-CH573\Debug/srcc/printf.c:656
{
   1474c:	d22e                	sw	a1,36(sp)
   1474e:	d432                	sw	a2,40(sp)
C:\Users\liangfan\OneDrive\enbed\CH573\AHL-CH573-EXP-V1.3-20241124\03-Software\CH07\LST-ASM-CH573\Debug/srcc/printf.c:662
	info.dest = DEST_CONSOLE;  //宏定义为1
   14750:	c23e                	sw	a5,4(sp)
C:\Users\liangfan\OneDrive\enbed\CH573\AHL-CH573-EXP-V1.3-20241124\03-Software\CH07\LST-ASM-CH573\Debug/srcc/printf.c:664
	info.func = &out_char;     //调用的串口输出函数
	va_start(ap, fmt);  //对ap 进行初始化，让它指向可变参数表里面的第一个参数
   14752:	1050                	addi	a2,sp,36
C:\Users\liangfan\OneDrive\enbed\CH573\AHL-CH573-EXP-V1.3-20241124\03-Software\CH07\LST-ASM-CH573\Debug/srcc/printf.c:663
	info.func = &out_char;     //调用的串口输出函数
   14754:	00000797          	auipc	a5,0x0
   14758:	84c78793          	addi	a5,a5,-1972 # 13fa0 <out_char>
C:\Users\liangfan\OneDrive\enbed\CH573\AHL-CH573-EXP-V1.3-20241124\03-Software\CH07\LST-ASM-CH573\Debug/srcc/printf.c:665
	rvalue = printk(&info, fmt, ap);
   1475c:	85aa                	mv	a1,a0
   1475e:	0048                	addi	a0,sp,4
C:\Users\liangfan\OneDrive\enbed\CH573\AHL-CH573-EXP-V1.3-20241124\03-Software\CH07\LST-ASM-CH573\Debug/srcc/printf.c:656
{
   14760:	ce06                	sw	ra,28(sp)
   14762:	d636                	sw	a3,44(sp)
   14764:	d83a                	sw	a4,48(sp)
   14766:	dc42                	sw	a6,56(sp)
   14768:	de46                	sw	a7,60(sp)
C:\Users\liangfan\OneDrive\enbed\CH573\AHL-CH573-EXP-V1.3-20241124\03-Software\CH07\LST-ASM-CH573\Debug/srcc/printf.c:663
	info.func = &out_char;     //调用的串口输出函数
   1476a:	c43e                	sw	a5,8(sp)
C:\Users\liangfan\OneDrive\enbed\CH573\AHL-CH573-EXP-V1.3-20241124\03-Software\CH07\LST-ASM-CH573\Debug/srcc/printf.c:664
	va_start(ap, fmt);  //对ap 进行初始化，让它指向可变参数表里面的第一个参数
   1476c:	c032                	sw	a2,0(sp)
C:\Users\liangfan\OneDrive\enbed\CH573\AHL-CH573-EXP-V1.3-20241124\03-Software\CH07\LST-ASM-CH573\Debug/srcc/printf.c:665
	rvalue = printk(&info, fmt, ap);
   1476e:	00000097          	auipc	ra,0x0
   14772:	ab8080e7          	jalr	-1352(ra) # 14226 <printk>
C:\Users\liangfan\OneDrive\enbed\CH573\AHL-CH573-EXP-V1.3-20241124\03-Software\CH07\LST-ASM-CH573\Debug/srcc/printf.c:670
    
	va_end(ap);

	return rvalue;
}
   14776:	40f2                	lw	ra,28(sp)
   14778:	6121                	addi	sp,sp,64
   1477a:	8082                	ret

0001477c <__udivdi3>:
__udivdi3():
   1477c:	87b6                	mv	a5,a3
   1477e:	88b2                	mv	a7,a2
   14780:	832a                	mv	t1,a0
   14782:	882e                	mv	a6,a1
   14784:	14069d63          	bnez	a3,148de <__udivdi3+0x162>
   14788:	0ac5f963          	bgeu	a1,a2,1483a <__udivdi3+0xbe>
   1478c:	6741                	lui	a4,0x10
   1478e:	1ae66e63          	bltu	a2,a4,1494a <__udivdi3+0x1ce>
   14792:	010007b7          	lui	a5,0x1000
   14796:	34f66363          	bltu	a2,a5,14adc <__udivdi3+0x360>
   1479a:	01865693          	srli	a3,a2,0x18
   1479e:	47e1                	li	a5,24
   147a0:	00001717          	auipc	a4,0x1
   147a4:	7f070713          	addi	a4,a4,2032 # 15f90 <__clz_tab>
   147a8:	9736                	add	a4,a4,a3
   147aa:	00074703          	lbu	a4,0(a4)
   147ae:	97ba                	add	a5,a5,a4
   147b0:	02000713          	li	a4,32
   147b4:	8f1d                	sub	a4,a4,a5
   147b6:	cb19                	beqz	a4,147cc <__udivdi3+0x50>
   147b8:	00e59833          	sll	a6,a1,a4
   147bc:	00f557b3          	srl	a5,a0,a5
   147c0:	00e618b3          	sll	a7,a2,a4
   147c4:	0107e833          	or	a6,a5,a6
   147c8:	00e51333          	sll	t1,a0,a4
   147cc:	0108d613          	srli	a2,a7,0x10
   147d0:	02c85533          	divu	a0,a6,a2
   147d4:	01089693          	slli	a3,a7,0x10
   147d8:	82c1                	srli	a3,a3,0x10
   147da:	01035793          	srli	a5,t1,0x10
   147de:	02c87733          	remu	a4,a6,a2
   147e2:	02a685b3          	mul	a1,a3,a0
   147e6:	0742                	slli	a4,a4,0x10
   147e8:	00f76833          	or	a6,a4,a5
   147ec:	00b87a63          	bgeu	a6,a1,14800 <__udivdi3+0x84>
   147f0:	9846                	add	a6,a6,a7
   147f2:	fff50793          	addi	a5,a0,-1
   147f6:	01186463          	bltu	a6,a7,147fe <__udivdi3+0x82>
   147fa:	30b86763          	bltu	a6,a1,14b08 <__udivdi3+0x38c>
   147fe:	853e                	mv	a0,a5
   14800:	40b80833          	sub	a6,a6,a1
   14804:	02c85733          	divu	a4,a6,a2
   14808:	0342                	slli	t1,t1,0x10
   1480a:	01035313          	srli	t1,t1,0x10
   1480e:	02c87833          	remu	a6,a6,a2
   14812:	02e686b3          	mul	a3,a3,a4
   14816:	0842                	slli	a6,a6,0x10
   14818:	00686833          	or	a6,a6,t1
   1481c:	00d87b63          	bgeu	a6,a3,14832 <__udivdi3+0xb6>
   14820:	9846                	add	a6,a6,a7
   14822:	fff70793          	addi	a5,a4,-1
   14826:	01186563          	bltu	a6,a7,14830 <__udivdi3+0xb4>
   1482a:	1779                	addi	a4,a4,-2
   1482c:	00d86363          	bltu	a6,a3,14832 <__udivdi3+0xb6>
   14830:	873e                	mv	a4,a5
   14832:	0542                	slli	a0,a0,0x10
   14834:	8d59                	or	a0,a0,a4
   14836:	4581                	li	a1,0
   14838:	8082                	ret
   1483a:	e601                	bnez	a2,14842 <__udivdi3+0xc6>
   1483c:	4705                	li	a4,1
   1483e:	02c758b3          	divu	a7,a4,a2
   14842:	6741                	lui	a4,0x10
   14844:	0ee8ea63          	bltu	a7,a4,14938 <__udivdi3+0x1bc>
   14848:	010007b7          	lui	a5,0x1000
   1484c:	28f8ec63          	bltu	a7,a5,14ae4 <__udivdi3+0x368>
   14850:	0188d693          	srli	a3,a7,0x18
   14854:	47e1                	li	a5,24
   14856:	00001717          	auipc	a4,0x1
   1485a:	73a70713          	addi	a4,a4,1850 # 15f90 <__clz_tab>
   1485e:	9736                	add	a4,a4,a3
   14860:	00074683          	lbu	a3,0(a4)
   14864:	96be                	add	a3,a3,a5
   14866:	02000793          	li	a5,32
   1486a:	8f95                	sub	a5,a5,a3
   1486c:	ebe5                	bnez	a5,1495c <__udivdi3+0x1e0>
   1486e:	01089e93          	slli	t4,a7,0x10
   14872:	41158733          	sub	a4,a1,a7
   14876:	0108df13          	srli	t5,a7,0x10
   1487a:	010ede93          	srli	t4,t4,0x10
   1487e:	4585                	li	a1,1
   14880:	01035793          	srli	a5,t1,0x10
   14884:	03e75533          	divu	a0,a4,t5
   14888:	03e77733          	remu	a4,a4,t5
   1488c:	03d506b3          	mul	a3,a0,t4
   14890:	0742                	slli	a4,a4,0x10
   14892:	8fd9                	or	a5,a5,a4
   14894:	00d7fa63          	bgeu	a5,a3,148a8 <__udivdi3+0x12c>
   14898:	97c6                	add	a5,a5,a7
   1489a:	fff50713          	addi	a4,a0,-1
   1489e:	0117e463          	bltu	a5,a7,148a6 <__udivdi3+0x12a>
   148a2:	26d7e663          	bltu	a5,a3,14b0e <__udivdi3+0x392>
   148a6:	853a                	mv	a0,a4
   148a8:	8f95                	sub	a5,a5,a3
   148aa:	03e7d733          	divu	a4,a5,t5
   148ae:	0342                	slli	t1,t1,0x10
   148b0:	01035313          	srli	t1,t1,0x10
   148b4:	03e7f7b3          	remu	a5,a5,t5
   148b8:	03d70eb3          	mul	t4,a4,t4
   148bc:	07c2                	slli	a5,a5,0x10
   148be:	0067e7b3          	or	a5,a5,t1
   148c2:	01d7fb63          	bgeu	a5,t4,148d8 <__udivdi3+0x15c>
   148c6:	97c6                	add	a5,a5,a7
   148c8:	fff70693          	addi	a3,a4,-1
   148cc:	0117e563          	bltu	a5,a7,148d6 <__udivdi3+0x15a>
   148d0:	1779                	addi	a4,a4,-2
   148d2:	01d7e363          	bltu	a5,t4,148d8 <__udivdi3+0x15c>
   148d6:	8736                	mv	a4,a3
   148d8:	0542                	slli	a0,a0,0x10
   148da:	8d59                	or	a0,a0,a4
   148dc:	8082                	ret
   148de:	04d5e263          	bltu	a1,a3,14922 <__udivdi3+0x1a6>
   148e2:	67c1                	lui	a5,0x10
   148e4:	04f6e263          	bltu	a3,a5,14928 <__udivdi3+0x1ac>
   148e8:	010007b7          	lui	a5,0x1000
   148ec:	1ef6e463          	bltu	a3,a5,14ad4 <__udivdi3+0x358>
   148f0:	0186d713          	srli	a4,a3,0x18
   148f4:	4861                	li	a6,24
   148f6:	00001797          	auipc	a5,0x1
   148fa:	69a78793          	addi	a5,a5,1690 # 15f90 <__clz_tab>
   148fe:	97ba                	add	a5,a5,a4
   14900:	0007c703          	lbu	a4,0(a5)
   14904:	02000e13          	li	t3,32
   14908:	9742                	add	a4,a4,a6
   1490a:	40ee0e33          	sub	t3,t3,a4
   1490e:	0c0e1a63          	bnez	t3,149e2 <__udivdi3+0x266>
   14912:	1cb6ed63          	bltu	a3,a1,14aec <__udivdi3+0x370>
   14916:	00c53533          	sltu	a0,a0,a2
   1491a:	00154513          	xori	a0,a0,1
   1491e:	4581                	li	a1,0
   14920:	8082                	ret
   14922:	4581                	li	a1,0
   14924:	4501                	li	a0,0
   14926:	8082                	ret
   14928:	0ff00793          	li	a5,255
   1492c:	1cd7f363          	bgeu	a5,a3,14af2 <__udivdi3+0x376>
   14930:	0086d713          	srli	a4,a3,0x8
   14934:	4821                	li	a6,8
   14936:	b7c1                	j	148f6 <__udivdi3+0x17a>
   14938:	0ff00713          	li	a4,255
   1493c:	86c6                	mv	a3,a7
   1493e:	f1177ce3          	bgeu	a4,a7,14856 <__udivdi3+0xda>
   14942:	0088d693          	srli	a3,a7,0x8
   14946:	47a1                	li	a5,8
   14948:	b739                	j	14856 <__udivdi3+0xda>
   1494a:	0ff00713          	li	a4,255
   1494e:	86b2                	mv	a3,a2
   14950:	e4c778e3          	bgeu	a4,a2,147a0 <__udivdi3+0x24>
   14954:	00865693          	srli	a3,a2,0x8
   14958:	47a1                	li	a5,8
   1495a:	b599                	j	147a0 <__udivdi3+0x24>
   1495c:	00f898b3          	sll	a7,a7,a5
   14960:	00d5d633          	srl	a2,a1,a3
   14964:	0108df13          	srli	t5,a7,0x10
   14968:	03e65e33          	divu	t3,a2,t5
   1496c:	00f59733          	sll	a4,a1,a5
   14970:	00d556b3          	srl	a3,a0,a3
   14974:	8f55                	or	a4,a4,a3
   14976:	01089e93          	slli	t4,a7,0x10
   1497a:	010ede93          	srli	t4,t4,0x10
   1497e:	00f51333          	sll	t1,a0,a5
   14982:	01075593          	srli	a1,a4,0x10
   14986:	03e676b3          	remu	a3,a2,t5
   1498a:	03ce87b3          	mul	a5,t4,t3
   1498e:	06c2                	slli	a3,a3,0x10
   14990:	8ecd                	or	a3,a3,a1
   14992:	00f6fb63          	bgeu	a3,a5,149a8 <__udivdi3+0x22c>
   14996:	96c6                	add	a3,a3,a7
   14998:	fffe0613          	addi	a2,t3,-1
   1499c:	1716e463          	bltu	a3,a7,14b04 <__udivdi3+0x388>
   149a0:	16f6f263          	bgeu	a3,a5,14b04 <__udivdi3+0x388>
   149a4:	1e79                	addi	t3,t3,-2
   149a6:	96c6                	add	a3,a3,a7
   149a8:	8e9d                	sub	a3,a3,a5
   149aa:	03e6d633          	divu	a2,a3,t5
   149ae:	01071793          	slli	a5,a4,0x10
   149b2:	83c1                	srli	a5,a5,0x10
   149b4:	03e6f6b3          	remu	a3,a3,t5
   149b8:	02ce8533          	mul	a0,t4,a2
   149bc:	01069713          	slli	a4,a3,0x10
   149c0:	8f5d                	or	a4,a4,a5
   149c2:	00a77b63          	bgeu	a4,a0,149d8 <__udivdi3+0x25c>
   149c6:	9746                	add	a4,a4,a7
   149c8:	fff60793          	addi	a5,a2,-1
   149cc:	13176863          	bltu	a4,a7,14afc <__udivdi3+0x380>
   149d0:	12a77663          	bgeu	a4,a0,14afc <__udivdi3+0x380>
   149d4:	1679                	addi	a2,a2,-2
   149d6:	9746                	add	a4,a4,a7
   149d8:	010e1593          	slli	a1,t3,0x10
   149dc:	8f09                	sub	a4,a4,a0
   149de:	8dd1                	or	a1,a1,a2
   149e0:	b545                	j	14880 <__udivdi3+0x104>
   149e2:	00e657b3          	srl	a5,a2,a4
   149e6:	01c696b3          	sll	a3,a3,t3
   149ea:	8edd                	or	a3,a3,a5
   149ec:	00e5d333          	srl	t1,a1,a4
   149f0:	0106df13          	srli	t5,a3,0x10
   149f4:	03e357b3          	divu	a5,t1,t5
   149f8:	01069e93          	slli	t4,a3,0x10
   149fc:	010ede93          	srli	t4,t4,0x10
   14a00:	01c59833          	sll	a6,a1,t3
   14a04:	00e55733          	srl	a4,a0,a4
   14a08:	01076833          	or	a6,a4,a6
   14a0c:	01085893          	srli	a7,a6,0x10
   14a10:	01c61633          	sll	a2,a2,t3
   14a14:	03e37333          	remu	t1,t1,t5
   14a18:	02fe85b3          	mul	a1,t4,a5
   14a1c:	0342                	slli	t1,t1,0x10
   14a1e:	011368b3          	or	a7,t1,a7
   14a22:	00b8fb63          	bgeu	a7,a1,14a38 <__udivdi3+0x2bc>
   14a26:	98b6                	add	a7,a7,a3
   14a28:	fff78713          	addi	a4,a5,-1
   14a2c:	0cd8ea63          	bltu	a7,a3,14b00 <__udivdi3+0x384>
   14a30:	0cb8f863          	bgeu	a7,a1,14b00 <__udivdi3+0x384>
   14a34:	17f9                	addi	a5,a5,-2
   14a36:	98b6                	add	a7,a7,a3
   14a38:	40b888b3          	sub	a7,a7,a1
   14a3c:	03e8d733          	divu	a4,a7,t5
   14a40:	0842                	slli	a6,a6,0x10
   14a42:	01085813          	srli	a6,a6,0x10
   14a46:	03e8f8b3          	remu	a7,a7,t5
   14a4a:	02ee8333          	mul	t1,t4,a4
   14a4e:	08c2                	slli	a7,a7,0x10
   14a50:	0108e5b3          	or	a1,a7,a6
   14a54:	0065fb63          	bgeu	a1,t1,14a6a <__udivdi3+0x2ee>
   14a58:	95b6                	add	a1,a1,a3
   14a5a:	fff70813          	addi	a6,a4,-1
   14a5e:	08d5ed63          	bltu	a1,a3,14af8 <__udivdi3+0x37c>
   14a62:	0865fb63          	bgeu	a1,t1,14af8 <__udivdi3+0x37c>
   14a66:	1779                	addi	a4,a4,-2
   14a68:	95b6                	add	a1,a1,a3
   14a6a:	07c2                	slli	a5,a5,0x10
   14a6c:	6f41                	lui	t5,0x10
   14a6e:	8fd9                	or	a5,a5,a4
   14a70:	ffff0713          	addi	a4,t5,-1 # ffff <MCU_SECTORSIZE+0xefff>
   14a74:	00e7f6b3          	and	a3,a5,a4
   14a78:	0107d893          	srli	a7,a5,0x10
   14a7c:	8f71                	and	a4,a4,a2
   14a7e:	8241                	srli	a2,a2,0x10
   14a80:	02e68eb3          	mul	t4,a3,a4
   14a84:	406585b3          	sub	a1,a1,t1
   14a88:	02c686b3          	mul	a3,a3,a2
   14a8c:	010ed813          	srli	a6,t4,0x10
   14a90:	02e88733          	mul	a4,a7,a4
   14a94:	96ba                	add	a3,a3,a4
   14a96:	96c2                	add	a3,a3,a6
   14a98:	02c88633          	mul	a2,a7,a2
   14a9c:	00e6f363          	bgeu	a3,a4,14aa2 <__udivdi3+0x326>
   14aa0:	967a                	add	a2,a2,t5
   14aa2:	0106d893          	srli	a7,a3,0x10
   14aa6:	9646                	add	a2,a2,a7
   14aa8:	02c5e263          	bltu	a1,a2,14acc <__udivdi3+0x350>
   14aac:	00c58563          	beq	a1,a2,14ab6 <__udivdi3+0x33a>
   14ab0:	853e                	mv	a0,a5
   14ab2:	4581                	li	a1,0
   14ab4:	8082                	ret
   14ab6:	6741                	lui	a4,0x10
   14ab8:	177d                	addi	a4,a4,-1
   14aba:	8ef9                	and	a3,a3,a4
   14abc:	06c2                	slli	a3,a3,0x10
   14abe:	00eefeb3          	and	t4,t4,a4
   14ac2:	01c51533          	sll	a0,a0,t3
   14ac6:	96f6                	add	a3,a3,t4
   14ac8:	fed574e3          	bgeu	a0,a3,14ab0 <__udivdi3+0x334>
   14acc:	fff78513          	addi	a0,a5,-1
   14ad0:	4581                	li	a1,0
   14ad2:	8082                	ret
   14ad4:	0106d713          	srli	a4,a3,0x10
   14ad8:	4841                	li	a6,16
   14ada:	bd31                	j	148f6 <__udivdi3+0x17a>
   14adc:	01065693          	srli	a3,a2,0x10
   14ae0:	47c1                	li	a5,16
   14ae2:	b97d                	j	147a0 <__udivdi3+0x24>
   14ae4:	0108d693          	srli	a3,a7,0x10
   14ae8:	47c1                	li	a5,16
   14aea:	b3b5                	j	14856 <__udivdi3+0xda>
   14aec:	4581                	li	a1,0
   14aee:	4505                	li	a0,1
   14af0:	8082                	ret
   14af2:	8736                	mv	a4,a3
   14af4:	4801                	li	a6,0
   14af6:	b501                	j	148f6 <__udivdi3+0x17a>
   14af8:	8742                	mv	a4,a6
   14afa:	bf85                	j	14a6a <__udivdi3+0x2ee>
   14afc:	863e                	mv	a2,a5
   14afe:	bde9                	j	149d8 <__udivdi3+0x25c>
   14b00:	87ba                	mv	a5,a4
   14b02:	bf1d                	j	14a38 <__udivdi3+0x2bc>
   14b04:	8e32                	mv	t3,a2
   14b06:	b54d                	j	149a8 <__udivdi3+0x22c>
   14b08:	1579                	addi	a0,a0,-2
   14b0a:	9846                	add	a6,a6,a7
   14b0c:	b9d5                	j	14800 <__udivdi3+0x84>
   14b0e:	1579                	addi	a0,a0,-2
   14b10:	97c6                	add	a5,a5,a7
   14b12:	bb59                	j	148a8 <__udivdi3+0x12c>

00014b14 <__umoddi3>:
__umoddi3():
   14b14:	87b6                	mv	a5,a3
   14b16:	8832                	mv	a6,a2
   14b18:	832a                	mv	t1,a0
   14b1a:	872e                	mv	a4,a1
   14b1c:	8e2e                	mv	t3,a1
   14b1e:	14069363          	bnez	a3,14c64 <__umoddi3+0x150>
   14b22:	0ac5f163          	bgeu	a1,a2,14bc4 <__umoddi3+0xb0>
   14b26:	6741                	lui	a4,0x10
   14b28:	1ae67863          	bgeu	a2,a4,14cd8 <__umoddi3+0x1c4>
   14b2c:	0ff00713          	li	a4,255
   14b30:	86b2                	mv	a3,a2
   14b32:	00c77563          	bgeu	a4,a2,14b3c <__umoddi3+0x28>
   14b36:	00865693          	srli	a3,a2,0x8
   14b3a:	47a1                	li	a5,8
   14b3c:	00001717          	auipc	a4,0x1
   14b40:	45470713          	addi	a4,a4,1108 # 15f90 <__clz_tab>
   14b44:	9736                	add	a4,a4,a3
   14b46:	00074703          	lbu	a4,0(a4)
   14b4a:	02000893          	li	a7,32
   14b4e:	97ba                	add	a5,a5,a4
   14b50:	40f888b3          	sub	a7,a7,a5
   14b54:	00088c63          	beqz	a7,14b6c <__umoddi3+0x58>
   14b58:	011595b3          	sll	a1,a1,a7
   14b5c:	00f557b3          	srl	a5,a0,a5
   14b60:	01161833          	sll	a6,a2,a7
   14b64:	00b7ee33          	or	t3,a5,a1
   14b68:	01151333          	sll	t1,a0,a7
   14b6c:	01085613          	srli	a2,a6,0x10
   14b70:	02ce57b3          	divu	a5,t3,a2
   14b74:	01081513          	slli	a0,a6,0x10
   14b78:	8141                	srli	a0,a0,0x10
   14b7a:	01035693          	srli	a3,t1,0x10
   14b7e:	02ce7e33          	remu	t3,t3,a2
   14b82:	02f507b3          	mul	a5,a0,a5
   14b86:	0e42                	slli	t3,t3,0x10
   14b88:	00de6733          	or	a4,t3,a3
   14b8c:	00f77863          	bgeu	a4,a5,14b9c <__umoddi3+0x88>
   14b90:	9742                	add	a4,a4,a6
   14b92:	01076563          	bltu	a4,a6,14b9c <__umoddi3+0x88>
   14b96:	00f77363          	bgeu	a4,a5,14b9c <__umoddi3+0x88>
   14b9a:	9742                	add	a4,a4,a6
   14b9c:	8f1d                	sub	a4,a4,a5
   14b9e:	02c756b3          	divu	a3,a4,a2
   14ba2:	01031793          	slli	a5,t1,0x10
   14ba6:	83c1                	srli	a5,a5,0x10
   14ba8:	02c77733          	remu	a4,a4,a2
   14bac:	02d50533          	mul	a0,a0,a3
   14bb0:	0742                	slli	a4,a4,0x10
   14bb2:	8fd9                	or	a5,a5,a4
   14bb4:	08a7ec63          	bltu	a5,a0,14c4c <__umoddi3+0x138>
   14bb8:	40a78533          	sub	a0,a5,a0
   14bbc:	01155533          	srl	a0,a0,a7
   14bc0:	4581                	li	a1,0
   14bc2:	8082                	ret
   14bc4:	e601                	bnez	a2,14bcc <__umoddi3+0xb8>
   14bc6:	4705                	li	a4,1
   14bc8:	02c75833          	divu	a6,a4,a2
   14bcc:	6741                	lui	a4,0x10
   14bce:	0ee86c63          	bltu	a6,a4,14cc6 <__umoddi3+0x1b2>
   14bd2:	010007b7          	lui	a5,0x1000
   14bd6:	2af86563          	bltu	a6,a5,14e80 <__umoddi3+0x36c>
   14bda:	01885693          	srli	a3,a6,0x18
   14bde:	47e1                	li	a5,24
   14be0:	00001717          	auipc	a4,0x1
   14be4:	3b070713          	addi	a4,a4,944 # 15f90 <__clz_tab>
   14be8:	9736                	add	a4,a4,a3
   14bea:	00074703          	lbu	a4,0(a4)
   14bee:	02000893          	li	a7,32
   14bf2:	97ba                	add	a5,a5,a4
   14bf4:	40f888b3          	sub	a7,a7,a5
   14bf8:	1e089a63          	bnez	a7,14dec <__umoddi3+0x2d8>
   14bfc:	01081e13          	slli	t3,a6,0x10
   14c00:	410585b3          	sub	a1,a1,a6
   14c04:	01085613          	srli	a2,a6,0x10
   14c08:	010e5e13          	srli	t3,t3,0x10
   14c0c:	01035713          	srli	a4,t1,0x10
   14c10:	02c5d6b3          	divu	a3,a1,a2
   14c14:	02c5f5b3          	remu	a1,a1,a2
   14c18:	03c686b3          	mul	a3,a3,t3
   14c1c:	05c2                	slli	a1,a1,0x10
   14c1e:	8f4d                	or	a4,a4,a1
   14c20:	00d77763          	bgeu	a4,a3,14c2e <__umoddi3+0x11a>
   14c24:	9742                	add	a4,a4,a6
   14c26:	01076463          	bltu	a4,a6,14c2e <__umoddi3+0x11a>
   14c2a:	26d76a63          	bltu	a4,a3,14e9e <__umoddi3+0x38a>
   14c2e:	8f15                	sub	a4,a4,a3
   14c30:	02c75533          	divu	a0,a4,a2
   14c34:	0342                	slli	t1,t1,0x10
   14c36:	01035313          	srli	t1,t1,0x10
   14c3a:	02c77733          	remu	a4,a4,a2
   14c3e:	03c50533          	mul	a0,a0,t3
   14c42:	0742                	slli	a4,a4,0x10
   14c44:	006767b3          	or	a5,a4,t1
   14c48:	00a7f863          	bgeu	a5,a0,14c58 <__umoddi3+0x144>
   14c4c:	97c2                	add	a5,a5,a6
   14c4e:	0107e563          	bltu	a5,a6,14c58 <__umoddi3+0x144>
   14c52:	00a7f363          	bgeu	a5,a0,14c58 <__umoddi3+0x144>
   14c56:	97c2                	add	a5,a5,a6
   14c58:	40a78533          	sub	a0,a5,a0
   14c5c:	01155533          	srl	a0,a0,a7
   14c60:	4581                	li	a1,0
   14c62:	8082                	ret
   14c64:	882a                	mv	a6,a0
   14c66:	f4d5eee3          	bltu	a1,a3,14bc2 <__umoddi3+0xae>
   14c6a:	67c1                	lui	a5,0x10
   14c6c:	04f6e563          	bltu	a3,a5,14cb6 <__umoddi3+0x1a2>
   14c70:	010007b7          	lui	a5,0x1000
   14c74:	20f6e263          	bltu	a3,a5,14e78 <__umoddi3+0x364>
   14c78:	0186d313          	srli	t1,a3,0x18
   14c7c:	48e1                	li	a7,24
   14c7e:	00001797          	auipc	a5,0x1
   14c82:	31278793          	addi	a5,a5,786 # 15f90 <__clz_tab>
   14c86:	979a                	add	a5,a5,t1
   14c88:	0007ce03          	lbu	t3,0(a5)
   14c8c:	02000313          	li	t1,32
   14c90:	9e46                	add	t3,t3,a7
   14c92:	41c30333          	sub	t1,t1,t3
   14c96:	04031963          	bnez	t1,14ce8 <__umoddi3+0x1d4>
   14c9a:	00b6e463          	bltu	a3,a1,14ca2 <__umoddi3+0x18e>
   14c9e:	00c56963          	bltu	a0,a2,14cb0 <__umoddi3+0x19c>
   14ca2:	40c50833          	sub	a6,a0,a2
   14ca6:	8d95                	sub	a1,a1,a3
   14ca8:	01053733          	sltu	a4,a0,a6
   14cac:	40e58733          	sub	a4,a1,a4
   14cb0:	8542                	mv	a0,a6
   14cb2:	85ba                	mv	a1,a4
   14cb4:	8082                	ret
   14cb6:	0ff00793          	li	a5,255
   14cba:	1cd7fb63          	bgeu	a5,a3,14e90 <__umoddi3+0x37c>
   14cbe:	0086d313          	srli	t1,a3,0x8
   14cc2:	48a1                	li	a7,8
   14cc4:	bf6d                	j	14c7e <__umoddi3+0x16a>
   14cc6:	0ff00713          	li	a4,255
   14cca:	86c2                	mv	a3,a6
   14ccc:	f1077ae3          	bgeu	a4,a6,14be0 <__umoddi3+0xcc>
   14cd0:	00885693          	srli	a3,a6,0x8
   14cd4:	47a1                	li	a5,8
   14cd6:	b729                	j	14be0 <__umoddi3+0xcc>
   14cd8:	010007b7          	lui	a5,0x1000
   14cdc:	1af66663          	bltu	a2,a5,14e88 <__umoddi3+0x374>
   14ce0:	01865693          	srli	a3,a2,0x18
   14ce4:	47e1                	li	a5,24
   14ce6:	bd99                	j	14b3c <__umoddi3+0x28>
   14ce8:	01c657b3          	srl	a5,a2,t3
   14cec:	006696b3          	sll	a3,a3,t1
   14cf0:	8edd                	or	a3,a3,a5
   14cf2:	01c5d8b3          	srl	a7,a1,t3
   14cf6:	0106d713          	srli	a4,a3,0x10
   14cfa:	02e8deb3          	divu	t4,a7,a4
   14cfe:	01069f13          	slli	t5,a3,0x10
   14d02:	01c557b3          	srl	a5,a0,t3
   14d06:	010f5f13          	srli	t5,t5,0x10
   14d0a:	006595b3          	sll	a1,a1,t1
   14d0e:	8ddd                	or	a1,a1,a5
   14d10:	0105d813          	srli	a6,a1,0x10
   14d14:	00661633          	sll	a2,a2,t1
   14d18:	00651533          	sll	a0,a0,t1
   14d1c:	02e8f8b3          	remu	a7,a7,a4
   14d20:	03df07b3          	mul	a5,t5,t4
   14d24:	08c2                	slli	a7,a7,0x10
   14d26:	0108e833          	or	a6,a7,a6
   14d2a:	00f87b63          	bgeu	a6,a5,14d40 <__umoddi3+0x22c>
   14d2e:	9836                	add	a6,a6,a3
   14d30:	fffe8893          	addi	a7,t4,-1
   14d34:	16d86363          	bltu	a6,a3,14e9a <__umoddi3+0x386>
   14d38:	16f87163          	bgeu	a6,a5,14e9a <__umoddi3+0x386>
   14d3c:	1ef9                	addi	t4,t4,-2
   14d3e:	9836                	add	a6,a6,a3
   14d40:	40f80833          	sub	a6,a6,a5
   14d44:	02e857b3          	divu	a5,a6,a4
   14d48:	05c2                	slli	a1,a1,0x10
   14d4a:	81c1                	srli	a1,a1,0x10
   14d4c:	02e87833          	remu	a6,a6,a4
   14d50:	02ff0f33          	mul	t5,t5,a5
   14d54:	01081713          	slli	a4,a6,0x10
   14d58:	8f4d                	or	a4,a4,a1
   14d5a:	01e77b63          	bgeu	a4,t5,14d70 <__umoddi3+0x25c>
   14d5e:	9736                	add	a4,a4,a3
   14d60:	fff78593          	addi	a1,a5,-1 # ffffff <MAINLOOP_COUNT+0xf6d83f>
   14d64:	12d76963          	bltu	a4,a3,14e96 <__umoddi3+0x382>
   14d68:	13e77763          	bgeu	a4,t5,14e96 <__umoddi3+0x382>
   14d6c:	17f9                	addi	a5,a5,-2
   14d6e:	9736                	add	a4,a4,a3
   14d70:	0ec2                	slli	t4,t4,0x10
   14d72:	62c1                	lui	t0,0x10
   14d74:	00feeeb3          	or	t4,t4,a5
   14d78:	fff28813          	addi	a6,t0,-1 # ffff <MCU_SECTORSIZE+0xefff>
   14d7c:	010ef8b3          	and	a7,t4,a6
   14d80:	01065593          	srli	a1,a2,0x10
   14d84:	010ede93          	srli	t4,t4,0x10
   14d88:	01067833          	and	a6,a2,a6
   14d8c:	03088fb3          	mul	t6,a7,a6
   14d90:	41e70733          	sub	a4,a4,t5
   14d94:	030e8833          	mul	a6,t4,a6
   14d98:	010fd793          	srli	a5,t6,0x10
   14d9c:	02b888b3          	mul	a7,a7,a1
   14da0:	98c2                	add	a7,a7,a6
   14da2:	97c6                	add	a5,a5,a7
   14da4:	02be8eb3          	mul	t4,t4,a1
   14da8:	0107f363          	bgeu	a5,a6,14dae <__umoddi3+0x29a>
   14dac:	9e96                	add	t4,t4,t0
   14dae:	6841                	lui	a6,0x10
   14db0:	187d                	addi	a6,a6,-1
   14db2:	0107d593          	srli	a1,a5,0x10
   14db6:	0107f7b3          	and	a5,a5,a6
   14dba:	07c2                	slli	a5,a5,0x10
   14dbc:	010fffb3          	and	t6,t6,a6
   14dc0:	95f6                	add	a1,a1,t4
   14dc2:	97fe                	add	a5,a5,t6
   14dc4:	0ab76263          	bltu	a4,a1,14e68 <__umoddi3+0x354>
   14dc8:	08b70e63          	beq	a4,a1,14e64 <__umoddi3+0x350>
   14dcc:	40f507b3          	sub	a5,a0,a5
   14dd0:	00f53533          	sltu	a0,a0,a5
   14dd4:	40b705b3          	sub	a1,a4,a1
   14dd8:	8d89                	sub	a1,a1,a0
   14dda:	01c59e33          	sll	t3,a1,t3
   14dde:	0067d533          	srl	a0,a5,t1
   14de2:	00ae6533          	or	a0,t3,a0
   14de6:	0065d5b3          	srl	a1,a1,t1
   14dea:	8082                	ret
   14dec:	01181833          	sll	a6,a6,a7
   14df0:	00f5d733          	srl	a4,a1,a5
   14df4:	01085613          	srli	a2,a6,0x10
   14df8:	02c756b3          	divu	a3,a4,a2
   14dfc:	01081e13          	slli	t3,a6,0x10
   14e00:	00f557b3          	srl	a5,a0,a5
   14e04:	010e5e13          	srli	t3,t3,0x10
   14e08:	011595b3          	sll	a1,a1,a7
   14e0c:	8ddd                	or	a1,a1,a5
   14e0e:	0105de93          	srli	t4,a1,0x10
   14e12:	01151333          	sll	t1,a0,a7
   14e16:	02c77733          	remu	a4,a4,a2
   14e1a:	02de07b3          	mul	a5,t3,a3
   14e1e:	01071693          	slli	a3,a4,0x10
   14e22:	01d6e6b3          	or	a3,a3,t4
   14e26:	00f6f863          	bgeu	a3,a5,14e36 <__umoddi3+0x322>
   14e2a:	96c2                	add	a3,a3,a6
   14e2c:	0106e563          	bltu	a3,a6,14e36 <__umoddi3+0x322>
   14e30:	00f6f363          	bgeu	a3,a5,14e36 <__umoddi3+0x322>
   14e34:	96c2                	add	a3,a3,a6
   14e36:	8e9d                	sub	a3,a3,a5
   14e38:	02c6d733          	divu	a4,a3,a2
   14e3c:	01059793          	slli	a5,a1,0x10
   14e40:	83c1                	srli	a5,a5,0x10
   14e42:	02c6f6b3          	remu	a3,a3,a2
   14e46:	02ee0733          	mul	a4,t3,a4
   14e4a:	01069593          	slli	a1,a3,0x10
   14e4e:	8ddd                	or	a1,a1,a5
   14e50:	00e5f863          	bgeu	a1,a4,14e60 <__umoddi3+0x34c>
   14e54:	95c2                	add	a1,a1,a6
   14e56:	0105e563          	bltu	a1,a6,14e60 <__umoddi3+0x34c>
   14e5a:	00e5f363          	bgeu	a1,a4,14e60 <__umoddi3+0x34c>
   14e5e:	95c2                	add	a1,a1,a6
   14e60:	8d99                	sub	a1,a1,a4
   14e62:	b36d                	j	14c0c <__umoddi3+0xf8>
   14e64:	f6f574e3          	bgeu	a0,a5,14dcc <__umoddi3+0x2b8>
   14e68:	40c78633          	sub	a2,a5,a2
   14e6c:	00c7b7b3          	sltu	a5,a5,a2
   14e70:	97b6                	add	a5,a5,a3
   14e72:	8d9d                	sub	a1,a1,a5
   14e74:	87b2                	mv	a5,a2
   14e76:	bf99                	j	14dcc <__umoddi3+0x2b8>
   14e78:	0106d313          	srli	t1,a3,0x10
   14e7c:	48c1                	li	a7,16
   14e7e:	b501                	j	14c7e <__umoddi3+0x16a>
   14e80:	01085693          	srli	a3,a6,0x10
   14e84:	47c1                	li	a5,16
   14e86:	bba9                	j	14be0 <__umoddi3+0xcc>
   14e88:	01065693          	srli	a3,a2,0x10
   14e8c:	47c1                	li	a5,16
   14e8e:	b17d                	j	14b3c <__umoddi3+0x28>
   14e90:	8336                	mv	t1,a3
   14e92:	4881                	li	a7,0
   14e94:	b3ed                	j	14c7e <__umoddi3+0x16a>
   14e96:	87ae                	mv	a5,a1
   14e98:	bde1                	j	14d70 <__umoddi3+0x25c>
   14e9a:	8ec6                	mv	t4,a7
   14e9c:	b555                	j	14d40 <__umoddi3+0x22c>
   14e9e:	9742                	add	a4,a4,a6
   14ea0:	b379                	j	14c2e <__umoddi3+0x11a>

00014ea2 <__eqdf2>:
__eqdf2():
   14ea2:	0145d713          	srli	a4,a1,0x14
   14ea6:	001007b7          	lui	a5,0x100
   14eaa:	17fd                	addi	a5,a5,-1
   14eac:	0146d813          	srli	a6,a3,0x14
   14eb0:	7ff77713          	andi	a4,a4,2047
   14eb4:	7ff00893          	li	a7,2047
   14eb8:	00b7fe33          	and	t3,a5,a1
   14ebc:	8eaa                	mv	t4,a0
   14ebe:	8ff5                	and	a5,a5,a3
   14ec0:	81fd                	srli	a1,a1,0x1f
   14ec2:	8f32                	mv	t5,a2
   14ec4:	7ff87813          	andi	a6,a6,2047
   14ec8:	82fd                	srli	a3,a3,0x1f
   14eca:	01170b63          	beq	a4,a7,14ee0 <__eqdf2+0x3e>
   14ece:	4305                	li	t1,1
   14ed0:	01180663          	beq	a6,a7,14edc <__eqdf2+0x3a>
   14ed4:	01071463          	bne	a4,a6,14edc <__eqdf2+0x3a>
   14ed8:	00fe0d63          	beq	t3,a5,14ef2 <__eqdf2+0x50>
   14edc:	851a                	mv	a0,t1
   14ede:	8082                	ret
   14ee0:	00ae68b3          	or	a7,t3,a0
   14ee4:	4305                	li	t1,1
   14ee6:	fe089be3          	bnez	a7,14edc <__eqdf2+0x3a>
   14eea:	fee819e3          	bne	a6,a4,14edc <__eqdf2+0x3a>
   14eee:	8fd1                	or	a5,a5,a2
   14ef0:	f7f5                	bnez	a5,14edc <__eqdf2+0x3a>
   14ef2:	4305                	li	t1,1
   14ef4:	ffee94e3          	bne	t4,t5,14edc <__eqdf2+0x3a>
   14ef8:	4301                	li	t1,0
   14efa:	fed581e3          	beq	a1,a3,14edc <__eqdf2+0x3a>
   14efe:	4305                	li	t1,1
   14f00:	ff71                	bnez	a4,14edc <__eqdf2+0x3a>
   14f02:	00ae6533          	or	a0,t3,a0
   14f06:	00a03333          	snez	t1,a0
   14f0a:	bfc9                	j	14edc <__eqdf2+0x3a>

00014f0c <__ledf2>:
__ltdf2():
   14f0c:	0145d713          	srli	a4,a1,0x14
   14f10:	001007b7          	lui	a5,0x100
   14f14:	17fd                	addi	a5,a5,-1
   14f16:	0146d813          	srli	a6,a3,0x14
   14f1a:	7ff77713          	andi	a4,a4,2047
   14f1e:	7ff00893          	li	a7,2047
   14f22:	00b7fe33          	and	t3,a5,a1
   14f26:	8eaa                	mv	t4,a0
   14f28:	8ff5                	and	a5,a5,a3
   14f2a:	81fd                	srli	a1,a1,0x1f
   14f2c:	8f32                	mv	t5,a2
   14f2e:	7ff87813          	andi	a6,a6,2047
   14f32:	82fd                	srli	a3,a3,0x1f
   14f34:	03170e63          	beq	a4,a7,14f70 <__ledf2+0x64>
   14f38:	01180d63          	beq	a6,a7,14f52 <__ledf2+0x46>
   14f3c:	e329                	bnez	a4,14f7e <__ledf2+0x72>
   14f3e:	00ae68b3          	or	a7,t3,a0
   14f42:	00081f63          	bnez	a6,14f60 <__ledf2+0x54>
   14f46:	8e5d                	or	a2,a2,a5
   14f48:	ee01                	bnez	a2,14f60 <__ledf2+0x54>
   14f4a:	4301                	li	t1,0
   14f4c:	04088c63          	beqz	a7,14fa4 <__ledf2+0x98>
   14f50:	a821                	j	14f68 <__ledf2+0x5c>
   14f52:	00c7e8b3          	or	a7,a5,a2
   14f56:	4309                	li	t1,2
   14f58:	04089663          	bnez	a7,14fa4 <__ledf2+0x98>
   14f5c:	d36d                	beqz	a4,14f3e <__ledf2+0x32>
   14f5e:	a005                	j	14f7e <__ledf2+0x72>
   14f60:	04088463          	beqz	a7,14fa8 <__ledf2+0x9c>
   14f64:	02d58563          	beq	a1,a3,14f8e <__ledf2+0x82>
   14f68:	4305                	li	t1,1
   14f6a:	cd8d                	beqz	a1,14fa4 <__ledf2+0x98>
   14f6c:	537d                	li	t1,-1
   14f6e:	a81d                	j	14fa4 <__ledf2+0x98>
   14f70:	00ae68b3          	or	a7,t3,a0
   14f74:	4309                	li	t1,2
   14f76:	02089763          	bnez	a7,14fa4 <__ledf2+0x98>
   14f7a:	02e80a63          	beq	a6,a4,14fae <__ledf2+0xa2>
   14f7e:	00081463          	bnez	a6,14f86 <__ledf2+0x7a>
   14f82:	8e5d                	or	a2,a2,a5
   14f84:	d275                	beqz	a2,14f68 <__ledf2+0x5c>
   14f86:	fed591e3          	bne	a1,a3,14f68 <__ledf2+0x5c>
   14f8a:	fce84fe3          	blt	a6,a4,14f68 <__ledf2+0x5c>
   14f8e:	01074963          	blt	a4,a6,14fa0 <__ledf2+0x94>
   14f92:	fdc7ebe3          	bltu	a5,t3,14f68 <__ledf2+0x5c>
   14f96:	00fe0f63          	beq	t3,a5,14fb4 <__ledf2+0xa8>
   14f9a:	4301                	li	t1,0
   14f9c:	00fe7463          	bgeu	t3,a5,14fa4 <__ledf2+0x98>
   14fa0:	d5f1                	beqz	a1,14f6c <__ledf2+0x60>
   14fa2:	4305                	li	t1,1
   14fa4:	851a                	mv	a0,t1
   14fa6:	8082                	ret
   14fa8:	feed                	bnez	a3,14fa2 <__ledf2+0x96>
   14faa:	537d                	li	t1,-1
   14fac:	bfe5                	j	14fa4 <__ledf2+0x98>
   14fae:	8e5d                	or	a2,a2,a5
   14fb0:	da79                	beqz	a2,14f86 <__ledf2+0x7a>
   14fb2:	bfcd                	j	14fa4 <__ledf2+0x98>
   14fb4:	fbdf6ae3          	bltu	t5,t4,14f68 <__ledf2+0x5c>
   14fb8:	4301                	li	t1,0
   14fba:	ffeef5e3          	bgeu	t4,t5,14fa4 <__ledf2+0x98>
   14fbe:	f1f5                	bnez	a1,14fa2 <__ledf2+0x96>
   14fc0:	b775                	j	14f6c <__ledf2+0x60>

00014fc2 <__muldf3>:
__muldf3():
   14fc2:	7139                	addi	sp,sp,-64
   14fc4:	d84a                	sw	s2,48(sp)
   14fc6:	0145d913          	srli	s2,a1,0x14
   14fca:	d64e                	sw	s3,44(sp)
   14fcc:	d452                	sw	s4,40(sp)
   14fce:	d256                	sw	s5,36(sp)
   14fd0:	00c59993          	slli	s3,a1,0xc
   14fd4:	de06                	sw	ra,60(sp)
   14fd6:	dc22                	sw	s0,56(sp)
   14fd8:	da26                	sw	s1,52(sp)
   14fda:	d05a                	sw	s6,32(sp)
   14fdc:	ce5e                	sw	s7,28(sp)
   14fde:	7ff97913          	andi	s2,s2,2047
   14fe2:	8a2a                	mv	s4,a0
   14fe4:	00c9d993          	srli	s3,s3,0xc
   14fe8:	01f5da93          	srli	s5,a1,0x1f
   14fec:	0e090d63          	beqz	s2,150e6 <__muldf3+0x124>
   14ff0:	7ff00793          	li	a5,2047
   14ff4:	18f90a63          	beq	s2,a5,15188 <__muldf3+0x1c6>
   14ff8:	01d55413          	srli	s0,a0,0x1d
   14ffc:	098e                	slli	s3,s3,0x3
   14ffe:	013469b3          	or	s3,s0,s3
   15002:	00800437          	lui	s0,0x800
   15006:	0089e433          	or	s0,s3,s0
   1500a:	00351493          	slli	s1,a0,0x3
   1500e:	c0190913          	addi	s2,s2,-1023
   15012:	4981                	li	s3,0
   15014:	4b81                	li	s7,0
   15016:	0146d713          	srli	a4,a3,0x14
   1501a:	00c69a13          	slli	s4,a3,0xc
   1501e:	7ff77713          	andi	a4,a4,2047
   15022:	85b2                	mv	a1,a2
   15024:	00ca5a13          	srli	s4,s4,0xc
   15028:	01f6db13          	srli	s6,a3,0x1f
   1502c:	10070d63          	beqz	a4,15146 <__muldf3+0x184>
   15030:	7ff00793          	li	a5,2047
   15034:	04f70363          	beq	a4,a5,1507a <__muldf3+0xb8>
   15038:	01d65793          	srli	a5,a2,0x1d
   1503c:	0a0e                	slli	s4,s4,0x3
   1503e:	0147ea33          	or	s4,a5,s4
   15042:	c0170713          	addi	a4,a4,-1023
   15046:	008007b7          	lui	a5,0x800
   1504a:	00fa67b3          	or	a5,s4,a5
   1504e:	00361593          	slli	a1,a2,0x3
   15052:	993a                	add	s2,s2,a4
   15054:	4881                	li	a7,0
   15056:	016ac733          	xor	a4,s5,s6
   1505a:	46bd                	li	a3,15
   1505c:	853a                	mv	a0,a4
   1505e:	00190813          	addi	a6,s2,1
   15062:	1736ec63          	bltu	a3,s3,151da <__muldf3+0x218>
   15066:	00001617          	auipc	a2,0x1
   1506a:	eea60613          	addi	a2,a2,-278 # 15f50 <strlen+0xd8>
   1506e:	098a                	slli	s3,s3,0x2
   15070:	99b2                	add	s3,s3,a2
   15072:	0009a683          	lw	a3,0(s3)
   15076:	96b2                	add	a3,a3,a2
   15078:	8682                	jr	a3
   1507a:	00ca67b3          	or	a5,s4,a2
   1507e:	7ff90913          	addi	s2,s2,2047
   15082:	12079d63          	bnez	a5,151bc <__muldf3+0x1fa>
   15086:	0029e993          	ori	s3,s3,2
   1508a:	4581                	li	a1,0
   1508c:	4889                	li	a7,2
   1508e:	b7e1                	j	15056 <__muldf3+0x94>
   15090:	4701                	li	a4,0
   15092:	7ff00793          	li	a5,2047
   15096:	00080437          	lui	s0,0x80
   1509a:	4481                	li	s1,0
   1509c:	0432                	slli	s0,s0,0xc
   1509e:	07d2                	slli	a5,a5,0x14
   150a0:	8031                	srli	s0,s0,0xc
   150a2:	077e                	slli	a4,a4,0x1f
   150a4:	8c5d                	or	s0,s0,a5
   150a6:	8c59                	or	s0,s0,a4
   150a8:	85a2                	mv	a1,s0
   150aa:	50f2                	lw	ra,60(sp)
   150ac:	5462                	lw	s0,56(sp)
   150ae:	8526                	mv	a0,s1
   150b0:	5942                	lw	s2,48(sp)
   150b2:	54d2                	lw	s1,52(sp)
   150b4:	59b2                	lw	s3,44(sp)
   150b6:	5a22                	lw	s4,40(sp)
   150b8:	5a92                	lw	s5,36(sp)
   150ba:	5b02                	lw	s6,32(sp)
   150bc:	4bf2                	lw	s7,28(sp)
   150be:	6121                	addi	sp,sp,64
   150c0:	8082                	ret
   150c2:	855a                	mv	a0,s6
   150c4:	843e                	mv	s0,a5
   150c6:	84ae                	mv	s1,a1
   150c8:	8bc6                	mv	s7,a7
   150ca:	4789                	li	a5,2
   150cc:	10fb8163          	beq	s7,a5,151ce <__muldf3+0x20c>
   150d0:	478d                	li	a5,3
   150d2:	fafb8fe3          	beq	s7,a5,15090 <__muldf3+0xce>
   150d6:	4785                	li	a5,1
   150d8:	872a                	mv	a4,a0
   150da:	3afb9663          	bne	s7,a5,15486 <__muldf3+0x4c4>
   150de:	4781                	li	a5,0
   150e0:	4401                	li	s0,0
   150e2:	4481                	li	s1,0
   150e4:	bf65                	j	1509c <__muldf3+0xda>
   150e6:	00a9e433          	or	s0,s3,a0
   150ea:	c461                	beqz	s0,151b2 <__muldf3+0x1f0>
   150ec:	c636                	sw	a3,12(sp)
   150ee:	c432                	sw	a2,8(sp)
   150f0:	2c098263          	beqz	s3,153b4 <__muldf3+0x3f2>
   150f4:	854e                	mv	a0,s3
   150f6:	00001097          	auipc	ra,0x1
   150fa:	d0c080e7          	jalr	-756(ra) # 15e02 <__clzsi2>
   150fe:	4622                	lw	a2,8(sp)
   15100:	46b2                	lw	a3,12(sp)
   15102:	87aa                	mv	a5,a0
   15104:	ff550713          	addi	a4,a0,-11
   15108:	4475                	li	s0,29
   1510a:	ff878493          	addi	s1,a5,-8 # 7ffff8 <MAINLOOP_COUNT+0x76d838>
   1510e:	8c19                	sub	s0,s0,a4
   15110:	009999b3          	sll	s3,s3,s1
   15114:	008a5433          	srl	s0,s4,s0
   15118:	01346433          	or	s0,s0,s3
   1511c:	009a14b3          	sll	s1,s4,s1
   15120:	0146d713          	srli	a4,a3,0x14
   15124:	c0d00913          	li	s2,-1011
   15128:	00c69a13          	slli	s4,a3,0xc
   1512c:	7ff77713          	andi	a4,a4,2047
   15130:	40f90933          	sub	s2,s2,a5
   15134:	4981                	li	s3,0
   15136:	4b81                	li	s7,0
   15138:	85b2                	mv	a1,a2
   1513a:	00ca5a13          	srli	s4,s4,0xc
   1513e:	01f6db13          	srli	s6,a3,0x1f
   15142:	ee0717e3          	bnez	a4,15030 <__muldf3+0x6e>
   15146:	00ca67b3          	or	a5,s4,a2
   1514a:	cba1                	beqz	a5,1519a <__muldf3+0x1d8>
   1514c:	240a0163          	beqz	s4,1538e <__muldf3+0x3cc>
   15150:	8552                	mv	a0,s4
   15152:	c432                	sw	a2,8(sp)
   15154:	00001097          	auipc	ra,0x1
   15158:	cae080e7          	jalr	-850(ra) # 15e02 <__clzsi2>
   1515c:	4622                	lw	a2,8(sp)
   1515e:	872a                	mv	a4,a0
   15160:	ff550693          	addi	a3,a0,-11
   15164:	47f5                	li	a5,29
   15166:	ff870593          	addi	a1,a4,-8
   1516a:	8f95                	sub	a5,a5,a3
   1516c:	00ba1a33          	sll	s4,s4,a1
   15170:	00f657b3          	srl	a5,a2,a5
   15174:	0147e7b3          	or	a5,a5,s4
   15178:	00b615b3          	sll	a1,a2,a1
   1517c:	40e90933          	sub	s2,s2,a4
   15180:	c0d90913          	addi	s2,s2,-1011
   15184:	4881                	li	a7,0
   15186:	bdc1                	j	15056 <__muldf3+0x94>
   15188:	00a9e433          	or	s0,s3,a0
   1518c:	ec01                	bnez	s0,151a4 <__muldf3+0x1e2>
   1518e:	49a1                	li	s3,8
   15190:	4481                	li	s1,0
   15192:	7ff00913          	li	s2,2047
   15196:	4b89                	li	s7,2
   15198:	bdbd                	j	15016 <__muldf3+0x54>
   1519a:	0019e993          	ori	s3,s3,1
   1519e:	4581                	li	a1,0
   151a0:	4885                	li	a7,1
   151a2:	bd55                	j	15056 <__muldf3+0x94>
   151a4:	844e                	mv	s0,s3
   151a6:	84aa                	mv	s1,a0
   151a8:	49b1                	li	s3,12
   151aa:	7ff00913          	li	s2,2047
   151ae:	4b8d                	li	s7,3
   151b0:	b59d                	j	15016 <__muldf3+0x54>
   151b2:	4991                	li	s3,4
   151b4:	4481                	li	s1,0
   151b6:	4901                	li	s2,0
   151b8:	4b85                	li	s7,1
   151ba:	bdb1                	j	15016 <__muldf3+0x54>
   151bc:	0039e993          	ori	s3,s3,3
   151c0:	87d2                	mv	a5,s4
   151c2:	488d                	li	a7,3
   151c4:	bd49                	j	15056 <__muldf3+0x94>
   151c6:	4789                	li	a5,2
   151c8:	8556                	mv	a0,s5
   151ca:	f0fb93e3          	bne	s7,a5,150d0 <__muldf3+0x10e>
   151ce:	872a                	mv	a4,a0
   151d0:	7ff00793          	li	a5,2047
   151d4:	4401                	li	s0,0
   151d6:	4481                	li	s1,0
   151d8:	b5d1                	j	1509c <__muldf3+0xda>
   151da:	6ec1                	lui	t4,0x10
   151dc:	fffe8613          	addi	a2,t4,-1 # ffff <MCU_SECTORSIZE+0xefff>
   151e0:	0104d693          	srli	a3,s1,0x10
   151e4:	0105de13          	srli	t3,a1,0x10
   151e8:	8cf1                	and	s1,s1,a2
   151ea:	8df1                	and	a1,a1,a2
   151ec:	02958633          	mul	a2,a1,s1
   151f0:	02b68333          	mul	t1,a3,a1
   151f4:	01065893          	srli	a7,a2,0x10
   151f8:	029e0533          	mul	a0,t3,s1
   151fc:	951a                	add	a0,a0,t1
   151fe:	98aa                	add	a7,a7,a0
   15200:	03c682b3          	mul	t0,a3,t3
   15204:	0068f363          	bgeu	a7,t1,1520a <__muldf3+0x248>
   15208:	92f6                	add	t0,t0,t4
   1520a:	6fc1                	lui	t6,0x10
   1520c:	ffff8313          	addi	t1,t6,-1 # ffff <MCU_SECTORSIZE+0xefff>
   15210:	0067f533          	and	a0,a5,t1
   15214:	0107d393          	srli	t2,a5,0x10
   15218:	0068f7b3          	and	a5,a7,t1
   1521c:	07c2                	slli	a5,a5,0x10
   1521e:	00667333          	and	t1,a2,t1
   15222:	933e                	add	t1,t1,a5
   15224:	02950633          	mul	a2,a0,s1
   15228:	0108d893          	srli	a7,a7,0x10
   1522c:	02a687b3          	mul	a5,a3,a0
   15230:	01065f13          	srli	t5,a2,0x10
   15234:	029384b3          	mul	s1,t2,s1
   15238:	94be                	add	s1,s1,a5
   1523a:	94fa                	add	s1,s1,t5
   1523c:	02768eb3          	mul	t4,a3,t2
   15240:	00f4f363          	bgeu	s1,a5,15246 <__muldf3+0x284>
   15244:	9efe                	add	t4,t4,t6
   15246:	6a41                	lui	s4,0x10
   15248:	fffa0793          	addi	a5,s4,-1 # ffff <MCU_SECTORSIZE+0xefff>
   1524c:	01045f93          	srli	t6,s0,0x10
   15250:	00f476b3          	and	a3,s0,a5
   15254:	00f4f9b3          	and	s3,s1,a5
   15258:	8e7d                	and	a2,a2,a5
   1525a:	80c1                	srli	s1,s1,0x10
   1525c:	02d58433          	mul	s0,a1,a3
   15260:	09c2                	slli	s3,s3,0x10
   15262:	01d48f33          	add	t5,s1,t4
   15266:	99b2                	add	s3,s3,a2
   15268:	98ce                	add	a7,a7,s3
   1526a:	02de07b3          	mul	a5,t3,a3
   1526e:	01045e93          	srli	t4,s0,0x10
   15272:	02bf85b3          	mul	a1,t6,a1
   15276:	97ae                	add	a5,a5,a1
   15278:	9ebe                	add	t4,t4,a5
   1527a:	03fe0e33          	mul	t3,t3,t6
   1527e:	00bef363          	bgeu	t4,a1,15284 <__muldf3+0x2c2>
   15282:	9e52                	add	t3,t3,s4
   15284:	67c1                	lui	a5,0x10
   15286:	fff78593          	addi	a1,a5,-1 # ffff <MCU_SECTORSIZE+0xefff>
   1528a:	00bef633          	and	a2,t4,a1
   1528e:	8c6d                	and	s0,s0,a1
   15290:	0642                	slli	a2,a2,0x10
   15292:	9622                	add	a2,a2,s0
   15294:	010ede93          	srli	t4,t4,0x10
   15298:	02d505b3          	mul	a1,a0,a3
   1529c:	9e76                	add	t3,t3,t4
   1529e:	02af8533          	mul	a0,t6,a0
   152a2:	0105d413          	srli	s0,a1,0x10
   152a6:	02d386b3          	mul	a3,t2,a3
   152aa:	96aa                	add	a3,a3,a0
   152ac:	96a2                	add	a3,a3,s0
   152ae:	03f38fb3          	mul	t6,t2,t6
   152b2:	00a6f363          	bgeu	a3,a0,152b8 <__muldf3+0x2f6>
   152b6:	9fbe                	add	t6,t6,a5
   152b8:	6541                	lui	a0,0x10
   152ba:	157d                	addi	a0,a0,-1
   152bc:	00a6f7b3          	and	a5,a3,a0
   152c0:	07c2                	slli	a5,a5,0x10
   152c2:	8d6d                	and	a0,a0,a1
   152c4:	97aa                	add	a5,a5,a0
   152c6:	005885b3          	add	a1,a7,t0
   152ca:	0135b9b3          	sltu	s3,a1,s3
   152ce:	97fa                	add	a5,a5,t5
   152d0:	95b2                	add	a1,a1,a2
   152d2:	01378433          	add	s0,a5,s3
   152d6:	00c5b633          	sltu	a2,a1,a2
   152da:	01c40eb3          	add	t4,s0,t3
   152de:	00ce8533          	add	a0,t4,a2
   152e2:	01343433          	sltu	s0,s0,s3
   152e6:	01e7b7b3          	sltu	a5,a5,t5
   152ea:	8fc1                	or	a5,a5,s0
   152ec:	01cebe33          	sltu	t3,t4,t3
   152f0:	0106d413          	srli	s0,a3,0x10
   152f4:	00c53633          	sltu	a2,a0,a2
   152f8:	943e                	add	s0,s0,a5
   152fa:	00ce6633          	or	a2,t3,a2
   152fe:	00959493          	slli	s1,a1,0x9
   15302:	9432                	add	s0,s0,a2
   15304:	947e                	add	s0,s0,t6
   15306:	0064e4b3          	or	s1,s1,t1
   1530a:	0426                	slli	s0,s0,0x9
   1530c:	01755693          	srli	a3,a0,0x17
   15310:	009034b3          	snez	s1,s1
   15314:	81dd                	srli	a1,a1,0x17
   15316:	00951793          	slli	a5,a0,0x9
   1531a:	8ccd                	or	s1,s1,a1
   1531c:	8c55                	or	s0,s0,a3
   1531e:	8cdd                	or	s1,s1,a5
   15320:	00741793          	slli	a5,s0,0x7
   15324:	0007db63          	bgez	a5,1533a <__muldf3+0x378>
   15328:	0014d793          	srli	a5,s1,0x1
   1532c:	8885                	andi	s1,s1,1
   1532e:	01f41693          	slli	a3,s0,0x1f
   15332:	8cdd                	or	s1,s1,a5
   15334:	8cd5                	or	s1,s1,a3
   15336:	8005                	srli	s0,s0,0x1
   15338:	8942                	mv	s2,a6
   1533a:	3ff90793          	addi	a5,s2,1023
   1533e:	08f05d63          	blez	a5,153d8 <__muldf3+0x416>
   15342:	0074f693          	andi	a3,s1,7
   15346:	ce81                	beqz	a3,1535e <__muldf3+0x39c>
   15348:	00f4f693          	andi	a3,s1,15
   1534c:	4611                	li	a2,4
   1534e:	00c68863          	beq	a3,a2,1535e <__muldf3+0x39c>
   15352:	00448693          	addi	a3,s1,4
   15356:	0096b4b3          	sltu	s1,a3,s1
   1535a:	9426                	add	s0,s0,s1
   1535c:	84b6                	mv	s1,a3
   1535e:	00741693          	slli	a3,s0,0x7
   15362:	0006d863          	bgez	a3,15372 <__muldf3+0x3b0>
   15366:	ff0007b7          	lui	a5,0xff000
   1536a:	17fd                	addi	a5,a5,-1
   1536c:	8c7d                	and	s0,s0,a5
   1536e:	40090793          	addi	a5,s2,1024
   15372:	7fe00693          	li	a3,2046
   15376:	10f6c363          	blt	a3,a5,1547c <__muldf3+0x4ba>
   1537a:	0034d693          	srli	a3,s1,0x3
   1537e:	01d41493          	slli	s1,s0,0x1d
   15382:	0426                	slli	s0,s0,0x9
   15384:	8cd5                	or	s1,s1,a3
   15386:	8031                	srli	s0,s0,0xc
   15388:	7ff7f793          	andi	a5,a5,2047
   1538c:	bb01                	j	1509c <__muldf3+0xda>
   1538e:	8532                	mv	a0,a2
   15390:	c432                	sw	a2,8(sp)
   15392:	00001097          	auipc	ra,0x1
   15396:	a70080e7          	jalr	-1424(ra) # 15e02 <__clzsi2>
   1539a:	01550693          	addi	a3,a0,21 # 10015 <MCU_SECTORSIZE+0xf015>
   1539e:	47f1                	li	a5,28
   153a0:	02050713          	addi	a4,a0,32
   153a4:	4622                	lw	a2,8(sp)
   153a6:	dad7dfe3          	bge	a5,a3,15164 <__muldf3+0x1a2>
   153aa:	1561                	addi	a0,a0,-8
   153ac:	00a617b3          	sll	a5,a2,a0
   153b0:	4581                	li	a1,0
   153b2:	b3e9                	j	1517c <__muldf3+0x1ba>
   153b4:	00001097          	auipc	ra,0x1
   153b8:	a4e080e7          	jalr	-1458(ra) # 15e02 <__clzsi2>
   153bc:	01550713          	addi	a4,a0,21
   153c0:	45f1                	li	a1,28
   153c2:	02050793          	addi	a5,a0,32
   153c6:	4622                	lw	a2,8(sp)
   153c8:	46b2                	lw	a3,12(sp)
   153ca:	d2e5dfe3          	bge	a1,a4,15108 <__muldf3+0x146>
   153ce:	1561                	addi	a0,a0,-8
   153d0:	00aa1433          	sll	s0,s4,a0
   153d4:	4481                	li	s1,0
   153d6:	b3a9                	j	15120 <__muldf3+0x15e>
   153d8:	4685                	li	a3,1
   153da:	8e9d                	sub	a3,a3,a5
   153dc:	e7b1                	bnez	a5,15428 <__muldf3+0x466>
   153de:	41e90913          	addi	s2,s2,1054
   153e2:	012497b3          	sll	a5,s1,s2
   153e6:	00d4d4b3          	srl	s1,s1,a3
   153ea:	01241933          	sll	s2,s0,s2
   153ee:	00f037b3          	snez	a5,a5
   153f2:	009964b3          	or	s1,s2,s1
   153f6:	8cdd                	or	s1,s1,a5
   153f8:	0074f793          	andi	a5,s1,7
   153fc:	00d456b3          	srl	a3,s0,a3
   15400:	cf81                	beqz	a5,15418 <__muldf3+0x456>
   15402:	00f4f793          	andi	a5,s1,15
   15406:	4611                	li	a2,4
   15408:	00c78863          	beq	a5,a2,15418 <__muldf3+0x456>
   1540c:	00448793          	addi	a5,s1,4
   15410:	0097b4b3          	sltu	s1,a5,s1
   15414:	96a6                	add	a3,a3,s1
   15416:	84be                	mv	s1,a5
   15418:	00869793          	slli	a5,a3,0x8
   1541c:	0407d863          	bgez	a5,1546c <__muldf3+0x4aa>
   15420:	4785                	li	a5,1
   15422:	4401                	li	s0,0
   15424:	4481                	li	s1,0
   15426:	b99d                	j	1509c <__muldf3+0xda>
   15428:	03800613          	li	a2,56
   1542c:	cad649e3          	blt	a2,a3,150de <__muldf3+0x11c>
   15430:	467d                	li	a2,31
   15432:	fad656e3          	bge	a2,a3,153de <__muldf3+0x41c>
   15436:	5605                	li	a2,-31
   15438:	40f607b3          	sub	a5,a2,a5
   1543c:	02000593          	li	a1,32
   15440:	00f45633          	srl	a2,s0,a5
   15444:	00b68763          	beq	a3,a1,15452 <__muldf3+0x490>
   15448:	43e90913          	addi	s2,s2,1086
   1544c:	012417b3          	sll	a5,s0,s2
   15450:	8cdd                	or	s1,s1,a5
   15452:	009034b3          	snez	s1,s1
   15456:	8cd1                	or	s1,s1,a2
   15458:	0074f693          	andi	a3,s1,7
   1545c:	4401                	li	s0,0
   1545e:	ca99                	beqz	a3,15474 <__muldf3+0x4b2>
   15460:	00f4f793          	andi	a5,s1,15
   15464:	4611                	li	a2,4
   15466:	4681                	li	a3,0
   15468:	fac792e3          	bne	a5,a2,1540c <__muldf3+0x44a>
   1546c:	00969413          	slli	s0,a3,0x9
   15470:	8031                	srli	s0,s0,0xc
   15472:	06f6                	slli	a3,a3,0x1d
   15474:	808d                	srli	s1,s1,0x3
   15476:	8cd5                	or	s1,s1,a3
   15478:	4781                	li	a5,0
   1547a:	b10d                	j	1509c <__muldf3+0xda>
   1547c:	7ff00793          	li	a5,2047
   15480:	4401                	li	s0,0
   15482:	4481                	li	s1,0
   15484:	b921                	j	1509c <__muldf3+0xda>
   15486:	8942                	mv	s2,a6
   15488:	bd4d                	j	1533a <__muldf3+0x378>

0001548a <__subdf3>:
__subdf3():
   1548a:	00100737          	lui	a4,0x100
   1548e:	177d                	addi	a4,a4,-1
   15490:	1101                	addi	sp,sp,-32
   15492:	00b77333          	and	t1,a4,a1
   15496:	0146d893          	srli	a7,a3,0x14
   1549a:	8f75                	and	a4,a4,a3
   1549c:	01d65e93          	srli	t4,a2,0x1d
   154a0:	cc22                	sw	s0,24(sp)
   154a2:	ca26                	sw	s1,20(sp)
   154a4:	030e                	slli	t1,t1,0x3
   154a6:	0145d493          	srli	s1,a1,0x14
   154aa:	01d55793          	srli	a5,a0,0x1d
   154ae:	070e                	slli	a4,a4,0x3
   154b0:	ce06                	sw	ra,28(sp)
   154b2:	c84a                	sw	s2,16(sp)
   154b4:	c64e                	sw	s3,12(sp)
   154b6:	7ff8f893          	andi	a7,a7,2047
   154ba:	7ff00e13          	li	t3,2047
   154be:	00eee733          	or	a4,t4,a4
   154c2:	7ff4f493          	andi	s1,s1,2047
   154c6:	01f5d413          	srli	s0,a1,0x1f
   154ca:	0067e333          	or	t1,a5,t1
   154ce:	00351f13          	slli	t5,a0,0x3
   154d2:	82fd                	srli	a3,a3,0x1f
   154d4:	00361e93          	slli	t4,a2,0x3
   154d8:	19c88263          	beq	a7,t3,1565c <__subdf3+0x1d2>
   154dc:	0016c693          	xori	a3,a3,1
   154e0:	411485b3          	sub	a1,s1,a7
   154e4:	12d40763          	beq	s0,a3,15612 <__subdf3+0x188>
   154e8:	18b05363          	blez	a1,1566e <__subdf3+0x1e4>
   154ec:	1a088d63          	beqz	a7,156a6 <__subdf3+0x21c>
   154f0:	008007b7          	lui	a5,0x800
   154f4:	8f5d                	or	a4,a4,a5
   154f6:	59c48563          	beq	s1,t3,15a80 <__subdf3+0x5f6>
   154fa:	03800793          	li	a5,56
   154fe:	34b7c863          	blt	a5,a1,1584e <__subdf3+0x3c4>
   15502:	47fd                	li	a5,31
   15504:	48b7c963          	blt	a5,a1,15996 <__subdf3+0x50c>
   15508:	02000793          	li	a5,32
   1550c:	8f8d                	sub	a5,a5,a1
   1550e:	00bed9b3          	srl	s3,t4,a1
   15512:	00f71833          	sll	a6,a4,a5
   15516:	00fe9eb3          	sll	t4,t4,a5
   1551a:	01386833          	or	a6,a6,s3
   1551e:	00b75733          	srl	a4,a4,a1
   15522:	01d039b3          	snez	s3,t4
   15526:	01386833          	or	a6,a6,s3
   1552a:	40e30333          	sub	t1,t1,a4
   1552e:	410f09b3          	sub	s3,t5,a6
   15532:	013f37b3          	sltu	a5,t5,s3
   15536:	40f30633          	sub	a2,t1,a5
   1553a:	00861793          	slli	a5,a2,0x8
   1553e:	2407d563          	bgez	a5,15788 <__subdf3+0x2fe>
   15542:	00800937          	lui	s2,0x800
   15546:	197d                	addi	s2,s2,-1
   15548:	01267933          	and	s2,a2,s2
   1554c:	2e090163          	beqz	s2,1582e <__subdf3+0x3a4>
   15550:	854a                	mv	a0,s2
   15552:	00001097          	auipc	ra,0x1
   15556:	8b0080e7          	jalr	-1872(ra) # 15e02 <__clzsi2>
   1555a:	ff850713          	addi	a4,a0,-8
   1555e:	02000793          	li	a5,32
   15562:	8f99                	sub	a5,a5,a4
   15564:	00f9d7b3          	srl	a5,s3,a5
   15568:	00e91633          	sll	a2,s2,a4
   1556c:	8fd1                	or	a5,a5,a2
   1556e:	00e999b3          	sll	s3,s3,a4
   15572:	2a974463          	blt	a4,s1,1581a <__subdf3+0x390>
   15576:	8f05                	sub	a4,a4,s1
   15578:	00170613          	addi	a2,a4,1 # 100001 <MAINLOOP_COUNT+0x6d841>
   1557c:	46fd                	li	a3,31
   1557e:	3ac6c763          	blt	a3,a2,1592c <__subdf3+0x4a2>
   15582:	02000713          	li	a4,32
   15586:	8f11                	sub	a4,a4,a2
   15588:	00c9d6b3          	srl	a3,s3,a2
   1558c:	00e99833          	sll	a6,s3,a4
   15590:	00e79733          	sll	a4,a5,a4
   15594:	8f55                	or	a4,a4,a3
   15596:	01003833          	snez	a6,a6
   1559a:	010769b3          	or	s3,a4,a6
   1559e:	00c7d633          	srl	a2,a5,a2
   155a2:	4481                	li	s1,0
   155a4:	0079f793          	andi	a5,s3,7
   155a8:	cf81                	beqz	a5,155c0 <__subdf3+0x136>
   155aa:	00f9f693          	andi	a3,s3,15
   155ae:	4791                	li	a5,4
   155b0:	00f68863          	beq	a3,a5,155c0 <__subdf3+0x136>
   155b4:	00498693          	addi	a3,s3,4
   155b8:	0136b833          	sltu	a6,a3,s3
   155bc:	9642                	add	a2,a2,a6
   155be:	89b6                	mv	s3,a3
   155c0:	00861793          	slli	a5,a2,0x8
   155c4:	1c07d663          	bgez	a5,15790 <__subdf3+0x306>
   155c8:	00148713          	addi	a4,s1,1
   155cc:	7ff00793          	li	a5,2047
   155d0:	8805                	andi	s0,s0,1
   155d2:	20f70663          	beq	a4,a5,157de <__subdf3+0x354>
   155d6:	ff8007b7          	lui	a5,0xff800
   155da:	17fd                	addi	a5,a5,-1
   155dc:	8ff1                	and	a5,a5,a2
   155de:	01d79813          	slli	a6,a5,0x1d
   155e2:	0039d993          	srli	s3,s3,0x3
   155e6:	07a6                	slli	a5,a5,0x9
   155e8:	01386833          	or	a6,a6,s3
   155ec:	83b1                	srli	a5,a5,0xc
   155ee:	7ff77713          	andi	a4,a4,2047
   155f2:	00c79693          	slli	a3,a5,0xc
   155f6:	0752                	slli	a4,a4,0x14
   155f8:	82b1                	srli	a3,a3,0xc
   155fa:	047e                	slli	s0,s0,0x1f
   155fc:	8ed9                	or	a3,a3,a4
   155fe:	8ec1                	or	a3,a3,s0
   15600:	40f2                	lw	ra,28(sp)
   15602:	4462                	lw	s0,24(sp)
   15604:	44d2                	lw	s1,20(sp)
   15606:	4942                	lw	s2,16(sp)
   15608:	49b2                	lw	s3,12(sp)
   1560a:	8542                	mv	a0,a6
   1560c:	85b6                	mv	a1,a3
   1560e:	6105                	addi	sp,sp,32
   15610:	8082                	ret
   15612:	0ab05663          	blez	a1,156be <__subdf3+0x234>
   15616:	12088a63          	beqz	a7,1574a <__subdf3+0x2c0>
   1561a:	008007b7          	lui	a5,0x800
   1561e:	8f5d                	or	a4,a4,a5
   15620:	2dc48963          	beq	s1,t3,158f2 <__subdf3+0x468>
   15624:	03800793          	li	a5,56
   15628:	18b7c763          	blt	a5,a1,157b6 <__subdf3+0x32c>
   1562c:	47fd                	li	a5,31
   1562e:	3cb7d463          	bge	a5,a1,159f6 <__subdf3+0x56c>
   15632:	fe058813          	addi	a6,a1,-32
   15636:	02000793          	li	a5,32
   1563a:	010759b3          	srl	s3,a4,a6
   1563e:	00f58a63          	beq	a1,a5,15652 <__subdf3+0x1c8>
   15642:	04000793          	li	a5,64
   15646:	40b785b3          	sub	a1,a5,a1
   1564a:	00b71733          	sll	a4,a4,a1
   1564e:	00eeeeb3          	or	t4,t4,a4
   15652:	01d03833          	snez	a6,t4
   15656:	01386833          	or	a6,a6,s3
   1565a:	a295                	j	157be <__subdf3+0x334>
   1565c:	01d767b3          	or	a5,a4,t4
   15660:	80148593          	addi	a1,s1,-2047
   15664:	e399                	bnez	a5,1566a <__subdf3+0x1e0>
   15666:	0016c693          	xori	a3,a3,1
   1566a:	04d40a63          	beq	s0,a3,156be <__subdf3+0x234>
   1566e:	e1d1                	bnez	a1,156f2 <__subdf3+0x268>
   15670:	00148793          	addi	a5,s1,1
   15674:	7fe7f793          	andi	a5,a5,2046
   15678:	1e079b63          	bnez	a5,1586e <__subdf3+0x3e4>
   1567c:	01e367b3          	or	a5,t1,t5
   15680:	01d76833          	or	a6,a4,t4
   15684:	16049263          	bnez	s1,157e8 <__subdf3+0x35e>
   15688:	3c078463          	beqz	a5,15a50 <__subdf3+0x5c6>
   1568c:	42081863          	bnez	a6,15abc <__subdf3+0x632>
   15690:	00351813          	slli	a6,a0,0x3
   15694:	01d31693          	slli	a3,t1,0x1d
   15698:	00385813          	srli	a6,a6,0x3
   1569c:	0106e833          	or	a6,a3,a6
   156a0:	00335793          	srli	a5,t1,0x3
   156a4:	a219                	j	157aa <__subdf3+0x320>
   156a6:	01d767b3          	or	a5,a4,t4
   156aa:	1a078763          	beqz	a5,15858 <__subdf3+0x3ce>
   156ae:	fff58793          	addi	a5,a1,-1
   156b2:	3a078d63          	beqz	a5,15a6c <__subdf3+0x5e2>
   156b6:	23c58e63          	beq	a1,t3,158f2 <__subdf3+0x468>
   156ba:	85be                	mv	a1,a5
   156bc:	bd3d                	j	154fa <__subdf3+0x70>
   156be:	1c059b63          	bnez	a1,15894 <__subdf3+0x40a>
   156c2:	00148693          	addi	a3,s1,1
   156c6:	7fe6f793          	andi	a5,a3,2046
   156ca:	efc1                	bnez	a5,15762 <__subdf3+0x2d8>
   156cc:	01e367b3          	or	a5,t1,t5
   156d0:	36049263          	bnez	s1,15a34 <__subdf3+0x5aa>
   156d4:	44078f63          	beqz	a5,15b32 <__subdf3+0x6a8>
   156d8:	01d767b3          	or	a5,a4,t4
   156dc:	46079663          	bnez	a5,15b48 <__subdf3+0x6be>
   156e0:	050e                	slli	a0,a0,0x3
   156e2:	01d31813          	slli	a6,t1,0x1d
   156e6:	810d                	srli	a0,a0,0x3
   156e8:	00a86833          	or	a6,a6,a0
   156ec:	00335793          	srli	a5,t1,0x3
   156f0:	a86d                	j	157aa <__subdf3+0x320>
   156f2:	409885b3          	sub	a1,a7,s1
   156f6:	20049963          	bnez	s1,15908 <__subdf3+0x47e>
   156fa:	01e367b3          	or	a5,t1,t5
   156fe:	30078f63          	beqz	a5,15a1c <__subdf3+0x592>
   15702:	fff58793          	addi	a5,a1,-1
   15706:	40078b63          	beqz	a5,15b1c <__subdf3+0x692>
   1570a:	7ff00513          	li	a0,2047
   1570e:	20a58563          	beq	a1,a0,15918 <__subdf3+0x48e>
   15712:	85be                	mv	a1,a5
   15714:	03800793          	li	a5,56
   15718:	2ab7c463          	blt	a5,a1,159c0 <__subdf3+0x536>
   1571c:	47fd                	li	a5,31
   1571e:	3cb7ca63          	blt	a5,a1,15af2 <__subdf3+0x668>
   15722:	02000793          	li	a5,32
   15726:	8f8d                	sub	a5,a5,a1
   15728:	00f31833          	sll	a6,t1,a5
   1572c:	00bf5633          	srl	a2,t5,a1
   15730:	00ff17b3          	sll	a5,t5,a5
   15734:	00c86833          	or	a6,a6,a2
   15738:	00f039b3          	snez	s3,a5
   1573c:	00b35333          	srl	t1,t1,a1
   15740:	01386833          	or	a6,a6,s3
   15744:	40670733          	sub	a4,a4,t1
   15748:	a441                	j	159c8 <__subdf3+0x53e>
   1574a:	01d767b3          	or	a5,a4,t4
   1574e:	10078563          	beqz	a5,15858 <__subdf3+0x3ce>
   15752:	fff58793          	addi	a5,a1,-1
   15756:	20078163          	beqz	a5,15958 <__subdf3+0x4ce>
   1575a:	2fc58263          	beq	a1,t3,15a3e <__subdf3+0x5b4>
   1575e:	85be                	mv	a1,a5
   15760:	b5d1                	j	15624 <__subdf3+0x19a>
   15762:	7ff00793          	li	a5,2047
   15766:	06f68b63          	beq	a3,a5,157dc <__subdf3+0x352>
   1576a:	9efa                	add	t4,t4,t5
   1576c:	01eeb633          	sltu	a2,t4,t5
   15770:	00e307b3          	add	a5,t1,a4
   15774:	97b2                	add	a5,a5,a2
   15776:	01f79813          	slli	a6,a5,0x1f
   1577a:	001ede93          	srli	t4,t4,0x1
   1577e:	01d869b3          	or	s3,a6,t4
   15782:	0017d613          	srli	a2,a5,0x1
   15786:	84b6                	mv	s1,a3
   15788:	0079f793          	andi	a5,s3,7
   1578c:	e0079fe3          	bnez	a5,155aa <__subdf3+0x120>
   15790:	01d61793          	slli	a5,a2,0x1d
   15794:	0039d813          	srli	a6,s3,0x3
   15798:	00f86833          	or	a6,a6,a5
   1579c:	85a6                	mv	a1,s1
   1579e:	00365793          	srli	a5,a2,0x3
   157a2:	7ff00713          	li	a4,2047
   157a6:	06e58063          	beq	a1,a4,15806 <__subdf3+0x37c>
   157aa:	07b2                	slli	a5,a5,0xc
   157ac:	83b1                	srli	a5,a5,0xc
   157ae:	7ff5f713          	andi	a4,a1,2047
   157b2:	8805                	andi	s0,s0,1
   157b4:	bd3d                	j	155f2 <__subdf3+0x168>
   157b6:	01d76733          	or	a4,a4,t4
   157ba:	00e03833          	snez	a6,a4
   157be:	01e809b3          	add	s3,a6,t5
   157c2:	01e9b7b3          	sltu	a5,s3,t5
   157c6:	00678633          	add	a2,a5,t1
   157ca:	00861793          	slli	a5,a2,0x8
   157ce:	fa07dde3          	bgez	a5,15788 <__subdf3+0x2fe>
   157d2:	0485                	addi	s1,s1,1
   157d4:	7ff00793          	li	a5,2047
   157d8:	18f49e63          	bne	s1,a5,15974 <__subdf3+0x4ea>
   157dc:	8805                	andi	s0,s0,1
   157de:	7ff00713          	li	a4,2047
   157e2:	4781                	li	a5,0
   157e4:	4801                	li	a6,0
   157e6:	b531                	j	155f2 <__subdf3+0x168>
   157e8:	10079363          	bnez	a5,158ee <__subdf3+0x464>
   157ec:	3c080363          	beqz	a6,15bb2 <__subdf3+0x728>
   157f0:	00361813          	slli	a6,a2,0x3
   157f4:	01d71793          	slli	a5,a4,0x1d
   157f8:	00385813          	srli	a6,a6,0x3
   157fc:	00f86833          	or	a6,a6,a5
   15800:	8436                	mv	s0,a3
   15802:	00375793          	srli	a5,a4,0x3
   15806:	00f867b3          	or	a5,a6,a5
   1580a:	dbe9                	beqz	a5,157dc <__subdf3+0x352>
   1580c:	4401                	li	s0,0
   1580e:	7ff00713          	li	a4,2047
   15812:	000807b7          	lui	a5,0x80
   15816:	4801                	li	a6,0
   15818:	bbe9                	j	155f2 <__subdf3+0x168>
   1581a:	ff800637          	lui	a2,0xff800
   1581e:	167d                	addi	a2,a2,-1
   15820:	8e7d                	and	a2,a2,a5
   15822:	0079f793          	andi	a5,s3,7
   15826:	8c99                	sub	s1,s1,a4
   15828:	d80791e3          	bnez	a5,155aa <__subdf3+0x120>
   1582c:	b795                	j	15790 <__subdf3+0x306>
   1582e:	854e                	mv	a0,s3
   15830:	00000097          	auipc	ra,0x0
   15834:	5d2080e7          	jalr	1490(ra) # 15e02 <__clzsi2>
   15838:	01850713          	addi	a4,a0,24
   1583c:	47fd                	li	a5,31
   1583e:	d2e7d0e3          	bge	a5,a4,1555e <__subdf3+0xd4>
   15842:	ff850613          	addi	a2,a0,-8
   15846:	00c997b3          	sll	a5,s3,a2
   1584a:	4981                	li	s3,0
   1584c:	b31d                	j	15572 <__subdf3+0xe8>
   1584e:	01d76833          	or	a6,a4,t4
   15852:	01003833          	snez	a6,a6
   15856:	b9e1                	j	1552e <__subdf3+0xa4>
   15858:	00351813          	slli	a6,a0,0x3
   1585c:	01d31793          	slli	a5,t1,0x1d
   15860:	00385813          	srli	a6,a6,0x3
   15864:	00f86833          	or	a6,a6,a5
   15868:	00335793          	srli	a5,t1,0x3
   1586c:	bf1d                	j	157a2 <__subdf3+0x318>
   1586e:	41df09b3          	sub	s3,t5,t4
   15872:	40e30933          	sub	s2,t1,a4
   15876:	013f3633          	sltu	a2,t5,s3
   1587a:	40c90933          	sub	s2,s2,a2
   1587e:	00891793          	slli	a5,s2,0x8
   15882:	2007ca63          	bltz	a5,15a96 <__subdf3+0x60c>
   15886:	0129e833          	or	a6,s3,s2
   1588a:	cc0811e3          	bnez	a6,1554c <__subdf3+0xc2>
   1588e:	4781                	li	a5,0
   15890:	4401                	li	s0,0
   15892:	bf21                	j	157aa <__subdf3+0x320>
   15894:	409885b3          	sub	a1,a7,s1
   15898:	14048163          	beqz	s1,159da <__subdf3+0x550>
   1589c:	008006b7          	lui	a3,0x800
   158a0:	7ff00793          	li	a5,2047
   158a4:	00d36333          	or	t1,t1,a3
   158a8:	20f88163          	beq	a7,a5,15aaa <__subdf3+0x620>
   158ac:	03800793          	li	a5,56
   158b0:	22b7cc63          	blt	a5,a1,15ae8 <__subdf3+0x65e>
   158b4:	47fd                	li	a5,31
   158b6:	2cb7c963          	blt	a5,a1,15b88 <__subdf3+0x6fe>
   158ba:	02000793          	li	a5,32
   158be:	8f8d                	sub	a5,a5,a1
   158c0:	00f31833          	sll	a6,t1,a5
   158c4:	00bf56b3          	srl	a3,t5,a1
   158c8:	00ff17b3          	sll	a5,t5,a5
   158cc:	00d86833          	or	a6,a6,a3
   158d0:	00f039b3          	snez	s3,a5
   158d4:	00b35333          	srl	t1,t1,a1
   158d8:	01386833          	or	a6,a6,s3
   158dc:	971a                	add	a4,a4,t1
   158de:	01d809b3          	add	s3,a6,t4
   158e2:	01d9b7b3          	sltu	a5,s3,t4
   158e6:	00e78633          	add	a2,a5,a4
   158ea:	84c6                	mv	s1,a7
   158ec:	bdf9                	j	157ca <__subdf3+0x340>
   158ee:	f0081fe3          	bnez	a6,1580c <__subdf3+0x382>
   158f2:	00351813          	slli	a6,a0,0x3
   158f6:	01d31793          	slli	a5,t1,0x1d
   158fa:	00385813          	srli	a6,a6,0x3
   158fe:	00f86833          	or	a6,a6,a5
   15902:	00335793          	srli	a5,t1,0x3
   15906:	b701                	j	15806 <__subdf3+0x37c>
   15908:	00800537          	lui	a0,0x800
   1590c:	7ff00793          	li	a5,2047
   15910:	00a36333          	or	t1,t1,a0
   15914:	e0f890e3          	bne	a7,a5,15714 <__subdf3+0x28a>
   15918:	060e                	slli	a2,a2,0x3
   1591a:	01d71813          	slli	a6,a4,0x1d
   1591e:	820d                	srli	a2,a2,0x3
   15920:	00c86833          	or	a6,a6,a2
   15924:	00375793          	srli	a5,a4,0x3
   15928:	8436                	mv	s0,a3
   1592a:	bdf1                	j	15806 <__subdf3+0x37c>
   1592c:	1705                	addi	a4,a4,-31
   1592e:	02000693          	li	a3,32
   15932:	00e7d733          	srl	a4,a5,a4
   15936:	00d60a63          	beq	a2,a3,1594a <__subdf3+0x4c0>
   1593a:	04000693          	li	a3,64
   1593e:	40c68633          	sub	a2,a3,a2
   15942:	00c79633          	sll	a2,a5,a2
   15946:	00c9e9b3          	or	s3,s3,a2
   1594a:	01303833          	snez	a6,s3
   1594e:	00e869b3          	or	s3,a6,a4
   15952:	4601                	li	a2,0
   15954:	4481                	li	s1,0
   15956:	bd0d                	j	15788 <__subdf3+0x2fe>
   15958:	01df09b3          	add	s3,t5,t4
   1595c:	00e307b3          	add	a5,t1,a4
   15960:	01e9bf33          	sltu	t5,s3,t5
   15964:	01e78633          	add	a2,a5,t5
   15968:	00861793          	slli	a5,a2,0x8
   1596c:	4485                	li	s1,1
   1596e:	e007dde3          	bgez	a5,15788 <__subdf3+0x2fe>
   15972:	4489                	li	s1,2
   15974:	ff8007b7          	lui	a5,0xff800
   15978:	17fd                	addi	a5,a5,-1
   1597a:	8ff1                	and	a5,a5,a2
   1597c:	0019d713          	srli	a4,s3,0x1
   15980:	0019f813          	andi	a6,s3,1
   15984:	01076833          	or	a6,a4,a6
   15988:	01f79993          	slli	s3,a5,0x1f
   1598c:	0109e9b3          	or	s3,s3,a6
   15990:	0017d613          	srli	a2,a5,0x1
   15994:	b901                	j	155a4 <__subdf3+0x11a>
   15996:	fe058813          	addi	a6,a1,-32
   1599a:	02000793          	li	a5,32
   1599e:	010759b3          	srl	s3,a4,a6
   159a2:	00f58a63          	beq	a1,a5,159b6 <__subdf3+0x52c>
   159a6:	04000793          	li	a5,64
   159aa:	40b785b3          	sub	a1,a5,a1
   159ae:	00b71733          	sll	a4,a4,a1
   159b2:	00eeeeb3          	or	t4,t4,a4
   159b6:	01d03833          	snez	a6,t4
   159ba:	01386833          	or	a6,a6,s3
   159be:	be85                	j	1552e <__subdf3+0xa4>
   159c0:	01e36333          	or	t1,t1,t5
   159c4:	00603833          	snez	a6,t1
   159c8:	410e89b3          	sub	s3,t4,a6
   159cc:	013eb7b3          	sltu	a5,t4,s3
   159d0:	40f70633          	sub	a2,a4,a5
   159d4:	84c6                	mv	s1,a7
   159d6:	8436                	mv	s0,a3
   159d8:	b68d                	j	1553a <__subdf3+0xb0>
   159da:	01e367b3          	or	a5,t1,t5
   159de:	18078763          	beqz	a5,15b6c <__subdf3+0x6e2>
   159e2:	fff58793          	addi	a5,a1,-1
   159e6:	1c078c63          	beqz	a5,15bbe <__subdf3+0x734>
   159ea:	7ff00693          	li	a3,2047
   159ee:	0ad58e63          	beq	a1,a3,15aaa <__subdf3+0x620>
   159f2:	85be                	mv	a1,a5
   159f4:	bd65                	j	158ac <__subdf3+0x422>
   159f6:	02000793          	li	a5,32
   159fa:	8f8d                	sub	a5,a5,a1
   159fc:	00bed9b3          	srl	s3,t4,a1
   15a00:	00f71833          	sll	a6,a4,a5
   15a04:	00fe9eb3          	sll	t4,t4,a5
   15a08:	01386833          	or	a6,a6,s3
   15a0c:	00b75733          	srl	a4,a4,a1
   15a10:	01d039b3          	snez	s3,t4
   15a14:	01386833          	or	a6,a6,s3
   15a18:	933a                	add	t1,t1,a4
   15a1a:	b355                	j	157be <__subdf3+0x334>
   15a1c:	00361813          	slli	a6,a2,0x3
   15a20:	01d71793          	slli	a5,a4,0x1d
   15a24:	00385813          	srli	a6,a6,0x3
   15a28:	0107e833          	or	a6,a5,a6
   15a2c:	8436                	mv	s0,a3
   15a2e:	00375793          	srli	a5,a4,0x3
   15a32:	bb85                	j	157a2 <__subdf3+0x318>
   15a34:	cbbd                	beqz	a5,15aaa <__subdf3+0x620>
   15a36:	01d76733          	or	a4,a4,t4
   15a3a:	dc0719e3          	bnez	a4,1580c <__subdf3+0x382>
   15a3e:	050e                	slli	a0,a0,0x3
   15a40:	01d31813          	slli	a6,t1,0x1d
   15a44:	810d                	srli	a0,a0,0x3
   15a46:	00a86833          	or	a6,a6,a0
   15a4a:	00335793          	srli	a5,t1,0x3
   15a4e:	bb65                	j	15806 <__subdf3+0x37c>
   15a50:	e2080fe3          	beqz	a6,1588e <__subdf3+0x404>
   15a54:	00361813          	slli	a6,a2,0x3
   15a58:	01d71793          	slli	a5,a4,0x1d
   15a5c:	00385813          	srli	a6,a6,0x3
   15a60:	00f86833          	or	a6,a6,a5
   15a64:	8436                	mv	s0,a3
   15a66:	00375793          	srli	a5,a4,0x3
   15a6a:	b381                	j	157aa <__subdf3+0x320>
   15a6c:	41df09b3          	sub	s3,t5,t4
   15a70:	40e307b3          	sub	a5,t1,a4
   15a74:	013f3f33          	sltu	t5,t5,s3
   15a78:	41e78633          	sub	a2,a5,t5
   15a7c:	4485                	li	s1,1
   15a7e:	bc75                	j	1553a <__subdf3+0xb0>
   15a80:	00351813          	slli	a6,a0,0x3
   15a84:	01d31693          	slli	a3,t1,0x1d
   15a88:	00385813          	srli	a6,a6,0x3
   15a8c:	0106e833          	or	a6,a3,a6
   15a90:	00335793          	srli	a5,t1,0x3
   15a94:	bb8d                	j	15806 <__subdf3+0x37c>
   15a96:	41ee89b3          	sub	s3,t4,t5
   15a9a:	40670633          	sub	a2,a4,t1
   15a9e:	013eb933          	sltu	s2,t4,s3
   15aa2:	41260933          	sub	s2,a2,s2
   15aa6:	8436                	mv	s0,a3
   15aa8:	b455                	j	1554c <__subdf3+0xc2>
   15aaa:	060e                	slli	a2,a2,0x3
   15aac:	01d71813          	slli	a6,a4,0x1d
   15ab0:	820d                	srli	a2,a2,0x3
   15ab2:	00c86833          	or	a6,a6,a2
   15ab6:	00375793          	srli	a5,a4,0x3
   15aba:	b3b1                	j	15806 <__subdf3+0x37c>
   15abc:	41df09b3          	sub	s3,t5,t4
   15ac0:	40e307b3          	sub	a5,t1,a4
   15ac4:	013f3633          	sltu	a2,t5,s3
   15ac8:	40c78633          	sub	a2,a5,a2
   15acc:	00861793          	slli	a5,a2,0x8
   15ad0:	0a07d763          	bgez	a5,15b7e <__subdf3+0x6f4>
   15ad4:	41ee89b3          	sub	s3,t4,t5
   15ad8:	406707b3          	sub	a5,a4,t1
   15adc:	013ebeb3          	sltu	t4,t4,s3
   15ae0:	41d78633          	sub	a2,a5,t4
   15ae4:	8436                	mv	s0,a3
   15ae6:	bc7d                	j	155a4 <__subdf3+0x11a>
   15ae8:	01e36333          	or	t1,t1,t5
   15aec:	00603833          	snez	a6,t1
   15af0:	b3fd                	j	158de <__subdf3+0x454>
   15af2:	fe058813          	addi	a6,a1,-32
   15af6:	02000793          	li	a5,32
   15afa:	010359b3          	srl	s3,t1,a6
   15afe:	00f58a63          	beq	a1,a5,15b12 <__subdf3+0x688>
   15b02:	04000793          	li	a5,64
   15b06:	40b785b3          	sub	a1,a5,a1
   15b0a:	00b31333          	sll	t1,t1,a1
   15b0e:	006f6f33          	or	t5,t5,t1
   15b12:	01e03833          	snez	a6,t5
   15b16:	01386833          	or	a6,a6,s3
   15b1a:	b57d                	j	159c8 <__subdf3+0x53e>
   15b1c:	41ee89b3          	sub	s3,t4,t5
   15b20:	406707b3          	sub	a5,a4,t1
   15b24:	013ebeb3          	sltu	t4,t4,s3
   15b28:	41d78633          	sub	a2,a5,t4
   15b2c:	8436                	mv	s0,a3
   15b2e:	4485                	li	s1,1
   15b30:	b429                	j	1553a <__subdf3+0xb0>
   15b32:	00361813          	slli	a6,a2,0x3
   15b36:	01d71793          	slli	a5,a4,0x1d
   15b3a:	00385813          	srli	a6,a6,0x3
   15b3e:	00f86833          	or	a6,a6,a5
   15b42:	00375793          	srli	a5,a4,0x3
   15b46:	b195                	j	157aa <__subdf3+0x320>
   15b48:	01df09b3          	add	s3,t5,t4
   15b4c:	00e307b3          	add	a5,t1,a4
   15b50:	01e9bf33          	sltu	t5,s3,t5
   15b54:	01e78633          	add	a2,a5,t5
   15b58:	00861793          	slli	a5,a2,0x8
   15b5c:	c207d6e3          	bgez	a5,15788 <__subdf3+0x2fe>
   15b60:	ff8007b7          	lui	a5,0xff800
   15b64:	17fd                	addi	a5,a5,-1
   15b66:	8e7d                	and	a2,a2,a5
   15b68:	4485                	li	s1,1
   15b6a:	b939                	j	15788 <__subdf3+0x2fe>
   15b6c:	060e                	slli	a2,a2,0x3
   15b6e:	01d71813          	slli	a6,a4,0x1d
   15b72:	820d                	srli	a2,a2,0x3
   15b74:	00c86833          	or	a6,a6,a2
   15b78:	00375793          	srli	a5,a4,0x3
   15b7c:	b11d                	j	157a2 <__subdf3+0x318>
   15b7e:	00c9e833          	or	a6,s3,a2
   15b82:	d00806e3          	beqz	a6,1588e <__subdf3+0x404>
   15b86:	b109                	j	15788 <__subdf3+0x2fe>
   15b88:	fe058813          	addi	a6,a1,-32
   15b8c:	02000793          	li	a5,32
   15b90:	010359b3          	srl	s3,t1,a6
   15b94:	00f58a63          	beq	a1,a5,15ba8 <__subdf3+0x71e>
   15b98:	04000793          	li	a5,64
   15b9c:	40b785b3          	sub	a1,a5,a1
   15ba0:	00b31333          	sll	t1,t1,a1
   15ba4:	006f6f33          	or	t5,t5,t1
   15ba8:	01e03833          	snez	a6,t5
   15bac:	01386833          	or	a6,a6,s3
   15bb0:	b33d                	j	158de <__subdf3+0x454>
   15bb2:	4401                	li	s0,0
   15bb4:	7ff00713          	li	a4,2047
   15bb8:	000807b7          	lui	a5,0x80
   15bbc:	bc1d                	j	155f2 <__subdf3+0x168>
   15bbe:	01df09b3          	add	s3,t5,t4
   15bc2:	00e307b3          	add	a5,t1,a4
   15bc6:	01d9beb3          	sltu	t4,s3,t4
   15bca:	01d78633          	add	a2,a5,t4
   15bce:	bb69                	j	15968 <__subdf3+0x4de>

00015bd0 <__fixunsdfdi>:
__fixunsdfdi():
   15bd0:	0145d793          	srli	a5,a1,0x14
   15bd4:	001006b7          	lui	a3,0x100
   15bd8:	fff68713          	addi	a4,a3,-1 # fffff <MAINLOOP_COUNT+0x6d83f>
   15bdc:	7ff7f793          	andi	a5,a5,2047
   15be0:	3fe00613          	li	a2,1022
   15be4:	8f6d                	and	a4,a4,a1
   15be6:	81fd                	srli	a1,a1,0x1f
   15be8:	00f65363          	bge	a2,a5,15bee <__fixunsdfdi+0x1e>
   15bec:	c581                	beqz	a1,15bf4 <__fixunsdfdi+0x24>
   15bee:	4501                	li	a0,0
   15bf0:	4581                	li	a1,0
   15bf2:	8082                	ret
   15bf4:	43e00613          	li	a2,1086
   15bf8:	00f65563          	bge	a2,a5,15c02 <__fixunsdfdi+0x32>
   15bfc:	557d                	li	a0,-1
   15bfe:	55fd                	li	a1,-1
   15c00:	8082                	ret
   15c02:	43200613          	li	a2,1074
   15c06:	00d765b3          	or	a1,a4,a3
   15c0a:	00f65c63          	bge	a2,a5,15c22 <__fixunsdfdi+0x52>
   15c0e:	bad78713          	addi	a4,a5,-1107 # 7fbad <_data_lma+0x69b1d>
   15c12:	bcd78793          	addi	a5,a5,-1075
   15c16:	04074063          	bltz	a4,15c56 <__fixunsdfdi+0x86>
   15c1a:	00e515b3          	sll	a1,a0,a4
   15c1e:	4501                	li	a0,0
   15c20:	8082                	ret
   15c22:	43300693          	li	a3,1075
   15c26:	8e9d                	sub	a3,a3,a5
   15c28:	477d                	li	a4,31
   15c2a:	00d75b63          	bge	a4,a3,15c40 <__fixunsdfdi+0x70>
   15c2e:	41300713          	li	a4,1043
   15c32:	40f707b3          	sub	a5,a4,a5
   15c36:	00f5d7b3          	srl	a5,a1,a5
   15c3a:	4581                	li	a1,0
   15c3c:	853e                	mv	a0,a5
   15c3e:	8082                	ret
   15c40:	bed78713          	addi	a4,a5,-1043
   15c44:	00e59733          	sll	a4,a1,a4
   15c48:	00d55533          	srl	a0,a0,a3
   15c4c:	00a767b3          	or	a5,a4,a0
   15c50:	00d5d5b3          	srl	a1,a1,a3
   15c54:	b7e5                	j	15c3c <__fixunsdfdi+0x6c>
   15c56:	46fd                	li	a3,31
   15c58:	00155713          	srli	a4,a0,0x1
   15c5c:	8e9d                	sub	a3,a3,a5
   15c5e:	00d75733          	srl	a4,a4,a3
   15c62:	00f595b3          	sll	a1,a1,a5
   15c66:	8dd9                	or	a1,a1,a4
   15c68:	00f51533          	sll	a0,a0,a5
   15c6c:	8082                	ret

00015c6e <__floatundidf>:
__floatundidf():
   15c6e:	00b567b3          	or	a5,a0,a1
   15c72:	c3b1                	beqz	a5,15cb6 <__floatundidf+0x48>
   15c74:	1141                	addi	sp,sp,-16
   15c76:	c422                	sw	s0,8(sp)
   15c78:	c226                	sw	s1,4(sp)
   15c7a:	c04a                	sw	s2,0(sp)
   15c7c:	c606                	sw	ra,12(sp)
   15c7e:	84aa                	mv	s1,a0
   15c80:	892e                	mv	s2,a1
   15c82:	842e                	mv	s0,a1
   15c84:	c1b9                	beqz	a1,15cca <__floatundidf+0x5c>
   15c86:	852e                	mv	a0,a1
   15c88:	00000097          	auipc	ra,0x0
   15c8c:	17a080e7          	jalr	378(ra) # 15e02 <__clzsi2>
   15c90:	43e00693          	li	a3,1086
   15c94:	8e89                	sub	a3,a3,a0
   15c96:	43300793          	li	a5,1075
   15c9a:	06d7c763          	blt	a5,a3,15d08 <__floatundidf+0x9a>
   15c9e:	00c91793          	slli	a5,s2,0xc
   15ca2:	462d                	li	a2,11
   15ca4:	8726                	mv	a4,s1
   15ca6:	7ff6f693          	andi	a3,a3,2047
   15caa:	83b1                	srli	a5,a5,0xc
   15cac:	0ca65f63          	bge	a2,a0,15d8a <__floatundidf+0x11c>
   15cb0:	ff550613          	addi	a2,a0,-11 # 7ffff5 <MAINLOOP_COUNT+0x76d835>
   15cb4:	a825                	j	15cec <__floatundidf+0x7e>
   15cb6:	4781                	li	a5,0
   15cb8:	4681                	li	a3,0
   15cba:	07b2                	slli	a5,a5,0xc
   15cbc:	06d2                	slli	a3,a3,0x14
   15cbe:	83b1                	srli	a5,a5,0xc
   15cc0:	4701                	li	a4,0
   15cc2:	8fd5                	or	a5,a5,a3
   15cc4:	853a                	mv	a0,a4
   15cc6:	85be                	mv	a1,a5
   15cc8:	8082                	ret
   15cca:	00000097          	auipc	ra,0x0
   15cce:	138080e7          	jalr	312(ra) # 15e02 <__clzsi2>
   15cd2:	862a                	mv	a2,a0
   15cd4:	43e00693          	li	a3,1086
   15cd8:	02050513          	addi	a0,a0,32
   15cdc:	8e89                	sub	a3,a3,a0
   15cde:	02a00713          	li	a4,42
   15ce2:	7ff6f693          	andi	a3,a3,2047
   15ce6:	0ca74c63          	blt	a4,a0,15dbe <__floatundidf+0x150>
   15cea:	0655                	addi	a2,a2,21
   15cec:	02b00713          	li	a4,43
   15cf0:	8f09                	sub	a4,a4,a0
   15cf2:	00c917b3          	sll	a5,s2,a2
   15cf6:	00e4d733          	srl	a4,s1,a4
   15cfa:	8f5d                	or	a4,a4,a5
   15cfc:	00c71793          	slli	a5,a4,0xc
   15d00:	83b1                	srli	a5,a5,0xc
   15d02:	00c49733          	sll	a4,s1,a2
   15d06:	a051                	j	15d8a <__floatundidf+0x11c>
   15d08:	43600793          	li	a5,1078
   15d0c:	02d7d963          	bge	a5,a3,15d3e <__floatundidf+0xd0>
   15d10:	01850713          	addi	a4,a0,24
   15d14:	03850793          	addi	a5,a0,56
   15d18:	0c074763          	bltz	a4,15de6 <__floatundidf+0x178>
   15d1c:	00e49633          	sll	a2,s1,a4
   15d20:	4701                	li	a4,0
   15d22:	4421                	li	s0,8
   15d24:	8c09                	sub	s0,s0,a0
   15d26:	8f51                	or	a4,a4,a2
   15d28:	fe040793          	addi	a5,s0,-32 # 7ffe0 <_data_lma+0x69f50>
   15d2c:	00e03733          	snez	a4,a4
   15d30:	0807cf63          	bltz	a5,15dce <__floatundidf+0x160>
   15d34:	00f954b3          	srl	s1,s2,a5
   15d38:	4781                	li	a5,0
   15d3a:	8cd9                	or	s1,s1,a4
   15d3c:	843e                	mv	s0,a5
   15d3e:	47a1                	li	a5,8
   15d40:	06a7c163          	blt	a5,a0,15da2 <__floatundidf+0x134>
   15d44:	ff800737          	lui	a4,0xff800
   15d48:	177d                	addi	a4,a4,-1
   15d4a:	0074f613          	andi	a2,s1,7
   15d4e:	00e477b3          	and	a5,s0,a4
   15d52:	c605                	beqz	a2,15d7a <__floatundidf+0x10c>
   15d54:	00f4f613          	andi	a2,s1,15
   15d58:	4591                	li	a1,4
   15d5a:	02b60063          	beq	a2,a1,15d7a <__floatundidf+0x10c>
   15d5e:	00448613          	addi	a2,s1,4
   15d62:	009634b3          	sltu	s1,a2,s1
   15d66:	97a6                	add	a5,a5,s1
   15d68:	00879593          	slli	a1,a5,0x8
   15d6c:	0805d963          	bgez	a1,15dfe <__floatundidf+0x190>
   15d70:	43f00693          	li	a3,1087
   15d74:	8ff9                	and	a5,a5,a4
   15d76:	8e89                	sub	a3,a3,a0
   15d78:	84b2                	mv	s1,a2
   15d7a:	01d79713          	slli	a4,a5,0x1d
   15d7e:	808d                	srli	s1,s1,0x3
   15d80:	07a6                	slli	a5,a5,0x9
   15d82:	8f45                	or	a4,a4,s1
   15d84:	83b1                	srli	a5,a5,0xc
   15d86:	7ff6f693          	andi	a3,a3,2047
   15d8a:	40b2                	lw	ra,12(sp)
   15d8c:	4422                	lw	s0,8(sp)
   15d8e:	07b2                	slli	a5,a5,0xc
   15d90:	06d2                	slli	a3,a3,0x14
   15d92:	83b1                	srli	a5,a5,0xc
   15d94:	8fd5                	or	a5,a5,a3
   15d96:	4492                	lw	s1,4(sp)
   15d98:	4902                	lw	s2,0(sp)
   15d9a:	853a                	mv	a0,a4
   15d9c:	85be                	mv	a1,a5
   15d9e:	0141                	addi	sp,sp,16
   15da0:	8082                	ret
   15da2:	02800713          	li	a4,40
   15da6:	ff850613          	addi	a2,a0,-8
   15daa:	8f09                	sub	a4,a4,a0
   15dac:	00e4d733          	srl	a4,s1,a4
   15db0:	00c417b3          	sll	a5,s0,a2
   15db4:	00f76433          	or	s0,a4,a5
   15db8:	00c494b3          	sll	s1,s1,a2
   15dbc:	b761                	j	15d44 <__floatundidf+0xd6>
   15dbe:	ff560793          	addi	a5,a2,-11 # ff7ffff5 <R32_PB_PD_DRV+0xbf7fef21>
   15dc2:	00f497b3          	sll	a5,s1,a5
   15dc6:	07b2                	slli	a5,a5,0xc
   15dc8:	83b1                	srli	a5,a5,0xc
   15dca:	4701                	li	a4,0
   15dcc:	bf7d                	j	15d8a <__floatundidf+0x11c>
   15dce:	467d                	li	a2,31
   15dd0:	00191793          	slli	a5,s2,0x1
   15dd4:	8e01                	sub	a2,a2,s0
   15dd6:	00c797b3          	sll	a5,a5,a2
   15dda:	0084d4b3          	srl	s1,s1,s0
   15dde:	8cdd                	or	s1,s1,a5
   15de0:	008957b3          	srl	a5,s2,s0
   15de4:	bf99                	j	15d3a <__floatundidf+0xcc>
   15de6:	467d                	li	a2,31
   15de8:	8e1d                	sub	a2,a2,a5
   15dea:	0014d713          	srli	a4,s1,0x1
   15dee:	00c75733          	srl	a4,a4,a2
   15df2:	00f91633          	sll	a2,s2,a5
   15df6:	8e59                	or	a2,a2,a4
   15df8:	00f49733          	sll	a4,s1,a5
   15dfc:	b71d                	j	15d22 <__floatundidf+0xb4>
   15dfe:	84b2                	mv	s1,a2
   15e00:	bfad                	j	15d7a <__floatundidf+0x10c>

00015e02 <__clzsi2>:
__clzsi2():
   15e02:	67c1                	lui	a5,0x10
   15e04:	02f57e63          	bgeu	a0,a5,15e40 <__clzsi2+0x3e>
   15e08:	0ff00793          	li	a5,255
   15e0c:	02000713          	li	a4,32
   15e10:	00a7ec63          	bltu	a5,a0,15e28 <__clzsi2+0x26>
   15e14:	00000797          	auipc	a5,0x0
   15e18:	17c78793          	addi	a5,a5,380 # 15f90 <__clz_tab>
   15e1c:	97aa                	add	a5,a5,a0
   15e1e:	0007c503          	lbu	a0,0(a5)
   15e22:	40a70533          	sub	a0,a4,a0
   15e26:	8082                	ret
   15e28:	8121                	srli	a0,a0,0x8
   15e2a:	00000797          	auipc	a5,0x0
   15e2e:	16678793          	addi	a5,a5,358 # 15f90 <__clz_tab>
   15e32:	97aa                	add	a5,a5,a0
   15e34:	0007c503          	lbu	a0,0(a5)
   15e38:	4761                	li	a4,24
   15e3a:	40a70533          	sub	a0,a4,a0
   15e3e:	8082                	ret
   15e40:	010007b7          	lui	a5,0x1000
   15e44:	00f56e63          	bltu	a0,a5,15e60 <__clzsi2+0x5e>
   15e48:	8161                	srli	a0,a0,0x18
   15e4a:	00000797          	auipc	a5,0x0
   15e4e:	14678793          	addi	a5,a5,326 # 15f90 <__clz_tab>
   15e52:	97aa                	add	a5,a5,a0
   15e54:	0007c503          	lbu	a0,0(a5)
   15e58:	4721                	li	a4,8
   15e5a:	40a70533          	sub	a0,a4,a0
   15e5e:	8082                	ret
   15e60:	8141                	srli	a0,a0,0x10
   15e62:	00000797          	auipc	a5,0x0
   15e66:	12e78793          	addi	a5,a5,302 # 15f90 <__clz_tab>
   15e6a:	97aa                	add	a5,a5,a0
   15e6c:	0007c503          	lbu	a0,0(a5)
   15e70:	4741                	li	a4,16
   15e72:	40a70533          	sub	a0,a4,a0
   15e76:	8082                	ret

00015e78 <strlen>:
strlen():
   15e78:	87aa                	mv	a5,a0
   15e7a:	0785                	addi	a5,a5,1
   15e7c:	fff7c703          	lbu	a4,-1(a5)
   15e80:	ff6d                	bnez	a4,15e7a <strlen+0x2>
   15e82:	40a78533          	sub	a0,a5,a0
   15e86:	157d                	addi	a0,a0,-1
   15e88:	8082                	ret
   15e8a:	0000                	unimp
   15e8c:	2020                	fld	fs0,64(s0)
   15e8e:	bea1                	j	159e6 <__subdf3+0x55c>
   15e90:	7355                	lui	t1,0xffff5
   15e92:	7265                	lui	tp,0xffff9
   15e94:	e1cc                	fsw	fa1,4(a1)
   15e96:	beca                	fsd	fs2,376(sp)
   15e98:	bfa1                	j	15df0 <__floatundidf+0x182>
   15e9a:	abbdbaa3          	0xabbdbaa3
   15e9e:	f8bd                	bnez	s1,15e14 <__clzsi2+0x12>
   15ea0:	ebc8                	fsw	fa0,20(a5)
   15ea2:	7355                	lui	t1,0xffff5
   15ea4:	7265                	lui	tp,0xffff9
   15ea6:	c4b5                	beqz	s1,15f12 <strlen+0x9a>
   15ea8:	616d                	addi	sp,sp,240
   15eaa:	6e69                	lui	t3,0x1a
   15eac:	afba                	fsd	fa4,472(sp)
   15eae:	fdca                	fsw	fs2,248(sp)
   15eb0:	b4d6                	fsd	fs5,104(sp)
   15eb2:	d0d0                	sw	a2,36(s1)
   15eb4:	2e2e                	fld	ft8,200(sp)
   15eb6:	0d2e                	slli	s10,s10,0xb
   15eb8:	0a0a                	slli	s4,s4,0x2
   15eba:	0000                	unimp
   15ebc:	e680                	fsw	fs0,8(a3)
   15ebe:	ffff                	0xffff
   15ec0:	e87e                	fsw	ft11,16(sp)
   15ec2:	ffff                	0xffff
   15ec4:	e87e                	fsw	ft11,16(sp)
   15ec6:	ffff                	0xffff
   15ec8:	e87e                	fsw	ft11,16(sp)
   15eca:	ffff                	0xffff
   15ecc:	e87e                	fsw	ft11,16(sp)
   15ece:	ffff                	0xffff
   15ed0:	e87e                	fsw	ft11,16(sp)
   15ed2:	ffff                	0xffff
   15ed4:	e87e                	fsw	ft11,16(sp)
   15ed6:	ffff                	0xffff
   15ed8:	e87e                	fsw	ft11,16(sp)
   15eda:	ffff                	0xffff
   15edc:	e87e                	fsw	ft11,16(sp)
   15ede:	ffff                	0xffff
   15ee0:	e87e                	fsw	ft11,16(sp)
   15ee2:	ffff                	0xffff
   15ee4:	e7ac                	fsw	fa1,72(a5)
   15ee6:	ffff                	0xffff
   15ee8:	e7ee                	fsw	fs11,204(sp)
   15eea:	ffff                	0xffff
   15eec:	e4ea                	fsw	fs10,72(sp)
   15eee:	ffff                	0xffff
   15ef0:	e87e                	fsw	ft11,16(sp)
   15ef2:	ffff                	0xffff
   15ef4:	e598                	fsw	fa4,8(a1)
   15ef6:	ffff                	0xffff
   15ef8:	e87e                	fsw	ft11,16(sp)
   15efa:	ffff                	0xffff
   15efc:	e87e                	fsw	ft11,16(sp)
   15efe:	ffff                	0xffff
   15f00:	e4ea                	fsw	fs10,72(sp)
   15f02:	ffff                	0xffff
   15f04:	e87e                	fsw	ft11,16(sp)
   15f06:	ffff                	0xffff
   15f08:	e87e                	fsw	ft11,16(sp)
   15f0a:	ffff                	0xffff
   15f0c:	e87e                	fsw	ft11,16(sp)
   15f0e:	ffff                	0xffff
   15f10:	e87e                	fsw	ft11,16(sp)
   15f12:	ffff                	0xffff
   15f14:	e872                	fsw	ft8,16(sp)
   15f16:	ffff                	0xffff
   15f18:	e76e                	fsw	fs11,140(sp)
   15f1a:	ffff                	0xffff
   15f1c:	e7b8                	fsw	fa4,72(a5)
   15f1e:	ffff                	0xffff
   15f20:	e87e                	fsw	ft11,16(sp)
   15f22:	ffff                	0xffff
   15f24:	e87e                	fsw	ft11,16(sp)
   15f26:	ffff                	0xffff
   15f28:	e804                	fsw	fs1,16(s0)
   15f2a:	ffff                	0xffff
   15f2c:	e87e                	fsw	ft11,16(sp)
   15f2e:	ffff                	0xffff
   15f30:	e7c4                	fsw	fs1,12(a5)
   15f32:	ffff                	0xffff
   15f34:	e87e                	fsw	ft11,16(sp)
   15f36:	ffff                	0xffff
   15f38:	e87e                	fsw	ft11,16(sp)
   15f3a:	ffff                	0xffff
   15f3c:	e680                	fsw	fs0,8(a3)
   15f3e:	ffff                	0xffff
   15f40:	0000                	unimp
   15f42:	0000                	unimp
   15f44:	0000                	unimp
   15f46:	4024                	lw	s1,64(s0)
   15f48:	999a                	add	s3,s3,t1
   15f4a:	9999                	andi	a1,a1,-26
   15f4c:	9999                	andi	a1,a1,-26
   15f4e:	3fb9                	jal	15eac <strlen+0x34>
   15f50:	f28a                	fsw	ft2,100(sp)
   15f52:	ffff                	0xffff
   15f54:	f174                	fsw	fa3,100(a0)
   15f56:	ffff                	0xffff
   15f58:	f174                	fsw	fa3,100(a0)
   15f5a:	ffff                	0xffff
   15f5c:	f172                	fsw	ft8,160(sp)
   15f5e:	ffff                	0xffff
   15f60:	f17a                	fsw	ft10,160(sp)
   15f62:	ffff                	0xffff
   15f64:	f17a                	fsw	ft10,160(sp)
   15f66:	ffff                	0xffff
   15f68:	f140                	fsw	fs0,36(a0)
   15f6a:	ffff                	0xffff
   15f6c:	f172                	fsw	ft8,160(sp)
   15f6e:	ffff                	0xffff
   15f70:	f17a                	fsw	ft10,160(sp)
   15f72:	ffff                	0xffff
   15f74:	f140                	fsw	fs0,36(a0)
   15f76:	ffff                	0xffff
   15f78:	f17a                	fsw	ft10,160(sp)
   15f7a:	ffff                	0xffff
   15f7c:	f172                	fsw	ft8,160(sp)
   15f7e:	ffff                	0xffff
   15f80:	f276                	fsw	ft9,36(sp)
   15f82:	ffff                	0xffff
   15f84:	f276                	fsw	ft9,36(sp)
   15f86:	ffff                	0xffff
   15f88:	f276                	fsw	ft9,36(sp)
   15f8a:	ffff                	0xffff
   15f8c:	f140                	fsw	fs0,36(a0)
   15f8e:	ffff                	0xffff

00015f90 <__clz_tab>:
   15f90:	0100 0202 0303 0303 0404 0404 0404 0404     ................
   15fa0:	0505 0505 0505 0505 0505 0505 0505 0505     ................
   15fb0:	0606 0606 0606 0606 0606 0606 0606 0606     ................
   15fc0:	0606 0606 0606 0606 0606 0606 0606 0606     ................
   15fd0:	0707 0707 0707 0707 0707 0707 0707 0707     ................
   15fe0:	0707 0707 0707 0707 0707 0707 0707 0707     ................
   15ff0:	0707 0707 0707 0707 0707 0707 0707 0707     ................
   16000:	0707 0707 0707 0707 0707 0707 0707 0707     ................
   16010:	0808 0808 0808 0808 0808 0808 0808 0808     ................
   16020:	0808 0808 0808 0808 0808 0808 0808 0808     ................
   16030:	0808 0808 0808 0808 0808 0808 0808 0808     ................
   16040:	0808 0808 0808 0808 0808 0808 0808 0808     ................
   16050:	0808 0808 0808 0808 0808 0808 0808 0808     ................
   16060:	0808 0808 0808 0808 0808 0808 0808 0808     ................
   16070:	0808 0808 0808 0808 0808 0808 0808 0808     ................
   16080:	0808 0808 0808 0808 0808 0808 0808 0808     ................
